
========================================================================

** ELF Header Information

    File Name: .\output\HD_Drone.axf

    Machine class: ELFCLASS32 (32-bit)
    Data encoding: ELFDATA2LSB (Little endian)
    Header version: EV_CURRENT (Current version)
    Operating System ABI: none
    ABI Version: 0
    File Type: ET_EXEC (Executable) (2)
    Machine: EM_ARM (ARM)

    Image Entry point: 0x00000d3d
    Flags: EF_ARM_HASENTRY + EF_ARM_ABI_FLOAT_SOFT (0x05000202)

    ARM ELF revision: 5 (ABI version 2)

    Conforms to Soft float procedure-call standard

    Built with
    Component: ARM Compiler 5.06 update 2 (build 183) Tool: armasm [4d35b2]
    Component: ARM Compiler 5.06 update 2 (build 183) Tool: armlink [4d35b7]

    Header size: 52 bytes (0x34)
    Program header entry size: 32 bytes (0x20)
    Section header entry size: 40 bytes (0x28)

    Program header entries: 1
    Section header entries: 16

    Program header offset: 291296 (0x000471e0)
    Section header offset: 291328 (0x00047200)

    Section header string table index: 15

========================================================================

** Program header #0 (PT_LOAD) [PF_X + PF_W + PF_R + PF_ARM_ENTRY]
    Size : 17264 bytes (16792 bytes in file)
    Virtual address: 0x00000000 (Alignment 8)


========================================================================

** Section #1 'ER_RO' (SHT_PROGBITS) [SHF_ALLOC + SHF_EXECINSTR]
    Size   : 16608 bytes (alignment 8)
    Address: 0x00000000

    $d.realdata
    RESET
    __Vectors
        0x00000000:    20000dfc    ...     DCD    536874492
        0x00000004:    00000d3d    =...    DCD    3389
        0x00000008:    00000d41    A...    DCD    3393
        0x0000000c:    000000d5    ....    DCD    213
        0x00000010:    00000000    ....    DCD    0
        0x00000014:    00000000    ....    DCD    0
        0x00000018:    00000000    ....    DCD    0
        0x0000001c:    00000000    ....    DCD    0
        0x00000020:    00000000    ....    DCD    0
        0x00000024:    00000000    ....    DCD    0
        0x00000028:    00000000    ....    DCD    0
        0x0000002c:    00000d45    E...    DCD    3397
        0x00000030:    00000000    ....    DCD    0
        0x00000034:    00000000    ....    DCD    0
        0x00000038:    00000d47    G...    DCD    3399
        0x0000003c:    00000d49    I...    DCD    3401
        0x00000040:    00000d4b    K...    DCD    3403
        0x00000044:    00000d4b    K...    DCD    3403
        0x00000048:    00000d4b    K...    DCD    3403
        0x0000004c:    00000d4b    K...    DCD    3403
        0x00000050:    00000d4b    K...    DCD    3403
        0x00000054:    00000d4b    K...    DCD    3403
        0x00000058:    00000d4b    K...    DCD    3403
        0x0000005c:    00000d4b    K...    DCD    3403
        0x00000060:    00000d4b    K...    DCD    3403
        0x00000064:    00001339    9...    DCD    4921
        0x00000068:    00000d4b    K...    DCD    3403
        0x0000006c:    00000d4b    K...    DCD    3403
        0x00000070:    00000d4b    K...    DCD    3403
        0x00000074:    00000d4b    K...    DCD    3403
        0x00000078:    00000d4b    K...    DCD    3403
        0x0000007c:    00000d4b    K...    DCD    3403
        0x00000080:    00000d4b    K...    DCD    3403
        0x00000084:    00000d4b    K...    DCD    3403
        0x00000088:    00000d4b    K...    DCD    3403
        0x0000008c:    00000d4b    K...    DCD    3403
        0x00000090:    00000d4b    K...    DCD    3403
        0x00000094:    00000d4b    K...    DCD    3403
        0x00000098:    00000d4b    K...    DCD    3403
        0x0000009c:    00000d4b    K...    DCD    3403
        0x000000a0:    00000d4b    K...    DCD    3403
        0x000000a4:    00000d4b    K...    DCD    3403
        0x000000a8:    00000d4b    K...    DCD    3403
        0x000000ac:    00000d4b    K...    DCD    3403
        0x000000b0:    00000d4b    K...    DCD    3403
        0x000000b4:    00000d4b    K...    DCD    3403
        0x000000b8:    00000d4b    K...    DCD    3403
        0x000000bc:    00000d4b    K...    DCD    3403
    $t
    .ARM.Collect$$$$00000000
    .ARM.Collect$$$$00000001
    __main
    _main_stk
        0x000000c0:    4803        .H      LDR      r0,__lit__00000000 ; [0xd0] = 0x20000dfc
        0x000000c2:    4685        .F      MOV      sp,r0
    .ARM.Collect$$$$00000004
    _main_scatterload
        0x000000c4:    f002fc62    ..b.    BL       __scatterload ; 0x298c
    .ARM.Collect$$$$00000008
    .ARM.Collect$$$$0000000A
    .ARM.Collect$$$$0000000B
    __main_after_scatterload
    _main_clock
    _main_cpp_init
    _main_init
        0x000000c8:    4800        .H      LDR      r0,[pc,#0] ; [0xcc] = 0xc55
        0x000000ca:    4700        .G      BX       r0
    $d
        0x000000cc:    00000c55    U...    DCD    3157
    .ARM.Collect$$$$00002712
    __lit__00000000
    .ARM.Collect$$$$0000000D
    .ARM.Collect$$$$0000000F
    __rt_final_cpp
    __rt_final_exit
        0x000000d0:    20000dfc    ...     DCD    536874492
    $t
    .emb_text
    HardFault_Handler
        0x000000d4:    2004        .       MOVS     r0,#4
        0x000000d6:    4671        qF      MOV      r1,lr
        0x000000d8:    4208        .B      TST      r0,r1
        0x000000da:    d002        ..      BEQ      0xe2 ; HardFault_Handler + 14
        0x000000dc:    f3ef8009    ....    MRS      r0,PSP
        0x000000e0:    e001        ..      B        0xe6 ; HardFault_Handler + 18
        0x000000e2:    f3ef8008    ....    MRS      r0,MSP
        0x000000e6:    4671        qF      MOV      r1,lr
        0x000000e8:    4a00        .J      LDR      r2,[pc,#0] ; [0xec] = 0x1ebf
        0x000000ea:    4710        .G      BX       r2
    $d
        0x000000ec:    00001ebf    ....    DCD    7871
    $t
    .text
    configure_fifo
        0x000000f0:    b510        ..      PUSH     {r4,lr}
        0x000000f2:    22c0        ."      MOVS     r2,#0xc0
        0x000000f4:    2147        G!      MOVS     r1,#0x47
        0x000000f6:    20d0        .       MOVS     r0,#0xd0
        0x000000f8:    f001fc56    ..V.    BL       I2C_WriteByte ; 0x19a8
        0x000000fc:    217d        }!      MOVS     r1,#0x7d
        0x000000fe:    00c9        ..      LSLS     r1,r1,#3
        0x00000100:    489c        .H      LDR      r0,[pc,#624] ; [0x374] = 0x40010000
        0x00000102:    f001ff83    ....    BL       TIMER_Delay ; 0x200c
        0x00000106:    22b0        ."      MOVS     r2,#0xb0
        0x00000108:    217e        ~!      MOVS     r1,#0x7e
        0x0000010a:    20d0        .       MOVS     r0,#0xd0
        0x0000010c:    f001fc4c    ..L.    BL       I2C_WriteByte ; 0x19a8
        0x00000110:    2001        .       MOVS     r0,#1
        0x00000112:    bd10        ..      POP      {r4,pc}
    configure_gyro
        0x00000114:    b570        p.      PUSH     {r4-r6,lr}
        0x00000116:    222c        ,"      MOVS     r2,#0x2c
        0x00000118:    2142        B!      MOVS     r1,#0x42
        0x0000011a:    20d0        .       MOVS     r0,#0xd0
        0x0000011c:    f001fc44    ..D.    BL       I2C_WriteByte ; 0x19a8
        0x00000120:    247d        }$      MOVS     r4,#0x7d
        0x00000122:    4d94        .M      LDR      r5,[pc,#592] ; [0x374] = 0x40010000
        0x00000124:    00e4        ..      LSLS     r4,r4,#3
        0x00000126:    4621        !F      MOV      r1,r4
        0x00000128:    4628        (F      MOV      r0,r5
        0x0000012a:    f001ff6f    ..o.    BL       TIMER_Delay ; 0x200c
        0x0000012e:    2201        ."      MOVS     r2,#1
        0x00000130:    2143        C!      MOVS     r1,#0x43
        0x00000132:    20d0        .       MOVS     r0,#0xd0
        0x00000134:    f001fc38    ..8.    BL       I2C_WriteByte ; 0x19a8
        0x00000138:    4621        !F      MOV      r1,r4
        0x0000013a:    4628        (F      MOV      r0,r5
        0x0000013c:    f001ff66    ..f.    BL       TIMER_Delay ; 0x200c
        0x00000140:    2000        .       MOVS     r0,#0
        0x00000142:    498d        .I      LDR      r1,[pc,#564] ; [0x378] = 0x3f9f4000
        0x00000144:    f000feaa    ....    BL       Rad ; 0xe9c
        0x00000148:    f002faf0    ....    BL       __aeabi_d2f ; 0x272c
        0x0000014c:    498b        .I      LDR      r1,[pc,#556] ; [0x37c] = 0x20000000
        0x0000014e:    6048        H`      STR      r0,[r1,#4]
        0x00000150:    2001        .       MOVS     r0,#1
        0x00000152:    bd70        p.      POP      {r4-r6,pc}
    configure_accel
        0x00000154:    b570        p.      PUSH     {r4-r6,lr}
        0x00000156:    222c        ,"      MOVS     r2,#0x2c
        0x00000158:    2140        @!      MOVS     r1,#0x40
        0x0000015a:    20d0        .       MOVS     r0,#0xd0
        0x0000015c:    f001fc24    ..$.    BL       I2C_WriteByte ; 0x19a8
        0x00000160:    247d        }$      MOVS     r4,#0x7d
        0x00000162:    4d84        .M      LDR      r5,[pc,#528] ; [0x374] = 0x40010000
        0x00000164:    00e4        ..      LSLS     r4,r4,#3
        0x00000166:    4621        !F      MOV      r1,r4
        0x00000168:    4628        (F      MOV      r0,r5
        0x0000016a:    f001ff4f    ..O.    BL       TIMER_Delay ; 0x200c
        0x0000016e:    2205        ."      MOVS     r2,#5
        0x00000170:    2141        A!      MOVS     r1,#0x41
        0x00000172:    20d0        .       MOVS     r0,#0xd0
        0x00000174:    f001fc18    ....    BL       I2C_WriteByte ; 0x19a8
        0x00000178:    4621        !F      MOV      r1,r4
        0x0000017a:    4628        (F      MOV      r0,r5
        0x0000017c:    f001ff46    ..F.    BL       TIMER_Delay ; 0x200c
        0x00000180:    497e        ~I      LDR      r1,[pc,#504] ; [0x37c] = 0x20000000
        0x00000182:    487f        .H      LDR      r0,[pc,#508] ; [0x380] = 0x3a9ce80a
        0x00000184:    6008        .`      STR      r0,[r1,#0]
        0x00000186:    2001        .       MOVS     r0,#1
        0x00000188:    bd70        p.      POP      {r4-r6,pc}
    bmi160_init
        0x0000018a:    b5f8        ..      PUSH     {r3-r7,lr}
        0x0000018c:    4d79        yM      LDR      r5,[pc,#484] ; [0x374] = 0x40010000
        0x0000018e:    2600        .&      MOVS     r6,#0
        0x00000190:    4634        4F      MOV      r4,r6
        0x00000192:    497c        |I      LDR      r1,[pc,#496] ; [0x384] = 0x2710
        0x00000194:    4628        (F      MOV      r0,r5
        0x00000196:    f001ff39    ..9.    BL       TIMER_Delay ; 0x200c
        0x0000019a:    277d        }'      MOVS     r7,#0x7d
        0x0000019c:    017f        ..      LSLS     r7,r7,#5
        0x0000019e:    22b6        ."      MOVS     r2,#0xb6
        0x000001a0:    217e        ~!      MOVS     r1,#0x7e
        0x000001a2:    20d0        .       MOVS     r0,#0xd0
        0x000001a4:    f001fc00    ....    BL       I2C_WriteByte ; 0x19a8
        0x000001a8:    4977        wI      LDR      r1,[pc,#476] ; [0x388] = 0x186a0
        0x000001aa:    4628        (F      MOV      r0,r5
        0x000001ac:    f001ff2e    ....    BL       TIMER_Delay ; 0x200c
        0x000001b0:    2100        .!      MOVS     r1,#0
        0x000001b2:    20d0        .       MOVS     r0,#0xd0
        0x000001b4:    f001fc43    ..C.    BL       I2C_ReadByte ; 0x1a3e
        0x000001b8:    28d1        .(      CMP      r0,#0xd1
        0x000001ba:    d11f        ..      BNE      0x1fc ; bmi160_init + 114
        0x000001bc:    2211        ."      MOVS     r2,#0x11
        0x000001be:    217e        ~!      MOVS     r1,#0x7e
        0x000001c0:    20d0        .       MOVS     r0,#0xd0
        0x000001c2:    f001fbf1    ....    BL       I2C_WriteByte ; 0x19a8
        0x000001c6:    4639        9F      MOV      r1,r7
        0x000001c8:    4628        (F      MOV      r0,r5
        0x000001ca:    f001ff1f    ....    BL       TIMER_Delay ; 0x200c
        0x000001ce:    2215        ."      MOVS     r2,#0x15
        0x000001d0:    217e        ~!      MOVS     r1,#0x7e
        0x000001d2:    20d0        .       MOVS     r0,#0xd0
        0x000001d4:    f001fbe8    ....    BL       I2C_WriteByte ; 0x19a8
        0x000001d8:    496c        lI      LDR      r1,[pc,#432] ; [0x38c] = 0x13c68
        0x000001da:    4628        (F      MOV      r0,r5
        0x000001dc:    f001ff16    ....    BL       TIMER_Delay ; 0x200c
        0x000001e0:    f7ffffb8    ....    BL       configure_accel ; 0x154
        0x000001e4:    2800        .(      CMP      r0,#0
        0x000001e6:    d009        ..      BEQ      0x1fc ; bmi160_init + 114
        0x000001e8:    f7ffff94    ....    BL       configure_gyro ; 0x114
        0x000001ec:    2800        .(      CMP      r0,#0
        0x000001ee:    d005        ..      BEQ      0x1fc ; bmi160_init + 114
        0x000001f0:    f7ffff7e    ..~.    BL       configure_fifo ; 0xf0
        0x000001f4:    2800        .(      CMP      r0,#0
        0x000001f6:    d001        ..      BEQ      0x1fc ; bmi160_init + 114
        0x000001f8:    2601        .&      MOVS     r6,#1
        0x000001fa:    e003        ..      B        0x204 ; bmi160_init + 122
        0x000001fc:    1c64        d.      ADDS     r4,r4,#1
        0x000001fe:    b2e4        ..      UXTB     r4,r4
        0x00000200:    2c05        .,      CMP      r4,#5
        0x00000202:    d3cc        ..      BCC      0x19e ; bmi160_init + 20
        0x00000204:    4630        0F      MOV      r0,r6
        0x00000206:    bdf8        ..      POP      {r3-r7,pc}
    read_fifo
        0x00000208:    b5f0        ..      PUSH     {r4-r7,lr}
        0x0000020a:    b0ff        ..      SUB      sp,sp,#0x1fc
        0x0000020c:    b0ff        ..      SUB      sp,sp,#0x1fc
        0x0000020e:    4605        .F      MOV      r5,r0
        0x00000210:    b08f        ..      SUB      sp,sp,#0x3c
        0x00000212:    2000        .       MOVS     r0,#0
        0x00000214:    9005        ..      STR      r0,[sp,#0x14]
        0x00000216:    9007        ..      STR      r0,[sp,#0x1c]
        0x00000218:    9008        ..      STR      r0,[sp,#0x20]
        0x0000021a:    9004        ..      STR      r0,[sp,#0x10]
        0x0000021c:    9002        ..      STR      r0,[sp,#8]
        0x0000021e:    9003        ..      STR      r0,[sp,#0xc]
        0x00000220:    9000        ..      STR      r0,[sp,#0]
        0x00000222:    4604        .F      MOV      r4,r0
        0x00000224:    9006        ..      STR      r0,[sp,#0x18]
        0x00000226:    9009        ..      STR      r0,[sp,#0x24]
        0x00000228:    2001        .       MOVS     r0,#1
        0x0000022a:    900a        ..      STR      r0,[sp,#0x28]
        0x0000022c:    2302        .#      MOVS     r3,#2
        0x0000022e:    aa06        ..      ADD      r2,sp,#0x18
        0x00000230:    2122        "!      MOVS     r1,#0x22
        0x00000232:    20d0        .       MOVS     r0,#0xd0
        0x00000234:    f001fc73    ..s.    BL       I2C_SequentialRead ; 0x1b1e
        0x00000238:    4669        iF      MOV      r1,sp
        0x0000023a:    7e48        H~      LDRB     r0,[r1,#0x19]
        0x0000023c:    7e09        .~      LDRB     r1,[r1,#0x18]
        0x0000023e:    0740        @.      LSLS     r0,r0,#29
        0x00000240:    0d40        @.      LSRS     r0,r0,#21
        0x00000242:    4308        .C      ORRS     r0,r0,r1
        0x00000244:    9001        ..      STR      r0,[sp,#4]
        0x00000246:    d009        ..      BEQ      0x25c ; read_fifo + 84
        0x00000248:    462e        .F      MOV      r6,r5
        0x0000024a:    3640        @6      ADDS     r6,r6,#0x40
        0x0000024c:    9801        ..      LDR      r0,[sp,#4]
        0x0000024e:    28f0        .(      CMP      r0,#0xf0
        0x00000250:    d90a        ..      BLS      0x268 ; read_fifo + 96
        0x00000252:    38f0        .8      SUBS     r0,r0,#0xf0
        0x00000254:    b287        ..      UXTH     r7,r0
        0x00000256:    20f0        .       MOVS     r0,#0xf0
        0x00000258:    9001        ..      STR      r0,[sp,#4]
        0x0000025a:    e006        ..      B        0x26a ; read_fifo + 98
        0x0000025c:    2000        .       MOVS     r0,#0
        0x0000025e:    900a        ..      STR      r0,[sp,#0x28]
        0x00000260:    b07f        ..      ADD      sp,sp,#0x1fc
        0x00000262:    b07f        ..      ADD      sp,sp,#0x1fc
        0x00000264:    b00f        ..      ADD      sp,sp,#0x3c
        0x00000266:    bdf0        ..      POP      {r4-r7,pc}
        0x00000268:    2700        .'      MOVS     r7,#0
        0x0000026a:    4603        .F      MOV      r3,r0
        0x0000026c:    aa0c        ..      ADD      r2,sp,#0x30
        0x0000026e:    2124        $!      MOVS     r1,#0x24
        0x00000270:    20d0        .       MOVS     r0,#0xd0
        0x00000272:    f001fc54    ..T.    BL       I2C_SequentialRead ; 0x1b1e
        0x00000276:    2f00        ./      CMP      r7,#0
        0x00000278:    d005        ..      BEQ      0x286 ; read_fifo + 126
        0x0000027a:    22b0        ."      MOVS     r2,#0xb0
        0x0000027c:    217e        ~!      MOVS     r1,#0x7e
        0x0000027e:    20d0        .       MOVS     r0,#0xd0
        0x00000280:    f001fb92    ....    BL       I2C_WriteByte ; 0x19a8
        0x00000284:    2700        .'      MOVS     r7,#0
        0x00000286:    210c        .!      MOVS     r1,#0xc
        0x00000288:    9801        ..      LDR      r0,[sp,#4]
        0x0000028a:    f001ff37    ..7.    BL       __aeabi_uidiv ; 0x20fc
        0x0000028e:    b2c0        ..      UXTB     r0,r0
        0x00000290:    900b        ..      STR      r0,[sp,#0x2c]
        0x00000292:    e043        C.      B        0x31c ; read_fifo + 276
        0x00000294:    9909        ..      LDR      r1,[sp,#0x24]
        0x00000296:    a80c        ..      ADD      r0,sp,#0x30
        0x00000298:    1841        A.      ADDS     r1,r0,r1
        0x0000029a:    7848        Hx      LDRB     r0,[r1,#1]
        0x0000029c:    780a        .x      LDRB     r2,[r1,#0]
        0x0000029e:    0200        ..      LSLS     r0,r0,#8
        0x000002a0:    4310        .C      ORRS     r0,r0,r2
        0x000002a2:    b200        ..      SXTH     r0,r0
        0x000002a4:    8030        0.      STRH     r0,[r6,#0]
        0x000002a6:    9001        ..      STR      r0,[sp,#4]
        0x000002a8:    78c8        .x      LDRB     r0,[r1,#3]
        0x000002aa:    788a        .x      LDRB     r2,[r1,#2]
        0x000002ac:    0200        ..      LSLS     r0,r0,#8
        0x000002ae:    4310        .C      ORRS     r0,r0,r2
        0x000002b0:    b200        ..      SXTH     r0,r0
        0x000002b2:    8070        p.      STRH     r0,[r6,#2]
        0x000002b4:    4686        .F      MOV      lr,r0
        0x000002b6:    7948        Hy      LDRB     r0,[r1,#5]
        0x000002b8:    790a        .y      LDRB     r2,[r1,#4]
        0x000002ba:    0200        ..      LSLS     r0,r0,#8
        0x000002bc:    4310        .C      ORRS     r0,r0,r2
        0x000002be:    b200        ..      SXTH     r0,r0
        0x000002c0:    80b0        ..      STRH     r0,[r6,#4]
        0x000002c2:    4684        .F      MOV      r12,r0
        0x000002c4:    79c8        .y      LDRB     r0,[r1,#7]
        0x000002c6:    798a        .y      LDRB     r2,[r1,#6]
        0x000002c8:    0200        ..      LSLS     r0,r0,#8
        0x000002ca:    4310        .C      ORRS     r0,r0,r2
        0x000002cc:    b200        ..      SXTH     r0,r0
        0x000002ce:    8028        (.      STRH     r0,[r5,#0]
        0x000002d0:    7a4a        Jz      LDRB     r2,[r1,#9]
        0x000002d2:    7a0b        .z      LDRB     r3,[r1,#8]
        0x000002d4:    0212        ..      LSLS     r2,r2,#8
        0x000002d6:    431a        .C      ORRS     r2,r2,r3
        0x000002d8:    b212        ..      SXTH     r2,r2
        0x000002da:    806a        j.      STRH     r2,[r5,#2]
        0x000002dc:    7acb        .z      LDRB     r3,[r1,#0xb]
        0x000002de:    7a89        .z      LDRB     r1,[r1,#0xa]
        0x000002e0:    021b        ..      LSLS     r3,r3,#8
        0x000002e2:    430b        .C      ORRS     r3,r3,r1
        0x000002e4:    b219        ..      SXTH     r1,r3
        0x000002e6:    80a9        ..      STRH     r1,[r5,#4]
        0x000002e8:    9b05        ..      LDR      r3,[sp,#0x14]
        0x000002ea:    181b        ..      ADDS     r3,r3,r0
        0x000002ec:    9807        ..      LDR      r0,[sp,#0x1c]
        0x000002ee:    9305        ..      STR      r3,[sp,#0x14]
        0x000002f0:    1882        ..      ADDS     r2,r0,r2
        0x000002f2:    9207        ..      STR      r2,[sp,#0x1c]
        0x000002f4:    9a08        ..      LDR      r2,[sp,#0x20]
        0x000002f6:    9801        ..      LDR      r0,[sp,#4]
        0x000002f8:    1851        Q.      ADDS     r1,r2,r1
        0x000002fa:    9108        ..      STR      r1,[sp,#0x20]
        0x000002fc:    9902        ..      LDR      r1,[sp,#8]
        0x000002fe:    1809        ..      ADDS     r1,r1,r0
        0x00000300:    9102        ..      STR      r1,[sp,#8]
        0x00000302:    9903        ..      LDR      r1,[sp,#0xc]
        0x00000304:    4471        qD      ADD      r1,r1,lr
        0x00000306:    9103        ..      STR      r1,[sp,#0xc]
        0x00000308:    9904        ..      LDR      r1,[sp,#0x10]
        0x0000030a:    4461        aD      ADD      r1,r1,r12
        0x0000030c:    9104        ..      STR      r1,[sp,#0x10]
        0x0000030e:    9809        ..      LDR      r0,[sp,#0x24]
        0x00000310:    300c        .0      ADDS     r0,r0,#0xc
        0x00000312:    b281        ..      UXTH     r1,r0
        0x00000314:    1c64        d.      ADDS     r4,r4,#1
        0x00000316:    980b        ..      LDR      r0,[sp,#0x2c]
        0x00000318:    b2e4        ..      UXTB     r4,r4
        0x0000031a:    9109        ..      STR      r1,[sp,#0x24]
        0x0000031c:    4284        .B      CMP      r4,r0
        0x0000031e:    d3b9        ..      BCC      0x294 ; read_fifo + 140
        0x00000320:    9800        ..      LDR      r0,[sp,#0]
        0x00000322:    1900        ..      ADDS     r0,r0,r4
        0x00000324:    b2c0        ..      UXTB     r0,r0
        0x00000326:    9000        ..      STR      r0,[sp,#0]
        0x00000328:    2f00        ./      CMP      r7,#0
        0x0000032a:    d002        ..      BEQ      0x332 ; read_fifo + 298
        0x0000032c:    2400        .$      MOVS     r4,#0
        0x0000032e:    9701        ..      STR      r7,[sp,#4]
        0x00000330:    e78c        ..      B        0x24c ; read_fifo + 68
        0x00000332:    9900        ..      LDR      r1,[sp,#0]
        0x00000334:    9805        ..      LDR      r0,[sp,#0x14]
        0x00000336:    f001fef7    ....    BL       __aeabi_idiv ; 0x2128
        0x0000033a:    80e8        ..      STRH     r0,[r5,#6]
        0x0000033c:    9900        ..      LDR      r1,[sp,#0]
        0x0000033e:    9807        ..      LDR      r0,[sp,#0x1c]
        0x00000340:    f001fef2    ....    BL       __aeabi_idiv ; 0x2128
        0x00000344:    8128        (.      STRH     r0,[r5,#8]
        0x00000346:    9900        ..      LDR      r1,[sp,#0]
        0x00000348:    9808        ..      LDR      r0,[sp,#0x20]
        0x0000034a:    f001feed    ....    BL       __aeabi_idiv ; 0x2128
        0x0000034e:    8168        h.      STRH     r0,[r5,#0xa]
        0x00000350:    9900        ..      LDR      r1,[sp,#0]
        0x00000352:    9802        ..      LDR      r0,[sp,#8]
        0x00000354:    f001fee8    ....    BL       __aeabi_idiv ; 0x2128
        0x00000358:    80f0        ..      STRH     r0,[r6,#6]
        0x0000035a:    9900        ..      LDR      r1,[sp,#0]
        0x0000035c:    9803        ..      LDR      r0,[sp,#0xc]
        0x0000035e:    f001fee3    ....    BL       __aeabi_idiv ; 0x2128
        0x00000362:    8130        0.      STRH     r0,[r6,#8]
        0x00000364:    9900        ..      LDR      r1,[sp,#0]
        0x00000366:    9804        ..      LDR      r0,[sp,#0x10]
        0x00000368:    f001fede    ....    BL       __aeabi_idiv ; 0x2128
        0x0000036c:    8170        p.      STRH     r0,[r6,#0xa]
        0x0000036e:    980a        ..      LDR      r0,[sp,#0x28]
        0x00000370:    e776        v.      B        0x260 ; read_fifo + 88
    bmi160_read_raw
        0x00000372:    e749        I.      B        read_fifo ; 0x208
    $d
        0x00000374:    40010000    ...@    DCD    1073807360
        0x00000378:    3f9f4000    .@.?    DCD    1067401216
        0x0000037c:    20000000    ...     DCD    536870912
        0x00000380:    3a9ce80a    ...:    DCD    983361546
        0x00000384:    00002710    .'..    DCD    10000
        0x00000388:    000186a0    ....    DCD    100000
        0x0000038c:    00013c68    h<..    DCD    81000
    $t
    .text
    calculate
        0x00000390:    b5f0        ..      PUSH     {r4-r7,lr}
        0x00000392:    2000        .       MOVS     r0,#0
        0x00000394:    b090        ..      SUB      sp,sp,#0x40
        0x00000396:    900d        ..      STR      r0,[sp,#0x34]
        0x00000398:    900c        ..      STR      r0,[sp,#0x30]
        0x0000039a:    900b        ..      STR      r0,[sp,#0x2c]
        0x0000039c:    900a        ..      STR      r0,[sp,#0x28]
        0x0000039e:    9009        ..      STR      r0,[sp,#0x24]
        0x000003a0:    9008        ..      STR      r0,[sp,#0x20]
        0x000003a2:    4684        .F      MOV      r12,r0
        0x000003a4:    9007        ..      STR      r0,[sp,#0x1c]
        0x000003a6:    48fe        .H      LDR      r0,[pc,#1016] ; [0x7a0] = 0x200000b8
        0x000003a8:    7800        .x      LDRB     r0,[r0,#0]
        0x000003aa:    900e        ..      STR      r0,[sp,#0x38]
        0x000003ac:    2803        .(      CMP      r0,#3
        0x000003ae:    d113        ..      BNE      0x3d8 ; calculate + 72
        0x000003b0:    48fc        .H      LDR      r0,[pc,#1008] ; [0x7a4] = 0x22f
        0x000003b2:    9007        ..      STR      r0,[sp,#0x1c]
        0x000003b4:    48fb        .H      LDR      r0,[pc,#1004] ; [0x7a4] = 0x22f
        0x000003b6:    380a        .8      SUBS     r0,r0,#0xa
        0x000003b8:    4684        .F      MOV      r12,r0
        0x000003ba:    207d        }       MOVS     r0,#0x7d
        0x000003bc:    0100        ..      LSLS     r0,r0,#4
        0x000003be:    900d        ..      STR      r0,[sp,#0x34]
        0x000003c0:    20af        .       MOVS     r0,#0xaf
        0x000003c2:    0080        ..      LSLS     r0,r0,#2
        0x000003c4:    900c        ..      STR      r0,[sp,#0x30]
        0x000003c6:    48f8        .H      LDR      r0,[pc,#992] ; [0x7a8] = 0xfffffa17
        0x000003c8:    900b        ..      STR      r0,[sp,#0x2c]
        0x000003ca:    202e        .       MOVS     r0,#0x2e
        0x000003cc:    900a        ..      STR      r0,[sp,#0x28]
        0x000003ce:    48f7        .H      LDR      r0,[pc,#988] ; [0x7ac] = 0x333
        0x000003d0:    9009        ..      STR      r0,[sp,#0x24]
        0x000003d2:    2008        .       MOVS     r0,#8
        0x000003d4:    43c0        .C      MVNS     r0,r0
        0x000003d6:    9008        ..      STR      r0,[sp,#0x20]
        0x000003d8:    48f5        .H      LDR      r0,[pc,#980] ; [0x7b0] = 0x20000008
        0x000003da:    7800        .x      LDRB     r0,[r0,#0]
        0x000003dc:    900f        ..      STR      r0,[sp,#0x3c]
        0x000003de:    0903        ..      LSRS     r3,r0,#4
        0x000003e0:    2001        .       MOVS     r0,#1
        0x000003e2:    05c0        ..      LSLS     r0,r0,#23
        0x000003e4:    1a08        ..      SUBS     r0,r1,r0
        0x000003e6:    49ee        .I      LDR      r1,[pc,#952] ; [0x7a0] = 0x200000b8
        0x000003e8:    1100        ..      ASRS     r0,r0,#4
        0x000003ea:    8aca        ..      LDRH     r2,[r1,#0x16]
        0x000003ec:    6acc        .j      LDR      r4,[r1,#0x2c]
        0x000003ee:    0112        ..      LSLS     r2,r2,#4
        0x000003f0:    1886        ..      ADDS     r6,r0,r2
        0x000003f2:    8b48        H.      LDRH     r0,[r1,#0x1a]
        0x000003f4:    8b0f        ..      LDRH     r7,[r1,#0x18]
        0x000003f6:    38ff        .8      SUBS     r0,r0,#0xff
        0x000003f8:    3801        .8      SUBS     r0,#1
        0x000003fa:    4370        pC      MULS     r0,r6,r0
        0x000003fc:    1385        ..      ASRS     r5,r0,#14
        0x000003fe:    8b88        ..      LDRH     r0,[r1,#0x1c]
        0x00000400:    8bca        ..      LDRH     r2,[r1,#0x1e]
        0x00000402:    0124        $.      LSLS     r4,r4,#4
        0x00000404:    9401        ..      STR      r4,[sp,#4]
        0x00000406:    8c0c        ..      LDRH     r4,[r1,#0x20]
        0x00000408:    9406        ..      STR      r4,[sp,#0x18]
        0x0000040a:    8c4c        L.      LDRH     r4,[r1,#0x22]
        0x0000040c:    9405        ..      STR      r4,[sp,#0x14]
        0x0000040e:    684c        Lh      LDR      r4,[r1,#4]
        0x00000410:    9400        ..      STR      r4,[sp,#0]
        0x00000412:    8d0c        ..      LDRH     r4,[r1,#0x28]
        0x00000414:    9404        ..      STR      r4,[sp,#0x10]
        0x00000416:    8c8c        ..      LDRH     r4,[r1,#0x24]
        0x00000418:    4370        pC      MULS     r0,r6,r0
        0x0000041a:    9403        ..      STR      r4,[sp,#0xc]
        0x0000041c:    1480        ..      ASRS     r0,r0,#18
        0x0000041e:    8ccc        ..      LDRH     r4,[r1,#0x26]
        0x00000420:    4370        pC      MULS     r0,r6,r0
        0x00000422:    9402        ..      STR      r4,[sp,#8]
        0x00000424:    1480        ..      ASRS     r0,r0,#18
        0x00000426:    6b0c        .k      LDR      r4,[r1,#0x30]
        0x00000428:    4375        uC      MULS     r5,r6,r5
        0x0000042a:    4370        pC      MULS     r0,r6,r0
        0x0000042c:    6b49        Ik      LDR      r1,[r1,#0x34]
        0x0000042e:    2b01        .+      CMP      r3,#1
        0x00000430:    d02e        ..      BEQ      0x490 ; calculate + 256
        0x00000432:    9b0f        ..      LDR      r3,[sp,#0x3c]
        0x00000434:    071b        ..      LSLS     r3,r3,#28
        0x00000436:    0f1b        ..      LSRS     r3,r3,#28
        0x00000438:    2b01        .+      CMP      r3,#1
        0x0000043a:    d029        ).      BEQ      0x490 ; calculate + 256
        0x0000043c:    4bdd        .K      LDR      r3,[pc,#884] ; [0x7b4] = 0x1142
        0x0000043e:    18fb        ..      ADDS     r3,r7,r3
        0x00000440:    4373        sC      MULS     r3,r6,r3
        0x00000442:    105f        _.      ASRS     r7,r3,#1
        0x00000444:    112b        +.      ASRS     r3,r5,#4
        0x00000446:    4ddc        .M      LDR      r5,[pc,#880] ; [0x7b8] = 0x4e20000
        0x00000448:    1bed        ..      SUBS     r5,r5,r7
        0x0000044a:    1aed        ..      SUBS     r5,r5,r3
        0x0000044c:    1a2d        -.      SUBS     r5,r5,r0
        0x0000044e:    18fb        ..      ADDS     r3,r7,r3
        0x00000450:    1818        ..      ADDS     r0,r3,r0
        0x00000452:    1300        ..      ASRS     r0,r0,#12
        0x00000454:    4342        BC      MULS     r2,r0,r2
        0x00000456:    1412        ..      ASRS     r2,r2,#16
        0x00000458:    13ee        ..      ASRS     r6,r5,#15
        0x0000045a:    4623        #F      MOV      r3,r4
        0x0000045c:    4342        BC      MULS     r2,r0,r2
        0x0000045e:    4dd0        .M      LDR      r5,[pc,#832] ; [0x7a0] = 0x200000b8
        0x00000460:    4343        CC      MULS     r3,r0,r3
        0x00000462:    1092        ..      ASRS     r2,r2,#2
        0x00000464:    189a        ..      ADDS     r2,r3,r2
        0x00000466:    1293        ..      ASRS     r3,r2,#10
        0x00000468:    612e        .a      STR      r6,[r5,#0x10]
        0x0000046a:    9a01        ..      LDR      r2,[sp,#4]
        0x0000046c:    189a        ..      ADDS     r2,r3,r2
        0x0000046e:    4bd3        .K      LDR      r3,[pc,#844] ; [0x7bc] = 0x339580
        0x00000470:    18d2        ..      ADDS     r2,r2,r3
        0x00000472:    9201        ..      STR      r2,[sp,#4]
        0x00000474:    4bd2        .K      LDR      r3,[pc,#840] ; [0x7c0] = 0x1c29
        0x00000476:    9a06        ..      LDR      r2,[sp,#0x18]
        0x00000478:    18d2        ..      ADDS     r2,r2,r3
        0x0000047a:    9b05        ..      LDR      r3,[sp,#0x14]
        0x0000047c:    4342        BC      MULS     r2,r0,r2
        0x0000047e:    4343        CC      MULS     r3,r0,r3
        0x00000480:    145b        [.      ASRS     r3,r3,#17
        0x00000482:    4343        CC      MULS     r3,r0,r3
        0x00000484:    1292        ..      ASRS     r2,r2,#10
        0x00000486:    131b        ..      ASRS     r3,r3,#12
        0x00000488:    4293        .B      CMP      r3,r2
        0x0000048a:    db40        @.      BLT      0x50e ; calculate + 382
        0x0000048c:    1a9d        ..      SUBS     r5,r3,r2
        0x0000048e:    e03f        ?.      B        0x510 ; calculate + 384
        0x00000490:    4bc8        .K      LDR      r3,[pc,#800] ; [0x7b4] = 0x1142
        0x00000492:    3329        )3      ADDS     r3,r3,#0x29
        0x00000494:    18fb        ..      ADDS     r3,r7,r3
        0x00000496:    112f        /.      ASRS     r7,r5,#4
        0x00000498:    4373        sC      MULS     r3,r6,r3
        0x0000049a:    4dc7        .M      LDR      r5,[pc,#796] ; [0x7b8] = 0x4e20000
        0x0000049c:    105b        [.      ASRS     r3,r3,#1
        0x0000049e:    1aed        ..      SUBS     r5,r5,r3
        0x000004a0:    1bed        ..      SUBS     r5,r5,r7
        0x000004a2:    1a2d        -.      SUBS     r5,r5,r0
        0x000004a4:    19db        ..      ADDS     r3,r3,r7
        0x000004a6:    1818        ..      ADDS     r0,r3,r0
        0x000004a8:    1300        ..      ASRS     r0,r0,#12
        0x000004aa:    4bc6        .K      LDR      r3,[pc,#792] ; [0x7c4] = 0xffffeea5
        0x000004ac:    4342        BC      MULS     r2,r0,r2
        0x000004ae:    1412        ..      ASRS     r2,r2,#16
        0x000004b0:    13ee        ..      ASRS     r6,r5,#15
        0x000004b2:    18e3        ..      ADDS     r3,r4,r3
        0x000004b4:    4342        BC      MULS     r2,r0,r2
        0x000004b6:    4dba        .M      LDR      r5,[pc,#744] ; [0x7a0] = 0x200000b8
        0x000004b8:    4343        CC      MULS     r3,r0,r3
        0x000004ba:    1092        ..      ASRS     r2,r2,#2
        0x000004bc:    189a        ..      ADDS     r2,r3,r2
        0x000004be:    1293        ..      ASRS     r3,r2,#10
        0x000004c0:    612e        .a      STR      r6,[r5,#0x10]
        0x000004c2:    9a01        ..      LDR      r2,[sp,#4]
        0x000004c4:    189a        ..      ADDS     r2,r3,r2
        0x000004c6:    4bc0        .K      LDR      r3,[pc,#768] ; [0x7c8] = 0x1d70a0
        0x000004c8:    18d2        ..      ADDS     r2,r2,r3
        0x000004ca:    9201        ..      STR      r2,[sp,#4]
        0x000004cc:    4bbc        .K      LDR      r3,[pc,#752] ; [0x7c0] = 0x1c29
        0x000004ce:    9a06        ..      LDR      r2,[sp,#0x18]
        0x000004d0:    3b1d        .;      SUBS     r3,r3,#0x1d
        0x000004d2:    18d2        ..      ADDS     r2,r2,r3
        0x000004d4:    9b05        ..      LDR      r3,[sp,#0x14]
        0x000004d6:    4342        BC      MULS     r2,r0,r2
        0x000004d8:    4343        CC      MULS     r3,r0,r3
        0x000004da:    145b        [.      ASRS     r3,r3,#17
        0x000004dc:    4343        CC      MULS     r3,r0,r3
        0x000004de:    1292        ..      ASRS     r2,r2,#10
        0x000004e0:    131b        ..      ASRS     r3,r3,#12
        0x000004e2:    4293        .B      CMP      r3,r2
        0x000004e4:    db01        ..      BLT      0x4ea ; calculate + 346
        0x000004e6:    1a9d        ..      SUBS     r5,r3,r2
        0x000004e8:    e000        ..      B        0x4ec ; calculate + 348
        0x000004ea:    1ad5        ..      SUBS     r5,r2,r3
        0x000004ec:    12ee        ..      ASRS     r6,r5,#11
        0x000004ee:    4fb7        .O      LDR      r7,[pc,#732] ; [0x7cc] = 0x28a1a
        0x000004f0:    056d        m.      LSLS     r5,r5,#21
        0x000004f2:    19cf        ..      ADDS     r7,r1,r7
        0x000004f4:    0d6d        m.      LSRS     r5,r5,#21
        0x000004f6:    437d        }C      MULS     r5,r7,r5
        0x000004f8:    437e        ~C      MULS     r6,r7,r6
        0x000004fa:    0aed        ..      LSRS     r5,r5,#11
        0x000004fc:    1a9a        ..      SUBS     r2,r3,r2
        0x000004fe:    d502        ..      BPL      0x506 ; calculate + 374
        0x00000500:    1972        r.      ADDS     r2,r6,r5
        0x00000502:    4252        RB      RSBS     r2,r2,#0
        0x00000504:    e000        ..      B        0x508 ; calculate + 376
        0x00000506:    1972        r.      ADDS     r2,r6,r5
        0x00000508:    12d3        ..      ASRS     r3,r2,#11
        0x0000050a:    4ab0        .J      LDR      r2,[pc,#704] ; [0x7cc] = 0x28a1a
        0x0000050c:    e010        ..      B        0x530 ; calculate + 416
        0x0000050e:    1ad5        ..      SUBS     r5,r2,r3
        0x00000510:    12ee        ..      ASRS     r6,r5,#11
        0x00000512:    4faf        .O      LDR      r7,[pc,#700] ; [0x7d0] = 0x45b9a
        0x00000514:    056d        m.      LSLS     r5,r5,#21
        0x00000516:    19cf        ..      ADDS     r7,r1,r7
        0x00000518:    0d6d        m.      LSRS     r5,r5,#21
        0x0000051a:    437d        }C      MULS     r5,r7,r5
        0x0000051c:    437e        ~C      MULS     r6,r7,r6
        0x0000051e:    0aed        ..      LSRS     r5,r5,#11
        0x00000520:    1a9a        ..      SUBS     r2,r3,r2
        0x00000522:    d502        ..      BPL      0x52a ; calculate + 410
        0x00000524:    1972        r.      ADDS     r2,r6,r5
        0x00000526:    4252        RB      RSBS     r2,r2,#0
        0x00000528:    e000        ..      B        0x52c ; calculate + 412
        0x0000052a:    1972        r.      ADDS     r2,r6,r5
        0x0000052c:    12d3        ..      ASRS     r3,r2,#11
        0x0000052e:    4aa8        .J      LDR      r2,[pc,#672] ; [0x7d0] = 0x45b9a
        0x00000530:    9d01        ..      LDR      r5,[sp,#4]
        0x00000532:    189a        ..      ADDS     r2,r3,r2
        0x00000534:    1889        ..      ADDS     r1,r1,r2
        0x00000536:    9a00        ..      LDR      r2,[sp,#0]
        0x00000538:    4b99        .K      LDR      r3,[pc,#612] ; [0x7a0] = 0x200000b8
        0x0000053a:    1b55        U.      SUBS     r5,r2,r5
        0x0000053c:    2201        ."      MOVS     r2,#1
        0x0000053e:    05d2        ..      LSLS     r2,r2,#23
        0x00000540:    1aaa        ..      SUBS     r2,r5,r2
        0x00000542:    12cd        ..      ASRS     r5,r1,#11
        0x00000544:    10d2        ..      ASRS     r2,r2,#3
        0x00000546:    0549        I.      LSLS     r1,r1,#21
        0x00000548:    0d49        I.      LSRS     r1,r1,#21
        0x0000054a:    4351        QC      MULS     r1,r2,r1
        0x0000054c:    4355        UC      MULS     r5,r2,r5
        0x0000054e:    9a04        ..      LDR      r2,[sp,#0x10]
        0x00000550:    12c9        ..      ASRS     r1,r1,#11
        0x00000552:    4342        BC      MULS     r2,r0,r2
        0x00000554:    2001        .       MOVS     r0,#1
        0x00000556:    0540        @.      LSLS     r0,r0,#21
        0x00000558:    1810        ..      ADDS     r0,r2,r0
        0x0000055a:    1869        i.      ADDS     r1,r5,r1
        0x0000055c:    10c0        ..      ASRS     r0,r0,#3
        0x0000055e:    9a03        ..      LDR      r2,[sp,#0xc]
        0x00000560:    9d02        ..      LDR      r5,[sp,#8]
        0x00000562:    4342        BC      MULS     r2,r0,r2
        0x00000564:    1289        ..      ASRS     r1,r1,#10
        0x00000566:    4345        EC      MULS     r5,r0,r5
        0x00000568:    13e8        ..      ASRS     r0,r5,#15
        0x0000056a:    1452        R.      ASRS     r2,r2,#17
        0x0000056c:    4348        HC      MULS     r0,r1,r0
        0x0000056e:    434a        JC      MULS     r2,r1,r2
        0x00000570:    1480        ..      ASRS     r0,r0,#18
        0x00000572:    1092        ..      ASRS     r2,r2,#2
        0x00000574:    4348        HC      MULS     r0,r1,r0
        0x00000576:    1810        ..      ADDS     r0,r2,r0
        0x00000578:    13c0        ..      ASRS     r0,r0,#15
        0x0000057a:    1841        A.      ADDS     r1,r0,r1
        0x0000057c:    4895        .H      LDR      r0,[pc,#596] ; [0x7d4] = 0x18628
        0x0000057e:    461a        .F      MOV      r2,r3
        0x00000580:    1808        ..      ADDS     r0,r1,r0
        0x00000582:    60d8        .`      STR      r0,[r3,#0xc]
        0x00000584:    980e        ..      LDR      r0,[sp,#0x38]
        0x00000586:    2803        .(      CMP      r0,#3
        0x00000588:    d12d        -.      BNE      0x5e6 ; calculate + 598
        0x0000058a:    7851        Qx      LDRB     r1,[r2,#1]
        0x0000058c:    07c8        ..      LSLS     r0,r1,#31
        0x0000058e:    d012        ..      BEQ      0x5b6 ; calculate + 550
        0x00000590:    2001        .       MOVS     r0,#1
        0x00000592:    0380        ..      LSLS     r0,r0,#14
        0x00000594:    1a23        #.      SUBS     r3,r4,r0
        0x00000596:    4c90        .L      LDR      r4,[pc,#576] ; [0x7d8] = 0xfffff63c
        0x00000598:    6910        .i      LDR      r0,[r2,#0x10]
        0x0000059a:    1900        ..      ADDS     r0,r0,r4
        0x0000059c:    4664        dF      MOV      r4,r12
        0x0000059e:    435c        \C      MULS     r4,r3,r4
        0x000005a0:    9b07        ..      LDR      r3,[sp,#0x1c]
        0x000005a2:    1264        d.      ASRS     r4,r4,#9
        0x000005a4:    18e3        ..      ADDS     r3,r4,r3
        0x000005a6:    111b        ..      ASRS     r3,r3,#4
        0x000005a8:    4343        CC      MULS     r3,r0,r3
        0x000005aa:    13db        ..      ASRS     r3,r3,#15
        0x000005ac:    4343        CC      MULS     r3,r0,r3
        0x000005ae:    12d8        ..      ASRS     r0,r3,#11
        0x000005b0:    68d3        .h      LDR      r3,[r2,#0xc]
        0x000005b2:    1a18        ..      SUBS     r0,r3,r0
        0x000005b4:    60d0        .`      STR      r0,[r2,#0xc]
        0x000005b6:    0788        ..      LSLS     r0,r1,#30
        0x000005b8:    d515        ..      BPL      0x5e6 ; calculate + 598
        0x000005ba:    6910        .i      LDR      r0,[r2,#0x10]
        0x000005bc:    990d        ..      LDR      r1,[sp,#0x34]
        0x000005be:    4288        .B      CMP      r0,r1
        0x000005c0:    da11        ..      BGE      0x5e6 ; calculate + 598
        0x000005c2:    9b0b        ..      LDR      r3,[sp,#0x2c]
        0x000005c4:    4601        .F      MOV      r1,r0
        0x000005c6:    4359        YC      MULS     r1,r3,r1
        0x000005c8:    140b        ..      ASRS     r3,r1,#16
        0x000005ca:    990a        ..      LDR      r1,[sp,#0x28]
        0x000005cc:    1859        Y.      ADDS     r1,r3,r1
        0x000005ce:    9b0c        ..      LDR      r3,[sp,#0x30]
        0x000005d0:    4298        .B      CMP      r0,r3
        0x000005d2:    da05        ..      BGE      0x5e0 ; calculate + 592
        0x000005d4:    9b09        ..      LDR      r3,[sp,#0x24]
        0x000005d6:    4358        XC      MULS     r0,r3,r0
        0x000005d8:    1403        ..      ASRS     r3,r0,#16
        0x000005da:    9808        ..      LDR      r0,[sp,#0x20]
        0x000005dc:    1818        ..      ADDS     r0,r3,r0
        0x000005de:    1841        A.      ADDS     r1,r0,r1
        0x000005e0:    68d0        .h      LDR      r0,[r2,#0xc]
        0x000005e2:    1a40        @.      SUBS     r0,r0,r1
        0x000005e4:    60d0        .`      STR      r0,[r2,#0xc]
        0x000005e6:    b010        ..      ADD      sp,sp,#0x40
        0x000005e8:    bdf0        ..      POP      {r4-r7,pc}
    fbm320_read_long_data
        0x000005ea:    b508        ..      PUSH     {r3,lr}
        0x000005ec:    2303        .#      MOVS     r3,#3
        0x000005ee:    466a        jF      MOV      r2,sp
        0x000005f0:    21f6        .!      MOVS     r1,#0xf6
        0x000005f2:    20d8        .       MOVS     r0,#0xd8
        0x000005f4:    f001fa93    ....    BL       I2C_SequentialRead ; 0x1b1e
        0x000005f8:    4669        iF      MOV      r1,sp
        0x000005fa:    7808        .x      LDRB     r0,[r1,#0]
        0x000005fc:    7849        Ix      LDRB     r1,[r1,#1]
        0x000005fe:    0400        ..      LSLS     r0,r0,#16
        0x00000600:    0209        ..      LSLS     r1,r1,#8
        0x00000602:    4308        .C      ORRS     r0,r0,r1
        0x00000604:    4669        iF      MOV      r1,sp
        0x00000606:    7889        .x      LDRB     r1,[r1,#2]
        0x00000608:    4308        .C      ORRS     r0,r0,r1
        0x0000060a:    bd08        ..      POP      {r3,pc}
    coefficient
        0x0000060c:    b5f0        ..      PUSH     {r4-r7,lr}
        0x0000060e:    b085        ..      SUB      sp,sp,#0x14
        0x00000610:    2400        .$      MOVS     r4,#0
        0x00000612:    466f        oF      MOV      r7,sp
        0x00000614:    0065        e.      LSLS     r5,r4,#1
        0x00000616:    4629        )F      MOV      r1,r5
        0x00000618:    31aa        .1      ADDS     r1,r1,#0xaa
        0x0000061a:    20d8        .       MOVS     r0,#0xd8
        0x0000061c:    f001fa0f    ....    BL       I2C_ReadByte ; 0x1a3e
        0x00000620:    0206        ..      LSLS     r6,r0,#8
        0x00000622:    4629        )F      MOV      r1,r5
        0x00000624:    31ab        .1      ADDS     r1,r1,#0xab
        0x00000626:    20d8        .       MOVS     r0,#0xd8
        0x00000628:    f001fa09    ....    BL       I2C_ReadByte ; 0x1a3e
        0x0000062c:    4306        .C      ORRS     r6,r6,r0
        0x0000062e:    1c64        d.      ADDS     r4,r4,#1
        0x00000630:    b2e4        ..      UXTB     r4,r4
        0x00000632:    537e        ~S      STRH     r6,[r7,r5]
        0x00000634:    2c09        .,      CMP      r4,#9
        0x00000636:    d3ed        ..      BCC      0x614 ; coefficient + 8
        0x00000638:    21d0        .!      MOVS     r1,#0xd0
        0x0000063a:    20d8        .       MOVS     r0,#0xd8
        0x0000063c:    f001f9ff    ....    BL       I2C_ReadByte ; 0x1a3e
        0x00000640:    0204        ..      LSLS     r4,r0,#8
        0x00000642:    21f1        .!      MOVS     r1,#0xf1
        0x00000644:    20d8        .       MOVS     r0,#0xd8
        0x00000646:    f001f9fa    ....    BL       I2C_ReadByte ; 0x1a3e
        0x0000064a:    4304        .C      ORRS     r4,r4,r0
        0x0000064c:    4668        hF      MOV      r0,sp
        0x0000064e:    8244        D.      STRH     r4,[r0,#0x12]
        0x00000650:    4857        WH      LDR      r0,[pc,#348] ; [0x7b0] = 0x20000008
        0x00000652:    7801        .x      LDRB     r1,[r0,#0]
        0x00000654:    4852        RH      LDR      r0,[pc,#328] ; [0x7a0] = 0x200000b8
        0x00000656:    090a        ..      LSRS     r2,r1,#4
        0x00000658:    2a01        .*      CMP      r2,#1
        0x0000065a:    d045        E.      BEQ      0x6e8 ; coefficient + 220
        0x0000065c:    0709        ..      LSLS     r1,r1,#28
        0x0000065e:    0f09        ..      LSRS     r1,r1,#28
        0x00000660:    2901        .)      CMP      r1,#1
        0x00000662:    d041        A.      BEQ      0x6e8 ; coefficient + 220
        0x00000664:    466d        mF      MOV      r5,sp
        0x00000666:    882b        +.      LDRH     r3,[r5,#0]
        0x00000668:    0919        ..      LSRS     r1,r3,#4
        0x0000066a:    82c1        ..      STRH     r1,[r0,#0x16]
        0x0000066c:    8869        i.      LDRH     r1,[r5,#2]
        0x0000066e:    88ae        ..      LDRH     r6,[r5,#4]
        0x00000670:    094a        J.      LSRS     r2,r1,#5
        0x00000672:    08d2        ..      LSRS     r2,r2,#3
        0x00000674:    0775        u.      LSLS     r5,r6,#29
        0x00000676:    00d2        ..      LSLS     r2,r2,#3
        0x00000678:    0f6d        m.      LSRS     r5,r5,#29
        0x0000067a:    432a        *C      ORRS     r2,r2,r5
        0x0000067c:    8302        ..      STRH     r2,[r0,#0x18]
        0x0000067e:    466d        mF      MOV      r5,sp
        0x00000680:    892a        *.      LDRH     r2,[r5,#8]
        0x00000682:    0609        ..      LSLS     r1,r1,#24
        0x00000684:    07d5        ..      LSLS     r5,r2,#31
        0x00000686:    0dc9        ..      LSRS     r1,r1,#23
        0x00000688:    0fed        ..      LSRS     r5,r5,#31
        0x0000068a:    4329        )C      ORRS     r1,r1,r5
        0x0000068c:    8341        A.      STRH     r1,[r0,#0x1a]
        0x0000068e:    08f1        ..      LSRS     r1,r6,#3
        0x00000690:    8381        ..      STRH     r1,[r0,#0x1c]
        0x00000692:    466d        mF      MOV      r5,sp
        0x00000694:    88e9        ..      LDRH     r1,[r5,#6]
        0x00000696:    0852        R.      LSRS     r2,r2,#1
        0x00000698:    004e        N.      LSLS     r6,r1,#1
        0x0000069a:    8969        i.      LDRH     r1,[r5,#0xa]
        0x0000069c:    071b        ..      LSLS     r3,r3,#28
        0x0000069e:    07cd        ..      LSLS     r5,r1,#31
        0x000006a0:    0fed        ..      LSRS     r5,r5,#31
        0x000006a2:    432e        .C      ORRS     r6,r6,r5
        0x000006a4:    62c6        .b      STR      r6,[r0,#0x2c]
        0x000006a6:    6302        .c      STR      r2,[r0,#0x30]
        0x000006a8:    08ca        ..      LSRS     r2,r1,#3
        0x000006aa:    83c2        ..      STRH     r2,[r0,#0x1e]
        0x000006ac:    466d        mF      MOV      r5,sp
        0x000006ae:    89aa        ..      LDRH     r2,[r5,#0xc]
        0x000006b0:    0f9b        ..      LSRS     r3,r3,#30
        0x000006b2:    0092        ..      LSLS     r2,r2,#2
        0x000006b4:    431a        .C      ORRS     r2,r2,r3
        0x000006b6:    6342        Bc      STR      r2,[r0,#0x34]
        0x000006b8:    89eb        ..      LDRH     r3,[r5,#0xe]
        0x000006ba:    08da        ..      LSRS     r2,r3,#3
        0x000006bc:    8402        ..      STRH     r2,[r0,#0x20]
        0x000006be:    8a2a        *.      LDRH     r2,[r5,#0x10]
        0x000006c0:    0895        ..      LSRS     r5,r2,#2
        0x000006c2:    8445        E.      STRH     r5,[r0,#0x22]
        0x000006c4:    09a5        ..      LSRS     r5,r4,#6
        0x000006c6:    08ad        ..      LSRS     r5,r5,#2
        0x000006c8:    0792        ..      LSLS     r2,r2,#30
        0x000006ca:    00ad        ..      LSLS     r5,r5,#2
        0x000006cc:    0f92        ..      LSRS     r2,r2,#30
        0x000006ce:    4315        .C      ORRS     r5,r5,r2
        0x000006d0:    8485        ..      STRH     r5,[r0,#0x24]
        0x000006d2:    b2e2        ..      UXTB     r2,r4
        0x000006d4:    84c2        ..      STRH     r2,[r0,#0x26]
        0x000006d6:    2206        ."      MOVS     r2,#6
        0x000006d8:    4011        .@      ANDS     r1,r1,r2
        0x000006da:    0089        ..      LSLS     r1,r1,#2
        0x000006dc:    075a        Z.      LSLS     r2,r3,#29
        0x000006de:    0f52        R.      LSRS     r2,r2,#29
        0x000006e0:    4311        .C      ORRS     r1,r1,r2
        0x000006e2:    8501        ..      STRH     r1,[r0,#0x28]
        0x000006e4:    b005        ..      ADD      sp,sp,#0x14
        0x000006e6:    bdf0        ..      POP      {r4-r7,pc}
        0x000006e8:    466d        mF      MOV      r5,sp
        0x000006ea:    8829        ).      LDRH     r1,[r5,#0]
        0x000006ec:    090a        ..      LSRS     r2,r1,#4
        0x000006ee:    82c2        ..      STRH     r2,[r0,#0x16]
        0x000006f0:    886b        k.      LDRH     r3,[r5,#2]
        0x000006f2:    095a        Z.      LSRS     r2,r3,#5
        0x000006f4:    08d6        ..      LSRS     r6,r2,#3
        0x000006f6:    88aa        ..      LDRH     r2,[r5,#4]
        0x000006f8:    00f6        ..      LSLS     r6,r6,#3
        0x000006fa:    0755        U.      LSLS     r5,r2,#29
        0x000006fc:    0f6d        m.      LSRS     r5,r5,#29
        0x000006fe:    432e        .C      ORRS     r6,r6,r5
        0x00000700:    8306        ..      STRH     r6,[r0,#0x18]
        0x00000702:    061b        ..      LSLS     r3,r3,#24
        0x00000704:    0dde        ..      LSRS     r6,r3,#23
        0x00000706:    466d        mF      MOV      r5,sp
        0x00000708:    892b        +.      LDRH     r3,[r5,#8]
        0x0000070a:    08d2        ..      LSRS     r2,r2,#3
        0x0000070c:    07dd        ..      LSLS     r5,r3,#31
        0x0000070e:    0fed        ..      LSRS     r5,r5,#31
        0x00000710:    432e        .C      ORRS     r6,r6,r5
        0x00000712:    8346        F.      STRH     r6,[r0,#0x1a]
        0x00000714:    8382        ..      STRH     r2,[r0,#0x1c]
        0x00000716:    466d        mF      MOV      r5,sp
        0x00000718:    88ea        ..      LDRH     r2,[r5,#6]
        0x0000071a:    078d        ..      LSLS     r5,r1,#30
        0x0000071c:    0092        ..      LSLS     r2,r2,#2
        0x0000071e:    0fad        ..      LSRS     r5,r5,#30
        0x00000720:    432a        *C      ORRS     r2,r2,r5
        0x00000722:    62c2        .b      STR      r2,[r0,#0x2c]
        0x00000724:    085a        Z.      LSRS     r2,r3,#1
        0x00000726:    466d        mF      MOV      r5,sp
        0x00000728:    6302        .c      STR      r2,[r0,#0x30]
        0x0000072a:    896a        j.      LDRH     r2,[r5,#0xa]
        0x0000072c:    08d3        ..      LSRS     r3,r2,#3
        0x0000072e:    83c3        ..      STRH     r3,[r0,#0x1e]
        0x00000730:    89ab        ..      LDRH     r3,[r5,#0xc]
        0x00000732:    0752        R.      LSLS     r2,r2,#29
        0x00000734:    00db        ..      LSLS     r3,r3,#3
        0x00000736:    0f52        R.      LSRS     r2,r2,#29
        0x00000738:    4313        .C      ORRS     r3,r3,r2
        0x0000073a:    6343        Cc      STR      r3,[r0,#0x34]
        0x0000073c:    89ea        ..      LDRH     r2,[r5,#0xe]
        0x0000073e:    08d3        ..      LSRS     r3,r2,#3
        0x00000740:    8403        ..      STRH     r3,[r0,#0x20]
        0x00000742:    8a2b        +.      LDRH     r3,[r5,#0x10]
        0x00000744:    0752        R.      LSLS     r2,r2,#29
        0x00000746:    089d        ..      LSRS     r5,r3,#2
        0x00000748:    8445        E.      STRH     r5,[r0,#0x22]
        0x0000074a:    09a5        ..      LSRS     r5,r4,#6
        0x0000074c:    08ad        ..      LSRS     r5,r5,#2
        0x0000074e:    079b        ..      LSLS     r3,r3,#30
        0x00000750:    00ad        ..      LSLS     r5,r5,#2
        0x00000752:    0f9b        ..      LSRS     r3,r3,#30
        0x00000754:    431d        .C      ORRS     r5,r5,r3
        0x00000756:    8485        ..      STRH     r5,[r0,#0x24]
        0x00000758:    b2e3        ..      UXTB     r3,r4
        0x0000075a:    84c3        ..      STRH     r3,[r0,#0x26]
        0x0000075c:    230c        .#      MOVS     r3,#0xc
        0x0000075e:    4019        .@      ANDS     r1,r1,r3
        0x00000760:    0049        I.      LSLS     r1,r1,#1
        0x00000762:    0f52        R.      LSRS     r2,r2,#29
        0x00000764:    e7bc        ..      B        0x6e0 ; coefficient + 212
    fbm320_init
        0x00000766:    b570        p.      PUSH     {r4-r6,lr}
        0x00000768:    216b        k!      MOVS     r1,#0x6b
        0x0000076a:    20d8        .       MOVS     r0,#0xd8
        0x0000076c:    f001f967    ..g.    BL       I2C_ReadByte ; 0x1a3e
        0x00000770:    2842        B(      CMP      r0,#0x42
        0x00000772:    d001        ..      BEQ      0x778 ; fbm320_init + 18
        0x00000774:    2000        .       MOVS     r0,#0
        0x00000776:    bd70        p.      POP      {r4-r6,pc}
        0x00000778:    21a5        .!      MOVS     r1,#0xa5
        0x0000077a:    20d8        .       MOVS     r0,#0xd8
        0x0000077c:    f001f95f    .._.    BL       I2C_ReadByte ; 0x1a3e
        0x00000780:    2170        p!      MOVS     r1,#0x70
        0x00000782:    4008        .@      ANDS     r0,r0,r1
        0x00000784:    0885        ..      LSRS     r5,r0,#2
        0x00000786:    21f4        .!      MOVS     r1,#0xf4
        0x00000788:    20d8        .       MOVS     r0,#0xd8
        0x0000078a:    f001f958    ..X.    BL       I2C_ReadByte ; 0x1a3e
        0x0000078e:    0980        ..      LSRS     r0,r0,#6
        0x00000790:    4305        .C      ORRS     r5,r5,r0
        0x00000792:    4c03        .L      LDR      r4,[pc,#12] ; [0x7a0] = 0x200000b8
        0x00000794:    2003        .       MOVS     r0,#3
        0x00000796:    7025        %p      STRB     r5,[r4,#0]
        0x00000798:    7060        `p      STRB     r0,[r4,#1]
        0x0000079a:    4805        .H      LDR      r0,[pc,#20] ; [0x7b0] = 0x20000008
        0x0000079c:    7801        .x      LDRB     r1,[r0,#0]
        0x0000079e:    e01d        ..      B        0x7dc ; fbm320_init + 118
    $d
        0x000007a0:    200000b8    ...     DCD    536871096
        0x000007a4:    0000022f    /...    DCD    559
        0x000007a8:    fffffa17    ....    DCD    4294965783
        0x000007ac:    00000333    3...    DCD    819
        0x000007b0:    20000008    ...     DCD    536870920
        0x000007b4:    00001142    B...    DCD    4418
        0x000007b8:    04e20000    ....    DCD    81920000
        0x000007bc:    00339580    ..3.    DCD    3380608
        0x000007c0:    00001c29    )...    DCD    7209
        0x000007c4:    ffffeea5    ....    DCD    4294962853
        0x000007c8:    001d70a0    .p..    DCD    1929376
        0x000007cc:    00028a1a    ....    DCD    166426
        0x000007d0:    00045b9a    .[..    DCD    285594
        0x000007d4:    00018628    (...    DCD    99880
        0x000007d8:    fffff63c    <...    DCD    4294964796
    $t
        0x000007dc:    2201        ."      MOVS     r2,#1
        0x000007de:    4311        .C      ORRS     r1,r1,r2
        0x000007e0:    7001        .p      STRB     r1,[r0,#0]
        0x000007e2:    f7ffff13    ....    BL       coefficient ; 0x60c
        0x000007e6:    222e        ."      MOVS     r2,#0x2e
        0x000007e8:    21f4        .!      MOVS     r1,#0xf4
        0x000007ea:    20d8        .       MOVS     r0,#0xd8
        0x000007ec:    f001f8dc    ....    BL       I2C_WriteByte ; 0x19a8
        0x000007f0:    4d74        tM      LDR      r5,[pc,#464] ; [0x9c4] = 0x40010000
        0x000007f2:    4973        sI      LDR      r1,[pc,#460] ; [0x9c0] = 0x1388
        0x000007f4:    4628        (F      MOV      r0,r5
        0x000007f6:    f001fc09    ....    BL       TIMER_Delay ; 0x200c
        0x000007fa:    f7fffef6    ....    BL       fbm320_read_long_data ; 0x5ea
        0x000007fe:    22f4        ."      MOVS     r2,#0xf4
        0x00000800:    60a0        .`      STR      r0,[r4,#8]
        0x00000802:    4611        .F      MOV      r1,r2
        0x00000804:    20d8        .       MOVS     r0,#0xd8
        0x00000806:    f001f8cf    ....    BL       I2C_WriteByte ; 0x19a8
        0x0000080a:    496f        oI      LDR      r1,[pc,#444] ; [0x9c8] = 0x4e20
        0x0000080c:    4628        (F      MOV      r0,r5
        0x0000080e:    f001fbfd    ....    BL       TIMER_Delay ; 0x200c
        0x00000812:    f7fffeea    ....    BL       fbm320_read_long_data ; 0x5ea
        0x00000816:    6060        ``      STR      r0,[r4,#4]
        0x00000818:    68a1        .h      LDR      r1,[r4,#8]
        0x0000081a:    f7fffdb9    ....    BL       calculate ; 0x390
        0x0000081e:    222e        ."      MOVS     r2,#0x2e
        0x00000820:    21f4        .!      MOVS     r1,#0xf4
        0x00000822:    20d8        .       MOVS     r0,#0xd8
        0x00000824:    f001f8c0    ....    BL       I2C_WriteByte ; 0x19a8
        0x00000828:    2001        .       MOVS     r0,#1
        0x0000082a:    bd70        p.      POP      {r4-r6,pc}
    abs_altitude
        0x0000082c:    b530        0.      PUSH     {r4,r5,lr}
        0x0000082e:    4967        gI      LDR      r1,[pc,#412] ; [0x9cc] = 0x19258
        0x00000830:    4288        .B      CMP      r0,r1
        0x00000832:    db05        ..      BLT      0x840 ; abs_altitude + 20
        0x00000834:    2367        g#      MOVS     r3,#0x67
        0x00000836:    22ff        ."      MOVS     r2,#0xff
        0x00000838:    4c65        eL      LDR      r4,[pc,#404] ; [0x9d0] = 0xfffde2f5
        0x0000083a:    4966        fI      LDR      r1,[pc,#408] ; [0x9d4] = 0xffffadf1
        0x0000083c:    3238        82      ADDS     r2,r2,#0x38
        0x0000083e:    e07d        }.      B        0x93c ; abs_altitude + 272
        0x00000840:    4965        eI      LDR      r1,[pc,#404] ; [0x9d8] = 0x17ed0
        0x00000842:    4288        .B      CMP      r0,r1
        0x00000844:    db05        ..      BLT      0x852 ; abs_altitude + 38
        0x00000846:    2362        b#      MOVS     r3,#0x62
        0x00000848:    22ff        ."      MOVS     r2,#0xff
        0x0000084a:    4c64        dL      LDR      r4,[pc,#400] ; [0x9dc] = 0x447d3
        0x0000084c:    4964        dI      LDR      r1,[pc,#400] ; [0x9e0] = 0xffffaa93
        0x0000084e:    3253        S2      ADDS     r2,r2,#0x53
        0x00000850:    e074        t.      B        0x93c ; abs_altitude + 272
        0x00000852:    4964        dI      LDR      r1,[pc,#400] ; [0x9e4] = 0x16b48
        0x00000854:    4288        .B      CMP      r0,r1
        0x00000856:    db05        ..      BLT      0x864 ; abs_altitude + 56
        0x00000858:    235d        ]#      MOVS     r3,#0x5d
        0x0000085a:    22ff        ."      MOVS     r2,#0xff
        0x0000085c:    4c62        bL      LDR      r4,[pc,#392] ; [0x9e8] = 0xaf1c5
        0x0000085e:    4963        cI      LDR      r1,[pc,#396] ; [0x9ec] = 0xffffa6e3
        0x00000860:    3273        s2      ADDS     r2,r2,#0x73
        0x00000862:    e06b        k.      B        0x93c ; abs_altitude + 272
        0x00000864:    4962        bI      LDR      r1,[pc,#392] ; [0x9f0] = 0x157c0
        0x00000866:    4288        .B      CMP      r0,r1
        0x00000868:    db05        ..      BLT      0x876 ; abs_altitude + 74
        0x0000086a:    2358        X#      MOVS     r3,#0x58
        0x0000086c:    22ff        ."      MOVS     r2,#0xff
        0x0000086e:    4c61        aL      LDR      r4,[pc,#388] ; [0x9f4] = 0x11e7ad
        0x00000870:    4961        aI      LDR      r1,[pc,#388] ; [0x9f8] = 0xffffa2d2
        0x00000872:    3298        .2      ADDS     r2,r2,#0x98
        0x00000874:    e062        b.      B        0x93c ; abs_altitude + 272
        0x00000876:    4961        aI      LDR      r1,[pc,#388] ; [0x9fc] = 0x14438
        0x00000878:    4288        .B      CMP      r0,r1
        0x0000087a:    db05        ..      BLT      0x888 ; abs_altitude + 92
        0x0000087c:    2353        S#      MOVS     r3,#0x53
        0x0000087e:    22ff        ."      MOVS     r2,#0xff
        0x00000880:    4c5f        _L      LDR      r4,[pc,#380] ; [0xa00] = 0x19318c
        0x00000882:    4960        `I      LDR      r1,[pc,#384] ; [0xa04] = 0xffff9e51
        0x00000884:    32c3        .2      ADDS     r2,r2,#0xc3
        0x00000886:    e059        Y.      B        0x93c ; abs_altitude + 272
        0x00000888:    495f        _I      LDR      r1,[pc,#380] ; [0xa08] = 0x130b0
        0x0000088a:    4288        .B      CMP      r0,r1
        0x0000088c:    db05        ..      BLT      0x89a ; abs_altitude + 110
        0x0000088e:    234e        N#      MOVS     r3,#0x4e
        0x00000890:    22ff        ."      MOVS     r2,#0xff
        0x00000892:    4c5e        ^L      LDR      r4,[pc,#376] ; [0xa0c] = 0x20d8c5
        0x00000894:    495e        ^I      LDR      r1,[pc,#376] ; [0xa10] = 0xffff994c
        0x00000896:    32f6        .2      ADDS     r2,r2,#0xf6
        0x00000898:    e050        P.      B        0x93c ; abs_altitude + 272
        0x0000089a:    495e        ^I      LDR      r1,[pc,#376] ; [0xa14] = 0x11d28
        0x0000089c:    4288        .B      CMP      r0,r1
        0x0000089e:    db05        ..      BLT      0x8ac ; abs_altitude + 128
        0x000008a0:    2349        I#      MOVS     r3,#0x49
        0x000008a2:    2223        #"      MOVS     r2,#0x23
        0x000008a4:    4c5c        \L      LDR      r4,[pc,#368] ; [0xa18] = 0x28e87a
        0x000008a6:    495d        ]I      LDR      r1,[pc,#372] ; [0xa1c] = 0xffff93a9
        0x000008a8:    0112        ..      LSLS     r2,r2,#4
        0x000008aa:    e047        G.      B        0x93c ; abs_altitude + 272
        0x000008ac:    495c        \I      LDR      r1,[pc,#368] ; [0xa20] = 0x109a0
        0x000008ae:    4288        .B      CMP      r0,r1
        0x000008b0:    db05        ..      BLT      0x8be ; abs_altitude + 146
        0x000008b2:    2344        D#      MOVS     r3,#0x44
        0x000008b4:    224f        O"      MOVS     r2,#0x4f
        0x000008b6:    4c5b        [L      LDR      r4,[pc,#364] ; [0xa24] = 0x316e02
        0x000008b8:    495b        [I      LDR      r1,[pc,#364] ; [0xa28] = 0xffff8d4a
        0x000008ba:    00d2        ..      LSLS     r2,r2,#3
        0x000008bc:    e03e        >.      B        0x93c ; abs_altitude + 272
        0x000008be:    495b        [I      LDR      r1,[pc,#364] ; [0xa2c] = 0xf618
        0x000008c0:    4288        .B      CMP      r0,r1
        0x000008c2:    db04        ..      BLT      0x8ce ; abs_altitude + 162
        0x000008c4:    233f        ?#      MOVS     r3,#0x3f
        0x000008c6:    4c5a        ZL      LDR      r4,[pc,#360] ; [0xa30] = 0x3a798c
        0x000008c8:    495a        ZI      LDR      r1,[pc,#360] ; [0xa34] = 0xffff8603
        0x000008ca:    4a5b        [J      LDR      r2,[pc,#364] ; [0xa38] = 0x2cf
        0x000008cc:    e036        6.      B        0x93c ; abs_altitude + 272
        0x000008ce:    495b        [I      LDR      r1,[pc,#364] ; [0xa3c] = 0xe290
        0x000008d0:    4288        .B      CMP      r0,r1
        0x000008d2:    db05        ..      BLT      0x8e0 ; abs_altitude + 180
        0x000008d4:    4a58        XJ      LDR      r2,[pc,#352] ; [0xa38] = 0x2cf
        0x000008d6:    233a        :#      MOVS     r3,#0x3a
        0x000008d8:    4c59        YL      LDR      r4,[pc,#356] ; [0xa40] = 0x441f03
        0x000008da:    495a        ZI      LDR      r1,[pc,#360] ; [0xa44] = 0xffff7d9f
        0x000008dc:    326b        k2      ADDS     r2,r2,#0x6b
        0x000008de:    e02d        -.      B        0x93c ; abs_altitude + 272
        0x000008e0:    4959        YI      LDR      r1,[pc,#356] ; [0xa48] = 0xcf08
        0x000008e2:    4288        .B      CMP      r0,r1
        0x000008e4:    db05        ..      BLT      0x8f2 ; abs_altitude + 198
        0x000008e6:    2335        5#      MOVS     r3,#0x35
        0x000008e8:    220f        ."      MOVS     r2,#0xf
        0x000008ea:    4c58        XL      LDR      r4,[pc,#352] ; [0xa4c] = 0x4e7757
        0x000008ec:    4958        XI      LDR      r1,[pc,#352] ; [0xa50] = 0xffff73d3
        0x000008ee:    0192        ..      LSLS     r2,r2,#6
        0x000008f0:    e024        $.      B        0x93c ; abs_altitude + 272
        0x000008f2:    4958        XI      LDR      r1,[pc,#352] ; [0xa54] = 0xbb80
        0x000008f4:    4288        .B      CMP      r0,r1
        0x000008f6:    db04        ..      BLT      0x902 ; abs_altitude + 214
        0x000008f8:    2330        0#      MOVS     r3,#0x30
        0x000008fa:    4c57        WL      LDR      r4,[pc,#348] ; [0xa58] = 0x59a25c
        0x000008fc:    4957        WI      LDR      r1,[pc,#348] ; [0xa5c] = 0xffff6839
        0x000008fe:    4a58        XJ      LDR      r2,[pc,#352] ; [0xa60] = 0x46b
        0x00000900:    e01c        ..      B        0x93c ; abs_altitude + 272
        0x00000902:    4958        XI      LDR      r1,[pc,#352] ; [0xa64] = 0xa7f8
        0x00000904:    4288        .B      CMP      r0,r1
        0x00000906:    db05        ..      BLT      0x914 ; abs_altitude + 232
        0x00000908:    4a55        UJ      LDR      r2,[pc,#340] ; [0xa60] = 0x46b
        0x0000090a:    232b        +#      MOVS     r3,#0x2b
        0x0000090c:    4c56        VL      LDR      r4,[pc,#344] ; [0xa68] = 0x65c9aa
        0x0000090e:    4957        WI      LDR      r1,[pc,#348] ; [0xa6c] = 0xffff5a3e
        0x00000910:    32df        .2      ADDS     r2,r2,#0xdf
        0x00000912:    e013        ..      B        0x93c ; abs_altitude + 272
        0x00000914:    4956        VI      LDR      r1,[pc,#344] ; [0xa70] = 0x9470
        0x00000916:    4288        .B      CMP      r0,r1
        0x00000918:    db04        ..      BLT      0x924 ; abs_altitude + 248
        0x0000091a:    2326        &#      MOVS     r3,#0x26
        0x0000091c:    4c55        UL      LDR      r4,[pc,#340] ; [0xa74] = 0x73252d
        0x0000091e:    4956        VI      LDR      r1,[pc,#344] ; [0xa78] = 0xffff4907
        0x00000920:    4a56        VJ      LDR      r2,[pc,#344] ; [0xa7c] = 0x676
        0x00000922:    e00b        ..      B        0x93c ; abs_altitude + 272
        0x00000924:    4956        VI      LDR      r1,[pc,#344] ; [0xa80] = 0x80e8
        0x00000926:    4288        .B      CMP      r0,r1
        0x00000928:    db04        ..      BLT      0x934 ; abs_altitude + 264
        0x0000092a:    2321        !#      MOVS     r3,#0x21
        0x0000092c:    4c55        UL      LDR      r4,[pc,#340] ; [0xa84] = 0x8202cb
        0x0000092e:    4956        VI      LDR      r1,[pc,#344] ; [0xa88] = 0xffff3344
        0x00000930:    4a56        VJ      LDR      r2,[pc,#344] ; [0xa8c] = 0x818
        0x00000932:    e003        ..      B        0x93c ; abs_altitude + 272
        0x00000934:    4c56        VL      LDR      r4,[pc,#344] ; [0xa90] = 0x92d408
        0x00000936:    4957        WI      LDR      r1,[pc,#348] ; [0xa94] = 0xffff16c8
        0x00000938:    4a57        WJ      LDR      r2,[pc,#348] ; [0xa98] = 0xa7a
        0x0000093a:    231c        .#      MOVS     r3,#0x1c
        0x0000093c:    257d        }%      MOVS     r5,#0x7d
        0x0000093e:    00ed        ..      LSLS     r5,r5,#3
        0x00000940:    436b        kC      MULS     r3,r5,r3
        0x00000942:    1ac0        ..      SUBS     r0,r0,r3
        0x00000944:    b200        ..      SXTH     r0,r0
        0x00000946:    4342        BC      MULS     r2,r0,r2
        0x00000948:    4341        AC      MULS     r1,r0,r1
        0x0000094a:    1292        ..      ASRS     r2,r2,#10
        0x0000094c:    4342        BC      MULS     r2,r0,r2
        0x0000094e:    1110        ..      ASRS     r0,r2,#4
        0x00000950:    1089        ..      ASRS     r1,r1,#2
        0x00000952:    01a2        ..      LSLS     r2,r4,#6
        0x00000954:    1851        Q.      ADDS     r1,r2,r1
        0x00000956:    1808        ..      ADDS     r0,r1,r0
        0x00000958:    1180        ..      ASRS     r0,r0,#6
        0x0000095a:    bd30        0.      POP      {r4,r5,pc}
    fbm320_timer_procedure
        0x0000095c:    b570        p.      PUSH     {r4-r6,lr}
        0x0000095e:    4d4f        OM      LDR      r5,[pc,#316] ; [0xa9c] = 0x20000008
        0x00000960:    8868        h.      LDRH     r0,[r5,#2]
        0x00000962:    2800        .(      CMP      r0,#0
        0x00000964:    d005        ..      BEQ      0x972 ; fbm320_timer_procedure + 22
        0x00000966:    4c4e        NL      LDR      r4,[pc,#312] ; [0xaa0] = 0x200000b8
        0x00000968:    286b        k(      CMP      r0,#0x6b
        0x0000096a:    d004        ..      BEQ      0x976 ; fbm320_timer_procedure + 26
        0x0000096c:    2884        .(      CMP      r0,#0x84
        0x0000096e:    d11e        ..      BNE      0x9ae ; fbm320_timer_procedure + 82
        0x00000970:    e00a        ..      B        0x988 ; fbm320_timer_procedure + 44
        0x00000972:    22f4        ."      MOVS     r2,#0xf4
        0x00000974:    e003        ..      B        0x97e ; fbm320_timer_procedure + 34
        0x00000976:    f7fffe38    ..8.    BL       fbm320_read_long_data ; 0x5ea
        0x0000097a:    222e        ."      MOVS     r2,#0x2e
        0x0000097c:    6060        ``      STR      r0,[r4,#4]
        0x0000097e:    21f4        .!      MOVS     r1,#0xf4
        0x00000980:    20d8        .       MOVS     r0,#0xd8
        0x00000982:    f001f811    ....    BL       I2C_WriteByte ; 0x19a8
        0x00000986:    e012        ..      B        0x9ae ; fbm320_timer_procedure + 82
        0x00000988:    f7fffe2f    ../.    BL       fbm320_read_long_data ; 0x5ea
        0x0000098c:    22f4        ."      MOVS     r2,#0xf4
        0x0000098e:    60a0        .`      STR      r0,[r4,#8]
        0x00000990:    4611        .F      MOV      r1,r2
        0x00000992:    20d8        .       MOVS     r0,#0xd8
        0x00000994:    f001f808    ....    BL       I2C_WriteByte ; 0x19a8
        0x00000998:    68a1        .h      LDR      r1,[r4,#8]
        0x0000099a:    6860        `h      LDR      r0,[r4,#4]
        0x0000099c:    f7fffcf8    ....    BL       calculate ; 0x390
        0x000009a0:    68e0        .h      LDR      r0,[r4,#0xc]
        0x000009a2:    f7ffff43    ..C.    BL       abs_altitude ; 0x82c
        0x000009a6:    210a        .!      MOVS     r1,#0xa
        0x000009a8:    f001fbbe    ....    BL       __aeabi_idiv ; 0x2128
        0x000009ac:    82a0        ..      STRH     r0,[r4,#0x14]
        0x000009ae:    8868        h.      LDRH     r0,[r5,#2]
        0x000009b0:    2885        .(      CMP      r0,#0x85
        0x000009b2:    d201        ..      BCS      0x9b8 ; fbm320_timer_procedure + 92
        0x000009b4:    1c40        @.      ADDS     r0,r0,#1
        0x000009b6:    e000        ..      B        0x9ba ; fbm320_timer_procedure + 94
        0x000009b8:    2001        .       MOVS     r0,#1
        0x000009ba:    8068        h.      STRH     r0,[r5,#2]
        0x000009bc:    bd70        p.      POP      {r4-r6,pc}
    $d
        0x000009be:    0000        ..      DCW    0
        0x000009c0:    00001388    ....    DCD    5000
        0x000009c4:    40010000    ...@    DCD    1073807360
        0x000009c8:    00004e20     N..    DCD    20000
        0x000009cc:    00019258    X...    DCD    103000
        0x000009d0:    fffde2f5    ....    DCD    4294828789
        0x000009d4:    ffffadf1    ....    DCD    4294946289
        0x000009d8:    00017ed0    .~..    DCD    98000
        0x000009dc:    000447d3    .G..    DCD    280531
        0x000009e0:    ffffaa93    ....    DCD    4294945427
        0x000009e4:    00016b48    Hk..    DCD    93000
        0x000009e8:    000af1c5    ....    DCD    717253
        0x000009ec:    ffffa6e3    ....    DCD    4294944483
        0x000009f0:    000157c0    .W..    DCD    88000
        0x000009f4:    0011e7ad    ....    DCD    1173421
        0x000009f8:    ffffa2d2    ....    DCD    4294943442
        0x000009fc:    00014438    8D..    DCD    83000
        0x00000a00:    0019318c    .1..    DCD    1651084
        0x00000a04:    ffff9e51    Q...    DCD    4294942289
        0x00000a08:    000130b0    .0..    DCD    78000
        0x00000a0c:    0020d8c5    .. .    DCD    2152645
        0x00000a10:    ffff994c    L...    DCD    4294941004
        0x00000a14:    00011d28    (...    DCD    73000
        0x00000a18:    0028e87a    z.(.    DCD    2680954
        0x00000a1c:    ffff93a9    ....    DCD    4294939561
        0x00000a20:    000109a0    ....    DCD    68000
        0x00000a24:    00316e02    .n1.    DCD    3239426
        0x00000a28:    ffff8d4a    J...    DCD    4294937930
        0x00000a2c:    0000f618    ....    DCD    63000
        0x00000a30:    003a798c    .y:.    DCD    3832204
        0x00000a34:    ffff8603    ....    DCD    4294936067
        0x00000a38:    000002cf    ....    DCD    719
        0x00000a3c:    0000e290    ....    DCD    58000
        0x00000a40:    00441f03    ..D.    DCD    4464387
        0x00000a44:    ffff7d9f    .}..    DCD    4294933919
        0x00000a48:    0000cf08    ....    DCD    53000
        0x00000a4c:    004e7757    WwN.    DCD    5142359
        0x00000a50:    ffff73d3    .s..    DCD    4294931411
        0x00000a54:    0000bb80    ....    DCD    48000
        0x00000a58:    0059a25c    \.Y.    DCD    5874268
        0x00000a5c:    ffff6839    9h..    DCD    4294928441
        0x00000a60:    0000046b    k...    DCD    1131
        0x00000a64:    0000a7f8    ....    DCD    43000
        0x00000a68:    0065c9aa    ..e.    DCD    6670762
        0x00000a6c:    ffff5a3e    >Z..    DCD    4294924862
        0x00000a70:    00009470    p...    DCD    38000
        0x00000a74:    0073252d    -%s.    DCD    7546157
        0x00000a78:    ffff4907    .I..    DCD    4294920455
        0x00000a7c:    00000676    v...    DCD    1654
        0x00000a80:    000080e8    ....    DCD    33000
        0x00000a84:    008202cb    ....    DCD    8520395
        0x00000a88:    ffff3344    D3..    DCD    4294914884
        0x00000a8c:    00000818    ....    DCD    2072
        0x00000a90:    0092d408    ....    DCD    9622536
        0x00000a94:    ffff16c8    ....    DCD    4294907592
        0x00000a98:    00000a7a    z...    DCD    2682
        0x00000a9c:    20000008    ...     DCD    536870920
        0x00000aa0:    200000b8    ...     DCD    536871096
    $t
    .text
    motor_init
        0x00000aa4:    b570        p.      PUSH     {r4-r6,lr}
        0x00000aa6:    4d13        .M      LDR      r5,[pc,#76] ; [0xaf4] = 0x4e20
        0x00000aa8:    4c13        .L      LDR      r4,[pc,#76] ; [0xaf8] = 0x40040000
        0x00000aaa:    2300        .#      MOVS     r3,#0
        0x00000aac:    462a        *F      MOV      r2,r5
        0x00000aae:    4619        .F      MOV      r1,r3
        0x00000ab0:    4620         F      MOV      r0,r4
        0x00000ab2:    f001f947    ..G.    BL       PWM_ConfigOutputChannel ; 0x1d44
        0x00000ab6:    2300        .#      MOVS     r3,#0
        0x00000ab8:    462a        *F      MOV      r2,r5
        0x00000aba:    2101        .!      MOVS     r1,#1
        0x00000abc:    4620         F      MOV      r0,r4
        0x00000abe:    f001f941    ..A.    BL       PWM_ConfigOutputChannel ; 0x1d44
        0x00000ac2:    2300        .#      MOVS     r3,#0
        0x00000ac4:    462a        *F      MOV      r2,r5
        0x00000ac6:    2102        .!      MOVS     r1,#2
        0x00000ac8:    4620         F      MOV      r0,r4
        0x00000aca:    f001f93b    ..;.    BL       PWM_ConfigOutputChannel ; 0x1d44
        0x00000ace:    2300        .#      MOVS     r3,#0
        0x00000ad0:    462a        *F      MOV      r2,r5
        0x00000ad2:    2103        .!      MOVS     r1,#3
        0x00000ad4:    4620         F      MOV      r0,r4
        0x00000ad6:    f001f935    ..5.    BL       PWM_ConfigOutputChannel ; 0x1d44
        0x00000ada:    210f        .!      MOVS     r1,#0xf
        0x00000adc:    4620         F      MOV      r0,r4
        0x00000ade:    f001f9be    ....    BL       PWM_EnableOutput ; 0x1e5e
        0x00000ae2:    210f        .!      MOVS     r1,#0xf
        0x00000ae4:    4620         F      MOV      r0,r4
        0x00000ae6:    f001f9a6    ....    BL       PWM_Start ; 0x1e36
        0x00000aea:    68e0        .h      LDR      r0,[r4,#0xc]
        0x00000aec:    4903        .I      LDR      r1,[pc,#12] ; [0xafc] = 0x2000000c
        0x00000aee:    6048        H`      STR      r0,[r1,#4]
        0x00000af0:    bd70        p.      POP      {r4-r6,pc}
    $d
        0x00000af2:    0000        ..      DCW    0
        0x00000af4:    00004e20     N..    DCD    20000
        0x00000af8:    40040000    ...@    DCD    1074003968
        0x00000afc:    2000000c    ...     DCD    536870924
    $t
    .text
    system_init
        0x00000b00:    b570        p.      PUSH     {r4-r6,lr}
        0x00000b02:    2059        Y       MOVS     r0,#0x59
        0x00000b04:    4c33        3L      LDR      r4,[pc,#204] ; [0xbd4] = 0x50000100
        0x00000b06:    2116        .!      MOVS     r1,#0x16
        0x00000b08:    2288        ."      MOVS     r2,#0x88
        0x00000b0a:    6020         `      STR      r0,[r4,#0]
        0x00000b0c:    6021        !`      STR      r1,[r4,#0]
        0x00000b0e:    6022        "`      STR      r2,[r4,#0]
        0x00000b10:    6823        #h      LDR      r3,[r4,#0]
        0x00000b12:    2b00        .+      CMP      r3,#0
        0x00000b14:    d0f9        ..      BEQ      0xb0a ; system_init + 10
        0x00000b16:    f001f8bd    ....    BL       CLK_InitHIRC ; 0x1c94
        0x00000b1a:    f000f8db    ....    BL       SystemCoreClockUpdate ; 0xcd4
        0x00000b1e:    2505        .%      MOVS     r5,#5
        0x00000b20:    072d        -.      LSLS     r5,r5,#28
        0x00000b22:    6b28        (k      LDR      r0,[r5,#0x30]
        0x00000b24:    492c        ,I      LDR      r1,[pc,#176] ; [0xbd8] = 0x303
        0x00000b26:    4308        .C      ORRS     r0,r0,r1
        0x00000b28:    6328        (c      STR      r0,[r5,#0x30]
        0x00000b2a:    482c        ,H      LDR      r0,[pc,#176] ; [0xbdc] = 0x50004000
        0x00000b2c:    6841        Ah      LDR      r1,[r0,#4]
        0x00000b2e:    2201        ."      MOVS     r2,#1
        0x00000b30:    0452        R.      LSLS     r2,r2,#17
        0x00000b32:    4391        .C      BICS     r1,r1,r2
        0x00000b34:    6041        A`      STR      r1,[r0,#4]
        0x00000b36:    482a        *H      LDR      r0,[pc,#168] ; [0xbe0] = 0xa7803d10
        0x00000b38:    f001f891    ....    BL       CLK_EnableModuleClock ; 0x1c5e
        0x00000b3c:    4e29        )N      LDR      r6,[pc,#164] ; [0xbe4] = 0xae800002
        0x00000b3e:    4630        0F      MOV      r0,r6
        0x00000b40:    f001f88d    ....    BL       CLK_EnableModuleClock ; 0x1c5e
        0x00000b44:    2100        .!      MOVS     r1,#0
        0x00000b46:    4630        0F      MOV      r0,r6
        0x00000b48:    f001f876    ..v.    BL       CLK_SetModuleClock ; 0x1c38
        0x00000b4c:    4e26        &N      LDR      r6,[pc,#152] ; [0xbe8] = 0xaec00003
        0x00000b4e:    4630        0F      MOV      r0,r6
        0x00000b50:    f001f885    ....    BL       CLK_EnableModuleClock ; 0x1c5e
        0x00000b54:    2100        .!      MOVS     r1,#0
        0x00000b56:    4630        0F      MOV      r0,r6
        0x00000b58:    f001f86e    ..n.    BL       CLK_SetModuleClock ; 0x1c38
        0x00000b5c:    4823        #H      LDR      r0,[pc,#140] ; [0xbec] = 0xa7c00014
        0x00000b5e:    f001f87e    ..~.    BL       CLK_EnableModuleClock ; 0x1c5e
        0x00000b62:    4823        #H      LDR      r0,[pc,#140] ; [0xbf0] = 0xa7e00015
        0x00000b64:    f001f87b    ..{.    BL       CLK_EnableModuleClock ; 0x1c5e
        0x00000b68:    4822        "H      LDR      r0,[pc,#136] ; [0xbf4] = 0xe6600017
        0x00000b6a:    f001f878    ..x.    BL       CLK_EnableModuleClock ; 0x1c5e
        0x00000b6e:    200f        .       MOVS     r0,#0xf
        0x00000b70:    0280        ..      LSLS     r0,r0,#10
        0x00000b72:    63a8        .c      STR      r0,[r5,#0x38]
        0x00000b74:    4917        .I      LDR      r1,[pc,#92] ; [0xbd4] = 0x50000100
        0x00000b76:    4820         H      LDR      r0,[pc,#128] ; [0xbf8] = 0x8080
        0x00000b78:    39c0        .9      SUBS     r1,r1,#0xc0
        0x00000b7a:    6048        H`      STR      r0,[r1,#4]
        0x00000b7c:    481f        .H      LDR      r0,[pc,#124] ; [0xbfc] = 0x80000008
        0x00000b7e:    f001f86e    ..n.    BL       CLK_EnableModuleClock ; 0x1c5e
        0x00000b82:    6be8        .k      LDR      r0,[r5,#0x3c]
        0x00000b84:    0331        1.      LSLS     r1,r6,#12
        0x00000b86:    4308        .C      ORRS     r0,r0,r1
        0x00000b88:    63e8        .c      STR      r0,[r5,#0x3c]
        0x00000b8a:    4814        .H      LDR      r0,[pc,#80] ; [0xbdc] = 0x50004000
        0x00000b8c:    30c0        .0      ADDS     r0,r0,#0xc0
        0x00000b8e:    6841        Ah      LDR      r1,[r0,#4]
        0x00000b90:    0532        2.      LSLS     r2,r6,#20
        0x00000b92:    4391        .C      BICS     r1,r1,r2
        0x00000b94:    6041        A`      STR      r1,[r0,#4]
        0x00000b96:    2000        .       MOVS     r0,#0
        0x00000b98:    6020         `      STR      r0,[r4,#0]
        0x00000b9a:    bd70        p.      POP      {r4-r6,pc}
    peripheral_init
        0x00000b9c:    b510        ..      PUSH     {r4,lr}
        0x00000b9e:    21e1        .!      MOVS     r1,#0xe1
        0x00000ba0:    0249        I.      LSLS     r1,r1,#9
        0x00000ba2:    4817        .H      LDR      r0,[pc,#92] ; [0xc00] = 0x40050000
        0x00000ba4:    f001f83e    ..>.    BL       uart_console_init ; 0x1c24
        0x00000ba8:    a016        ..      ADR      r0,{pc}+0x5c ; 0xc04
        0x00000baa:    f001ff87    ....    BL       __0printf ; 0x2abc
        0x00000bae:    491b        .I      LDR      r1,[pc,#108] ; [0xc1c] = 0xf4240
        0x00000bb0:    481b        .H      LDR      r0,[pc,#108] ; [0xc20] = 0x40020000
        0x00000bb2:    f000fef5    ....    BL       I2C_Init ; 0x19a0
        0x00000bb6:    f7fffdd6    ....    BL       fbm320_init ; 0x766
        0x00000bba:    a01a        ..      ADR      r0,{pc}+0x6a ; 0xc24
        0x00000bbc:    f001ff7e    ..~.    BL       __0printf ; 0x2abc
        0x00000bc0:    f7fffae3    ....    BL       bmi160_init ; 0x18a
        0x00000bc4:    a01d        ..      ADR      r0,{pc}+0x78 ; 0xc3c
        0x00000bc6:    f001ff79    ..y.    BL       __0printf ; 0x2abc
        0x00000bca:    f7ffff6b    ..k.    BL       motor_init ; 0xaa4
        0x00000bce:    f000fb13    ....    BL       scheduler_init ; 0x11f8
        0x00000bd2:    bd10        ..      POP      {r4,pc}
    $d
        0x00000bd4:    50000100    ...P    DCD    1342177536
        0x00000bd8:    00000303    ....    DCD    771
        0x00000bdc:    50004000    .@.P    DCD    1342193664
        0x00000be0:    a7803d10    .=..    DCD    2810199312
        0x00000be4:    ae800002    ....    DCD    2927624194
        0x00000be8:    aec00003    ....    DCD    2931818499
        0x00000bec:    a7c00014    ....    DCD    2814378004
        0x00000bf0:    a7e00015    ....    DCD    2816475157
        0x00000bf4:    e6600017    ..`.    DCD    3865051159
        0x00000bf8:    00008080    ....    DCD    32896
        0x00000bfc:    80000008    ....    DCD    2147483656
        0x00000c00:    40050000    ...@    DCD    1074069504
        0x00000c04:    736e6f63    cons    DCD    1936617315
        0x00000c08:    20656c6f    ole     DCD    543517807
        0x00000c0c:    74696e69    init    DCD    1953066601
        0x00000c10:    63757320     suc    DCD    1668641568
        0x00000c14:    73736563    cess    DCD    1936942435
        0x00000c18:    00000a21    !...    DCD    2593
        0x00000c1c:    000f4240    @B..    DCD    1000000
        0x00000c20:    40020000    ...@    DCD    1073872896
        0x00000c24:    336d6266    fbm3    DCD    862806630
        0x00000c28:    69203032    20 i    DCD    1763717170
        0x00000c2c:    2074696e    nit     DCD    544500078
        0x00000c30:    63637573    succ    DCD    1667462515
        0x00000c34:    21737365    ess!    DCD    561214309
        0x00000c38:    0000000a    ....    DCD    10
        0x00000c3c:    31696d62    bmi1    DCD    828992866
        0x00000c40:    69203036    60 i    DCD    1763717174
        0x00000c44:    2074696e    nit     DCD    544500078
        0x00000c48:    63637573    succ    DCD    1667462515
        0x00000c4c:    21737365    ess!    DCD    561214309
        0x00000c50:    0000000a    ....    DCD    10
    $t
    .text
    main
        0x00000c54:    f7ffff54    ..T.    BL       system_init ; 0xb00
        0x00000c58:    f7ffffa0    ....    BL       peripheral_init ; 0xb9c
        0x00000c5c:    a00a        ..      ADR      r0,{pc}+0x2c ; 0xc88
        0x00000c5e:    f001ff2d    ..-.    BL       __0printf ; 0x2abc
        0x00000c62:    a00f        ..      ADR      r0,{pc}+0x3e ; 0xca0
        0x00000c64:    f001ff2a    ..*.    BL       __0printf ; 0x2abc
        0x00000c68:    f000fddc    ....    BL       gyro_offset ; 0x1824
        0x00000c6c:    f000fe61    ..a.    BL       accel_offset ; 0x1932
        0x00000c70:    a012        ..      ADR      r0,{pc}+0x4c ; 0xcbc
        0x00000c72:    f001ff23    ..#.    BL       __0printf ; 0x2abc
        0x00000c76:    4816        .H      LDR      r0,[pc,#88] ; [0xcd0] = 0x40010020
        0x00000c78:    6801        .h      LDR      r1,[r0,#0]
        0x00000c7a:    0642        B.      LSLS     r2,r0,#25
        0x00000c7c:    4311        .C      ORRS     r1,r1,r2
        0x00000c7e:    6001        .`      STR      r1,[r0,#0]
        0x00000c80:    f000fb63    ..c.    BL       scheduler_run ; 0x134a
        0x00000c84:    e7fc        ..      B        0xc80 ; main + 44
    $d
        0x00000c86:    0000        ..      DCW    0
        0x00000c88:    445f4448    HD_D    DCD    1147094088
        0x00000c8c:    656e6f72    rone    DCD    1701736306
        0x00000c90:    696e6920     ini    DCD    1768843552
        0x00000c94:    75732074    t su    DCD    1970479220
        0x00000c98:    73656363    cces    DCD    1936024419
        0x00000c9c:    000a2173    s!..    DCD    663923
        0x00000ca0:    736e6573    sens    DCD    1936614771
        0x00000ca4:    6320726f    or c    DCD    1663070831
        0x00000ca8:    656c6c6f    olle    DCD    1701604463
        0x00000cac:    6f207463    ct o    DCD    1864397923
        0x00000cb0:    65736666    ffse    DCD    1702061670
        0x00000cb4:    2e2e2e74    t...    DCD    774778484
        0x00000cb8:    0000000a    ....    DCD    10
        0x00000cbc:    6c6c6f63    coll    DCD    1819045731
        0x00000cc0:    20746365    ect     DCD    544498533
        0x00000cc4:    706d6f63    comp    DCD    1886220131
        0x00000cc8:    6574656c    lete    DCD    1702126956
        0x00000ccc:    0000000a    ....    DCD    10
        0x00000cd0:    40010020     ..@    DCD    1073807392
    $t
    .text
    SystemCoreClockUpdate
        0x00000cd4:    b510        ..      PUSH     {r4,lr}
        0x00000cd6:    4a13        .J      LDR      r2,[pc,#76] ; [0xd24] = 0x50000200
        0x00000cd8:    6a10        .j      LDR      r0,[r2,#0x20]
        0x00000cda:    03c1        ..      LSLS     r1,r0,#15
        0x00000cdc:    4812        .H      LDR      r0,[pc,#72] ; [0xd28] = 0x2dc6c00
        0x00000cde:    d501        ..      BPL      0xce4 ; SystemCoreClockUpdate + 16
        0x00000ce0:    2100        .!      MOVS     r1,#0
        0x00000ce2:    e000        ..      B        0xce6 ; SystemCoreClockUpdate + 18
        0x00000ce4:    4601        .F      MOV      r1,r0
        0x00000ce6:    4c11        .L      LDR      r4,[pc,#68] ; [0xd2c] = 0x20000014
        0x00000ce8:    6021        !`      STR      r1,[r4,#0]
        0x00000cea:    6911        .i      LDR      r1,[r2,#0x10]
        0x00000cec:    0789        ..      LSLS     r1,r1,#30
        0x00000cee:    0f89        ..      LSRS     r1,r1,#30
        0x00000cf0:    d009        ..      BEQ      0xd06 ; SystemCoreClockUpdate + 50
        0x00000cf2:    2901        .)      CMP      r1,#1
        0x00000cf4:    d007        ..      BEQ      0xd06 ; SystemCoreClockUpdate + 50
        0x00000cf6:    2902        .)      CMP      r1,#2
        0x00000cf8:    d002        ..      BEQ      0xd00 ; SystemCoreClockUpdate + 44
        0x00000cfa:    2903        .)      CMP      r1,#3
        0x00000cfc:    d002        ..      BEQ      0xd04 ; SystemCoreClockUpdate + 48
        0x00000cfe:    e002        ..      B        0xd06 ; SystemCoreClockUpdate + 50
        0x00000d00:    480b        .H      LDR      r0,[pc,#44] ; [0xd30] = 0x2710
        0x00000d02:    e000        ..      B        0xd06 ; SystemCoreClockUpdate + 50
        0x00000d04:    480b        .H      LDR      r0,[pc,#44] ; [0xd34] = 0xf42400
        0x00000d06:    6991        .i      LDR      r1,[r2,#0x18]
        0x00000d08:    078a        ..      LSLS     r2,r1,#30
        0x00000d0a:    0f92        ..      LSRS     r2,r2,#30
        0x00000d0c:    2101        .!      MOVS     r1,#1
        0x00000d0e:    4091        .@      LSLS     r1,r1,r2
        0x00000d10:    f001f9f4    ....    BL       __aeabi_uidiv ; 0x20fc
        0x00000d14:    4908        .I      LDR      r1,[pc,#32] ; [0xd38] = 0xf4240
        0x00000d16:    6060        ``      STR      r0,[r4,#4]
        0x00000d18:    104a        J.      ASRS     r2,r1,#1
        0x00000d1a:    1880        ..      ADDS     r0,r0,r2
        0x00000d1c:    f001f9ee    ....    BL       __aeabi_uidiv ; 0x20fc
        0x00000d20:    60a0        .`      STR      r0,[r4,#8]
        0x00000d22:    bd10        ..      POP      {r4,pc}
    $d
        0x00000d24:    50000200    ...P    DCD    1342177792
        0x00000d28:    02dc6c00    .l..    DCD    48000000
        0x00000d2c:    20000014    ...     DCD    536870932
        0x00000d30:    00002710    .'..    DCD    10000
        0x00000d34:    00f42400    .$..    DCD    16000000
        0x00000d38:    000f4240    @B..    DCD    1000000
    $t
    .text
    Reset_Handler
        0x00000d3c:    4803        .H      LDR      r0,[pc,#12] ; [0xd4c] = 0xc1
        0x00000d3e:    4700        .G      BX       r0
    NMI_Handler
        0x00000d40:    e7fe        ..      B        NMI_Handler ; 0xd40
        0x00000d42:    e7fe        ..      B        0xd42 ; NMI_Handler + 2
    SVC_Handler
        0x00000d44:    e7fe        ..      B        SVC_Handler ; 0xd44
    PendSV_Handler
        0x00000d46:    e7fe        ..      B        PendSV_Handler ; 0xd46
    SysTick_Handler
        0x00000d48:    e7fe        ..      B        SysTick_Handler ; 0xd48
    Default_Handler
    ACMP_IRQHandler
    ADC_IRQHandler
    BOD_IRQHandler
    EINT0_IRQHandler
    EINT1_IRQHandler
    EINT2_IRQHandler
    FB_IRQHandler
    GPIO01_IRQHandler
    GPIO234_IRQHandler
    GPIO5_IRQHandler
    HIRC_IRQHandler
    I2C0_IRQHandler
    I2C1_IRQHandler
    PDWU_IRQHandler
    PWM_IRQHandler
    SPI0_IRQHandler
    SPI1_IRQHandler
    TMR0_IRQHandler
    TMR2_IRQHandler
    UART0_IRQHandler
    UART1_IRQHandler
    WDT_IRQHandler
        0x00000d4a:    e7fe        ..      B        Default_Handler ; 0xd4a
    $d
        0x00000d4c:    000000c1    ....    DCD    193
    $t
    .text
    IIR_I_Filter
        0x00000d50:    b5fe        ..      PUSH     {r1-r7,lr}
        0x00000d52:    9e09        ..      LDR      r6,[sp,#0x24]
        0x00000d54:    4684        .F      MOV      r12,r0
        0x00000d56:    4615        .F      MOV      r5,r2
        0x00000d58:    1e70        p.      SUBS     r0,r6,#1
        0x00000d5a:    461c        .F      MOV      r4,r3
        0x00000d5c:    b202        ..      SXTH     r2,r0
        0x00000d5e:    e00a        ..      B        0xd76 ; IIR_I_Filter + 38
        0x00000d60:    00d3        ..      LSLS     r3,r2,#3
        0x00000d62:    195f        _.      ADDS     r7,r3,r5
        0x00000d64:    4638        8F      MOV      r0,r7
        0x00000d66:    3880        .8      SUBS     r0,r0,#0x80
        0x00000d68:    3f80        .?      SUBS     r7,r7,#0x80
        0x00000d6a:    18eb        ..      ADDS     r3,r5,r3
        0x00000d6c:    6f80        .o      LDR      r0,[r0,#0x78]
        0x00000d6e:    6fff        .o      LDR      r7,[r7,#0x7c]
        0x00000d70:    c381        ..      STM      r3!,{r0,r7}
        0x00000d72:    1e52        R.      SUBS     r2,r2,#1
        0x00000d74:    b212        ..      SXTH     r2,r2
        0x00000d76:    2a00        .*      CMP      r2,#0
        0x00000d78:    dcf2        ..      BGT      0xd60 ; IIR_I_Filter + 16
        0x00000d7a:    4660        `F      MOV      r0,r12
        0x00000d7c:    c503        ..      STM      r5!,{r0,r1}
        0x00000d7e:    2000        .       MOVS     r0,#0
        0x00000d80:    9000        ..      STR      r0,[sp,#0]
        0x00000d82:    4607        .F      MOV      r7,r0
        0x00000d84:    3d08        .=      SUBS     r5,r5,#8
        0x00000d86:    9001        ..      STR      r0,[sp,#4]
        0x00000d88:    e00f        ..      B        0xdaa ; IIR_I_Filter + 90
        0x00000d8a:    9908        ..      LDR      r1,[sp,#0x20]
        0x00000d8c:    00f8        ..      LSLS     r0,r7,#3
        0x00000d8e:    1809        ..      ADDS     r1,r1,r0
        0x00000d90:    c90c        ..      LDM      r1!,{r2,r3}
        0x00000d92:    1829        ).      ADDS     r1,r5,r0
        0x00000d94:    c903        ..      LDM      r1,{r0,r1}
        0x00000d96:    f001fb6d    ..m.    BL       __aeabi_dmul ; 0x2474
        0x00000d9a:    9b01        ..      LDR      r3,[sp,#4]
        0x00000d9c:    9a00        ..      LDR      r2,[sp,#0]
        0x00000d9e:    f001fab7    ....    BL       __aeabi_dadd ; 0x2310
        0x00000da2:    1c7f        ..      ADDS     r7,r7,#1
        0x00000da4:    b23f        ?.      SXTH     r7,r7
        0x00000da6:    9101        ..      STR      r1,[sp,#4]
        0x00000da8:    9000        ..      STR      r0,[sp,#0]
        0x00000daa:    42b7        .B      CMP      r7,r6
        0x00000dac:    dbed        ..      BLT      0xd8a ; IIR_I_Filter + 58
        0x00000dae:    980b        ..      LDR      r0,[sp,#0x2c]
        0x00000db0:    e009        ..      B        0xdc6 ; IIR_I_Filter + 118
        0x00000db2:    00c1        ..      LSLS     r1,r0,#3
        0x00000db4:    190a        ..      ADDS     r2,r1,r4
        0x00000db6:    4613        .F      MOV      r3,r2
        0x00000db8:    3b80        .;      SUBS     r3,r3,#0x80
        0x00000dba:    3a80        .:      SUBS     r2,r2,#0x80
        0x00000dbc:    6f9b        .o      LDR      r3,[r3,#0x78]
        0x00000dbe:    6fd2        .o      LDR      r2,[r2,#0x7c]
        0x00000dc0:    1861        a.      ADDS     r1,r4,r1
        0x00000dc2:    600b        .`      STR      r3,[r1,#0]
        0x00000dc4:    604a        J`      STR      r2,[r1,#4]
        0x00000dc6:    1e40        @.      SUBS     r0,r0,#1
        0x00000dc8:    b200        ..      SXTH     r0,r0
        0x00000dca:    2800        .(      CMP      r0,#0
        0x00000dcc:    dcf1        ..      BGT      0xdb2 ; IIR_I_Filter + 98
        0x00000dce:    2600        .&      MOVS     r6,#0
        0x00000dd0:    4637        7F      MOV      r7,r6
        0x00000dd2:    2501        .%      MOVS     r5,#1
        0x00000dd4:    e00f        ..      B        0xdf6 ; IIR_I_Filter + 166
        0x00000dd6:    990a        ..      LDR      r1,[sp,#0x28]
        0x00000dd8:    00e8        ..      LSLS     r0,r5,#3
        0x00000dda:    1809        ..      ADDS     r1,r1,r0
        0x00000ddc:    c90c        ..      LDM      r1!,{r2,r3}
        0x00000dde:    1821        !.      ADDS     r1,r4,r0
        0x00000de0:    c903        ..      LDM      r1,{r0,r1}
        0x00000de2:    f001fb47    ..G.    BL       __aeabi_dmul ; 0x2474
        0x00000de6:    4632        2F      MOV      r2,r6
        0x00000de8:    463b        ;F      MOV      r3,r7
        0x00000dea:    f001fa91    ....    BL       __aeabi_dadd ; 0x2310
        0x00000dee:    1c6d        m.      ADDS     r5,r5,#1
        0x00000df0:    4606        .F      MOV      r6,r0
        0x00000df2:    460f        .F      MOV      r7,r1
        0x00000df4:    b22d        -.      SXTH     r5,r5
        0x00000df6:    980b        ..      LDR      r0,[sp,#0x2c]
        0x00000df8:    4285        .B      CMP      r5,r0
        0x00000dfa:    dbec        ..      BLT      0xdd6 ; IIR_I_Filter + 134
        0x00000dfc:    4632        2F      MOV      r2,r6
        0x00000dfe:    463b        ;F      MOV      r3,r7
        0x00000e00:    9901        ..      LDR      r1,[sp,#4]
        0x00000e02:    9800        ..      LDR      r0,[sp,#0]
        0x00000e04:    f001fb28    ..(.    BL       __aeabi_dsub ; 0x2458
        0x00000e08:    c403        ..      STM      r4!,{r0,r1}
        0x00000e0a:    b003        ..      ADD      sp,sp,#0xc
        0x00000e0c:    bdf0        ..      POP      {r4-r7,pc}
    LPF_1st
        0x00000e0e:    b570        p.      PUSH     {r4-r6,lr}
        0x00000e10:    4616        .F      MOV      r6,r2
        0x00000e12:    460a        .F      MOV      r2,r1
        0x00000e14:    4605        .F      MOV      r5,r0
        0x00000e16:    4631        1F      MOV      r1,r6
        0x00000e18:    4610        .F      MOV      r0,r2
        0x00000e1a:    f001f9f2    ....    BL       __aeabi_fmul ; 0x2202
        0x00000e1e:    4604        .F      MOV      r4,r0
        0x00000e20:    207f        .       MOVS     r0,#0x7f
        0x00000e22:    4631        1F      MOV      r1,r6
        0x00000e24:    05c0        ..      LSLS     r0,r0,#23
        0x00000e26:    f001f9e4    ....    BL       __aeabi_fsub ; 0x21f2
        0x00000e2a:    4629        )F      MOV      r1,r5
        0x00000e2c:    f001f9e9    ....    BL       __aeabi_fmul ; 0x2202
        0x00000e30:    4621        !F      MOV      r1,r4
        0x00000e32:    f001f98d    ....    BL       __aeabi_fadd ; 0x2150
        0x00000e36:    bd70        p.      POP      {r4-r6,pc}
    .text
    Q_rsqrt
        0x00000e38:    b570        p.      PUSH     {r4-r6,lr}
        0x00000e3a:    25ff        .%      MOVS     r5,#0xff
        0x00000e3c:    2100        .!      MOVS     r1,#0
        0x00000e3e:    4604        .F      MOV      r4,r0
        0x00000e40:    05ad        ..      LSLS     r5,r5,#22
        0x00000e42:    43c9        .C      MVNS     r1,r1
        0x00000e44:    f001fa58    ..X.    BL       __ARM_scalbnf ; 0x22f8
        0x00000e48:    4a1f        .J      LDR      r2,[pc,#124] ; [0xec8] = 0x5f3759df
        0x00000e4a:    1061        a.      ASRS     r1,r4,#1
        0x00000e4c:    1a54        T.      SUBS     r4,r2,r1
        0x00000e4e:    4621        !F      MOV      r1,r4
        0x00000e50:    f001f9d7    ....    BL       __aeabi_fmul ; 0x2202
        0x00000e54:    4621        !F      MOV      r1,r4
        0x00000e56:    f001f9d4    ....    BL       __aeabi_fmul ; 0x2202
        0x00000e5a:    4629        )F      MOV      r1,r5
        0x00000e5c:    f001f9cd    ....    BL       __aeabi_frsub ; 0x21fa
        0x00000e60:    4621        !F      MOV      r1,r4
        0x00000e62:    f001f9ce    ....    BL       __aeabi_fmul ; 0x2202
        0x00000e66:    bd70        p.      POP      {r4-r6,pc}
    VariableParameter
        0x00000e68:    b510        ..      PUSH     {r4,lr}
        0x00000e6a:    4c18        .L      LDR      r4,[pc,#96] ; [0xecc] = 0x80800000
        0x00000e6c:    42a0        .B      CMP      r0,r4
        0x00000e6e:    d301        ..      BCC      0xe74 ; VariableParameter + 12
        0x00000e70:    0221        !.      LSLS     r1,r4,#8
        0x00000e72:    4048        H@      EORS     r0,r0,r1
        0x00000e74:    4916        .I      LDR      r1,[pc,#88] ; [0xed0] = 0x3f19999a
        0x00000e76:    4288        .B      CMP      r0,r1
        0x00000e78:    dd00        ..      BLE      0xe7c ; VariableParameter + 20
        0x00000e7a:    4608        .F      MOV      r0,r1
        0x00000e7c:    f001fc2d    ..-.    BL       __aeabi_f2d ; 0x26da
        0x00000e80:    4a14        .J      LDR      r2,[pc,#80] ; [0xed4] = 0x3126e979
        0x00000e82:    4b15        .K      LDR      r3,[pc,#84] ; [0xed8] = 0x3ffaac08
        0x00000e84:    f001faf6    ....    BL       __aeabi_dmul ; 0x2474
        0x00000e88:    2200        ."      MOVS     r2,#0
        0x00000e8a:    4b14        .K      LDR      r3,[pc,#80] ; [0xedc] = 0x3ff00000
        0x00000e8c:    f001faea    ....    BL       __aeabi_drsub ; 0x2464
        0x00000e90:    f001fc4c    ..L.    BL       __aeabi_d2f ; 0x272c
        0x00000e94:    42a0        .B      CMP      r0,r4
        0x00000e96:    d300        ..      BCC      0xe9a ; VariableParameter + 50
        0x00000e98:    2000        .       MOVS     r0,#0
        0x00000e9a:    bd10        ..      POP      {r4,pc}
    Rad
        0x00000e9c:    b510        ..      PUSH     {r4,lr}
        0x00000e9e:    2203        ."      MOVS     r2,#3
        0x00000ea0:    0752        R.      LSLS     r2,r2,#29
        0x00000ea2:    4b0f        .K      LDR      r3,[pc,#60] ; [0xee0] = 0x400921fb
        0x00000ea4:    f001fae6    ....    BL       __aeabi_dmul ; 0x2474
        0x00000ea8:    2200        ."      MOVS     r2,#0
        0x00000eaa:    4b0e        .K      LDR      r3,[pc,#56] ; [0xee4] = 0x40668000
        0x00000eac:    f001fb4a    ..J.    BL       __aeabi_ddiv ; 0x2544
        0x00000eb0:    bd10        ..      POP      {r4,pc}
    Degree
        0x00000eb2:    b510        ..      PUSH     {r4,lr}
        0x00000eb4:    2203        ."      MOVS     r2,#3
        0x00000eb6:    0752        R.      LSLS     r2,r2,#29
        0x00000eb8:    4b09        .K      LDR      r3,[pc,#36] ; [0xee0] = 0x400921fb
        0x00000eba:    f001fb43    ..C.    BL       __aeabi_ddiv ; 0x2544
        0x00000ebe:    2200        ."      MOVS     r2,#0
        0x00000ec0:    4b08        .K      LDR      r3,[pc,#32] ; [0xee4] = 0x40668000
        0x00000ec2:    f001fad7    ....    BL       __aeabi_dmul ; 0x2474
        0x00000ec6:    bd10        ..      POP      {r4,pc}
    $d
        0x00000ec8:    5f3759df    .Y7_    DCD    1597463007
        0x00000ecc:    80800000    ....    DCD    2155872256
        0x00000ed0:    3f19999a    ...?    DCD    1058642330
        0x00000ed4:    3126e979    y.&1    DCD    824633721
        0x00000ed8:    3ffaac08    ...?    DCD    1073392648
        0x00000edc:    3ff00000    ...?    DCD    1072693248
        0x00000ee0:    400921fb    .!.@    DCD    1074340347
        0x00000ee4:    40668000    ..f@    DCD    1080459264
    $t
    .text
    Quaternion_vectorGravity
        0x00000ee8:    b5fe        ..      PUSH     {r1-r7,lr}
        0x00000eea:    460c        .F      MOV      r4,r1
        0x00000eec:    6889        .h      LDR      r1,[r1,#8]
        0x00000eee:    4605        .F      MOV      r5,r0
        0x00000ef0:    6820         h      LDR      r0,[r4,#0]
        0x00000ef2:    f001f986    ....    BL       __aeabi_fmul ; 0x2202
        0x00000ef6:    68e1        .h      LDR      r1,[r4,#0xc]
        0x00000ef8:    4606        .F      MOV      r6,r0
        0x00000efa:    6860        `h      LDR      r0,[r4,#4]
        0x00000efc:    f001f981    ....    BL       __aeabi_fmul ; 0x2202
        0x00000f00:    4631        1F      MOV      r1,r6
        0x00000f02:    f001f976    ..v.    BL       __aeabi_fsub ; 0x21f2
        0x00000f06:    2101        .!      MOVS     r1,#1
        0x00000f08:    f001f9f6    ....    BL       __ARM_scalbnf ; 0x22f8
        0x00000f0c:    9000        ..      STR      r0,[sp,#0]
        0x00000f0e:    68e1        .h      LDR      r1,[r4,#0xc]
        0x00000f10:    68a0        .h      LDR      r0,[r4,#8]
        0x00000f12:    f001f976    ..v.    BL       __aeabi_fmul ; 0x2202
        0x00000f16:    6861        ah      LDR      r1,[r4,#4]
        0x00000f18:    4606        .F      MOV      r6,r0
        0x00000f1a:    6820         h      LDR      r0,[r4,#0]
        0x00000f1c:    f001f971    ..q.    BL       __aeabi_fmul ; 0x2202
        0x00000f20:    4631        1F      MOV      r1,r6
        0x00000f22:    f001f915    ....    BL       __aeabi_fadd ; 0x2150
        0x00000f26:    2101        .!      MOVS     r1,#1
        0x00000f28:    f001f9e6    ....    BL       __ARM_scalbnf ; 0x22f8
        0x00000f2c:    9001        ..      STR      r0,[sp,#4]
        0x00000f2e:    68a1        .h      LDR      r1,[r4,#8]
        0x00000f30:    68a0        .h      LDR      r0,[r4,#8]
        0x00000f32:    f001f966    ..f.    BL       __aeabi_fmul ; 0x2202
        0x00000f36:    6861        ah      LDR      r1,[r4,#4]
        0x00000f38:    4606        .F      MOV      r6,r0
        0x00000f3a:    6860        `h      LDR      r0,[r4,#4]
        0x00000f3c:    f001f961    ..a.    BL       __aeabi_fmul ; 0x2202
        0x00000f40:    4631        1F      MOV      r1,r6
        0x00000f42:    f001f905    ....    BL       __aeabi_fadd ; 0x2150
        0x00000f46:    2101        .!      MOVS     r1,#1
        0x00000f48:    f001f9d6    ....    BL       __ARM_scalbnf ; 0x22f8
        0x00000f4c:    217f        .!      MOVS     r1,#0x7f
        0x00000f4e:    05c9        ..      LSLS     r1,r1,#23
        0x00000f50:    f001f953    ..S.    BL       __aeabi_frsub ; 0x21fa
        0x00000f54:    9002        ..      STR      r0,[sp,#8]
        0x00000f56:    9800        ..      LDR      r0,[sp,#0]
        0x00000f58:    6028        (`      STR      r0,[r5,#0]
        0x00000f5a:    9801        ..      LDR      r0,[sp,#4]
        0x00000f5c:    6068        h`      STR      r0,[r5,#4]
        0x00000f5e:    9802        ..      LDR      r0,[sp,#8]
        0x00000f60:    60a8        .`      STR      r0,[r5,#8]
        0x00000f62:    bdfe        ..      POP      {r1-r7,pc}
    Quaternion_ToAngE
        0x00000f64:    b5f0        ..      PUSH     {r4-r7,lr}
        0x00000f66:    460d        .F      MOV      r5,r1
        0x00000f68:    68c1        .h      LDR      r1,[r0,#0xc]
        0x00000f6a:    b085        ..      SUB      sp,sp,#0x14
        0x00000f6c:    4604        .F      MOV      r4,r0
        0x00000f6e:    68c0        .h      LDR      r0,[r0,#0xc]
        0x00000f70:    f001f947    ..G.    BL       __aeabi_fmul ; 0x2202
        0x00000f74:    9000        ..      STR      r0,[sp,#0]
        0x00000f76:    68a1        .h      LDR      r1,[r4,#8]
        0x00000f78:    68a0        .h      LDR      r0,[r4,#8]
        0x00000f7a:    f001f942    ..B.    BL       __aeabi_fmul ; 0x2202
        0x00000f7e:    6861        ah      LDR      r1,[r4,#4]
        0x00000f80:    4607        .F      MOV      r7,r0
        0x00000f82:    6860        `h      LDR      r0,[r4,#4]
        0x00000f84:    f001f93d    ..=.    BL       __aeabi_fmul ; 0x2202
        0x00000f88:    6821        !h      LDR      r1,[r4,#0]
        0x00000f8a:    4606        .F      MOV      r6,r0
        0x00000f8c:    6820         h      LDR      r0,[r4,#0]
        0x00000f8e:    f001f938    ..8.    BL       __aeabi_fmul ; 0x2202
        0x00000f92:    4631        1F      MOV      r1,r6
        0x00000f94:    f001f8dc    ....    BL       __aeabi_fadd ; 0x2150
        0x00000f98:    4639        9F      MOV      r1,r7
        0x00000f9a:    f001f92a    ..*.    BL       __aeabi_fsub ; 0x21f2
        0x00000f9e:    9900        ..      LDR      r1,[sp,#0]
        0x00000fa0:    f001f927    ..'.    BL       __aeabi_fsub ; 0x21f2
        0x00000fa4:    68a1        .h      LDR      r1,[r4,#8]
        0x00000fa6:    4606        .F      MOV      r6,r0
        0x00000fa8:    6860        `h      LDR      r0,[r4,#4]
        0x00000faa:    f001f92a    ..*.    BL       __aeabi_fmul ; 0x2202
        0x00000fae:    68e1        .h      LDR      r1,[r4,#0xc]
        0x00000fb0:    4607        .F      MOV      r7,r0
        0x00000fb2:    6820         h      LDR      r0,[r4,#0]
        0x00000fb4:    f001f925    ..%.    BL       __aeabi_fmul ; 0x2202
        0x00000fb8:    4639        9F      MOV      r1,r7
        0x00000fba:    f001f8c9    ....    BL       __aeabi_fadd ; 0x2150
        0x00000fbe:    2101        .!      MOVS     r1,#1
        0x00000fc0:    f001f99a    ....    BL       __ARM_scalbnf ; 0x22f8
        0x00000fc4:    9004        ..      STR      r0,[sp,#0x10]
        0x00000fc6:    68a1        .h      LDR      r1,[r4,#8]
        0x00000fc8:    6820         h      LDR      r0,[r4,#0]
        0x00000fca:    f001f91a    ....    BL       __aeabi_fmul ; 0x2202
        0x00000fce:    68e1        .h      LDR      r1,[r4,#0xc]
        0x00000fd0:    4607        .F      MOV      r7,r0
        0x00000fd2:    6860        `h      LDR      r0,[r4,#4]
        0x00000fd4:    f001f915    ....    BL       __aeabi_fmul ; 0x2202
        0x00000fd8:    4639        9F      MOV      r1,r7
        0x00000fda:    f001f90a    ....    BL       __aeabi_fsub ; 0x21f2
        0x00000fde:    2101        .!      MOVS     r1,#1
        0x00000fe0:    f001f98a    ....    BL       __ARM_scalbnf ; 0x22f8
        0x00000fe4:    9003        ..      STR      r0,[sp,#0xc]
        0x00000fe6:    68e1        .h      LDR      r1,[r4,#0xc]
        0x00000fe8:    68a0        .h      LDR      r0,[r4,#8]
        0x00000fea:    f001f90a    ....    BL       __aeabi_fmul ; 0x2202
        0x00000fee:    6861        ah      LDR      r1,[r4,#4]
        0x00000ff0:    4607        .F      MOV      r7,r0
        0x00000ff2:    6820         h      LDR      r0,[r4,#0]
        0x00000ff4:    f001f905    ....    BL       __aeabi_fmul ; 0x2202
        0x00000ff8:    4639        9F      MOV      r1,r7
        0x00000ffa:    f001f8a9    ....    BL       __aeabi_fadd ; 0x2150
        0x00000ffe:    2101        .!      MOVS     r1,#1
        0x00001000:    f001f97a    ..z.    BL       __ARM_scalbnf ; 0x22f8
        0x00001004:    68e1        .h      LDR      r1,[r4,#0xc]
        0x00001006:    4607        .F      MOV      r7,r0
        0x00001008:    68e0        .h      LDR      r0,[r4,#0xc]
        0x0000100a:    f001f8fa    ....    BL       __aeabi_fmul ; 0x2202
        0x0000100e:    9002        ..      STR      r0,[sp,#8]
        0x00001010:    68a1        .h      LDR      r1,[r4,#8]
        0x00001012:    68a0        .h      LDR      r0,[r4,#8]
        0x00001014:    f001f8f5    ....    BL       __aeabi_fmul ; 0x2202
        0x00001018:    9001        ..      STR      r0,[sp,#4]
        0x0000101a:    6861        ah      LDR      r1,[r4,#4]
        0x0000101c:    6860        `h      LDR      r0,[r4,#4]
        0x0000101e:    f001f8f0    ....    BL       __aeabi_fmul ; 0x2202
        0x00001022:    9000        ..      STR      r0,[sp,#0]
        0x00001024:    6821        !h      LDR      r1,[r4,#0]
        0x00001026:    6820         h      LDR      r0,[r4,#0]
        0x00001028:    f001f8eb    ....    BL       __aeabi_fmul ; 0x2202
        0x0000102c:    9900        ..      LDR      r1,[sp,#0]
        0x0000102e:    f001f8e0    ....    BL       __aeabi_fsub ; 0x21f2
        0x00001032:    9901        ..      LDR      r1,[sp,#4]
        0x00001034:    f001f8dd    ....    BL       __aeabi_fsub ; 0x21f2
        0x00001038:    9902        ..      LDR      r1,[sp,#8]
        0x0000103a:    f001f889    ....    BL       __aeabi_fadd ; 0x2150
        0x0000103e:    4604        .F      MOV      r4,r0
        0x00001040:    9803        ..      LDR      r0,[sp,#0xc]
        0x00001042:    f002fd43    ..C.    BL       asinf ; 0x3acc
        0x00001046:    2101        .!      MOVS     r1,#1
        0x00001048:    07c9        ..      LSLS     r1,r1,#31
        0x0000104a:    4048        H@      EORS     r0,r0,r1
        0x0000104c:    6028        (`      STR      r0,[r5,#0]
        0x0000104e:    4621        !F      MOV      r1,r4
        0x00001050:    4638        8F      MOV      r0,r7
        0x00001052:    f002fdc7    ....    BL       atan2f ; 0x3be4
        0x00001056:    6068        h`      STR      r0,[r5,#4]
        0x00001058:    4631        1F      MOV      r1,r6
        0x0000105a:    9804        ..      LDR      r0,[sp,#0x10]
        0x0000105c:    f002fdc2    ....    BL       atan2f ; 0x3be4
        0x00001060:    60a8        .`      STR      r0,[r5,#8]
        0x00001062:    b005        ..      ADD      sp,sp,#0x14
        0x00001064:    bdf0        ..      POP      {r4-r7,pc}
    Quaternion_Normalize
        0x00001066:    b5f8        ..      PUSH     {r3-r7,lr}
        0x00001068:    68c1        .h      LDR      r1,[r0,#0xc]
        0x0000106a:    4604        .F      MOV      r4,r0
        0x0000106c:    68c0        .h      LDR      r0,[r0,#0xc]
        0x0000106e:    f001f8c8    ....    BL       __aeabi_fmul ; 0x2202
        0x00001072:    68a1        .h      LDR      r1,[r4,#8]
        0x00001074:    4607        .F      MOV      r7,r0
        0x00001076:    68a0        .h      LDR      r0,[r4,#8]
        0x00001078:    f001f8c3    ....    BL       __aeabi_fmul ; 0x2202
        0x0000107c:    6861        ah      LDR      r1,[r4,#4]
        0x0000107e:    4606        .F      MOV      r6,r0
        0x00001080:    6860        `h      LDR      r0,[r4,#4]
        0x00001082:    f001f8be    ....    BL       __aeabi_fmul ; 0x2202
        0x00001086:    6821        !h      LDR      r1,[r4,#0]
        0x00001088:    4605        .F      MOV      r5,r0
        0x0000108a:    6820         h      LDR      r0,[r4,#0]
        0x0000108c:    f001f8b9    ....    BL       __aeabi_fmul ; 0x2202
        0x00001090:    4629        )F      MOV      r1,r5
        0x00001092:    f001f85d    ..].    BL       __aeabi_fadd ; 0x2150
        0x00001096:    4631        1F      MOV      r1,r6
        0x00001098:    f001f85a    ..Z.    BL       __aeabi_fadd ; 0x2150
        0x0000109c:    4639        9F      MOV      r1,r7
        0x0000109e:    f001f857    ..W.    BL       __aeabi_fadd ; 0x2150
        0x000010a2:    f7fffec9    ....    BL       Q_rsqrt ; 0xe38
        0x000010a6:    4605        .F      MOV      r5,r0
        0x000010a8:    6820         h      LDR      r0,[r4,#0]
        0x000010aa:    4629        )F      MOV      r1,r5
        0x000010ac:    f001f8a9    ....    BL       __aeabi_fmul ; 0x2202
        0x000010b0:    6020         `      STR      r0,[r4,#0]
        0x000010b2:    6860        `h      LDR      r0,[r4,#4]
        0x000010b4:    4629        )F      MOV      r1,r5
        0x000010b6:    f001f8a4    ....    BL       __aeabi_fmul ; 0x2202
        0x000010ba:    6060        ``      STR      r0,[r4,#4]
        0x000010bc:    68a0        .h      LDR      r0,[r4,#8]
        0x000010be:    4629        )F      MOV      r1,r5
        0x000010c0:    f001f89f    ....    BL       __aeabi_fmul ; 0x2202
        0x000010c4:    60a0        .`      STR      r0,[r4,#8]
        0x000010c6:    68e0        .h      LDR      r0,[r4,#0xc]
        0x000010c8:    4629        )F      MOV      r1,r5
        0x000010ca:    f001f89a    ....    BL       __aeabi_fmul ; 0x2202
        0x000010ce:    60e0        .`      STR      r0,[r4,#0xc]
        0x000010d0:    bdf8        ..      POP      {r3-r7,pc}
    Quaternion_RungeKutta
        0x000010d2:    b5ff        ..      PUSH     {r0-r7,lr}
        0x000010d4:    4604        .F      MOV      r4,r0
        0x000010d6:    6800        .h      LDR      r0,[r0,#0]
        0x000010d8:    b083        ..      SUB      sp,sp,#0xc
        0x000010da:    9000        ..      STR      r0,[sp,#0]
        0x000010dc:    6865        eh      LDR      r5,[r4,#4]
        0x000010de:    68a7        .h      LDR      r7,[r4,#8]
        0x000010e0:    68e6        .h      LDR      r6,[r4,#0xc]
        0x000010e2:    9906        ..      LDR      r1,[sp,#0x18]
        0x000010e4:    4630        0F      MOV      r0,r6
        0x000010e6:    f001f88c    ....    BL       __aeabi_fmul ; 0x2202
        0x000010ea:    9002        ..      STR      r0,[sp,#8]
        0x000010ec:    4638        8F      MOV      r0,r7
        0x000010ee:    9905        ..      LDR      r1,[sp,#0x14]
        0x000010f0:    f001f887    ....    BL       __aeabi_fmul ; 0x2202
        0x000010f4:    9001        ..      STR      r0,[sp,#4]
        0x000010f6:    2001        .       MOVS     r0,#1
        0x000010f8:    07c0        ..      LSLS     r0,r0,#31
        0x000010fa:    4068        h@      EORS     r0,r0,r5
        0x000010fc:    9904        ..      LDR      r1,[sp,#0x10]
        0x000010fe:    f001f880    ....    BL       __aeabi_fmul ; 0x2202
        0x00001102:    9901        ..      LDR      r1,[sp,#4]
        0x00001104:    f001f875    ..u.    BL       __aeabi_fsub ; 0x21f2
        0x00001108:    9902        ..      LDR      r1,[sp,#8]
        0x0000110a:    f001f872    ..r.    BL       __aeabi_fsub ; 0x21f2
        0x0000110e:    990c        ..      LDR      r1,[sp,#0x30]
        0x00001110:    f001f877    ..w.    BL       __aeabi_fmul ; 0x2202
        0x00001114:    6821        !h      LDR      r1,[r4,#0]
        0x00001116:    f001f81b    ....    BL       __aeabi_fadd ; 0x2150
        0x0000111a:    6020         `      STR      r0,[r4,#0]
        0x0000111c:    4638        8F      MOV      r0,r7
        0x0000111e:    9906        ..      LDR      r1,[sp,#0x18]
        0x00001120:    f001f86f    ..o.    BL       __aeabi_fmul ; 0x2202
        0x00001124:    9002        ..      STR      r0,[sp,#8]
        0x00001126:    4630        0F      MOV      r0,r6
        0x00001128:    9905        ..      LDR      r1,[sp,#0x14]
        0x0000112a:    f001f86a    ..j.    BL       __aeabi_fmul ; 0x2202
        0x0000112e:    9001        ..      STR      r0,[sp,#4]
        0x00001130:    9904        ..      LDR      r1,[sp,#0x10]
        0x00001132:    9800        ..      LDR      r0,[sp,#0]
        0x00001134:    f001f865    ..e.    BL       __aeabi_fmul ; 0x2202
        0x00001138:    9901        ..      LDR      r1,[sp,#4]
        0x0000113a:    f001f85a    ..Z.    BL       __aeabi_fsub ; 0x21f2
        0x0000113e:    9902        ..      LDR      r1,[sp,#8]
        0x00001140:    f001f806    ....    BL       __aeabi_fadd ; 0x2150
        0x00001144:    990c        ..      LDR      r1,[sp,#0x30]
        0x00001146:    f001f85c    ..\.    BL       __aeabi_fmul ; 0x2202
        0x0000114a:    6861        ah      LDR      r1,[r4,#4]
        0x0000114c:    f001f800    ....    BL       __aeabi_fadd ; 0x2150
        0x00001150:    6060        ``      STR      r0,[r4,#4]
        0x00001152:    4628        (F      MOV      r0,r5
        0x00001154:    9906        ..      LDR      r1,[sp,#0x18]
        0x00001156:    f001f854    ..T.    BL       __aeabi_fmul ; 0x2202
        0x0000115a:    9002        ..      STR      r0,[sp,#8]
        0x0000115c:    9905        ..      LDR      r1,[sp,#0x14]
        0x0000115e:    9800        ..      LDR      r0,[sp,#0]
        0x00001160:    f001f84f    ..O.    BL       __aeabi_fmul ; 0x2202
        0x00001164:    9001        ..      STR      r0,[sp,#4]
        0x00001166:    4630        0F      MOV      r0,r6
        0x00001168:    9904        ..      LDR      r1,[sp,#0x10]
        0x0000116a:    f001f84a    ..J.    BL       __aeabi_fmul ; 0x2202
        0x0000116e:    9901        ..      LDR      r1,[sp,#4]
        0x00001170:    f000ffee    ....    BL       __aeabi_fadd ; 0x2150
        0x00001174:    9902        ..      LDR      r1,[sp,#8]
        0x00001176:    f001f83c    ..<.    BL       __aeabi_fsub ; 0x21f2
        0x0000117a:    990c        ..      LDR      r1,[sp,#0x30]
        0x0000117c:    f001f841    ..A.    BL       __aeabi_fmul ; 0x2202
        0x00001180:    68a1        .h      LDR      r1,[r4,#8]
        0x00001182:    f000ffe5    ....    BL       __aeabi_fadd ; 0x2150
        0x00001186:    60a0        .`      STR      r0,[r4,#8]
        0x00001188:    9906        ..      LDR      r1,[sp,#0x18]
        0x0000118a:    9800        ..      LDR      r0,[sp,#0]
        0x0000118c:    f001f839    ..9.    BL       __aeabi_fmul ; 0x2202
        0x00001190:    4606        .F      MOV      r6,r0
        0x00001192:    4638        8F      MOV      r0,r7
        0x00001194:    9904        ..      LDR      r1,[sp,#0x10]
        0x00001196:    f001f834    ..4.    BL       __aeabi_fmul ; 0x2202
        0x0000119a:    4607        .F      MOV      r7,r0
        0x0000119c:    4628        (F      MOV      r0,r5
        0x0000119e:    9905        ..      LDR      r1,[sp,#0x14]
        0x000011a0:    f001f82f    ../.    BL       __aeabi_fmul ; 0x2202
        0x000011a4:    4639        9F      MOV      r1,r7
        0x000011a6:    f001f824    ..$.    BL       __aeabi_fsub ; 0x21f2
        0x000011aa:    4631        1F      MOV      r1,r6
        0x000011ac:    f000ffd0    ....    BL       __aeabi_fadd ; 0x2150
        0x000011b0:    990c        ..      LDR      r1,[sp,#0x30]
        0x000011b2:    f001f826    ..&.    BL       __aeabi_fmul ; 0x2202
        0x000011b6:    68e1        .h      LDR      r1,[r4,#0xc]
        0x000011b8:    f000ffca    ....    BL       __aeabi_fadd ; 0x2150
        0x000011bc:    60e0        .`      STR      r0,[r4,#0xc]
        0x000011be:    b007        ..      ADD      sp,sp,#0x1c
        0x000011c0:    bdf0        ..      POP      {r4-r7,pc}
        0x000011c2:    0000        ..      MOVS     r0,r0
    .text
    stabilize_init
        0x000011c4:    2001        .       MOVS     r0,#1
        0x000011c6:    4770        pG      BX       lr
    set_flight_mode
        0x000011c8:    b510        ..      PUSH     {r4,lr}
        0x000011ca:    4b0a        .K      LDR      r3,[pc,#40] ; [0x11f4] = 0x20000020
        0x000011cc:    4601        .F      MOV      r1,r0
        0x000011ce:    781a        .x      LDRB     r2,[r3,#0]
        0x000011d0:    2000        .       MOVS     r0,#0
        0x000011d2:    2401        .$      MOVS     r4,#1
        0x000011d4:    4291        .B      CMP      r1,r2
        0x000011d6:    d102        ..      BNE      0x11de ; set_flight_mode + 22
        0x000011d8:    705a        Zp      STRB     r2,[r3,#1]
        0x000011da:    2001        .       MOVS     r0,#1
        0x000011dc:    bd10        ..      POP      {r4,pc}
        0x000011de:    2900        .)      CMP      r1,#0
        0x000011e0:    d8fc        ..      BHI      0x11dc ; set_flight_mode + 20
        0x000011e2:    4620         F      MOV      r0,r4
        0x000011e4:    f7ffffee    ....    BL       stabilize_init ; 0x11c4
        0x000011e8:    2800        .(      CMP      r0,#0
        0x000011ea:    d0f7        ..      BEQ      0x11dc ; set_flight_mode + 20
        0x000011ec:    7019        .p      STRB     r1,[r3,#0]
        0x000011ee:    7059        Yp      STRB     r1,[r3,#1]
        0x000011f0:    bd10        ..      POP      {r4,pc}
    $d
        0x000011f2:    0000        ..      DCW    0
        0x000011f4:    20000020     ..     DCD    536870944
    $t
    .text
    scheduler_init
        0x000011f8:    b510        ..      PUSH     {r4,lr}
        0x000011fa:    4963        cI      LDR      r1,[pc,#396] ; [0x1388] = 0x200000f0
        0x000011fc:    2000        .       MOVS     r0,#0
        0x000011fe:    7008        .p      STRB     r0,[r1,#0]
        0x00001200:    7048        Hp      STRB     r0,[r1,#1]
        0x00001202:    7088        .p      STRB     r0,[r1,#2]
        0x00001204:    70c8        .p      STRB     r0,[r1,#3]
        0x00001206:    7108        .q      STRB     r0,[r1,#4]
        0x00001208:    7148        Hq      STRB     r0,[r1,#5]
        0x0000120a:    7188        .q      STRB     r0,[r1,#6]
        0x0000120c:    71c8        .q      STRB     r0,[r1,#7]
        0x0000120e:    7208        .r      STRB     r0,[r1,#8]
        0x00001210:    4c5f        _L      LDR      r4,[pc,#380] ; [0x1390] = 0x40010020
        0x00001212:    2101        .!      MOVS     r1,#1
        0x00001214:    4a5d        ]J      LDR      r2,[pc,#372] ; [0x138c] = 0x2710
        0x00001216:    06c9        ..      LSLS     r1,r1,#27
        0x00001218:    4620         F      MOV      r0,r4
        0x0000121a:    f000fec8    ....    BL       TIMER_Open ; 0x1fae
        0x0000121e:    6821        !h      LDR      r1,[r4,#0]
        0x00001220:    0622        ".      LSLS     r2,r4,#24
        0x00001222:    4311        .C      ORRS     r1,r1,r2
        0x00001224:    6021        !`      STR      r1,[r4,#0]
        0x00001226:    495b        [I      LDR      r1,[pc,#364] ; [0x1394] = 0xe000e100
        0x00001228:    1510        ..      ASRS     r0,r2,#20
        0x0000122a:    6008        .`      STR      r0,[r1,#0]
        0x0000122c:    4a5a        ZJ      LDR      r2,[pc,#360] ; [0x1398] = 0xe000e408
        0x0000122e:    6811        .h      LDR      r1,[r2,#0]
        0x00001230:    20ff        .       MOVS     r0,#0xff
        0x00001232:    0200        ..      LSLS     r0,r0,#8
        0x00001234:    4381        .C      BICS     r1,r1,r0
        0x00001236:    6011        .`      STR      r1,[r2,#0]
        0x00001238:    6821        !h      LDR      r1,[r4,#0]
        0x0000123a:    06d0        ..      LSLS     r0,r2,#27
        0x0000123c:    4381        .C      BICS     r1,r1,r0
        0x0000123e:    6021        !`      STR      r1,[r4,#0]
        0x00001240:    bd10        ..      POP      {r4,pc}
    fast_loop
        0x00001242:    b510        ..      PUSH     {r4,lr}
        0x00001244:    f7fffb8a    ....    BL       fbm320_timer_procedure ; 0x95c
        0x00001248:    4c4f        OL      LDR      r4,[pc,#316] ; [0x1388] = 0x200000f0
        0x0000124a:    7a20         z      LDRB     r0,[r4,#8]
        0x0000124c:    2800        .(      CMP      r0,#0
        0x0000124e:    d005        ..      BEQ      0x125c ; fast_loop + 26
        0x00001250:    f000fa32    ..2.    BL       inertial_sensor_read ; 0x16b8
        0x00001254:    f000f9b9    ....    BL       AHRS_Update ; 0x15ca
        0x00001258:    2000        .       MOVS     r0,#0
        0x0000125a:    7220         r      STRB     r0,[r4,#8]
        0x0000125c:    bd10        ..      POP      {r4,pc}
    time_slice
        0x0000125e:    b530        0.      PUSH     {r4,r5,lr}
        0x00001260:    484e        NH      LDR      r0,[pc,#312] ; [0x139c] = 0x20000024
        0x00001262:    8801        ..      LDRH     r1,[r0,#0]
        0x00001264:    1c49        I.      ADDS     r1,r1,#1
        0x00001266:    b28c        ..      UXTH     r4,r1
        0x00001268:    4947        GI      LDR      r1,[pc,#284] ; [0x1388] = 0x200000f0
        0x0000126a:    8004        ..      STRH     r4,[r0,#0]
        0x0000126c:    784a        Jx      LDRB     r2,[r1,#1]
        0x0000126e:    2a00        .*      CMP      r2,#0
        0x00001270:    d102        ..      BNE      0x1278 ; time_slice + 26
        0x00001272:    8842        B.      LDRH     r2,[r0,#2]
        0x00001274:    1c52        R.      ADDS     r2,r2,#1
        0x00001276:    8042        B.      STRH     r2,[r0,#2]
        0x00001278:    788a        .x      LDRB     r2,[r1,#2]
        0x0000127a:    2a00        .*      CMP      r2,#0
        0x0000127c:    d102        ..      BNE      0x1284 ; time_slice + 38
        0x0000127e:    8882        ..      LDRH     r2,[r0,#4]
        0x00001280:    1c52        R.      ADDS     r2,r2,#1
        0x00001282:    8082        ..      STRH     r2,[r0,#4]
        0x00001284:    78ca        .x      LDRB     r2,[r1,#3]
        0x00001286:    2a00        .*      CMP      r2,#0
        0x00001288:    d102        ..      BNE      0x1290 ; time_slice + 50
        0x0000128a:    88c2        ..      LDRH     r2,[r0,#6]
        0x0000128c:    1c52        R.      ADDS     r2,r2,#1
        0x0000128e:    80c2        ..      STRH     r2,[r0,#6]
        0x00001290:    790a        .y      LDRB     r2,[r1,#4]
        0x00001292:    2a00        .*      CMP      r2,#0
        0x00001294:    d102        ..      BNE      0x129c ; time_slice + 62
        0x00001296:    8902        ..      LDRH     r2,[r0,#8]
        0x00001298:    1c52        R.      ADDS     r2,r2,#1
        0x0000129a:    8102        ..      STRH     r2,[r0,#8]
        0x0000129c:    794a        Jy      LDRB     r2,[r1,#5]
        0x0000129e:    2a00        .*      CMP      r2,#0
        0x000012a0:    d102        ..      BNE      0x12a8 ; time_slice + 74
        0x000012a2:    8942        B.      LDRH     r2,[r0,#0xa]
        0x000012a4:    1c52        R.      ADDS     r2,r2,#1
        0x000012a6:    8142        B.      STRH     r2,[r0,#0xa]
        0x000012a8:    798a        .y      LDRB     r2,[r1,#6]
        0x000012aa:    2a00        .*      CMP      r2,#0
        0x000012ac:    d102        ..      BNE      0x12b4 ; time_slice + 86
        0x000012ae:    8982        ..      LDRH     r2,[r0,#0xc]
        0x000012b0:    1c52        R.      ADDS     r2,r2,#1
        0x000012b2:    8182        ..      STRH     r2,[r0,#0xc]
        0x000012b4:    79ca        .y      LDRB     r2,[r1,#7]
        0x000012b6:    2a00        .*      CMP      r2,#0
        0x000012b8:    d102        ..      BNE      0x12c0 ; time_slice + 98
        0x000012ba:    89c2        ..      LDRH     r2,[r0,#0xe]
        0x000012bc:    1c52        R.      ADDS     r2,r2,#1
        0x000012be:    81c2        ..      STRH     r2,[r0,#0xe]
        0x000012c0:    7a0a        .z      LDRB     r2,[r1,#8]
        0x000012c2:    2a00        .*      CMP      r2,#0
        0x000012c4:    d102        ..      BNE      0x12cc ; time_slice + 110
        0x000012c6:    8a02        ..      LDRH     r2,[r0,#0x10]
        0x000012c8:    1c52        R.      ADDS     r2,r2,#1
        0x000012ca:    8202        ..      STRH     r2,[r0,#0x10]
        0x000012cc:    4d2f        /M      LDR      r5,[pc,#188] ; [0x138c] = 0x2710
        0x000012ce:    2200        ."      MOVS     r2,#0
        0x000012d0:    2301        .#      MOVS     r3,#1
        0x000012d2:    42ac        .B      CMP      r4,r5
        0x000012d4:    d301        ..      BCC      0x12da ; time_slice + 124
        0x000012d6:    700b        .p      STRB     r3,[r1,#0]
        0x000012d8:    8002        ..      STRH     r2,[r0,#0]
        0x000012da:    8844        D.      LDRH     r4,[r0,#2]
        0x000012dc:    257d        }%      MOVS     r5,#0x7d
        0x000012de:    012d        -.      LSLS     r5,r5,#4
        0x000012e0:    42ac        .B      CMP      r4,r5
        0x000012e2:    d301        ..      BCC      0x12e8 ; time_slice + 138
        0x000012e4:    704b        Kp      STRB     r3,[r1,#1]
        0x000012e6:    8042        B.      STRH     r2,[r0,#2]
        0x000012e8:    8884        ..      LDRH     r4,[r0,#4]
        0x000012ea:    257d        }%      MOVS     r5,#0x7d
        0x000012ec:    00ed        ..      LSLS     r5,r5,#3
        0x000012ee:    42ac        .B      CMP      r4,r5
        0x000012f0:    d301        ..      BCC      0x12f6 ; time_slice + 152
        0x000012f2:    708b        .p      STRB     r3,[r1,#2]
        0x000012f4:    8082        ..      STRH     r2,[r0,#4]
        0x000012f6:    88c4        ..      LDRH     r4,[r0,#6]
        0x000012f8:    25ff        .%      MOVS     r5,#0xff
        0x000012fa:    35f5        .5      ADDS     r5,r5,#0xf5
        0x000012fc:    42ac        .B      CMP      r4,r5
        0x000012fe:    d301        ..      BCC      0x1304 ; time_slice + 166
        0x00001300:    70cb        .p      STRB     r3,[r1,#3]
        0x00001302:    80c2        ..      STRH     r2,[r0,#6]
        0x00001304:    8904        ..      LDRH     r4,[r0,#8]
        0x00001306:    2cc8        .,      CMP      r4,#0xc8
        0x00001308:    d301        ..      BCC      0x130e ; time_slice + 176
        0x0000130a:    710b        .q      STRB     r3,[r1,#4]
        0x0000130c:    8102        ..      STRH     r2,[r0,#8]
        0x0000130e:    8944        D.      LDRH     r4,[r0,#0xa]
        0x00001310:    2c64        d,      CMP      r4,#0x64
        0x00001312:    d301        ..      BCC      0x1318 ; time_slice + 186
        0x00001314:    714b        Kq      STRB     r3,[r1,#5]
        0x00001316:    8142        B.      STRH     r2,[r0,#0xa]
        0x00001318:    8984        ..      LDRH     r4,[r0,#0xc]
        0x0000131a:    2c32        2,      CMP      r4,#0x32
        0x0000131c:    d301        ..      BCC      0x1322 ; time_slice + 196
        0x0000131e:    718b        .q      STRB     r3,[r1,#6]
        0x00001320:    8182        ..      STRH     r2,[r0,#0xc]
        0x00001322:    89c4        ..      LDRH     r4,[r0,#0xe]
        0x00001324:    2c19        .,      CMP      r4,#0x19
        0x00001326:    d301        ..      BCC      0x132c ; time_slice + 206
        0x00001328:    71cb        .q      STRB     r3,[r1,#7]
        0x0000132a:    81c2        ..      STRH     r2,[r0,#0xe]
        0x0000132c:    8a04        ..      LDRH     r4,[r0,#0x10]
        0x0000132e:    2c19        .,      CMP      r4,#0x19
        0x00001330:    d301        ..      BCC      0x1336 ; time_slice + 216
        0x00001332:    720b        .r      STRB     r3,[r1,#8]
        0x00001334:    8202        ..      STRH     r2,[r0,#0x10]
        0x00001336:    bd30        0.      POP      {r4,r5,pc}
    TMR1_IRQHandler
        0x00001338:    b510        ..      PUSH     {r4,lr}
        0x0000133a:    f7ffff90    ....    BL       time_slice ; 0x125e
        0x0000133e:    f7ffff80    ....    BL       fast_loop ; 0x1242
        0x00001342:    4913        .I      LDR      r1,[pc,#76] ; [0x1390] = 0x40010020
        0x00001344:    2001        .       MOVS     r0,#1
        0x00001346:    6088        .`      STR      r0,[r1,#8]
        0x00001348:    bd10        ..      POP      {r4,pc}
    scheduler_run
        0x0000134a:    b570        p.      PUSH     {r4-r6,lr}
        0x0000134c:    4d0e        .M      LDR      r5,[pc,#56] ; [0x1388] = 0x200000f0
        0x0000134e:    2400        .$      MOVS     r4,#0
        0x00001350:    7828        (x      LDRB     r0,[r5,#0]
        0x00001352:    2800        .(      CMP      r0,#0
        0x00001354:    d007        ..      BEQ      0x1366 ; scheduler_run + 28
        0x00001356:    4911        .I      LDR      r1,[pc,#68] ; [0x139c] = 0x20000024
        0x00001358:    6948        Hi      LDR      r0,[r1,#0x14]
        0x0000135a:    1c40        @.      ADDS     r0,r0,#1
        0x0000135c:    6148        Ha      STR      r0,[r1,#0x14]
        0x0000135e:    283c        <(      CMP      r0,#0x3c
        0x00001360:    d100        ..      BNE      0x1364 ; scheduler_run + 26
        0x00001362:    614c        La      STR      r4,[r1,#0x14]
        0x00001364:    702c        ,p      STRB     r4,[r5,#0]
        0x00001366:    78a8        .x      LDRB     r0,[r5,#2]
        0x00001368:    2800        .(      CMP      r0,#0
        0x0000136a:    d000        ..      BEQ      0x136e ; scheduler_run + 36
        0x0000136c:    70ac        .p      STRB     r4,[r5,#2]
        0x0000136e:    7928        (y      LDRB     r0,[r5,#4]
        0x00001370:    2800        .(      CMP      r0,#0
        0x00001372:    d003        ..      BEQ      0x137c ; scheduler_run + 50
        0x00001374:    2000        .       MOVS     r0,#0
        0x00001376:    f7ffff27    ..'.    BL       set_flight_mode ; 0x11c8
        0x0000137a:    712c        ,q      STRB     r4,[r5,#4]
        0x0000137c:    79e8        .y      LDRB     r0,[r5,#7]
        0x0000137e:    2800        .(      CMP      r0,#0
        0x00001380:    d000        ..      BEQ      0x1384 ; scheduler_run + 58
        0x00001382:    71ec        .q      STRB     r4,[r5,#7]
        0x00001384:    bd70        p.      POP      {r4-r6,pc}
    $d
        0x00001386:    0000        ..      DCW    0
        0x00001388:    200000f0    ...     DCD    536871152
        0x0000138c:    00002710    .'..    DCD    10000
        0x00001390:    40010020     ..@    DCD    1073807392
        0x00001394:    e000e100    ....    DCD    3758153984
        0x00001398:    e000e408    ....    DCD    3758154760
        0x0000139c:    20000024    $..     DCD    536870948
    $t
    .text
    AHRS_GetQ
        0x000013a0:    b5f0        ..      PUSH     {r4-r7,lr}
        0x000013a2:    4ca6        .L      LDR      r4,[pc,#664] ; [0x163c] = 0x20000210
        0x000013a4:    b087        ..      SUB      sp,sp,#0x1c
        0x000013a6:    69e0        .i      LDR      r0,[r4,#0x1c]
        0x000013a8:    f001f997    ....    BL       __aeabi_f2d ; 0x26da
        0x000013ac:    9000        ..      STR      r0,[sp,#0]
        0x000013ae:    460f        .F      MOV      r7,r1
        0x000013b0:    69a0        .i      LDR      r0,[r4,#0x18]
        0x000013b2:    f001f992    ....    BL       __aeabi_f2d ; 0x26da
        0x000013b6:    4605        .F      MOV      r5,r0
        0x000013b8:    460e        .F      MOV      r6,r1
        0x000013ba:    6960        `i      LDR      r0,[r4,#0x14]
        0x000013bc:    f001f98d    ....    BL       __aeabi_f2d ; 0x26da
        0x000013c0:    4602        .F      MOV      r2,r0
        0x000013c2:    9800        ..      LDR      r0,[sp,#0]
        0x000013c4:    9002        ..      STR      r0,[sp,#8]
        0x000013c6:    460b        .F      MOV      r3,r1
        0x000013c8:    9703        ..      STR      r7,[sp,#0xc]
        0x000013ca:    9601        ..      STR      r6,[sp,#4]
        0x000013cc:    9500        ..      STR      r5,[sp,#0]
        0x000013ce:    a09c        ..      ADR      r0,{pc}+0x272 ; 0x1640
        0x000013d0:    f001fb74    ..t.    BL       __0printf ; 0x2abc
        0x000013d4:    6de0        .m      LDR      r0,[r4,#0x5c]
        0x000013d6:    f001f980    ....    BL       __aeabi_f2d ; 0x26da
        0x000013da:    4607        .F      MOV      r7,r0
        0x000013dc:    9100        ..      STR      r1,[sp,#0]
        0x000013de:    6da0        .m      LDR      r0,[r4,#0x58]
        0x000013e0:    f001f97b    ..{.    BL       __aeabi_f2d ; 0x26da
        0x000013e4:    4605        .F      MOV      r5,r0
        0x000013e6:    460e        .F      MOV      r6,r1
        0x000013e8:    6d60        `m      LDR      r0,[r4,#0x54]
        0x000013ea:    f001f976    ..v.    BL       __aeabi_f2d ; 0x26da
        0x000013ee:    460b        .F      MOV      r3,r1
        0x000013f0:    9900        ..      LDR      r1,[sp,#0]
        0x000013f2:    9103        ..      STR      r1,[sp,#0xc]
        0x000013f4:    4669        iF      MOV      r1,sp
        0x000013f6:    c1e0        ..      STM      r1!,{r5-r7}
        0x000013f8:    4602        .F      MOV      r2,r0
        0x000013fa:    a09d        ..      ADR      r0,{pc}+0x276 ; 0x1670
        0x000013fc:    f001fb5e    ..^.    BL       __0printf ; 0x2abc
        0x00001400:    69e0        .i      LDR      r0,[r4,#0x1c]
        0x00001402:    4601        .F      MOV      r1,r0
        0x00001404:    f000fefd    ....    BL       __aeabi_fmul ; 0x2202
        0x00001408:    4605        .F      MOV      r5,r0
        0x0000140a:    69a0        .i      LDR      r0,[r4,#0x18]
        0x0000140c:    4601        .F      MOV      r1,r0
        0x0000140e:    f000fef8    ....    BL       __aeabi_fmul ; 0x2202
        0x00001412:    4606        .F      MOV      r6,r0
        0x00001414:    6960        `i      LDR      r0,[r4,#0x14]
        0x00001416:    4601        .F      MOV      r1,r0
        0x00001418:    f000fef3    ....    BL       __aeabi_fmul ; 0x2202
        0x0000141c:    4631        1F      MOV      r1,r6
        0x0000141e:    f000fe97    ....    BL       __aeabi_fadd ; 0x2150
        0x00001422:    4629        )F      MOV      r1,r5
        0x00001424:    f000fe94    ....    BL       __aeabi_fadd ; 0x2150
        0x00001428:    f7fffd06    ....    BL       Q_rsqrt ; 0xe38
        0x0000142c:    4605        .F      MOV      r5,r0
        0x0000142e:    4629        )F      MOV      r1,r5
        0x00001430:    6960        `i      LDR      r0,[r4,#0x14]
        0x00001432:    f000fee6    ....    BL       __aeabi_fmul ; 0x2202
        0x00001436:    9005        ..      STR      r0,[sp,#0x14]
        0x00001438:    4629        )F      MOV      r1,r5
        0x0000143a:    69a0        .i      LDR      r0,[r4,#0x18]
        0x0000143c:    f000fee1    ....    BL       __aeabi_fmul ; 0x2202
        0x00001440:    9004        ..      STR      r0,[sp,#0x10]
        0x00001442:    4629        )F      MOV      r1,r5
        0x00001444:    69e0        .i      LDR      r0,[r4,#0x1c]
        0x00001446:    f000fedc    ....    BL       __aeabi_fmul ; 0x2202
        0x0000144a:    4607        .F      MOV      r7,r0
        0x0000144c:    4995        .I      LDR      r1,[pc,#596] ; [0x16a4] = 0x20000048
        0x0000144e:    4668        hF      MOV      r0,sp
        0x00001450:    f7fffd4a    ..J.    BL       Quaternion_vectorGravity ; 0xee8
        0x00001454:    4d94        .M      LDR      r5,[pc,#592] ; [0x16a8] = 0x20000114
        0x00001456:    9800        ..      LDR      r0,[sp,#0]
        0x00001458:    6028        (`      STR      r0,[r5,#0]
        0x0000145a:    9801        ..      LDR      r0,[sp,#4]
        0x0000145c:    6068        h`      STR      r0,[r5,#4]
        0x0000145e:    9802        ..      LDR      r0,[sp,#8]
        0x00001460:    60a8        .`      STR      r0,[r5,#8]
        0x00001462:    6869        ih      LDR      r1,[r5,#4]
        0x00001464:    4638        8F      MOV      r0,r7
        0x00001466:    f000fecc    ....    BL       __aeabi_fmul ; 0x2202
        0x0000146a:    68a9        .h      LDR      r1,[r5,#8]
        0x0000146c:    4606        .F      MOV      r6,r0
        0x0000146e:    9804        ..      LDR      r0,[sp,#0x10]
        0x00001470:    f000fec7    ....    BL       __aeabi_fmul ; 0x2202
        0x00001474:    4631        1F      MOV      r1,r6
        0x00001476:    f000febc    ....    BL       __aeabi_fsub ; 0x21f2
        0x0000147a:    9000        ..      STR      r0,[sp,#0]
        0x0000147c:    68a9        .h      LDR      r1,[r5,#8]
        0x0000147e:    9805        ..      LDR      r0,[sp,#0x14]
        0x00001480:    f000febf    ....    BL       __aeabi_fmul ; 0x2202
        0x00001484:    6829        )h      LDR      r1,[r5,#0]
        0x00001486:    4606        .F      MOV      r6,r0
        0x00001488:    4638        8F      MOV      r0,r7
        0x0000148a:    f000feba    ....    BL       __aeabi_fmul ; 0x2202
        0x0000148e:    4631        1F      MOV      r1,r6
        0x00001490:    f000feaf    ....    BL       __aeabi_fsub ; 0x21f2
        0x00001494:    9003        ..      STR      r0,[sp,#0xc]
        0x00001496:    6829        )h      LDR      r1,[r5,#0]
        0x00001498:    9804        ..      LDR      r0,[sp,#0x10]
        0x0000149a:    f000feb2    ....    BL       __aeabi_fmul ; 0x2202
        0x0000149e:    6869        ih      LDR      r1,[r5,#4]
        0x000014a0:    4606        .F      MOV      r6,r0
        0x000014a2:    9805        ..      LDR      r0,[sp,#0x14]
        0x000014a4:    f000fead    ....    BL       __aeabi_fmul ; 0x2202
        0x000014a8:    4631        1F      MOV      r1,r6
        0x000014aa:    f000fea2    ....    BL       __aeabi_fsub ; 0x21f2
        0x000014ae:    4607        .F      MOV      r7,r0
        0x000014b0:    497e        ~I      LDR      r1,[pc,#504] ; [0x16ac] = 0x3a03126f
        0x000014b2:    9800        ..      LDR      r0,[sp,#0]
        0x000014b4:    f000fea5    ....    BL       __aeabi_fmul ; 0x2202
        0x000014b8:    4d7a        zM      LDR      r5,[pc,#488] ; [0x16a4] = 0x20000048
        0x000014ba:    3d0c        .=      SUBS     r5,r5,#0xc
        0x000014bc:    6829        )h      LDR      r1,[r5,#0]
        0x000014be:    f000fe47    ..G.    BL       __aeabi_fadd ; 0x2150
        0x000014c2:    4606        .F      MOV      r6,r0
        0x000014c4:    6028        (`      STR      r0,[r5,#0]
        0x000014c6:    4979        yI      LDR      r1,[pc,#484] ; [0x16ac] = 0x3a03126f
        0x000014c8:    9803        ..      LDR      r0,[sp,#0xc]
        0x000014ca:    f000fe9a    ....    BL       __aeabi_fmul ; 0x2202
        0x000014ce:    6869        ih      LDR      r1,[r5,#4]
        0x000014d0:    f000fe3e    ..>.    BL       __aeabi_fadd ; 0x2150
        0x000014d4:    6068        h`      STR      r0,[r5,#4]
        0x000014d6:    4975        uI      LDR      r1,[pc,#468] ; [0x16ac] = 0x3a03126f
        0x000014d8:    4638        8F      MOV      r0,r7
        0x000014da:    f000fe92    ....    BL       __aeabi_fmul ; 0x2202
        0x000014de:    68a9        .h      LDR      r1,[r5,#8]
        0x000014e0:    f000fe36    ..6.    BL       __aeabi_fadd ; 0x2150
        0x000014e4:    60a8        .`      STR      r0,[r5,#8]
        0x000014e6:    4630        0F      MOV      r0,r6
        0x000014e8:    f001f8f7    ....    BL       __aeabi_f2d ; 0x26da
        0x000014ec:    4606        .F      MOV      r6,r0
        0x000014ee:    9102        ..      STR      r1,[sp,#8]
        0x000014f0:    9800        ..      LDR      r0,[sp,#0]
        0x000014f2:    f7fffcb9    ....    BL       VariableParameter ; 0xe68
        0x000014f6:    496e        nI      LDR      r1,[pc,#440] ; [0x16b0] = 0x3f4ccccd
        0x000014f8:    f000fe83    ....    BL       __aeabi_fmul ; 0x2202
        0x000014fc:    9900        ..      LDR      r1,[sp,#0]
        0x000014fe:    f000fe80    ....    BL       __aeabi_fmul ; 0x2202
        0x00001502:    f001f8ea    ....    BL       __aeabi_f2d ; 0x26da
        0x00001506:    9101        ..      STR      r1,[sp,#4]
        0x00001508:    9000        ..      STR      r0,[sp,#0]
        0x0000150a:    6d60        `m      LDR      r0,[r4,#0x54]
        0x0000150c:    f001f8e5    ....    BL       __aeabi_f2d ; 0x26da
        0x00001510:    f7fffcc4    ....    BL       Rad ; 0xe9c
        0x00001514:    9b01        ..      LDR      r3,[sp,#4]
        0x00001516:    9a00        ..      LDR      r2,[sp,#0]
        0x00001518:    f000fefa    ....    BL       __aeabi_dadd ; 0x2310
        0x0000151c:    4632        2F      MOV      r2,r6
        0x0000151e:    9b02        ..      LDR      r3,[sp,#8]
        0x00001520:    f000fef6    ....    BL       __aeabi_dadd ; 0x2310
        0x00001524:    f001f902    ....    BL       __aeabi_d2f ; 0x272c
        0x00001528:    9002        ..      STR      r0,[sp,#8]
        0x0000152a:    6868        hh      LDR      r0,[r5,#4]
        0x0000152c:    f001f8d5    ....    BL       __aeabi_f2d ; 0x26da
        0x00001530:    4606        .F      MOV      r6,r0
        0x00001532:    9104        ..      STR      r1,[sp,#0x10]
        0x00001534:    9803        ..      LDR      r0,[sp,#0xc]
        0x00001536:    f7fffc97    ....    BL       VariableParameter ; 0xe68
        0x0000153a:    495d        ]I      LDR      r1,[pc,#372] ; [0x16b0] = 0x3f4ccccd
        0x0000153c:    f000fe61    ..a.    BL       __aeabi_fmul ; 0x2202
        0x00001540:    9903        ..      LDR      r1,[sp,#0xc]
        0x00001542:    f000fe5e    ..^.    BL       __aeabi_fmul ; 0x2202
        0x00001546:    f001f8c8    ....    BL       __aeabi_f2d ; 0x26da
        0x0000154a:    9101        ..      STR      r1,[sp,#4]
        0x0000154c:    9000        ..      STR      r0,[sp,#0]
        0x0000154e:    6da0        .m      LDR      r0,[r4,#0x58]
        0x00001550:    f001f8c3    ....    BL       __aeabi_f2d ; 0x26da
        0x00001554:    f7fffca2    ....    BL       Rad ; 0xe9c
        0x00001558:    9b01        ..      LDR      r3,[sp,#4]
        0x0000155a:    9a00        ..      LDR      r2,[sp,#0]
        0x0000155c:    f000fed8    ....    BL       __aeabi_dadd ; 0x2310
        0x00001560:    4632        2F      MOV      r2,r6
        0x00001562:    9b04        ..      LDR      r3,[sp,#0x10]
        0x00001564:    f000fed4    ....    BL       __aeabi_dadd ; 0x2310
        0x00001568:    f001f8e0    ....    BL       __aeabi_d2f ; 0x272c
        0x0000156c:    9001        ..      STR      r0,[sp,#4]
        0x0000156e:    68a8        .h      LDR      r0,[r5,#8]
        0x00001570:    f001f8b3    ....    BL       __aeabi_f2d ; 0x26da
        0x00001574:    9000        ..      STR      r0,[sp,#0]
        0x00001576:    460d        .F      MOV      r5,r1
        0x00001578:    4638        8F      MOV      r0,r7
        0x0000157a:    f7fffc75    ..u.    BL       VariableParameter ; 0xe68
        0x0000157e:    494c        LI      LDR      r1,[pc,#304] ; [0x16b0] = 0x3f4ccccd
        0x00001580:    f000fe3f    ..?.    BL       __aeabi_fmul ; 0x2202
        0x00001584:    4639        9F      MOV      r1,r7
        0x00001586:    f000fe3c    ..<.    BL       __aeabi_fmul ; 0x2202
        0x0000158a:    f001f8a6    ....    BL       __aeabi_f2d ; 0x26da
        0x0000158e:    4606        .F      MOV      r6,r0
        0x00001590:    460f        .F      MOV      r7,r1
        0x00001592:    6de0        .m      LDR      r0,[r4,#0x5c]
        0x00001594:    f001f8a1    ....    BL       __aeabi_f2d ; 0x26da
        0x00001598:    f7fffc80    ....    BL       Rad ; 0xe9c
        0x0000159c:    4632        2F      MOV      r2,r6
        0x0000159e:    463b        ;F      MOV      r3,r7
        0x000015a0:    f000feb6    ....    BL       __aeabi_dadd ; 0x2310
        0x000015a4:    462b        +F      MOV      r3,r5
        0x000015a6:    9a00        ..      LDR      r2,[sp,#0]
        0x000015a8:    f000feb2    ....    BL       __aeabi_dadd ; 0x2310
        0x000015ac:    f001f8be    ....    BL       __aeabi_d2f ; 0x272c
        0x000015b0:    4603        .F      MOV      r3,r0
        0x000015b2:    4840        @H      LDR      r0,[pc,#256] ; [0x16b4] = 0x3aa3d70a
        0x000015b4:    9000        ..      STR      r0,[sp,#0]
        0x000015b6:    483b        ;H      LDR      r0,[pc,#236] ; [0x16a4] = 0x20000048
        0x000015b8:    9a01        ..      LDR      r2,[sp,#4]
        0x000015ba:    9902        ..      LDR      r1,[sp,#8]
        0x000015bc:    f7fffd89    ....    BL       Quaternion_RungeKutta ; 0x10d2
        0x000015c0:    4838        8H      LDR      r0,[pc,#224] ; [0x16a4] = 0x20000048
        0x000015c2:    f7fffd50    ..P.    BL       Quaternion_Normalize ; 0x1066
        0x000015c6:    b007        ..      ADD      sp,sp,#0x1c
        0x000015c8:    bdf0        ..      POP      {r4-r7,pc}
    AHRS_Update
        0x000015ca:    b570        p.      PUSH     {r4-r6,lr}
        0x000015cc:    f7fffee8    ....    BL       AHRS_GetQ ; 0x13a0
        0x000015d0:    4935        5I      LDR      r1,[pc,#212] ; [0x16a8] = 0x20000114
        0x000015d2:    4834        4H      LDR      r0,[pc,#208] ; [0x16a4] = 0x20000048
        0x000015d4:    3918        .9      SUBS     r1,r1,#0x18
        0x000015d6:    f7fffcc5    ....    BL       Quaternion_ToAngE ; 0xf64
        0x000015da:    4c33        3L      LDR      r4,[pc,#204] ; [0x16a8] = 0x20000114
        0x000015dc:    3c18        .<      SUBS     r4,r4,#0x18
        0x000015de:    6860        `h      LDR      r0,[r4,#4]
        0x000015e0:    f001f87b    ..{.    BL       __aeabi_f2d ; 0x26da
        0x000015e4:    f002fc78    ..x.    BL       sin ; 0x3ed8
        0x000015e8:    6820         h      LDR      r0,[r4,#0]
        0x000015ea:    f001f876    ..v.    BL       __aeabi_f2d ; 0x26da
        0x000015ee:    f002fc73    ..s.    BL       sin ; 0x3ed8
        0x000015f2:    6860        `h      LDR      r0,[r4,#4]
        0x000015f4:    f001f871    ..q.    BL       __aeabi_f2d ; 0x26da
        0x000015f8:    f002fc22    ..".    BL       cos ; 0x3e40
        0x000015fc:    6820         h      LDR      r0,[r4,#0]
        0x000015fe:    f001f86c    ..l.    BL       __aeabi_f2d ; 0x26da
        0x00001602:    f002fc1d    ....    BL       cos ; 0x3e40
        0x00001606:    68a0        .h      LDR      r0,[r4,#8]
        0x00001608:    f001f867    ..g.    BL       __aeabi_f2d ; 0x26da
        0x0000160c:    f7fffc51    ..Q.    BL       Degree ; 0xeb2
        0x00001610:    f001f88c    ....    BL       __aeabi_d2f ; 0x272c
        0x00001614:    4625        %F      MOV      r5,r4
        0x00001616:    350c        .5      ADDS     r5,r5,#0xc
        0x00001618:    60a8        .`      STR      r0,[r5,#8]
        0x0000161a:    6860        `h      LDR      r0,[r4,#4]
        0x0000161c:    f001f85d    ..].    BL       __aeabi_f2d ; 0x26da
        0x00001620:    f7fffc47    ..G.    BL       Degree ; 0xeb2
        0x00001624:    f001f882    ....    BL       __aeabi_d2f ; 0x272c
        0x00001628:    6068        h`      STR      r0,[r5,#4]
        0x0000162a:    6820         h      LDR      r0,[r4,#0]
        0x0000162c:    f001f855    ..U.    BL       __aeabi_f2d ; 0x26da
        0x00001630:    f7fffc3f    ..?.    BL       Degree ; 0xeb2
        0x00001634:    f001f87a    ..z.    BL       __aeabi_d2f ; 0x272c
        0x00001638:    6028        (`      STR      r0,[r5,#0]
        0x0000163a:    bd70        p.      POP      {r4-r6,pc}
    $d
        0x0000163c:    20000210    ...     DCD    536871440
        0x00001640:    6c696620     fil    DCD    1818846752
        0x00001644:    20726574    ter     DCD    544367988
        0x00001648:    6361203a    : ac    DCD    1667309626
        0x0000164c:    3a782e63    c.x:    DCD    980954723
        0x00001650:    66332e25    %.3f    DCD    1714630181
        0x00001654:    6361202c    , ac    DCD    1667309612
        0x00001658:    3a792e63    c.y:    DCD    981020259
        0x0000165c:    66332e25    %.3f    DCD    1714630181
        0x00001660:    6361202c    , ac    DCD    1667309612
        0x00001664:    3a7a2e63    c.z:    DCD    981085795
        0x00001668:    66332e25    %.3f    DCD    1714630181
        0x0000166c:    00000a20     ...    DCD    2592
        0x00001670:    6c696620     fil    DCD    1818846752
        0x00001674:    20726574    ter     DCD    544367988
        0x00001678:    7967203a    : gy    DCD    2036801594
        0x0000167c:    782e6f72    ro.x    DCD    2016309106
        0x00001680:    332e253a    :%.3    DCD    858662202
        0x00001684:    67202c66    f, g    DCD    1730161766
        0x00001688:    2e6f7279    yro.    DCD    779055737
        0x0000168c:    2e253a79    y:%.    DCD    774191737
        0x00001690:    202c6633    3f,     DCD    539780659
        0x00001694:    6f727967    gyro    DCD    1869773159
        0x00001698:    253a7a2e    .z:%    DCD    624589358
        0x0000169c:    2066332e    .3f     DCD    543568686
        0x000016a0:    0000000a    ....    DCD    10
        0x000016a4:    20000048    H..     DCD    536870984
        0x000016a8:    20000114    ...     DCD    536871188
        0x000016ac:    3a03126f    o..:    DCD    973279855
        0x000016b0:    3f4ccccd    ..L?    DCD    1061997773
        0x000016b4:    3aa3d70a    ...:    DCD    983815946
    $t
    .text
    inertial_sensor_read
        0x000016b8:    b5f0        ..      PUSH     {r4-r7,lr}
        0x000016ba:    b085        ..      SUB      sp,sp,#0x14
        0x000016bc:    48b2        .H      LDR      r0,[pc,#712] ; [0x1988] = 0x20000210
        0x000016be:    f7fefe58    ..X.    BL       bmi160_read_raw ; 0x372
        0x000016c2:    4db1        .M      LDR      r5,[pc,#708] ; [0x1988] = 0x20000210
        0x000016c4:    88e8        ..      LDRH     r0,[r5,#6]
        0x000016c6:    8f29        ).      LDRH     r1,[r5,#0x38]
        0x000016c8:    462c        ,F      MOV      r4,r5
        0x000016ca:    1a40        @.      SUBS     r0,r0,r1
        0x000016cc:    b200        ..      SXTH     r0,r0
        0x000016ce:    81a8        ..      STRH     r0,[r5,#0xc]
        0x000016d0:    8929        ).      LDRH     r1,[r5,#8]
        0x000016d2:    8f6a        j.      LDRH     r2,[r5,#0x3a]
        0x000016d4:    3440        @4      ADDS     r4,r4,#0x40
        0x000016d6:    1a89        ..      SUBS     r1,r1,r2
        0x000016d8:    81e9        ..      STRH     r1,[r5,#0xe]
        0x000016da:    8969        i.      LDRH     r1,[r5,#0xa]
        0x000016dc:    8229        ).      STRH     r1,[r5,#0x10]
        0x000016de:    88e1        ..      LDRH     r1,[r4,#6]
        0x000016e0:    8f22        ".      LDRH     r2,[r4,#0x38]
        0x000016e2:    1a89        ..      SUBS     r1,r1,r2
        0x000016e4:    81a1        ..      STRH     r1,[r4,#0xc]
        0x000016e6:    8921        !.      LDRH     r1,[r4,#8]
        0x000016e8:    8f62        b.      LDRH     r2,[r4,#0x3a]
        0x000016ea:    1a89        ..      SUBS     r1,r1,r2
        0x000016ec:    81e1        ..      STRH     r1,[r4,#0xe]
        0x000016ee:    8961        a.      LDRH     r1,[r4,#0xa]
        0x000016f0:    8fa2        ..      LDRH     r2,[r4,#0x3c]
        0x000016f2:    1a89        ..      SUBS     r1,r1,r2
        0x000016f4:    8221        !.      STRH     r1,[r4,#0x10]
        0x000016f6:    f000ffaf    ....    BL       __aeabi_i2d ; 0x2658
        0x000016fa:    4fa4        .O      LDR      r7,[pc,#656] ; [0x198c] = 0x20000088
        0x000016fc:    2605        .&      MOVS     r6,#5
        0x000016fe:    463a        :F      MOV      r2,r7
        0x00001700:    3a28        (:      SUBS     r2,r2,#0x28
        0x00001702:    466b        kF      MOV      r3,sp
        0x00001704:    c3c4        ..      STM      r3!,{r2,r6,r7}
        0x00001706:    4623        #F      MOV      r3,r4
        0x00001708:    3bb8        .;      SUBS     r3,r3,#0xb8
        0x0000170a:    461a        .F      MOV      r2,r3
        0x0000170c:    3a78        x:      SUBS     r2,r2,#0x78
        0x0000170e:    9603        ..      STR      r6,[sp,#0xc]
        0x00001710:    f7fffb1e    ....    BL       IIR_I_Filter ; 0xd50
        0x00001714:    f001f80a    ....    BL       __aeabi_d2f ; 0x272c
        0x00001718:    6168        ha      STR      r0,[r5,#0x14]
        0x0000171a:    200e        .       MOVS     r0,#0xe
        0x0000171c:    5e28        (^      LDRSH    r0,[r5,r0]
        0x0000171e:    f000ff9b    ....    BL       __aeabi_i2d ; 0x2658
        0x00001722:    463a        :F      MOV      r2,r7
        0x00001724:    3a28        (:      SUBS     r2,r2,#0x28
        0x00001726:    466b        kF      MOV      r3,sp
        0x00001728:    c3c4        ..      STM      r3!,{r2,r6,r7}
        0x0000172a:    4623        #F      MOV      r3,r4
        0x0000172c:    3b90        .;      SUBS     r3,r3,#0x90
        0x0000172e:    461a        .F      MOV      r2,r3
        0x00001730:    3a78        x:      SUBS     r2,r2,#0x78
        0x00001732:    9603        ..      STR      r6,[sp,#0xc]
        0x00001734:    f7fffb0c    ....    BL       IIR_I_Filter ; 0xd50
        0x00001738:    f000fff8    ....    BL       __aeabi_d2f ; 0x272c
        0x0000173c:    61a8        .a      STR      r0,[r5,#0x18]
        0x0000173e:    2010        .       MOVS     r0,#0x10
        0x00001740:    5e28        (^      LDRSH    r0,[r5,r0]
        0x00001742:    f000ff89    ....    BL       __aeabi_i2d ; 0x2658
        0x00001746:    463a        :F      MOV      r2,r7
        0x00001748:    3a28        (:      SUBS     r2,r2,#0x28
        0x0000174a:    466b        kF      MOV      r3,sp
        0x0000174c:    c3c4        ..      STM      r3!,{r2,r6,r7}
        0x0000174e:    4623        #F      MOV      r3,r4
        0x00001750:    3b68        h;      SUBS     r3,r3,#0x68
        0x00001752:    461a        .F      MOV      r2,r3
        0x00001754:    3a78        x:      SUBS     r2,r2,#0x78
        0x00001756:    9603        ..      STR      r6,[sp,#0xc]
        0x00001758:    f7fffafa    ....    BL       IIR_I_Filter ; 0xd50
        0x0000175c:    f000ffe6    ....    BL       __aeabi_d2f ; 0x272c
        0x00001760:    61e8        .a      STR      r0,[r5,#0x1c]
        0x00001762:    200c        .       MOVS     r0,#0xc
        0x00001764:    5e20         ^      LDRSH    r0,[r4,r0]
        0x00001766:    f000ff65    ..e.    BL       __aeabi_i2f ; 0x2634
        0x0000176a:    4f89        .O      LDR      r7,[pc,#548] ; [0x1990] = 0x20000004
        0x0000176c:    6839        9h      LDR      r1,[r7,#0]
        0x0000176e:    f000fd48    ..H.    BL       __aeabi_fmul ; 0x2202
        0x00001772:    4e86        .N      LDR      r6,[pc,#536] ; [0x198c] = 0x20000088
        0x00001774:    9000        ..      STR      r0,[sp,#0]
        0x00001776:    3e2e        .>      SUBS     r6,r6,#0x2e
        0x00001778:    2000        .       MOVS     r0,#0
        0x0000177a:    5e30        0^      LDRSH    r0,[r6,r0]
        0x0000177c:    f000ff5a    ..Z.    BL       __aeabi_i2f ; 0x2634
        0x00001780:    4a84        .J      LDR      r2,[pc,#528] ; [0x1994] = 0x3ec5a1cb
        0x00001782:    9900        ..      LDR      r1,[sp,#0]
        0x00001784:    f7fffb43    ..C.    BL       LPF_1st ; 0xe0e
        0x00001788:    6568        he      STR      r0,[r5,#0x54]
        0x0000178a:    f000ff79    ..y.    BL       __aeabi_f2iz ; 0x2680
        0x0000178e:    8030        0.      STRH     r0,[r6,#0]
        0x00001790:    200e        .       MOVS     r0,#0xe
        0x00001792:    5e20         ^      LDRSH    r0,[r4,r0]
        0x00001794:    f000ff4e    ..N.    BL       __aeabi_i2f ; 0x2634
        0x00001798:    6839        9h      LDR      r1,[r7,#0]
        0x0000179a:    f000fd32    ..2.    BL       __aeabi_fmul ; 0x2202
        0x0000179e:    9000        ..      STR      r0,[sp,#0]
        0x000017a0:    2002        .       MOVS     r0,#2
        0x000017a2:    5e30        0^      LDRSH    r0,[r6,r0]
        0x000017a4:    f000ff46    ..F.    BL       __aeabi_i2f ; 0x2634
        0x000017a8:    4a7a        zJ      LDR      r2,[pc,#488] ; [0x1994] = 0x3ec5a1cb
        0x000017aa:    9900        ..      LDR      r1,[sp,#0]
        0x000017ac:    f7fffb2f    ../.    BL       LPF_1st ; 0xe0e
        0x000017b0:    65a8        .e      STR      r0,[r5,#0x58]
        0x000017b2:    f000ff65    ..e.    BL       __aeabi_f2iz ; 0x2680
        0x000017b6:    8070        p.      STRH     r0,[r6,#2]
        0x000017b8:    2010        .       MOVS     r0,#0x10
        0x000017ba:    5e20         ^      LDRSH    r0,[r4,r0]
        0x000017bc:    f000ff3a    ..:.    BL       __aeabi_i2f ; 0x2634
        0x000017c0:    6839        9h      LDR      r1,[r7,#0]
        0x000017c2:    f000fd1e    ....    BL       __aeabi_fmul ; 0x2202
        0x000017c6:    4604        .F      MOV      r4,r0
        0x000017c8:    2004        .       MOVS     r0,#4
        0x000017ca:    5e30        0^      LDRSH    r0,[r6,r0]
        0x000017cc:    f000ff32    ..2.    BL       __aeabi_i2f ; 0x2634
        0x000017d0:    4a70        pJ      LDR      r2,[pc,#448] ; [0x1994] = 0x3ec5a1cb
        0x000017d2:    4621        !F      MOV      r1,r4
        0x000017d4:    f7fffb1b    ....    BL       LPF_1st ; 0xe0e
        0x000017d8:    65e8        .e      STR      r0,[r5,#0x5c]
        0x000017da:    f000ff51    ..Q.    BL       __aeabi_f2iz ; 0x2680
        0x000017de:    80b0        ..      STRH     r0,[r6,#4]
        0x000017e0:    b005        ..      ADD      sp,sp,#0x14
        0x000017e2:    bdf0        ..      POP      {r4-r7,pc}
    gyro_caloffest
        0x000017e4:    b5f8        ..      PUSH     {r3-r7,lr}
        0x000017e6:    4604        .F      MOV      r4,r0
        0x000017e8:    4616        .F      MOV      r6,r2
        0x000017ea:    460f        .F      MOV      r7,r1
        0x000017ec:    4618        .F      MOV      r0,r3
        0x000017ee:    f000ff2c    ..,.    BL       __aeabi_ui2f ; 0x264a
        0x000017f2:    4605        .F      MOV      r5,r0
        0x000017f4:    4629        )F      MOV      r1,r5
        0x000017f6:    4620         F      MOV      r0,r4
        0x000017f8:    f000fd40    ..@.    BL       __aeabi_fdiv ; 0x227c
        0x000017fc:    f000ff40    ..@.    BL       __aeabi_f2iz ; 0x2680
        0x00001800:    4c61        aL      LDR      r4,[pc,#388] ; [0x1988] = 0x20000210
        0x00001802:    4629        )F      MOV      r1,r5
        0x00001804:    3440        @4      ADDS     r4,r4,#0x40
        0x00001806:    8720         .      STRH     r0,[r4,#0x38]
        0x00001808:    4638        8F      MOV      r0,r7
        0x0000180a:    f000fd37    ..7.    BL       __aeabi_fdiv ; 0x227c
        0x0000180e:    f000ff37    ..7.    BL       __aeabi_f2iz ; 0x2680
        0x00001812:    8760        `.      STRH     r0,[r4,#0x3a]
        0x00001814:    4629        )F      MOV      r1,r5
        0x00001816:    4630        0F      MOV      r0,r6
        0x00001818:    f000fd30    ..0.    BL       __aeabi_fdiv ; 0x227c
        0x0000181c:    f000ff30    ..0.    BL       __aeabi_f2iz ; 0x2680
        0x00001820:    87a0        ..      STRH     r0,[r4,#0x3c]
        0x00001822:    bdf8        ..      POP      {r3-r7,pc}
    gyro_offset
        0x00001824:    b5f0        ..      PUSH     {r4-r7,lr}
        0x00001826:    2400        .$      MOVS     r4,#0
        0x00001828:    b089        ..      SUB      sp,sp,#0x24
        0x0000182a:    4958        XI      LDR      r1,[pc,#352] ; [0x198c] = 0x20000088
        0x0000182c:    9406        ..      STR      r4,[sp,#0x18]
        0x0000182e:    9400        ..      STR      r4,[sp,#0]
        0x00001830:    9401        ..      STR      r4,[sp,#4]
        0x00001832:    9402        ..      STR      r4,[sp,#8]
        0x00001834:    9403        ..      STR      r4,[sp,#0xc]
        0x00001836:    3930        09      SUBS     r1,r1,#0x30
        0x00001838:    9404        ..      STR      r4,[sp,#0x10]
        0x0000183a:    4f57        WO      LDR      r7,[pc,#348] ; [0x1998] = 0x16e360
        0x0000183c:    700c        .p      STRB     r4,[r1,#0]
        0x0000183e:    4625        %F      MOV      r5,r4
        0x00001840:    4626        &F      MOV      r6,r4
        0x00001842:    4639        9F      MOV      r1,r7
        0x00001844:    4855        UH      LDR      r0,[pc,#340] ; [0x199c] = 0x40010000
        0x00001846:    f000fbe1    ....    BL       TIMER_Delay ; 0x200c
        0x0000184a:    4639        9F      MOV      r1,r7
        0x0000184c:    4853        SH      LDR      r0,[pc,#332] ; [0x199c] = 0x40010000
        0x0000184e:    f000fbdd    ....    BL       TIMER_Delay ; 0x200c
        0x00001852:    4f4d        MO      LDR      r7,[pc,#308] ; [0x1988] = 0x20000210
        0x00001854:    3740        @7      ADDS     r7,r7,#0x40
        0x00001856:    e065        e.      B        0x1924 ; gyro_offset + 256
        0x00001858:    2c1e        .,      CMP      r4,#0x1e
        0x0000185a:    d232        2.      BCS      0x18c2 ; gyro_offset + 158
        0x0000185c:    484a        JH      LDR      r0,[pc,#296] ; [0x1988] = 0x20000210
        0x0000185e:    f7fefd88    ....    BL       bmi160_read_raw ; 0x372
        0x00001862:    2206        ."      MOVS     r2,#6
        0x00001864:    5eba        .^      LDRSH    r2,[r7,r2]
        0x00001866:    9802        ..      LDR      r0,[sp,#8]
        0x00001868:    4694        .F      MOV      r12,r2
        0x0000186a:    4460        `D      ADD      r0,r0,r12
        0x0000186c:    9002        ..      STR      r0,[sp,#8]
        0x0000186e:    2108        .!      MOVS     r1,#8
        0x00001870:    5e79        y^      LDRSH    r1,[r7,r1]
        0x00001872:    9803        ..      LDR      r0,[sp,#0xc]
        0x00001874:    9b04        ..      LDR      r3,[sp,#0x10]
        0x00001876:    1840        @.      ADDS     r0,r0,r1
        0x00001878:    9003        ..      STR      r0,[sp,#0xc]
        0x0000187a:    200a        .       MOVS     r0,#0xa
        0x0000187c:    5e38        8^      LDRSH    r0,[r7,r0]
        0x0000187e:    466a        jF      MOV      r2,sp
        0x00001880:    181b        ..      ADDS     r3,r3,r0
        0x00001882:    9304        ..      STR      r3,[sp,#0x10]
        0x00001884:    2300        .#      MOVS     r3,#0
        0x00001886:    5ed3        .^      LDRSH    r3,[r2,r3]
        0x00001888:    4662        bF      MOV      r2,r12
        0x0000188a:    1aaa        ..      SUBS     r2,r5,r2
        0x0000188c:    d501        ..      BPL      0x1892 ; gyro_offset + 110
        0x0000188e:    4662        bF      MOV      r2,r12
        0x00001890:    1b52        R.      SUBS     r2,r2,r5
        0x00001892:    189b        ..      ADDS     r3,r3,r2
        0x00001894:    466a        jF      MOV      r2,sp
        0x00001896:    8013        ..      STRH     r3,[r2,#0]
        0x00001898:    2302        .#      MOVS     r3,#2
        0x0000189a:    5ed3        .^      LDRSH    r3,[r2,r3]
        0x0000189c:    1a72        r.      SUBS     r2,r6,r1
        0x0000189e:    d500        ..      BPL      0x18a2 ; gyro_offset + 126
        0x000018a0:    1b8a        ..      SUBS     r2,r1,r6
        0x000018a2:    189a        ..      ADDS     r2,r3,r2
        0x000018a4:    466d        mF      MOV      r5,sp
        0x000018a6:    806a        j.      STRH     r2,[r5,#2]
        0x000018a8:    2304        .#      MOVS     r3,#4
        0x000018aa:    9a06        ..      LDR      r2,[sp,#0x18]
        0x000018ac:    5eeb        .^      LDRSH    r3,[r5,r3]
        0x000018ae:    1a12        ..      SUBS     r2,r2,r0
        0x000018b0:    d501        ..      BPL      0x18b6 ; gyro_offset + 146
        0x000018b2:    9a06        ..      LDR      r2,[sp,#0x18]
        0x000018b4:    1a82        ..      SUBS     r2,r0,r2
        0x000018b6:    189a        ..      ADDS     r2,r3,r2
        0x000018b8:    80aa        ..      STRH     r2,[r5,#4]
        0x000018ba:    4665        eF      MOV      r5,r12
        0x000018bc:    460e        .F      MOV      r6,r1
        0x000018be:    9006        ..      STR      r0,[sp,#0x18]
        0x000018c0:    e02e        ..      B        0x1920 ; gyro_offset + 252
        0x000018c2:    4669        iF      MOV      r1,sp
        0x000018c4:    2000        .       MOVS     r0,#0
        0x000018c6:    5e08        .^      LDRSH    r0,[r1,r0]
        0x000018c8:    2832        2(      CMP      r0,#0x32
        0x000018ca:    da07        ..      BGE      0x18dc ; gyro_offset + 184
        0x000018cc:    2002        .       MOVS     r0,#2
        0x000018ce:    5e08        .^      LDRSH    r0,[r1,r0]
        0x000018d0:    2832        2(      CMP      r0,#0x32
        0x000018d2:    da03        ..      BGE      0x18dc ; gyro_offset + 184
        0x000018d4:    2004        .       MOVS     r0,#4
        0x000018d6:    5e08        .^      LDRSH    r0,[r1,r0]
        0x000018d8:    2832        2(      CMP      r0,#0x32
        0x000018da:    db0d        ..      BLT      0x18f8 ; gyro_offset + 212
        0x000018dc:    2400        .$      MOVS     r4,#0
        0x000018de:    4620         F      MOV      r0,r4
        0x000018e0:    4621        !F      MOV      r1,r4
        0x000018e2:    0043        C.      LSLS     r3,r0,#1
        0x000018e4:    466a        jF      MOV      r2,sp
        0x000018e6:    52d1        .R      STRH     r1,[r2,r3]
        0x000018e8:    0083        ..      LSLS     r3,r0,#2
        0x000018ea:    1c40        @.      ADDS     r0,r0,#1
        0x000018ec:    aa02        ..      ADD      r2,sp,#8
        0x000018ee:    b2c0        ..      UXTB     r0,r0
        0x000018f0:    50d1        .P      STR      r1,[r2,r3]
        0x000018f2:    2803        .(      CMP      r0,#3
        0x000018f4:    d3f5        ..      BCC      0x18e2 ; gyro_offset + 190
        0x000018f6:    e013        ..      B        0x1920 ; gyro_offset + 252
        0x000018f8:    9804        ..      LDR      r0,[sp,#0x10]
        0x000018fa:    f000fe9b    ....    BL       __aeabi_i2f ; 0x2634
        0x000018fe:    9007        ..      STR      r0,[sp,#0x1c]
        0x00001900:    9803        ..      LDR      r0,[sp,#0xc]
        0x00001902:    f000fe97    ....    BL       __aeabi_i2f ; 0x2634
        0x00001906:    9008        ..      STR      r0,[sp,#0x20]
        0x00001908:    9802        ..      LDR      r0,[sp,#8]
        0x0000190a:    f000fe93    ....    BL       __aeabi_i2f ; 0x2634
        0x0000190e:    23c8        .#      MOVS     r3,#0xc8
        0x00001910:    9a07        ..      LDR      r2,[sp,#0x1c]
        0x00001912:    9908        ..      LDR      r1,[sp,#0x20]
        0x00001914:    f7ffff66    ..f.    BL       gyro_caloffest ; 0x17e4
        0x00001918:    481c        .H      LDR      r0,[pc,#112] ; [0x198c] = 0x20000088
        0x0000191a:    2101        .!      MOVS     r1,#1
        0x0000191c:    3830        08      SUBS     r0,r0,#0x30
        0x0000191e:    7001        .p      STRB     r1,[r0,#0]
        0x00001920:    1c64        d.      ADDS     r4,r4,#1
        0x00001922:    b2e4        ..      UXTB     r4,r4
        0x00001924:    4819        .H      LDR      r0,[pc,#100] ; [0x198c] = 0x20000088
        0x00001926:    3830        08      SUBS     r0,r0,#0x30
        0x00001928:    7800        .x      LDRB     r0,[r0,#0]
        0x0000192a:    2800        .(      CMP      r0,#0
        0x0000192c:    d094        ..      BEQ      0x1858 ; gyro_offset + 52
        0x0000192e:    b009        ..      ADD      sp,sp,#0x24
        0x00001930:    bdf0        ..      POP      {r4-r7,pc}
    accel_offset
        0x00001932:    b5f8        ..      PUSH     {r3-r7,lr}
        0x00001934:    2700        .'      MOVS     r7,#0
        0x00001936:    4814        .H      LDR      r0,[pc,#80] ; [0x1988] = 0x20000210
        0x00001938:    463e        >F      MOV      r6,r7
        0x0000193a:    8707        ..      STRH     r7,[r0,#0x38]
        0x0000193c:    8747        G.      STRH     r7,[r0,#0x3a]
        0x0000193e:    463d        =F      MOV      r5,r7
        0x00001940:    463c        <F      MOV      r4,r7
        0x00001942:    8787        ..      STRH     r7,[r0,#0x3c]
        0x00001944:    4810        .H      LDR      r0,[pc,#64] ; [0x1988] = 0x20000210
        0x00001946:    f7fefd14    ....    BL       bmi160_read_raw ; 0x372
        0x0000194a:    480f        .H      LDR      r0,[pc,#60] ; [0x1988] = 0x20000210
        0x0000194c:    2106        .!      MOVS     r1,#6
        0x0000194e:    5e41        A^      LDRSH    r1,[r0,r1]
        0x00001950:    1ca4        ..      ADDS     r4,r4,#2
        0x00001952:    19cf        ..      ADDS     r7,r1,r7
        0x00001954:    2108        .!      MOVS     r1,#8
        0x00001956:    5e41        A^      LDRSH    r1,[r0,r1]
        0x00001958:    b2e4        ..      UXTB     r4,r4
        0x0000195a:    198e        ..      ADDS     r6,r1,r6
        0x0000195c:    210a        .!      MOVS     r1,#0xa
        0x0000195e:    5e41        A^      LDRSH    r1,[r0,r1]
        0x00001960:    194d        M.      ADDS     r5,r1,r5
        0x00001962:    2cc8        .,      CMP      r4,#0xc8
        0x00001964:    d3ee        ..      BCC      0x1944 ; accel_offset + 18
        0x00001966:    4621        !F      MOV      r1,r4
        0x00001968:    4638        8F      MOV      r0,r7
        0x0000196a:    f000fbdd    ....    BL       __aeabi_idiv ; 0x2128
        0x0000196e:    4f06        .O      LDR      r7,[pc,#24] ; [0x1988] = 0x20000210
        0x00001970:    4621        !F      MOV      r1,r4
        0x00001972:    8738        8.      STRH     r0,[r7,#0x38]
        0x00001974:    4630        0F      MOV      r0,r6
        0x00001976:    f000fbd7    ....    BL       __aeabi_idiv ; 0x2128
        0x0000197a:    8778        x.      STRH     r0,[r7,#0x3a]
        0x0000197c:    4621        !F      MOV      r1,r4
        0x0000197e:    4628        (F      MOV      r0,r5
        0x00001980:    f000fbd2    ....    BL       __aeabi_idiv ; 0x2128
        0x00001984:    87b8        ..      STRH     r0,[r7,#0x3c]
        0x00001986:    bdf8        ..      POP      {r3-r7,pc}
    $d
        0x00001988:    20000210    ...     DCD    536871440
        0x0000198c:    20000088    ...     DCD    536871048
        0x00001990:    20000004    ...     DCD    536870916
        0x00001994:    3ec5a1cb    ...>    DCD    1053139403
        0x00001998:    0016e360    `...    DCD    1500000
        0x0000199c:    40010000    ...@    DCD    1073807360
    $t
    .text
    I2C_Init
        0x000019a0:    b510        ..      PUSH     {r4,lr}
        0x000019a2:    f000f9b5    ....    BL       I2C_Open ; 0x1d10
        0x000019a6:    bd10        ..      POP      {r4,pc}
    I2C_WriteByte
        0x000019a8:    b5f7        ..      PUSH     {r0-r2,r4-r7,lr}
        0x000019aa:    4d95        .M      LDR      r5,[pc,#596] ; [0x1c00] = 0x40020000
        0x000019ac:    4617        .F      MOV      r7,r2
        0x000019ae:    263c        <&      MOVS     r6,#0x3c
        0x000019b0:    6828        (h      LDR      r0,[r5,#0]
        0x000019b2:    2400        .$      MOVS     r4,#0
        0x000019b4:    43b0        .C      BICS     r0,r0,r6
        0x000019b6:    3028        (0      ADDS     r0,r0,#0x28
        0x000019b8:    6028        (`      STR      r0,[r5,#0]
        0x000019ba:    6828        (h      LDR      r0,[r5,#0]
        0x000019bc:    0700        ..      LSLS     r0,r0,#28
        0x000019be:    d5fc        ..      BPL      0x19ba ; I2C_WriteByte + 18
        0x000019c0:    9800        ..      LDR      r0,[sp,#0]
        0x000019c2:    60a8        .`      STR      r0,[r5,#8]
        0x000019c4:    6828        (h      LDR      r0,[r5,#0]
        0x000019c6:    43b0        .C      BICS     r0,r0,r6
        0x000019c8:    3008        .0      ADDS     r0,r0,#8
        0x000019ca:    6028        (`      STR      r0,[r5,#0]
        0x000019cc:    6828        (h      LDR      r0,[r5,#0]
        0x000019ce:    0700        ..      LSLS     r0,r0,#28
        0x000019d0:    d5fc        ..      BPL      0x19cc ; I2C_WriteByte + 36
        0x000019d2:    68e8        .h      LDR      r0,[r5,#0xc]
        0x000019d4:    2818        .(      CMP      r0,#0x18
        0x000019d6:    d00f        ..      BEQ      0x19f8 ; I2C_WriteByte + 80
        0x000019d8:    2401        .$      MOVS     r4,#1
        0x000019da:    68ea        .h      LDR      r2,[r5,#0xc]
        0x000019dc:    4621        !F      MOV      r1,r4
        0x000019de:    a089        ..      ADR      r0,{pc}+0x226 ; 0x1c04
        0x000019e0:    f001f86c    ..l.    BL       __0printf ; 0x2abc
        0x000019e4:    6828        (h      LDR      r0,[r5,#0]
        0x000019e6:    43b0        .C      BICS     r0,r0,r6
        0x000019e8:    3018        .0      ADDS     r0,r0,#0x18
        0x000019ea:    6028        (`      STR      r0,[r5,#0]
        0x000019ec:    2064        d       MOVS     r0,#0x64
        0x000019ee:    f000f943    ..C.    BL       CLK_SysTickDelay ; 0x1c78
        0x000019f2:    2c00        .,      CMP      r4,#0
        0x000019f4:    d1dc        ..      BNE      0x19b0 ; I2C_WriteByte + 8
        0x000019f6:    bdfe        ..      POP      {r1-r7,pc}
        0x000019f8:    9801        ..      LDR      r0,[sp,#4]
        0x000019fa:    b2c0        ..      UXTB     r0,r0
        0x000019fc:    60a8        .`      STR      r0,[r5,#8]
        0x000019fe:    6828        (h      LDR      r0,[r5,#0]
        0x00001a00:    43b0        .C      BICS     r0,r0,r6
        0x00001a02:    3008        .0      ADDS     r0,r0,#8
        0x00001a04:    6028        (`      STR      r0,[r5,#0]
        0x00001a06:    6828        (h      LDR      r0,[r5,#0]
        0x00001a08:    0700        ..      LSLS     r0,r0,#28
        0x00001a0a:    d5fc        ..      BPL      0x1a06 ; I2C_WriteByte + 94
        0x00001a0c:    68e8        .h      LDR      r0,[r5,#0xc]
        0x00001a0e:    2828        ((      CMP      r0,#0x28
        0x00001a10:    d001        ..      BEQ      0x1a16 ; I2C_WriteByte + 110
        0x00001a12:    2402        .$      MOVS     r4,#2
        0x00001a14:    e7e1        ..      B        0x19da ; I2C_WriteByte + 50
        0x00001a16:    60af        .`      STR      r7,[r5,#8]
        0x00001a18:    6828        (h      LDR      r0,[r5,#0]
        0x00001a1a:    43b0        .C      BICS     r0,r0,r6
        0x00001a1c:    3008        .0      ADDS     r0,r0,#8
        0x00001a1e:    6028        (`      STR      r0,[r5,#0]
        0x00001a20:    6828        (h      LDR      r0,[r5,#0]
        0x00001a22:    0700        ..      LSLS     r0,r0,#28
        0x00001a24:    d5fc        ..      BPL      0x1a20 ; I2C_WriteByte + 120
        0x00001a26:    68e8        .h      LDR      r0,[r5,#0xc]
        0x00001a28:    2828        ((      CMP      r0,#0x28
        0x00001a2a:    d001        ..      BEQ      0x1a30 ; I2C_WriteByte + 136
        0x00001a2c:    2404        .$      MOVS     r4,#4
        0x00001a2e:    e7d4        ..      B        0x19da ; I2C_WriteByte + 50
        0x00001a30:    6828        (h      LDR      r0,[r5,#0]
        0x00001a32:    43b0        .C      BICS     r0,r0,r6
        0x00001a34:    3018        .0      ADDS     r0,r0,#0x18
        0x00001a36:    6028        (`      STR      r0,[r5,#0]
        0x00001a38:    2c00        .,      CMP      r4,#0
        0x00001a3a:    d1ce        ..      BNE      0x19da ; I2C_WriteByte + 50
        0x00001a3c:    bdfe        ..      POP      {r1-r7,pc}
    I2C_ReadByte
        0x00001a3e:    b5f3        ..      PUSH     {r0,r1,r4-r7,lr}
        0x00001a40:    4607        .F      MOV      r7,r0
        0x00001a42:    2000        .       MOVS     r0,#0
        0x00001a44:    b081        ..      SUB      sp,sp,#4
        0x00001a46:    4d6e        nM      LDR      r5,[pc,#440] ; [0x1c00] = 0x40020000
        0x00001a48:    263c        <&      MOVS     r6,#0x3c
        0x00001a4a:    9000        ..      STR      r0,[sp,#0]
        0x00001a4c:    2400        .$      MOVS     r4,#0
        0x00001a4e:    2164        d!      MOVS     r1,#0x64
        0x00001a50:    4873        sH      LDR      r0,[pc,#460] ; [0x1c20] = 0x40010000
        0x00001a52:    f000fadb    ....    BL       TIMER_Delay ; 0x200c
        0x00001a56:    6828        (h      LDR      r0,[r5,#0]
        0x00001a58:    43b0        .C      BICS     r0,r0,r6
        0x00001a5a:    3028        (0      ADDS     r0,r0,#0x28
        0x00001a5c:    6028        (`      STR      r0,[r5,#0]
        0x00001a5e:    6828        (h      LDR      r0,[r5,#0]
        0x00001a60:    0700        ..      LSLS     r0,r0,#28
        0x00001a62:    d5fc        ..      BPL      0x1a5e ; I2C_ReadByte + 32
        0x00001a64:    60af        .`      STR      r7,[r5,#8]
        0x00001a66:    6828        (h      LDR      r0,[r5,#0]
        0x00001a68:    43b0        .C      BICS     r0,r0,r6
        0x00001a6a:    3008        .0      ADDS     r0,r0,#8
        0x00001a6c:    6028        (`      STR      r0,[r5,#0]
        0x00001a6e:    6828        (h      LDR      r0,[r5,#0]
        0x00001a70:    0700        ..      LSLS     r0,r0,#28
        0x00001a72:    d5fc        ..      BPL      0x1a6e ; I2C_ReadByte + 48
        0x00001a74:    68e8        .h      LDR      r0,[r5,#0xc]
        0x00001a76:    2818        .(      CMP      r0,#0x18
        0x00001a78:    d010        ..      BEQ      0x1a9c ; I2C_ReadByte + 94
        0x00001a7a:    2401        .$      MOVS     r4,#1
        0x00001a7c:    68ea        .h      LDR      r2,[r5,#0xc]
        0x00001a7e:    4621        !F      MOV      r1,r4
        0x00001a80:    a060        `.      ADR      r0,{pc}+0x184 ; 0x1c04
        0x00001a82:    f001f81b    ....    BL       __0printf ; 0x2abc
        0x00001a86:    6828        (h      LDR      r0,[r5,#0]
        0x00001a88:    43b0        .C      BICS     r0,r0,r6
        0x00001a8a:    3018        .0      ADDS     r0,r0,#0x18
        0x00001a8c:    6028        (`      STR      r0,[r5,#0]
        0x00001a8e:    200a        .       MOVS     r0,#0xa
        0x00001a90:    f000f8f2    ....    BL       CLK_SysTickDelay ; 0x1c78
        0x00001a94:    2c00        .,      CMP      r4,#0
        0x00001a96:    d1d9        ..      BNE      0x1a4c ; I2C_ReadByte + 14
        0x00001a98:    9800        ..      LDR      r0,[sp,#0]
        0x00001a9a:    bdfe        ..      POP      {r1-r7,pc}
        0x00001a9c:    9802        ..      LDR      r0,[sp,#8]
        0x00001a9e:    b2c0        ..      UXTB     r0,r0
        0x00001aa0:    60a8        .`      STR      r0,[r5,#8]
        0x00001aa2:    6828        (h      LDR      r0,[r5,#0]
        0x00001aa4:    43b0        .C      BICS     r0,r0,r6
        0x00001aa6:    3008        .0      ADDS     r0,r0,#8
        0x00001aa8:    6028        (`      STR      r0,[r5,#0]
        0x00001aaa:    6828        (h      LDR      r0,[r5,#0]
        0x00001aac:    0700        ..      LSLS     r0,r0,#28
        0x00001aae:    d5fc        ..      BPL      0x1aaa ; I2C_ReadByte + 108
        0x00001ab0:    68e8        .h      LDR      r0,[r5,#0xc]
        0x00001ab2:    2828        ((      CMP      r0,#0x28
        0x00001ab4:    d001        ..      BEQ      0x1aba ; I2C_ReadByte + 124
        0x00001ab6:    2403        .$      MOVS     r4,#3
        0x00001ab8:    e7e0        ..      B        0x1a7c ; I2C_ReadByte + 62
        0x00001aba:    6828        (h      LDR      r0,[r5,#0]
        0x00001abc:    43b0        .C      BICS     r0,r0,r6
        0x00001abe:    3028        (0      ADDS     r0,r0,#0x28
        0x00001ac0:    6028        (`      STR      r0,[r5,#0]
        0x00001ac2:    6828        (h      LDR      r0,[r5,#0]
        0x00001ac4:    0700        ..      LSLS     r0,r0,#28
        0x00001ac6:    d5fc        ..      BPL      0x1ac2 ; I2C_ReadByte + 132
        0x00001ac8:    68e8        .h      LDR      r0,[r5,#0xc]
        0x00001aca:    2810        .(      CMP      r0,#0x10
        0x00001acc:    d001        ..      BEQ      0x1ad2 ; I2C_ReadByte + 148
        0x00001ace:    2404        .$      MOVS     r4,#4
        0x00001ad0:    e7d4        ..      B        0x1a7c ; I2C_ReadByte + 62
        0x00001ad2:    4638        8F      MOV      r0,r7
        0x00001ad4:    2101        .!      MOVS     r1,#1
        0x00001ad6:    4308        .C      ORRS     r0,r0,r1
        0x00001ad8:    60a8        .`      STR      r0,[r5,#8]
        0x00001ada:    6828        (h      LDR      r0,[r5,#0]
        0x00001adc:    43b0        .C      BICS     r0,r0,r6
        0x00001ade:    3008        .0      ADDS     r0,r0,#8
        0x00001ae0:    6028        (`      STR      r0,[r5,#0]
        0x00001ae2:    6828        (h      LDR      r0,[r5,#0]
        0x00001ae4:    0700        ..      LSLS     r0,r0,#28
        0x00001ae6:    d5fc        ..      BPL      0x1ae2 ; I2C_ReadByte + 164
        0x00001ae8:    68e8        .h      LDR      r0,[r5,#0xc]
        0x00001aea:    2840        @(      CMP      r0,#0x40
        0x00001aec:    d001        ..      BEQ      0x1af2 ; I2C_ReadByte + 180
        0x00001aee:    2405        .$      MOVS     r4,#5
        0x00001af0:    e7c4        ..      B        0x1a7c ; I2C_ReadByte + 62
        0x00001af2:    6828        (h      LDR      r0,[r5,#0]
        0x00001af4:    43b0        .C      BICS     r0,r0,r6
        0x00001af6:    3008        .0      ADDS     r0,r0,#8
        0x00001af8:    6028        (`      STR      r0,[r5,#0]
        0x00001afa:    6828        (h      LDR      r0,[r5,#0]
        0x00001afc:    0700        ..      LSLS     r0,r0,#28
        0x00001afe:    d5fc        ..      BPL      0x1afa ; I2C_ReadByte + 188
        0x00001b00:    68a8        .h      LDR      r0,[r5,#8]
        0x00001b02:    b2c0        ..      UXTB     r0,r0
        0x00001b04:    9000        ..      STR      r0,[sp,#0]
        0x00001b06:    68e8        .h      LDR      r0,[r5,#0xc]
        0x00001b08:    2858        X(      CMP      r0,#0x58
        0x00001b0a:    d001        ..      BEQ      0x1b10 ; I2C_ReadByte + 210
        0x00001b0c:    2406        .$      MOVS     r4,#6
        0x00001b0e:    e7b5        ..      B        0x1a7c ; I2C_ReadByte + 62
        0x00001b10:    6828        (h      LDR      r0,[r5,#0]
        0x00001b12:    43b0        .C      BICS     r0,r0,r6
        0x00001b14:    3018        .0      ADDS     r0,r0,#0x18
        0x00001b16:    6028        (`      STR      r0,[r5,#0]
        0x00001b18:    2c00        .,      CMP      r4,#0
        0x00001b1a:    d1af        ..      BNE      0x1a7c ; I2C_ReadByte + 62
        0x00001b1c:    e7bc        ..      B        0x1a98 ; I2C_ReadByte + 90
    I2C_SequentialRead
        0x00001b1e:    b5ff        ..      PUSH     {r0-r7,lr}
        0x00001b20:    4f37        7O      LDR      r7,[pc,#220] ; [0x1c00] = 0x40020000
        0x00001b22:    b081        ..      SUB      sp,sp,#4
        0x00001b24:    4616        .F      MOV      r6,r2
        0x00001b26:    253c        <%      MOVS     r5,#0x3c
        0x00001b28:    6838        8h      LDR      r0,[r7,#0]
        0x00001b2a:    2400        .$      MOVS     r4,#0
        0x00001b2c:    43a8        .C      BICS     r0,r0,r5
        0x00001b2e:    3028        (0      ADDS     r0,r0,#0x28
        0x00001b30:    6038        8`      STR      r0,[r7,#0]
        0x00001b32:    6838        8h      LDR      r0,[r7,#0]
        0x00001b34:    0700        ..      LSLS     r0,r0,#28
        0x00001b36:    d5fc        ..      BPL      0x1b32 ; I2C_SequentialRead + 20
        0x00001b38:    9801        ..      LDR      r0,[sp,#4]
        0x00001b3a:    60b8        .`      STR      r0,[r7,#8]
        0x00001b3c:    6838        8h      LDR      r0,[r7,#0]
        0x00001b3e:    43a8        .C      BICS     r0,r0,r5
        0x00001b40:    3008        .0      ADDS     r0,r0,#8
        0x00001b42:    6038        8`      STR      r0,[r7,#0]
        0x00001b44:    6838        8h      LDR      r0,[r7,#0]
        0x00001b46:    0700        ..      LSLS     r0,r0,#28
        0x00001b48:    d5fc        ..      BPL      0x1b44 ; I2C_SequentialRead + 38
        0x00001b4a:    68f8        .h      LDR      r0,[r7,#0xc]
        0x00001b4c:    2818        .(      CMP      r0,#0x18
        0x00001b4e:    d00c        ..      BEQ      0x1b6a ; I2C_SequentialRead + 76
        0x00001b50:    2401        .$      MOVS     r4,#1
        0x00001b52:    6838        8h      LDR      r0,[r7,#0]
        0x00001b54:    43a8        .C      BICS     r0,r0,r5
        0x00001b56:    3018        .0      ADDS     r0,r0,#0x18
        0x00001b58:    6038        8`      STR      r0,[r7,#0]
        0x00001b5a:    2064        d       MOVS     r0,#0x64
        0x00001b5c:    f000f88c    ....    BL       CLK_SysTickDelay ; 0x1c78
        0x00001b60:    2c00        .,      CMP      r4,#0
        0x00001b62:    d1e1        ..      BNE      0x1b28 ; I2C_SequentialRead + 10
        0x00001b64:    9804        ..      LDR      r0,[sp,#0x10]
        0x00001b66:    b005        ..      ADD      sp,sp,#0x14
        0x00001b68:    bdf0        ..      POP      {r4-r7,pc}
        0x00001b6a:    9802        ..      LDR      r0,[sp,#8]
        0x00001b6c:    b2c0        ..      UXTB     r0,r0
        0x00001b6e:    60b8        .`      STR      r0,[r7,#8]
        0x00001b70:    6838        8h      LDR      r0,[r7,#0]
        0x00001b72:    43a8        .C      BICS     r0,r0,r5
        0x00001b74:    3008        .0      ADDS     r0,r0,#8
        0x00001b76:    6038        8`      STR      r0,[r7,#0]
        0x00001b78:    6838        8h      LDR      r0,[r7,#0]
        0x00001b7a:    0700        ..      LSLS     r0,r0,#28
        0x00001b7c:    d5fc        ..      BPL      0x1b78 ; I2C_SequentialRead + 90
        0x00001b7e:    68f8        .h      LDR      r0,[r7,#0xc]
        0x00001b80:    2828        ((      CMP      r0,#0x28
        0x00001b82:    d001        ..      BEQ      0x1b88 ; I2C_SequentialRead + 106
        0x00001b84:    2403        .$      MOVS     r4,#3
        0x00001b86:    e7e4        ..      B        0x1b52 ; I2C_SequentialRead + 52
        0x00001b88:    6838        8h      LDR      r0,[r7,#0]
        0x00001b8a:    43a8        .C      BICS     r0,r0,r5
        0x00001b8c:    3028        (0      ADDS     r0,r0,#0x28
        0x00001b8e:    6038        8`      STR      r0,[r7,#0]
        0x00001b90:    6838        8h      LDR      r0,[r7,#0]
        0x00001b92:    0700        ..      LSLS     r0,r0,#28
        0x00001b94:    d5fc        ..      BPL      0x1b90 ; I2C_SequentialRead + 114
        0x00001b96:    68f8        .h      LDR      r0,[r7,#0xc]
        0x00001b98:    2810        .(      CMP      r0,#0x10
        0x00001b9a:    d001        ..      BEQ      0x1ba0 ; I2C_SequentialRead + 130
        0x00001b9c:    2404        .$      MOVS     r4,#4
        0x00001b9e:    e7d8        ..      B        0x1b52 ; I2C_SequentialRead + 52
        0x00001ba0:    9801        ..      LDR      r0,[sp,#4]
        0x00001ba2:    2101        .!      MOVS     r1,#1
        0x00001ba4:    4308        .C      ORRS     r0,r0,r1
        0x00001ba6:    60b8        .`      STR      r0,[r7,#8]
        0x00001ba8:    6838        8h      LDR      r0,[r7,#0]
        0x00001baa:    43a8        .C      BICS     r0,r0,r5
        0x00001bac:    3008        .0      ADDS     r0,r0,#8
        0x00001bae:    6038        8`      STR      r0,[r7,#0]
        0x00001bb0:    6838        8h      LDR      r0,[r7,#0]
        0x00001bb2:    0700        ..      LSLS     r0,r0,#28
        0x00001bb4:    d5fc        ..      BPL      0x1bb0 ; I2C_SequentialRead + 146
        0x00001bb6:    68f8        .h      LDR      r0,[r7,#0xc]
        0x00001bb8:    2840        @(      CMP      r0,#0x40
        0x00001bba:    d001        ..      BEQ      0x1bc0 ; I2C_SequentialRead + 162
        0x00001bbc:    2405        .$      MOVS     r4,#5
        0x00001bbe:    e7c8        ..      B        0x1b52 ; I2C_SequentialRead + 52
        0x00001bc0:    9a04        ..      LDR      r2,[sp,#0x10]
        0x00001bc2:    2000        .       MOVS     r0,#0
        0x00001bc4:    1e52        R.      SUBS     r2,r2,#1
        0x00001bc6:    e008        ..      B        0x1bda ; I2C_SequentialRead + 188
        0x00001bc8:    43a9        .C      BICS     r1,r1,r5
        0x00001bca:    310c        .1      ADDS     r1,r1,#0xc
        0x00001bcc:    6039        9`      STR      r1,[r7,#0]
        0x00001bce:    6839        9h      LDR      r1,[r7,#0]
        0x00001bd0:    0709        ..      LSLS     r1,r1,#28
        0x00001bd2:    d5fc        ..      BPL      0x1bce ; I2C_SequentialRead + 176
        0x00001bd4:    68b9        .h      LDR      r1,[r7,#8]
        0x00001bd6:    5431        1T      STRB     r1,[r6,r0]
        0x00001bd8:    1c40        @.      ADDS     r0,r0,#1
        0x00001bda:    6839        9h      LDR      r1,[r7,#0]
        0x00001bdc:    4290        .B      CMP      r0,r2
        0x00001bde:    d3f3        ..      BCC      0x1bc8 ; I2C_SequentialRead + 170
        0x00001be0:    43a9        .C      BICS     r1,r1,r5
        0x00001be2:    3108        .1      ADDS     r1,r1,#8
        0x00001be4:    6039        9`      STR      r1,[r7,#0]
        0x00001be6:    6839        9h      LDR      r1,[r7,#0]
        0x00001be8:    0709        ..      LSLS     r1,r1,#28
        0x00001bea:    d5fc        ..      BPL      0x1be6 ; I2C_SequentialRead + 200
        0x00001bec:    68b9        .h      LDR      r1,[r7,#8]
        0x00001bee:    5431        1T      STRB     r1,[r6,r0]
        0x00001bf0:    6838        8h      LDR      r0,[r7,#0]
        0x00001bf2:    43a8        .C      BICS     r0,r0,r5
        0x00001bf4:    3018        .0      ADDS     r0,r0,#0x18
        0x00001bf6:    6038        8`      STR      r0,[r7,#0]
        0x00001bf8:    2c00        .,      CMP      r4,#0
        0x00001bfa:    d1aa        ..      BNE      0x1b52 ; I2C_SequentialRead + 52
        0x00001bfc:    e7b2        ..      B        0x1b64 ; I2C_SequentialRead + 70
    $d
        0x00001bfe:    0000        ..      DCW    0
        0x00001c00:    40020000    ...@    DCD    1073872896
        0x00001c04:    6f727245    Erro    DCD    1869771333
        0x00001c08:    25203a72    r: %    DCD    622869106
        0x00001c0c:    20aca364    d..     DCD    548184932
        0x00001c10:    20433249    I2C     DCD    541274697
        0x00001c14:    74617473    stat    DCD    1952543859
        0x00001c18:    203a7375    us:     DCD    540701557
        0x00001c1c:    000a5825    %X..    DCD    677925
        0x00001c20:    40010000    ...@    DCD    1073807360
    $t
    .text
    uart_console_init
        0x00001c24:    b510        ..      PUSH     {r4,lr}
        0x00001c26:    f000fa51    ..Q.    BL       UART_Open ; 0x20cc
        0x00001c2a:    bd10        ..      POP      {r4,pc}
    .text
    CLK_GetHCLKFreq
        0x00001c2c:    b510        ..      PUSH     {r4,lr}
        0x00001c2e:    f7fff851    ..Q.    BL       SystemCoreClockUpdate ; 0xcd4
        0x00001c32:    4831        1H      LDR      r0,[pc,#196] ; [0x1cf8] = 0x20000018
        0x00001c34:    6800        .h      LDR      r0,[r0,#0]
        0x00001c36:    bd10        ..      POP      {r4,pc}
    CLK_SetModuleClock
        0x00001c38:    b510        ..      PUSH     {r4,lr}
        0x00001c3a:    0e42        B.      LSRS     r2,r0,#25
        0x00001c3c:    0712        ..      LSLS     r2,r2,#28
        0x00001c3e:    d00d        ..      BEQ      0x1c5c ; CLK_SetModuleClock + 36
        0x00001c40:    0042        B.      LSLS     r2,r0,#1
        0x00001c42:    0f92        ..      LSRS     r2,r2,#30
        0x00001c44:    4b2d        -K      LDR      r3,[pc,#180] ; [0x1cfc] = 0x50000210
        0x00001c46:    0092        ..      LSLS     r2,r2,#2
        0x00001c48:    18d2        ..      ADDS     r2,r2,r3
        0x00001c4a:    6813        .h      LDR      r3,[r2,#0]
        0x00001c4c:    00c4        ..      LSLS     r4,r0,#3
        0x00001c4e:    0f24        $.      LSRS     r4,r4,#28
        0x00001c50:    01c0        ..      LSLS     r0,r0,#7
        0x00001c52:    0ec0        ..      LSRS     r0,r0,#27
        0x00001c54:    4084        .@      LSLS     r4,r4,r0
        0x00001c56:    43a3        .C      BICS     r3,r3,r4
        0x00001c58:    430b        .C      ORRS     r3,r3,r1
        0x00001c5a:    6013        .`      STR      r3,[r2,#0]
        0x00001c5c:    bd10        ..      POP      {r4,pc}
    CLK_EnableModuleClock
        0x00001c5e:    0fc1        ..      LSRS     r1,r0,#31
        0x00001c60:    008a        ..      LSLS     r2,r1,#2
        0x00001c62:    4926        &I      LDR      r1,[pc,#152] ; [0x1cfc] = 0x50000210
        0x00001c64:    3910        .9      SUBS     r1,r1,#0x10
        0x00001c66:    1851        Q.      ADDS     r1,r2,r1
        0x00001c68:    684a        Jh      LDR      r2,[r1,#4]
        0x00001c6a:    06c3        ..      LSLS     r3,r0,#27
        0x00001c6c:    0edb        ..      LSRS     r3,r3,#27
        0x00001c6e:    2001        .       MOVS     r0,#1
        0x00001c70:    4098        .@      LSLS     r0,r0,r3
        0x00001c72:    4302        .C      ORRS     r2,r2,r0
        0x00001c74:    604a        J`      STR      r2,[r1,#4]
        0x00001c76:    4770        pG      BX       lr
    CLK_SysTickDelay
        0x00001c78:    4921        !I      LDR      r1,[pc,#132] ; [0x1d00] = 0x2000001c
        0x00001c7a:    6809        .h      LDR      r1,[r1,#0]
        0x00001c7c:    4348        HC      MULS     r0,r1,r0
        0x00001c7e:    4921        !I      LDR      r1,[pc,#132] ; [0x1d04] = 0xe000e000
        0x00001c80:    6148        Ha      STR      r0,[r1,#0x14]
        0x00001c82:    2200        ."      MOVS     r2,#0
        0x00001c84:    618a        .a      STR      r2,[r1,#0x18]
        0x00001c86:    2005        .       MOVS     r0,#5
        0x00001c88:    6108        .a      STR      r0,[r1,#0x10]
        0x00001c8a:    6908        .i      LDR      r0,[r1,#0x10]
        0x00001c8c:    03c0        ..      LSLS     r0,r0,#15
        0x00001c8e:    d5fc        ..      BPL      0x1c8a ; CLK_SysTickDelay + 18
        0x00001c90:    610a        .a      STR      r2,[r1,#0x10]
        0x00001c92:    4770        pG      BX       lr
    CLK_InitHIRC
        0x00001c94:    4819        .H      LDR      r0,[pc,#100] ; [0x1cfc] = 0x50000210
        0x00001c96:    b510        ..      PUSH     {r4,lr}
        0x00001c98:    3810        .8      SUBS     r0,r0,#0x10
        0x00001c9a:    6801        .h      LDR      r1,[r0,#0]
        0x00001c9c:    220f        ."      MOVS     r2,#0xf
        0x00001c9e:    0312        ..      LSLS     r2,r2,#12
        0x00001ca0:    4391        .C      BICS     r1,r1,r2
        0x00001ca2:    6001        .`      STR      r1,[r0,#0]
        0x00001ca4:    6801        .h      LDR      r1,[r0,#0]
        0x00001ca6:    2203        ."      MOVS     r2,#3
        0x00001ca8:    0392        ..      LSLS     r2,r2,#14
        0x00001caa:    4311        .C      ORRS     r1,r1,r2
        0x00001cac:    6001        .`      STR      r1,[r0,#0]
        0x00001cae:    1191        ..      ASRS     r1,r2,#6
        0x00001cb0:    4a15        .J      LDR      r2,[pc,#84] ; [0x1d08] = 0x50000040
        0x00001cb2:    6091        .`      STR      r1,[r2,#8]
        0x00001cb4:    4915        .I      LDR      r1,[pc,#84] ; [0x1d0c] = 0x5000c000
        0x00001cb6:    680a        .h      LDR      r2,[r1,#0]
        0x00001cb8:    2401        .$      MOVS     r4,#1
        0x00001cba:    4322        "C      ORRS     r2,r2,r4
        0x00001cbc:    600a        .`      STR      r2,[r1,#0]
        0x00001cbe:    2204        ."      MOVS     r2,#4
        0x00001cc0:    60ca        .`      STR      r2,[r1,#0xc]
        0x00001cc2:    2300        .#      MOVS     r3,#0
        0x00001cc4:    604b        K`      STR      r3,[r1,#4]
        0x00001cc6:    610c        .a      STR      r4,[r1,#0x10]
        0x00001cc8:    690a        .i      LDR      r2,[r1,#0x10]
        0x00001cca:    07d2        ..      LSLS     r2,r2,#31
        0x00001ccc:    d1fc        ..      BNE      0x1cc8 ; CLK_InitHIRC + 52
        0x00001cce:    688c        .h      LDR      r4,[r1,#8]
        0x00001cd0:    22ff        ."      MOVS     r2,#0xff
        0x00001cd2:    0412        ..      LSLS     r2,r2,#16
        0x00001cd4:    4611        .F      MOV      r1,r2
        0x00001cd6:    43a1        .C      BICS     r1,r1,r4
        0x00001cd8:    6804        .h      LDR      r4,[r0,#0]
        0x00001cda:    4394        .C      BICS     r4,r4,r2
        0x00001cdc:    6004        .`      STR      r4,[r0,#0]
        0x00001cde:    6802        .h      LDR      r2,[r0,#0]
        0x00001ce0:    430a        .C      ORRS     r2,r2,r1
        0x00001ce2:    6002        .`      STR      r2,[r0,#0]
        0x00001ce4:    6801        .h      LDR      r1,[r0,#0]
        0x00001ce6:    22ff        ."      MOVS     r2,#0xff
        0x00001ce8:    0092        ..      LSLS     r2,r2,#2
        0x00001cea:    4391        .C      BICS     r1,r1,r2
        0x00001cec:    6001        .`      STR      r1,[r0,#0]
        0x00001cee:    68c1        .h      LDR      r1,[r0,#0xc]
        0x00001cf0:    06c9        ..      LSLS     r1,r1,#27
        0x00001cf2:    d5fc        ..      BPL      0x1cee ; CLK_InitHIRC + 90
        0x00001cf4:    6103        .a      STR      r3,[r0,#0x10]
        0x00001cf6:    bd10        ..      POP      {r4,pc}
    $d
        0x00001cf8:    20000018    ...     DCD    536870936
        0x00001cfc:    50000210    ...P    DCD    1342177808
        0x00001d00:    2000001c    ...     DCD    536870940
        0x00001d04:    e000e000    ....    DCD    3758153728
        0x00001d08:    50000040    @..P    DCD    1342177344
        0x00001d0c:    5000c000    ...P    DCD    1342226432
    $t
    .text
    I2C_Open
        0x00001d10:    b570        p.      PUSH     {r4-r6,lr}
        0x00001d12:    4d0b        .M      LDR      r5,[pc,#44] ; [0x1d40] = 0x20000018
        0x00001d14:    4604        .F      MOV      r4,r0
        0x00001d16:    6828        (h      LDR      r0,[r5,#0]
        0x00001d18:    008a        ..      LSLS     r2,r1,#2
        0x00001d1a:    1840        @.      ADDS     r0,r0,r1
        0x00001d1c:    4611        .F      MOV      r1,r2
        0x00001d1e:    f000f9ed    ....    BL       __aeabi_uidiv ; 0x20fc
        0x00001d22:    1e40        @.      SUBS     r0,r0,#1
        0x00001d24:    28ff        .(      CMP      r0,#0xff
        0x00001d26:    d900        ..      BLS      0x1d2a ; I2C_Open + 26
        0x00001d28:    20ff        .       MOVS     r0,#0xff
        0x00001d2a:    6120         a      STR      r0,[r4,#0x10]
        0x00001d2c:    6821        !h      LDR      r1,[r4,#0]
        0x00001d2e:    2240        @"      MOVS     r2,#0x40
        0x00001d30:    4311        .C      ORRS     r1,r1,r2
        0x00001d32:    6021        !`      STR      r1,[r4,#0]
        0x00001d34:    0081        ..      LSLS     r1,r0,#2
        0x00001d36:    1d09        ..      ADDS     r1,r1,#4
        0x00001d38:    6828        (h      LDR      r0,[r5,#0]
        0x00001d3a:    f000f9df    ....    BL       __aeabi_uidiv ; 0x20fc
        0x00001d3e:    bd70        p.      POP      {r4-r6,pc}
    $d
        0x00001d40:    20000018    ...     DCD    536870936
    $t
    .text
    PWM_ConfigOutputChannel
        0x00001d44:    b5ff        ..      PUSH     {r0-r7,lr}
        0x00001d46:    4849        IH      LDR      r0,[pc,#292] ; [0x1e6c] = 0x20000018
        0x00001d48:    b083        ..      SUB      sp,sp,#0xc
        0x00001d4a:    460f        .F      MOV      r7,r1
        0x00001d4c:    6800        .h      LDR      r0,[r0,#0]
        0x00001d4e:    4611        .F      MOV      r1,r2
        0x00001d50:    9001        ..      STR      r0,[sp,#4]
        0x00001d52:    f000f9d3    ....    BL       __aeabi_uidiv ; 0x20fc
        0x00001d56:    2501        .%      MOVS     r5,#1
        0x00001d58:    4c45        EL      LDR      r4,[pc,#276] ; [0x1e70] = 0xffff
        0x00001d5a:    26ff        .&      MOVS     r6,#0xff
        0x00001d5c:    9000        ..      STR      r0,[sp,#0]
        0x00001d5e:    4629        )F      MOV      r1,r5
        0x00001d60:    9800        ..      LDR      r0,[sp,#0]
        0x00001d62:    f000f9cb    ....    BL       __aeabi_uidiv ; 0x20fc
        0x00001d66:    2101        .!      MOVS     r1,#1
        0x00001d68:    0609        ..      LSLS     r1,r1,#24
        0x00001d6a:    4288        .B      CMP      r0,r1
        0x00001d6c:    d812        ..      BHI      0x1d94 ; PWM_ConfigOutputChannel + 80
        0x00001d6e:    1901        ..      ADDS     r1,r0,r4
        0x00001d70:    0209        ..      LSLS     r1,r1,#8
        0x00001d72:    0e0e        ..      LSRS     r6,r1,#24
        0x00001d74:    2e03        ..      CMP      r6,#3
        0x00001d76:    d200        ..      BCS      0x1d7a ; PWM_ConfigOutputChannel + 54
        0x00001d78:    2602        .&      MOVS     r6,#2
        0x00001d7a:    4631        1F      MOV      r1,r6
        0x00001d7c:    f000f9be    ....    BL       __aeabi_uidiv ; 0x20fc
        0x00001d80:    2101        .!      MOVS     r1,#1
        0x00001d82:    0409        ..      LSLS     r1,r1,#16
        0x00001d84:    4288        .B      CMP      r0,r1
        0x00001d86:    d805        ..      BHI      0x1d94 ; PWM_ConfigOutputChannel + 80
        0x00001d88:    2801        .(      CMP      r0,#1
        0x00001d8a:    d001        ..      BEQ      0x1d90 ; PWM_ConfigOutputChannel + 76
        0x00001d8c:    b284        ..      UXTH     r4,r0
        0x00001d8e:    e005        ..      B        0x1d9c ; PWM_ConfigOutputChannel + 88
        0x00001d90:    2401        .$      MOVS     r4,#1
        0x00001d92:    e003        ..      B        0x1d9c ; PWM_ConfigOutputChannel + 88
        0x00001d94:    0668        h.      LSLS     r0,r5,#25
        0x00001d96:    0e05        ..      LSRS     r5,r0,#24
        0x00001d98:    2d11        .-      CMP      r5,#0x11
        0x00001d9a:    d3e0        ..      BCC      0x1d5e ; PWM_ConfigOutputChannel + 26
        0x00001d9c:    4631        1F      MOV      r1,r6
        0x00001d9e:    4369        iC      MULS     r1,r5,r1
        0x00001da0:    4361        aC      MULS     r1,r4,r1
        0x00001da2:    9801        ..      LDR      r0,[sp,#4]
        0x00001da4:    f000f9aa    ....    BL       __aeabi_uidiv ; 0x20fc
        0x00001da8:    1e76        v.      SUBS     r6,r6,#1
        0x00001daa:    1e64        d.      SUBS     r4,r4,#1
        0x00001dac:    b2f3        ..      UXTB     r3,r6
        0x00001dae:    b2a4        ..      UXTH     r4,r4
        0x00001db0:    9000        ..      STR      r0,[sp,#0]
        0x00001db2:    2d01        .-      CMP      r5,#1
        0x00001db4:    d033        3.      BEQ      0x1e1e ; PWM_ConfigOutputChannel + 218
        0x00001db6:    2d02        .-      CMP      r5,#2
        0x00001db8:    d033        3.      BEQ      0x1e22 ; PWM_ConfigOutputChannel + 222
        0x00001dba:    2d04        .-      CMP      r5,#4
        0x00001dbc:    d033        3.      BEQ      0x1e26 ; PWM_ConfigOutputChannel + 226
        0x00001dbe:    2d08        .-      CMP      r5,#8
        0x00001dc0:    d033        3.      BEQ      0x1e2a ; PWM_ConfigOutputChannel + 230
        0x00001dc2:    2003        .       MOVS     r0,#3
        0x00001dc4:    492b        +I      LDR      r1,[pc,#172] ; [0x1e74] = 0x40040000
        0x00001dc6:    680d        .h      LDR      r5,[r1,#0]
        0x00001dc8:    087a        z.      LSRS     r2,r7,#1
        0x00001dca:    00d2        ..      LSLS     r2,r2,#3
        0x00001dcc:    26ff        .&      MOVS     r6,#0xff
        0x00001dce:    4096        .@      LSLS     r6,r6,r2
        0x00001dd0:    43b5        .C      BICS     r5,r5,r6
        0x00001dd2:    4093        .@      LSLS     r3,r3,r2
        0x00001dd4:    431d        .C      ORRS     r5,r5,r3
        0x00001dd6:    600d        .`      STR      r5,[r1,#0]
        0x00001dd8:    684b        Kh      LDR      r3,[r1,#4]
        0x00001dda:    00ba        ..      LSLS     r2,r7,#2
        0x00001ddc:    2507        .%      MOVS     r5,#7
        0x00001dde:    4095        .@      LSLS     r5,r5,r2
        0x00001de0:    43ab        .C      BICS     r3,r3,r5
        0x00001de2:    4090        .@      LSLS     r0,r0,r2
        0x00001de4:    4303        .C      ORRS     r3,r3,r0
        0x00001de6:    604b        K`      STR      r3,[r1,#4]
        0x00001de8:    688b        .h      LDR      r3,[r1,#8]
        0x00001dea:    2008        .       MOVS     r0,#8
        0x00001dec:    4090        .@      LSLS     r0,r0,r2
        0x00001dee:    4303        .C      ORRS     r3,r3,r0
        0x00001df0:    608b        .`      STR      r3,[r1,#8]
        0x00001df2:    4820         H      LDR      r0,[pc,#128] ; [0x1e74] = 0x40040000
        0x00001df4:    3040        @0      ADDS     r0,r0,#0x40
        0x00001df6:    68c1        .h      LDR      r1,[r0,#0xc]
        0x00001df8:    0049        I.      LSLS     r1,r1,#1
        0x00001dfa:    0849        I.      LSRS     r1,r1,#1
        0x00001dfc:    60c1        .`      STR      r1,[r0,#0xc]
        0x00001dfe:    9903        ..      LDR      r1,[sp,#0xc]
        0x00001e00:    9806        ..      LDR      r0,[sp,#0x18]
        0x00001e02:    1855        U.      ADDS     r5,r2,r1
        0x00001e04:    2800        .(      CMP      r0,#0
        0x00001e06:    d012        ..      BEQ      0x1e2e ; PWM_ConfigOutputChannel + 234
        0x00001e08:    1c61        a.      ADDS     r1,r4,#1
        0x00001e0a:    4348        HC      MULS     r0,r1,r0
        0x00001e0c:    2164        d!      MOVS     r1,#0x64
        0x00001e0e:    f000f975    ..u.    BL       __aeabi_uidiv ; 0x20fc
        0x00001e12:    1e40        @.      SUBS     r0,r0,#1
        0x00001e14:    62e8        .b      STR      r0,[r5,#0x2c]
        0x00001e16:    60ec        .`      STR      r4,[r5,#0xc]
        0x00001e18:    9800        ..      LDR      r0,[sp,#0]
        0x00001e1a:    b007        ..      ADD      sp,sp,#0x1c
        0x00001e1c:    bdf0        ..      POP      {r4-r7,pc}
        0x00001e1e:    2004        .       MOVS     r0,#4
        0x00001e20:    e7d0        ..      B        0x1dc4 ; PWM_ConfigOutputChannel + 128
        0x00001e22:    2000        .       MOVS     r0,#0
        0x00001e24:    e7ce        ..      B        0x1dc4 ; PWM_ConfigOutputChannel + 128
        0x00001e26:    2001        .       MOVS     r0,#1
        0x00001e28:    e7cc        ..      B        0x1dc4 ; PWM_ConfigOutputChannel + 128
        0x00001e2a:    2002        .       MOVS     r0,#2
        0x00001e2c:    e7ca        ..      B        0x1dc4 ; PWM_ConfigOutputChannel + 128
        0x00001e2e:    2000        .       MOVS     r0,#0
        0x00001e30:    62e8        .b      STR      r0,[r5,#0x2c]
        0x00001e32:    60e8        .`      STR      r0,[r5,#0xc]
        0x00001e34:    e7f0        ..      B        0x1e18 ; PWM_ConfigOutputChannel + 212
    PWM_Start
        0x00001e36:    b530        0.      PUSH     {r4,r5,lr}
        0x00001e38:    2200        ."      MOVS     r2,#0
        0x00001e3a:    4610        .F      MOV      r0,r2
        0x00001e3c:    2401        .$      MOVS     r4,#1
        0x00001e3e:    4623        #F      MOV      r3,r4
        0x00001e40:    4083        .@      LSLS     r3,r3,r0
        0x00001e42:    420b        .B      TST      r3,r1
        0x00001e44:    d003        ..      BEQ      0x1e4e ; PWM_Start + 24
        0x00001e46:    0085        ..      LSLS     r5,r0,#2
        0x00001e48:    4623        #F      MOV      r3,r4
        0x00001e4a:    40ab        .@      LSLS     r3,r3,r5
        0x00001e4c:    431a        .C      ORRS     r2,r2,r3
        0x00001e4e:    1c40        @.      ADDS     r0,r0,#1
        0x00001e50:    2808        .(      CMP      r0,#8
        0x00001e52:    d3f4        ..      BCC      0x1e3e ; PWM_Start + 8
        0x00001e54:    4907        .I      LDR      r1,[pc,#28] ; [0x1e74] = 0x40040000
        0x00001e56:    6888        .h      LDR      r0,[r1,#8]
        0x00001e58:    4310        .C      ORRS     r0,r0,r2
        0x00001e5a:    6088        .`      STR      r0,[r1,#8]
        0x00001e5c:    bd30        0.      POP      {r4,r5,pc}
    PWM_EnableOutput
        0x00001e5e:    4805        .H      LDR      r0,[pc,#20] ; [0x1e74] = 0x40040000
        0x00001e60:    3040        @0      ADDS     r0,r0,#0x40
        0x00001e62:    69c2        .i      LDR      r2,[r0,#0x1c]
        0x00001e64:    430a        .C      ORRS     r2,r2,r1
        0x00001e66:    61c2        .a      STR      r2,[r0,#0x1c]
        0x00001e68:    4770        pG      BX       lr
    $d
        0x00001e6a:    0000        ..      DCW    0
        0x00001e6c:    20000018    ...     DCD    536870936
        0x00001e70:    0000ffff    ....    DCD    65535
        0x00001e74:    40040000    ...@    DCD    1074003968
    $t
    .text
    stackDump
        0x00001e78:    b510        ..      PUSH     {r4,lr}
        0x00001e7a:    4604        .F      MOV      r4,r0
        0x00001e7c:    6801        .h      LDR      r1,[r0,#0]
        0x00001e7e:    a01a        ..      ADR      r0,{pc}+0x6a ; 0x1ee8
        0x00001e80:    f000fe1c    ....    BL       __0printf ; 0x2abc
        0x00001e84:    a01b        ..      ADR      r0,{pc}+0x70 ; 0x1ef4
        0x00001e86:    6861        ah      LDR      r1,[r4,#4]
        0x00001e88:    f000fe18    ....    BL       __0printf ; 0x2abc
        0x00001e8c:    a01c        ..      ADR      r0,{pc}+0x74 ; 0x1f00
        0x00001e8e:    68a1        .h      LDR      r1,[r4,#8]
        0x00001e90:    f000fe14    ....    BL       __0printf ; 0x2abc
        0x00001e94:    a01d        ..      ADR      r0,{pc}+0x78 ; 0x1f0c
        0x00001e96:    68e1        .h      LDR      r1,[r4,#0xc]
        0x00001e98:    f000fe10    ....    BL       __0printf ; 0x2abc
        0x00001e9c:    a01e        ..      ADR      r0,{pc}+0x7c ; 0x1f18
        0x00001e9e:    6921        !i      LDR      r1,[r4,#0x10]
        0x00001ea0:    f000fe0c    ....    BL       __0printf ; 0x2abc
        0x00001ea4:    a01f        ..      ADR      r0,{pc}+0x80 ; 0x1f24
        0x00001ea6:    6961        ai      LDR      r1,[r4,#0x14]
        0x00001ea8:    f000fe08    ....    BL       __0printf ; 0x2abc
        0x00001eac:    a020         .      ADR      r0,{pc}+0x84 ; 0x1f30
        0x00001eae:    69a1        .i      LDR      r1,[r4,#0x18]
        0x00001eb0:    f000fe04    ....    BL       __0printf ; 0x2abc
        0x00001eb4:    a021        !.      ADR      r0,{pc}+0x88 ; 0x1f3c
        0x00001eb6:    69e1        .i      LDR      r1,[r4,#0x1c]
        0x00001eb8:    f000fe00    ....    BL       __0printf ; 0x2abc
        0x00001ebc:    bd10        ..      POP      {r4,pc}
    Hard_Fault_Handler
    __tagsym$$used
        0x00001ebe:    4604        .F      MOV      r4,r0
        0x00001ec0:    a021        !.      ADR      r0,{pc}+0x88 ; 0x1f48
        0x00001ec2:    f000fdfb    ....    BL       __0printf ; 0x2abc
        0x00001ec6:    4620         F      MOV      r0,r4
        0x00001ec8:    f7ffffd6    ....    BL       stackDump ; 0x1e78
        0x00001ecc:    e7fe        ..      B        0x1ecc ; Hard_Fault_Handler + 14
    SendChar_ToUART
        0x00001ece:    4924        $I      LDR      r1,[pc,#144] ; [0x1f60] = 0x40050000
        0x00001ed0:    6008        .`      STR      r0,[r1,#0]
        0x00001ed2:    6988        .i      LDR      r0,[r1,#0x18]
        0x00001ed4:    00c0        ..      LSLS     r0,r0,#3
        0x00001ed6:    d5fc        ..      BPL      0x1ed2 ; SendChar_ToUART + 4
        0x00001ed8:    4770        pG      BX       lr
    fputc
        0x00001eda:    b500        ..      PUSH     {lr}
        0x00001edc:    4602        .F      MOV      r2,r0
        0x00001ede:    f7fffff6    ....    BL       SendChar_ToUART ; 0x1ece
        0x00001ee2:    4610        .F      MOV      r0,r2
        0x00001ee4:    bd00        ..      POP      {pc}
    $d
        0x00001ee6:    0000        ..      DCW    0
        0x00001ee8:    20203072    r0      DCD    538980466
        0x00001eec:    7830203d    = 0x    DCD    2016419901
        0x00001ef0:    000a7825    %x..    DCD    686117
        0x00001ef4:    20203172    r1      DCD    538980722
        0x00001ef8:    7830203d    = 0x    DCD    2016419901
        0x00001efc:    000a7825    %x..    DCD    686117
        0x00001f00:    20203272    r2      DCD    538980978
        0x00001f04:    7830203d    = 0x    DCD    2016419901
        0x00001f08:    000a7825    %x..    DCD    686117
        0x00001f0c:    20203372    r3      DCD    538981234
        0x00001f10:    7830203d    = 0x    DCD    2016419901
        0x00001f14:    000a7825    %x..    DCD    686117
        0x00001f18:    20323172    r12     DCD    540160370
        0x00001f1c:    7830203d    = 0x    DCD    2016419901
        0x00001f20:    000a7825    %x..    DCD    686117
        0x00001f24:    2020726c    lr      DCD    538997356
        0x00001f28:    7830203d    = 0x    DCD    2016419901
        0x00001f2c:    000a7825    %x..    DCD    686117
        0x00001f30:    20206370    pc      DCD    538993520
        0x00001f34:    7830203d    = 0x    DCD    2016419901
        0x00001f38:    000a7825    %x..    DCD    686117
        0x00001f3c:    20727370    psr     DCD    544371568
        0x00001f40:    7830203d    = 0x    DCD    2016419901
        0x00001f44:    000a7825    %x..    DCD    686117
        0x00001f48:    48206e49    In H    DCD    1210084937
        0x00001f4c:    20647261    ard     DCD    543453793
        0x00001f50:    6c756146    Faul    DCD    1819631942
        0x00001f54:    61482074    t Ha    DCD    1632116852
        0x00001f58:    656c646e    ndle    DCD    1701602414
        0x00001f5c:    00000a72    r...    DCD    2674
        0x00001f60:    40050000    ...@    DCD    1074069504
    $t
    .text
    TIMER_GetModuleClock
        0x00001f64:    4a53        SJ      LDR      r2,[pc,#332] ; [0x20b4] = 0x40010000
        0x00001f66:    4954        TI      LDR      r1,[pc,#336] ; [0x20b8] = 0x50000200
        0x00001f68:    4290        .B      CMP      r0,r2
        0x00001f6a:    d102        ..      BNE      0x1f72 ; TIMER_GetModuleClock + 14
        0x00001f6c:    6948        Hi      LDR      r0,[r1,#0x14]
        0x00001f6e:    0a00        ..      LSRS     r0,r0,#8
        0x00001f70:    e007        ..      B        0x1f82 ; TIMER_GetModuleClock + 30
        0x00001f72:    4a50        PJ      LDR      r2,[pc,#320] ; [0x20b4] = 0x40010000
        0x00001f74:    3220         2      ADDS     r2,r2,#0x20
        0x00001f76:    4290        .B      CMP      r0,r2
        0x00001f78:    6948        Hi      LDR      r0,[r1,#0x14]
        0x00001f7a:    d101        ..      BNE      0x1f80 ; TIMER_GetModuleClock + 28
        0x00001f7c:    0b00        ..      LSRS     r0,r0,#12
        0x00001f7e:    e000        ..      B        0x1f82 ; TIMER_GetModuleClock + 30
        0x00001f80:    0c00        ..      LSRS     r0,r0,#16
        0x00001f82:    0780        ..      LSLS     r0,r0,#30
        0x00001f84:    0f80        ..      LSRS     r0,r0,#30
        0x00001f86:    d003        ..      BEQ      0x1f90 ; TIMER_GetModuleClock + 44
        0x00001f88:    2100        .!      MOVS     r1,#0
        0x00001f8a:    2802        .(      CMP      r0,#2
        0x00001f8c:    d007        ..      BEQ      0x1f9e ; TIMER_GetModuleClock + 58
        0x00001f8e:    e000        ..      B        0x1f92 ; TIMER_GetModuleClock + 46
        0x00001f90:    2101        .!      MOVS     r1,#1
        0x00001f92:    2200        ."      MOVS     r2,#0
        0x00001f94:    4311        .C      ORRS     r1,r1,r2
        0x00001f96:    d004        ..      BEQ      0x1fa2 ; TIMER_GetModuleClock + 62
        0x00001f98:    4848        HH      LDR      r0,[pc,#288] ; [0x20bc] = 0x20000018
        0x00001f9a:    6800        .h      LDR      r0,[r0,#0]
        0x00001f9c:    4770        pG      BX       lr
        0x00001f9e:    2201        ."      MOVS     r2,#1
        0x00001fa0:    e7f8        ..      B        0x1f94 ; TIMER_GetModuleClock + 48
        0x00001fa2:    2801        .(      CMP      r0,#1
        0x00001fa4:    d001        ..      BEQ      0x1faa ; TIMER_GetModuleClock + 70
        0x00001fa6:    4846        FH      LDR      r0,[pc,#280] ; [0x20c0] = 0x3d0900
        0x00001fa8:    4770        pG      BX       lr
        0x00001faa:    4846        FH      LDR      r0,[pc,#280] ; [0x20c4] = 0x2710
        0x00001fac:    4770        pG      BX       lr
    TIMER_Open
        0x00001fae:    b5f8        ..      PUSH     {r3-r7,lr}
        0x00001fb0:    4613        .F      MOV      r3,r2
        0x00001fb2:    460f        .F      MOV      r7,r1
        0x00001fb4:    4605        .F      MOV      r5,r0
        0x00001fb6:    f7ffffd5    ....    BL       TIMER_GetModuleClock ; 0x1f64
        0x00001fba:    4604        .F      MOV      r4,r0
        0x00001fbc:    2600        .&      MOVS     r6,#0
        0x00001fbe:    0840        @.      LSRS     r0,r0,#1
        0x00001fc0:    4298        .B      CMP      r0,r3
        0x00001fc2:    d201        ..      BCS      0x1fc8 ; TIMER_Open + 26
        0x00001fc4:    2102        .!      MOVS     r1,#2
        0x00001fc6:    e011        ..      B        0x1fec ; TIMER_Open + 62
        0x00001fc8:    2101        .!      MOVS     r1,#1
        0x00001fca:    0649        I.      LSLS     r1,r1,#25
        0x00001fcc:    428c        .B      CMP      r4,r1
        0x00001fce:    d302        ..      BCC      0x1fd6 ; TIMER_Open + 40
        0x00001fd0:    2603        .&      MOVS     r6,#3
        0x00001fd2:    08a4        ..      LSRS     r4,r4,#2
        0x00001fd4:    e005        ..      B        0x1fe2 ; TIMER_Open + 52
        0x00001fd6:    2101        .!      MOVS     r1,#1
        0x00001fd8:    0609        ..      LSLS     r1,r1,#24
        0x00001fda:    428c        .B      CMP      r4,r1
        0x00001fdc:    d301        ..      BCC      0x1fe2 ; TIMER_Open + 52
        0x00001fde:    2601        .&      MOVS     r6,#1
        0x00001fe0:    4604        .F      MOV      r4,r0
        0x00001fe2:    4619        .F      MOV      r1,r3
        0x00001fe4:    4620         F      MOV      r0,r4
        0x00001fe6:    f000f889    ....    BL       __aeabi_uidiv ; 0x20fc
        0x00001fea:    4601        .F      MOV      r1,r0
        0x00001fec:    6828        (h      LDR      r0,[r5,#0]
        0x00001fee:    0a00        ..      LSRS     r0,r0,#8
        0x00001ff0:    0200        ..      LSLS     r0,r0,#8
        0x00001ff2:    4330        0C      ORRS     r0,r0,r6
        0x00001ff4:    6028        (`      STR      r0,[r5,#0]
        0x00001ff6:    6828        (h      LDR      r0,[r5,#0]
        0x00001ff8:    2203        ."      MOVS     r2,#3
        0x00001ffa:    06d2        ..      LSLS     r2,r2,#27
        0x00001ffc:    4390        .C      BICS     r0,r0,r2
        0x00001ffe:    4338        8C      ORRS     r0,r0,r7
        0x00002000:    6028        (`      STR      r0,[r5,#0]
        0x00002002:    6069        i`      STR      r1,[r5,#4]
        0x00002004:    4620         F      MOV      r0,r4
        0x00002006:    f000f879    ..y.    BL       __aeabi_uidiv ; 0x20fc
        0x0000200a:    bdf8        ..      POP      {r3-r7,pc}
    TIMER_Delay
        0x0000200c:    b5f8        ..      PUSH     {r3-r7,lr}
        0x0000200e:    460f        .F      MOV      r7,r1
        0x00002010:    4606        .F      MOV      r6,r0
        0x00002012:    f7ffffa7    ....    BL       TIMER_GetModuleClock ; 0x1f64
        0x00002016:    4605        .F      MOV      r5,r0
        0x00002018:    2000        .       MOVS     r0,#0
        0x0000201a:    9000        ..      STR      r0,[sp,#0]
        0x0000201c:    4827        'H      LDR      r0,[pc,#156] ; [0x20bc] = 0x20000018
        0x0000201e:    4629        )F      MOV      r1,r5
        0x00002020:    6800        .h      LDR      r0,[r0,#0]
        0x00002022:    f000f86b    ..k.    BL       __aeabi_uidiv ; 0x20fc
        0x00002026:    4604        .F      MOV      r4,r0
        0x00002028:    2000        .       MOVS     r0,#0
        0x0000202a:    6030        0`      STR      r0,[r6,#0]
        0x0000202c:    6170        pa      STR      r0,[r6,#0x14]
        0x0000202e:    2f32        2/      CMP      r7,#0x32
        0x00002030:    d200        ..      BCS      0x2034 ; TIMER_Delay + 40
        0x00002032:    2732        2'      MOVS     r7,#0x32
        0x00002034:    4823        #H      LDR      r0,[pc,#140] ; [0x20c4] = 0x2710
        0x00002036:    4285        .B      CMP      r5,r0
        0x00002038:    d106        ..      BNE      0x2048 ; TIMER_Delay + 60
        0x0000203a:    4638        8F      MOV      r0,r7
        0x0000203c:    2164        d!      MOVS     r1,#0x64
        0x0000203e:    3063        c0      ADDS     r0,r0,#0x63
        0x00002040:    f000f85c    ..\.    BL       __aeabi_uidiv ; 0x20fc
        0x00002044:    2164        d!      MOVS     r1,#0x64
        0x00002046:    e005        ..      B        0x2054 ; TIMER_Delay + 72
        0x00002048:    4638        8F      MOV      r0,r7
        0x0000204a:    210a        .!      MOVS     r1,#0xa
        0x0000204c:    3009        .0      ADDS     r0,r0,#9
        0x0000204e:    f000f855    ..U.    BL       __aeabi_uidiv ; 0x20fc
        0x00002052:    210a        .!      MOVS     r1,#0xa
        0x00002054:    4348        HC      MULS     r0,r1,r0
        0x00002056:    4607        .F      MOV      r7,r0
        0x00002058:    2001        .       MOVS     r0,#1
        0x0000205a:    0640        @.      LSLS     r0,r0,#25
        0x0000205c:    4285        .B      CMP      r5,r0
        0x0000205e:    d303        ..      BCC      0x2068 ; TIMER_Delay + 92
        0x00002060:    2003        .       MOVS     r0,#3
        0x00002062:    08ad        ..      LSRS     r5,r5,#2
        0x00002064:    9000        ..      STR      r0,[sp,#0]
        0x00002066:    e006        ..      B        0x2076 ; TIMER_Delay + 106
        0x00002068:    2001        .       MOVS     r0,#1
        0x0000206a:    0600        ..      LSLS     r0,r0,#24
        0x0000206c:    4285        .B      CMP      r5,r0
        0x0000206e:    d302        ..      BCC      0x2076 ; TIMER_Delay + 106
        0x00002070:    2001        .       MOVS     r0,#1
        0x00002072:    086d        m.      LSRS     r5,r5,#1
        0x00002074:    9000        ..      STR      r0,[sp,#0]
        0x00002076:    4628        (F      MOV      r0,r5
        0x00002078:    f000fae7    ....    BL       __aeabi_ui2f ; 0x264a
        0x0000207c:    4605        .F      MOV      r5,r0
        0x0000207e:    4638        8F      MOV      r0,r7
        0x00002080:    f000fae3    ....    BL       __aeabi_ui2f ; 0x264a
        0x00002084:    4629        )F      MOV      r1,r5
        0x00002086:    f000f8bc    ....    BL       __aeabi_fmul ; 0x2202
        0x0000208a:    490f        .I      LDR      r1,[pc,#60] ; [0x20c8] = 0x49742400
        0x0000208c:    f000f8f6    ....    BL       __aeabi_fdiv ; 0x227c
        0x00002090:    f000fb0f    ....    BL       __aeabi_f2uiz ; 0x26b2
        0x00002094:    6070        p`      STR      r0,[r6,#4]
        0x00002096:    2101        .!      MOVS     r1,#1
        0x00002098:    9800        ..      LDR      r0,[sp,#0]
        0x0000209a:    0789        ..      LSLS     r1,r1,#30
        0x0000209c:    4308        .C      ORRS     r0,r0,r1
        0x0000209e:    6030        0`      STR      r0,[r6,#0]
        0x000020a0:    2c00        .,      CMP      r4,#0
        0x000020a2:    d002        ..      BEQ      0x20aa ; TIMER_Delay + 158
        0x000020a4:    bf00        ..      NOP      
        0x000020a6:    1e64        d.      SUBS     r4,r4,#1
        0x000020a8:    d1fc        ..      BNE      0x20a4 ; TIMER_Delay + 152
        0x000020aa:    6830        0h      LDR      r0,[r6,#0]
        0x000020ac:    0180        ..      LSLS     r0,r0,#6
        0x000020ae:    d4fc        ..      BMI      0x20aa ; TIMER_Delay + 158
        0x000020b0:    bdf8        ..      POP      {r3-r7,pc}
    $d
        0x000020b2:    0000        ..      DCW    0
        0x000020b4:    40010000    ...@    DCD    1073807360
        0x000020b8:    50000200    ...P    DCD    1342177792
        0x000020bc:    20000018    ...     DCD    536870936
        0x000020c0:    003d0900    ..=.    DCD    4000000
        0x000020c4:    00002710    .'..    DCD    10000
        0x000020c8:    49742400    .$tI    DCD    1232348160
    $t
    .text
    UART_Open
        0x000020cc:    b570        p.      PUSH     {r4-r6,lr}
        0x000020ce:    4604        .F      MOV      r4,r0
        0x000020d0:    2003        .       MOVS     r0,#3
        0x000020d2:    460d        .F      MOV      r5,r1
        0x000020d4:    60e0        .`      STR      r0,[r4,#0xc]
        0x000020d6:    2000        .       MOVS     r0,#0
        0x000020d8:    60a0        .`      STR      r0,[r4,#8]
        0x000020da:    f7fffda7    ....    BL       CLK_GetHCLKFreq ; 0x1c2c
        0x000020de:    2d00        .-      CMP      r5,#0
        0x000020e0:    d008        ..      BEQ      0x20f4 ; UART_Open + 40
        0x000020e2:    0069        i.      LSLS     r1,r5,#1
        0x000020e4:    1b40        @.      SUBS     r0,r0,r5
        0x000020e6:    f000f809    ....    BL       __aeabi_uidiv ; 0x20fc
        0x000020ea:    4903        .I      LDR      r1,[pc,#12] ; [0x20f8] = 0xffff
        0x000020ec:    4288        .B      CMP      r0,r1
        0x000020ee:    d900        ..      BLS      0x20f2 ; UART_Open + 38
        0x000020f0:    4608        .F      MOV      r0,r1
        0x000020f2:    6260        `b      STR      r0,[r4,#0x24]
        0x000020f4:    bd70        p.      POP      {r4-r6,pc}
    $d
        0x000020f6:    0000        ..      DCW    0
        0x000020f8:    0000ffff    ....    DCD    65535
    $t
    .text
    __aeabi_uidiv
    __aeabi_uidivmod
        0x000020fc:    b530        0.      PUSH     {r4,r5,lr}
        0x000020fe:    460b        .F      MOV      r3,r1
        0x00002100:    4601        .F      MOV      r1,r0
        0x00002102:    2000        .       MOVS     r0,#0
        0x00002104:    2220         "      MOVS     r2,#0x20
        0x00002106:    2401        .$      MOVS     r4,#1
        0x00002108:    e009        ..      B        0x211e ; __aeabi_uidiv + 34
        0x0000210a:    460d        .F      MOV      r5,r1
        0x0000210c:    40d5        .@      LSRS     r5,r5,r2
        0x0000210e:    429d        .B      CMP      r5,r3
        0x00002110:    d305        ..      BCC      0x211e ; __aeabi_uidiv + 34
        0x00002112:    461d        .F      MOV      r5,r3
        0x00002114:    4095        .@      LSLS     r5,r5,r2
        0x00002116:    1b49        I.      SUBS     r1,r1,r5
        0x00002118:    4625        %F      MOV      r5,r4
        0x0000211a:    4095        .@      LSLS     r5,r5,r2
        0x0000211c:    1940        @.      ADDS     r0,r0,r5
        0x0000211e:    4615        .F      MOV      r5,r2
        0x00002120:    1e52        R.      SUBS     r2,r2,#1
        0x00002122:    2d00        .-      CMP      r5,#0
        0x00002124:    dcf1        ..      BGT      0x210a ; __aeabi_uidiv + 14
        0x00002126:    bd30        0.      POP      {r4,r5,pc}
    .text
    __aeabi_idiv
    __aeabi_idivmod
        0x00002128:    b570        p.      PUSH     {r4-r6,lr}
        0x0000212a:    2400        .$      MOVS     r4,#0
        0x0000212c:    4625        %F      MOV      r5,r4
        0x0000212e:    2800        .(      CMP      r0,#0
        0x00002130:    da01        ..      BGE      0x2136 ; __aeabi_idiv + 14
        0x00002132:    2401        .$      MOVS     r4,#1
        0x00002134:    4240        @B      RSBS     r0,r0,#0
        0x00002136:    2900        .)      CMP      r1,#0
        0x00002138:    da01        ..      BGE      0x213e ; __aeabi_idiv + 22
        0x0000213a:    2501        .%      MOVS     r5,#1
        0x0000213c:    4249        IB      RSBS     r1,r1,#0
        0x0000213e:    f7ffffdd    ....    BL       __aeabi_uidiv ; 0x20fc
        0x00002142:    42ac        .B      CMP      r4,r5
        0x00002144:    d000        ..      BEQ      0x2148 ; __aeabi_idiv + 32
        0x00002146:    4240        @B      RSBS     r0,r0,#0
        0x00002148:    2c00        .,      CMP      r4,#0
        0x0000214a:    d000        ..      BEQ      0x214e ; __aeabi_idiv + 38
        0x0000214c:    4249        IB      RSBS     r1,r1,#0
        0x0000214e:    bd70        p.      POP      {r4-r6,pc}
    .text
    __aeabi_fadd
        0x00002150:    b5f8        ..      PUSH     {r3-r7,lr}
        0x00002152:    4602        .F      MOV      r2,r0
        0x00002154:    404a        J@      EORS     r2,r2,r1
        0x00002156:    0fd4        ..      LSRS     r4,r2,#31
        0x00002158:    0042        B.      LSLS     r2,r0,#1
        0x0000215a:    004b        K.      LSLS     r3,r1,#1
        0x0000215c:    0852        R.      LSRS     r2,r2,#1
        0x0000215e:    085b        [.      LSRS     r3,r3,#1
        0x00002160:    429a        .B      CMP      r2,r3
        0x00002162:    d202        ..      BCS      0x216a ; __aeabi_fadd + 26
        0x00002164:    4602        .F      MOV      r2,r0
        0x00002166:    4608        .F      MOV      r0,r1
        0x00002168:    4611        .F      MOV      r1,r2
        0x0000216a:    004a        J.      LSLS     r2,r1,#1
        0x0000216c:    d023        #.      BEQ      0x21b6 ; __aeabi_fadd + 102
        0x0000216e:    0dc3        ..      LSRS     r3,r0,#23
        0x00002170:    004a        J.      LSLS     r2,r1,#1
        0x00002172:    b2dd        ..      UXTB     r5,r3
        0x00002174:    0e12        ..      LSRS     r2,r2,#24
        0x00002176:    1aad        ..      SUBS     r5,r5,r2
        0x00002178:    2d20         -      CMP      r5,#0x20
        0x0000217a:    da35        5.      BGE      0x21e8 ; __aeabi_fadd + 152
        0x0000217c:    0249        I.      LSLS     r1,r1,#9
        0x0000217e:    2601        .&      MOVS     r6,#1
        0x00002180:    0a49        I.      LSRS     r1,r1,#9
        0x00002182:    05f6        ..      LSLS     r6,r6,#23
        0x00002184:    198a        ..      ADDS     r2,r1,r6
        0x00002186:    2c00        .,      CMP      r4,#0
        0x00002188:    d000        ..      BEQ      0x218c ; __aeabi_fadd + 60
        0x0000218a:    4252        RB      RSBS     r2,r2,#0
        0x0000218c:    2120         !      MOVS     r1,#0x20
        0x0000218e:    1b4f        O.      SUBS     r7,r1,r5
        0x00002190:    4611        .F      MOV      r1,r2
        0x00002192:    40b9        .@      LSLS     r1,r1,r7
        0x00002194:    412a        *A      ASRS     r2,r2,r5
        0x00002196:    1810        ..      ADDS     r0,r2,r0
        0x00002198:    0dc2        ..      LSRS     r2,r0,#23
        0x0000219a:    429a        .B      CMP      r2,r3
        0x0000219c:    d021        !.      BEQ      0x21e2 ; __aeabi_fadd + 146
        0x0000219e:    2c00        .,      CMP      r4,#0
        0x000021a0:    d017        ..      BEQ      0x21d2 ; __aeabi_fadd + 130
        0x000021a2:    2d01        .-      CMP      r5,#1
        0x000021a4:    dc08        ..      BGT      0x21b8 ; __aeabi_fadd + 104
        0x000021a6:    05da        ..      LSLS     r2,r3,#23
        0x000021a8:    1a80        ..      SUBS     r0,r0,r2
        0x000021aa:    0fd2        ..      LSRS     r2,r2,#31
        0x000021ac:    1980        ..      ADDS     r0,r0,r6
        0x000021ae:    07d2        ..      LSLS     r2,r2,#31
        0x000021b0:    b2db        ..      UXTB     r3,r3
        0x000021b2:    f000fb32    ..2.    BL       _float_epilogue ; 0x281a
        0x000021b6:    bdf8        ..      POP      {r3-r7,pc}
        0x000021b8:    05da        ..      LSLS     r2,r3,#23
        0x000021ba:    1a80        ..      SUBS     r0,r0,r2
        0x000021bc:    2301        .#      MOVS     r3,#1
        0x000021be:    0040        @.      LSLS     r0,r0,#1
        0x000021c0:    061b        ..      LSLS     r3,r3,#24
        0x000021c2:    18c0        ..      ADDS     r0,r0,r3
        0x000021c4:    1880        ..      ADDS     r0,r0,r2
        0x000021c6:    425a        ZB      RSBS     r2,r3,#0
        0x000021c8:    1880        ..      ADDS     r0,r0,r2
        0x000021ca:    0fca        ..      LSRS     r2,r1,#31
        0x000021cc:    4310        .C      ORRS     r0,r0,r2
        0x000021ce:    0049        I.      LSLS     r1,r1,#1
        0x000021d0:    e007        ..      B        0x21e2 ; __aeabi_fadd + 146
        0x000021d2:    0849        I.      LSRS     r1,r1,#1
        0x000021d4:    07c2        ..      LSLS     r2,r0,#31
        0x000021d6:    4311        .C      ORRS     r1,r1,r2
        0x000021d8:    05da        ..      LSLS     r2,r3,#23
        0x000021da:    1a80        ..      SUBS     r0,r0,r2
        0x000021dc:    1980        ..      ADDS     r0,r0,r6
        0x000021de:    0840        @.      LSRS     r0,r0,#1
        0x000021e0:    1880        ..      ADDS     r0,r0,r2
        0x000021e2:    f000fb12    ....    BL       __I$use$fp ; 0x280a
        0x000021e6:    bdf8        ..      POP      {r3-r7,pc}
        0x000021e8:    0061        a.      LSLS     r1,r4,#1
        0x000021ea:    2201        ."      MOVS     r2,#1
        0x000021ec:    1a51        Q.      SUBS     r1,r2,r1
        0x000021ee:    1b00        ..      SUBS     r0,r0,r4
        0x000021f0:    e7f7        ..      B        0x21e2 ; __aeabi_fadd + 146
    __aeabi_fsub
        0x000021f2:    2201        ."      MOVS     r2,#1
        0x000021f4:    07d2        ..      LSLS     r2,r2,#31
        0x000021f6:    4051        Q@      EORS     r1,r1,r2
        0x000021f8:    e7aa        ..      B        __aeabi_fadd ; 0x2150
    __aeabi_frsub
        0x000021fa:    2201        ."      MOVS     r2,#1
        0x000021fc:    07d2        ..      LSLS     r2,r2,#31
        0x000021fe:    4050        P@      EORS     r0,r0,r2
        0x00002200:    e7a6        ..      B        __aeabi_fadd ; 0x2150
    .text
    __aeabi_fmul
        0x00002202:    4602        .F      MOV      r2,r0
        0x00002204:    b570        p.      PUSH     {r4-r6,lr}
        0x00002206:    404a        J@      EORS     r2,r2,r1
        0x00002208:    0fd3        ..      LSRS     r3,r2,#31
        0x0000220a:    07db        ..      LSLS     r3,r3,#31
        0x0000220c:    0040        @.      LSLS     r0,r0,#1
        0x0000220e:    d02d        -.      BEQ      0x226c ; __aeabi_fmul + 106
        0x00002210:    004a        J.      LSLS     r2,r1,#1
        0x00002212:    d02a        *.      BEQ      0x226a ; __aeabi_fmul + 104
        0x00002214:    0e01        ..      LSRS     r1,r0,#24
        0x00002216:    0e14        ..      LSRS     r4,r2,#24
        0x00002218:    0200        ..      LSLS     r0,r0,#8
        0x0000221a:    0212        ..      LSLS     r2,r2,#8
        0x0000221c:    1909        ..      ADDS     r1,r1,r4
        0x0000221e:    0a40        @.      LSRS     r0,r0,#9
        0x00002220:    0a52        R.      LSRS     r2,r2,#9
        0x00002222:    1884        ..      ADDS     r4,r0,r2
        0x00002224:    01e5        ..      LSLS     r5,r4,#7
        0x00002226:    4604        .F      MOV      r4,r0
        0x00002228:    4354        TC      MULS     r4,r2,r4
        0x0000222a:    0a00        ..      LSRS     r0,r0,#8
        0x0000222c:    0a12        ..      LSRS     r2,r2,#8
        0x0000222e:    042e        ..      LSLS     r6,r5,#16
        0x00002230:    4350        PC      MULS     r0,r2,r0
        0x00002232:    19a4        ..      ADDS     r4,r4,r6
        0x00002234:    1942        B.      ADDS     r2,r0,r5
        0x00002236:    0c20         .      LSRS     r0,r4,#16
        0x00002238:    43c5        .C      MVNS     r5,r0
        0x0000223a:    18aa        ..      ADDS     r2,r5,r2
        0x0000223c:    0c12        ..      LSRS     r2,r2,#16
        0x0000223e:    2501        .%      MOVS     r5,#1
        0x00002240:    03ad        ..      LSLS     r5,r5,#14
        0x00002242:    1c52        R.      ADDS     r2,r2,#1
        0x00002244:    1952        R.      ADDS     r2,r2,r5
        0x00002246:    0412        ..      LSLS     r2,r2,#16
        0x00002248:    397f        .9      SUBS     r1,r1,#0x7f
        0x0000224a:    0424        $.      LSLS     r4,r4,#16
        0x0000224c:    d000        ..      BEQ      0x2250 ; __aeabi_fmul + 78
        0x0000224e:    1c52        R.      ADDS     r2,r2,#1
        0x00002250:    4310        .C      ORRS     r0,r0,r2
        0x00002252:    d401        ..      BMI      0x2258 ; __aeabi_fmul + 86
        0x00002254:    0040        @.      LSLS     r0,r0,#1
        0x00002256:    1e49        I.      SUBS     r1,r1,#1
        0x00002258:    b2c2        ..      UXTB     r2,r0
        0x0000225a:    060c        ..      LSLS     r4,r1,#24
        0x0000225c:    09c0        ..      LSRS     r0,r0,#7
        0x0000225e:    1820         .      ADDS     r0,r4,r0
        0x00002260:    1c40        @.      ADDS     r0,r0,#1
        0x00002262:    0840        @.      LSRS     r0,r0,#1
        0x00002264:    2a80        .*      CMP      r2,#0x80
        0x00002266:    d002        ..      BEQ      0x226e ; __aeabi_fmul + 108
        0x00002268:    e003        ..      B        0x2272 ; __aeabi_fmul + 112
        0x0000226a:    2000        .       MOVS     r0,#0
        0x0000226c:    bd70        p.      POP      {r4-r6,pc}
        0x0000226e:    0840        @.      LSRS     r0,r0,#1
        0x00002270:    0040        @.      LSLS     r0,r0,#1
        0x00002272:    2900        .)      CMP      r1,#0
        0x00002274:    da00        ..      BGE      0x2278 ; __aeabi_fmul + 118
        0x00002276:    2000        .       MOVS     r0,#0
        0x00002278:    4318        .C      ORRS     r0,r0,r3
        0x0000227a:    bd70        p.      POP      {r4-r6,pc}
    .text
    __aeabi_fdiv
        0x0000227c:    b570        p.      PUSH     {r4-r6,lr}
        0x0000227e:    4602        .F      MOV      r2,r0
        0x00002280:    404a        J@      EORS     r2,r2,r1
        0x00002282:    0fd5        ..      LSRS     r5,r2,#31
        0x00002284:    0040        @.      LSLS     r0,r0,#1
        0x00002286:    004a        J.      LSLS     r2,r1,#1
        0x00002288:    07ed        ..      LSLS     r5,r5,#31
        0x0000228a:    0840        @.      LSRS     r0,r0,#1
        0x0000228c:    0852        R.      LSRS     r2,r2,#1
        0x0000228e:    2800        .(      CMP      r0,#0
        0x00002290:    d014        ..      BEQ      0x22bc ; __aeabi_fdiv + 64
        0x00002292:    2a00        .*      CMP      r2,#0
        0x00002294:    d012        ..      BEQ      0x22bc ; __aeabi_fdiv + 64
        0x00002296:    0dc4        ..      LSRS     r4,r0,#23
        0x00002298:    0dd3        ..      LSRS     r3,r2,#23
        0x0000229a:    0241        A.      LSLS     r1,r0,#9
        0x0000229c:    2001        .       MOVS     r0,#1
        0x0000229e:    05c0        ..      LSLS     r0,r0,#23
        0x000022a0:    0252        R.      LSLS     r2,r2,#9
        0x000022a2:    0a49        I.      LSRS     r1,r1,#9
        0x000022a4:    0a52        R.      LSRS     r2,r2,#9
        0x000022a6:    1ae4        ..      SUBS     r4,r4,r3
        0x000022a8:    1809        ..      ADDS     r1,r1,r0
        0x000022aa:    1812        ..      ADDS     r2,r2,r0
        0x000022ac:    347d        }4      ADDS     r4,r4,#0x7d
        0x000022ae:    4291        .B      CMP      r1,r2
        0x000022b0:    d301        ..      BCC      0x22b6 ; __aeabi_fdiv + 58
        0x000022b2:    1c64        d.      ADDS     r4,r4,#1
        0x000022b4:    e000        ..      B        0x22b8 ; __aeabi_fdiv + 60
        0x000022b6:    0049        I.      LSLS     r1,r1,#1
        0x000022b8:    2c00        .,      CMP      r4,#0
        0x000022ba:    da01        ..      BGE      0x22c0 ; __aeabi_fdiv + 68
        0x000022bc:    2000        .       MOVS     r0,#0
        0x000022be:    bd70        p.      POP      {r4-r6,pc}
        0x000022c0:    2300        .#      MOVS     r3,#0
        0x000022c2:    4291        .B      CMP      r1,r2
        0x000022c4:    d301        ..      BCC      0x22ca ; __aeabi_fdiv + 78
        0x000022c6:    1a89        ..      SUBS     r1,r1,r2
        0x000022c8:    4303        .C      ORRS     r3,r3,r0
        0x000022ca:    0840        @.      LSRS     r0,r0,#1
        0x000022cc:    0049        I.      LSLS     r1,r1,#1
        0x000022ce:    2800        .(      CMP      r0,#0
        0x000022d0:    d1f7        ..      BNE      0x22c2 ; __aeabi_fdiv + 70
        0x000022d2:    2900        .)      CMP      r1,#0
        0x000022d4:    d00a        ..      BEQ      0x22ec ; __aeabi_fdiv + 112
        0x000022d6:    4291        .B      CMP      r1,r2
        0x000022d8:    d102        ..      BNE      0x22e0 ; __aeabi_fdiv + 100
        0x000022da:    2101        .!      MOVS     r1,#1
        0x000022dc:    07c9        ..      LSLS     r1,r1,#31
        0x000022de:    e005        ..      B        0x22ec ; __aeabi_fdiv + 112
        0x000022e0:    4291        .B      CMP      r1,r2
        0x000022e2:    d201        ..      BCS      0x22e8 ; __aeabi_fdiv + 108
        0x000022e4:    2101        .!      MOVS     r1,#1
        0x000022e6:    e001        ..      B        0x22ec ; __aeabi_fdiv + 112
        0x000022e8:    2101        .!      MOVS     r1,#1
        0x000022ea:    43c9        .C      MVNS     r1,r1
        0x000022ec:    05e0        ..      LSLS     r0,r4,#23
        0x000022ee:    18c0        ..      ADDS     r0,r0,r3
        0x000022f0:    1940        @.      ADDS     r0,r0,r5
        0x000022f2:    f000fa8a    ....    BL       __I$use$fp ; 0x280a
        0x000022f6:    bd70        p.      POP      {r4-r6,pc}
    .text
    __ARM_scalbnf
    scalbnf
        0x000022f8:    0042        B.      LSLS     r2,r0,#1
        0x000022fa:    d005        ..      BEQ      0x2308 ; __ARM_scalbnf + 16
        0x000022fc:    0042        B.      LSLS     r2,r0,#1
        0x000022fe:    0e12        ..      LSRS     r2,r2,#24
        0x00002300:    4252        RB      RSBS     r2,r2,#0
        0x00002302:    428a        .B      CMP      r2,r1
        0x00002304:    db01        ..      BLT      0x230a ; __ARM_scalbnf + 18
        0x00002306:    2000        .       MOVS     r0,#0
        0x00002308:    4770        pG      BX       lr
        0x0000230a:    05c9        ..      LSLS     r1,r1,#23
        0x0000230c:    1808        ..      ADDS     r0,r1,r0
        0x0000230e:    4770        pG      BX       lr
    .text
    __aeabi_dadd
        0x00002310:    b5f0        ..      PUSH     {r4-r7,lr}
        0x00002312:    4607        .F      MOV      r7,r0
        0x00002314:    4608        .F      MOV      r0,r1
        0x00002316:    4058        X@      EORS     r0,r0,r3
        0x00002318:    b087        ..      SUB      sp,sp,#0x1c
        0x0000231a:    0fc0        ..      LSRS     r0,r0,#31
        0x0000231c:    9004        ..      STR      r0,[sp,#0x10]
        0x0000231e:    0048        H.      LSLS     r0,r1,#1
        0x00002320:    460e        .F      MOV      r6,r1
        0x00002322:    0059        Y.      LSLS     r1,r3,#1
        0x00002324:    0840        @.      LSRS     r0,r0,#1
        0x00002326:    0849        I.      LSRS     r1,r1,#1
        0x00002328:    1abc        ..      SUBS     r4,r7,r2
        0x0000232a:    4188        .A      SBCS     r0,r0,r1
        0x0000232c:    d205        ..      BCS      0x233a ; __aeabi_dadd + 42
        0x0000232e:    4638        8F      MOV      r0,r7
        0x00002330:    4631        1F      MOV      r1,r6
        0x00002332:    461e        .F      MOV      r6,r3
        0x00002334:    4617        .F      MOV      r7,r2
        0x00002336:    460b        .F      MOV      r3,r1
        0x00002338:    4602        .F      MOV      r2,r0
        0x0000233a:    0058        X.      LSLS     r0,r3,#1
        0x0000233c:    0840        @.      LSRS     r0,r0,#1
        0x0000233e:    4310        .C      ORRS     r0,r0,r2
        0x00002340:    d04c        L.      BEQ      0x23dc ; __aeabi_dadd + 204
        0x00002342:    0d30        0.      LSRS     r0,r6,#20
        0x00002344:    9003        ..      STR      r0,[sp,#0xc]
        0x00002346:    0540        @.      LSLS     r0,r0,#21
        0x00002348:    0059        Y.      LSLS     r1,r3,#1
        0x0000234a:    0d40        @.      LSRS     r0,r0,#21
        0x0000234c:    0d49        I.      LSRS     r1,r1,#21
        0x0000234e:    9005        ..      STR      r0,[sp,#0x14]
        0x00002350:    1a40        @.      SUBS     r0,r0,r1
        0x00002352:    9002        ..      STR      r0,[sp,#8]
        0x00002354:    2840        @(      CMP      r0,#0x40
        0x00002356:    da72        r.      BGE      0x243e ; __aeabi_dadd + 302
        0x00002358:    0318        ..      LSLS     r0,r3,#12
        0x0000235a:    2101        .!      MOVS     r1,#1
        0x0000235c:    0b00        ..      LSRS     r0,r0,#12
        0x0000235e:    0509        ..      LSLS     r1,r1,#20
        0x00002360:    4308        .C      ORRS     r0,r0,r1
        0x00002362:    9001        ..      STR      r0,[sp,#4]
        0x00002364:    9804        ..      LDR      r0,[sp,#0x10]
        0x00002366:    9200        ..      STR      r2,[sp,#0]
        0x00002368:    2800        .(      CMP      r0,#0
        0x0000236a:    d005        ..      BEQ      0x2378 ; __aeabi_dadd + 104
        0x0000236c:    9901        ..      LDR      r1,[sp,#4]
        0x0000236e:    4252        RB      RSBS     r2,r2,#0
        0x00002370:    2000        .       MOVS     r0,#0
        0x00002372:    4188        .A      SBCS     r0,r0,r1
        0x00002374:    9200        ..      STR      r2,[sp,#0]
        0x00002376:    9001        ..      STR      r0,[sp,#4]
        0x00002378:    9802        ..      LDR      r0,[sp,#8]
        0x0000237a:    2140        @!      MOVS     r1,#0x40
        0x0000237c:    1a0a        ..      SUBS     r2,r1,r0
        0x0000237e:    9901        ..      LDR      r1,[sp,#4]
        0x00002380:    9800        ..      LDR      r0,[sp,#0]
        0x00002382:    f000fa1f    ....    BL       __aeabi_llsl ; 0x27c4
        0x00002386:    4605        .F      MOV      r5,r0
        0x00002388:    460c        .F      MOV      r4,r1
        0x0000238a:    466b        kF      MOV      r3,sp
        0x0000238c:    cb07        ..      LDM      r3!,{r0-r2}
        0x0000238e:    f000fa29    ..).    BL       __aeabi_lasr ; 0x27e4
        0x00002392:    19c0        ..      ADDS     r0,r0,r7
        0x00002394:    4171        qA      ADCS     r1,r1,r6
        0x00002396:    9a03        ..      LDR      r2,[sp,#0xc]
        0x00002398:    0d0e        ..      LSRS     r6,r1,#20
        0x0000239a:    2300        .#      MOVS     r3,#0
        0x0000239c:    17d7        ..      ASRS     r7,r2,#31
        0x0000239e:    4056        V@      EORS     r6,r6,r2
        0x000023a0:    461a        .F      MOV      r2,r3
        0x000023a2:    407a        z@      EORS     r2,r2,r7
        0x000023a4:    4316        .C      ORRS     r6,r6,r2
        0x000023a6:    d044        D.      BEQ      0x2432 ; __aeabi_dadd + 290
        0x000023a8:    9a04        ..      LDR      r2,[sp,#0x10]
        0x000023aa:    2a00        .*      CMP      r2,#0
        0x000023ac:    d02d        -.      BEQ      0x240a ; __aeabi_dadd + 250
        0x000023ae:    9a02        ..      LDR      r2,[sp,#8]
        0x000023b0:    2a01        .*      CMP      r2,#1
        0x000023b2:    9a03        ..      LDR      r2,[sp,#0xc]
        0x000023b4:    dc15        ..      BGT      0x23e2 ; __aeabi_dadd + 210
        0x000023b6:    0512        ..      LSLS     r2,r2,#20
        0x000023b8:    1ac0        ..      SUBS     r0,r0,r3
        0x000023ba:    4191        .A      SBCS     r1,r1,r2
        0x000023bc:    2601        .&      MOVS     r6,#1
        0x000023be:    0536        6.      LSLS     r6,r6,#20
        0x000023c0:    1c00        ..      ADDS     r0,r0,#0
        0x000023c2:    4171        qA      ADCS     r1,r1,r6
        0x000023c4:    0fd2        ..      LSRS     r2,r2,#31
        0x000023c6:    9e05        ..      LDR      r6,[sp,#0x14]
        0x000023c8:    07d2        ..      LSLS     r2,r2,#31
        0x000023ca:    9300        ..      STR      r3,[sp,#0]
        0x000023cc:    9201        ..      STR      r2,[sp,#4]
        0x000023ce:    9602        ..      STR      r6,[sp,#8]
        0x000023d0:    462a        *F      MOV      r2,r5
        0x000023d2:    4623        #F      MOV      r3,r4
        0x000023d4:    f000fa67    ..g.    BL       _double_epilogue ; 0x28a6
        0x000023d8:    b007        ..      ADD      sp,sp,#0x1c
        0x000023da:    bdf0        ..      POP      {r4-r7,pc}
        0x000023dc:    4638        8F      MOV      r0,r7
        0x000023de:    4631        1F      MOV      r1,r6
        0x000023e0:    e7fa        ..      B        0x23d8 ; __aeabi_dadd + 200
        0x000023e2:    0516        ..      LSLS     r6,r2,#20
        0x000023e4:    4a22        "J      LDR      r2,[pc,#136] ; [0x2470] = 0xffe00000
        0x000023e6:    460f        .F      MOV      r7,r1
        0x000023e8:    18b2        ..      ADDS     r2,r6,r2
        0x000023ea:    1ac0        ..      SUBS     r0,r0,r3
        0x000023ec:    41b7        .A      SBCS     r7,r7,r6
        0x000023ee:    2101        .!      MOVS     r1,#1
        0x000023f0:    0509        ..      LSLS     r1,r1,#20
        0x000023f2:    1c00        ..      ADDS     r0,r0,#0
        0x000023f4:    414f        OA      ADCS     r7,r7,r1
        0x000023f6:    1800        ..      ADDS     r0,r0,r0
        0x000023f8:    417f        .A      ADCS     r7,r7,r7
        0x000023fa:    4611        .F      MOV      r1,r2
        0x000023fc:    1818        ..      ADDS     r0,r3,r0
        0x000023fe:    4179        yA      ADCS     r1,r1,r7
        0x00002400:    0fe2        ..      LSRS     r2,r4,#31
        0x00002402:    4310        .C      ORRS     r0,r0,r2
        0x00002404:    196d        m.      ADDS     r5,r5,r5
        0x00002406:    4164        dA      ADCS     r4,r4,r4
        0x00002408:    e013        ..      B        0x2432 ; __aeabi_dadd + 290
        0x0000240a:    07e2        ..      LSLS     r2,r4,#31
        0x0000240c:    086d        m.      LSRS     r5,r5,#1
        0x0000240e:    4315        .C      ORRS     r5,r5,r2
        0x00002410:    0864        d.      LSRS     r4,r4,#1
        0x00002412:    07c2        ..      LSLS     r2,r0,#31
        0x00002414:    4314        .C      ORRS     r4,r4,r2
        0x00002416:    9a03        ..      LDR      r2,[sp,#0xc]
        0x00002418:    2601        .&      MOVS     r6,#1
        0x0000241a:    0512        ..      LSLS     r2,r2,#20
        0x0000241c:    1ac0        ..      SUBS     r0,r0,r3
        0x0000241e:    4191        .A      SBCS     r1,r1,r2
        0x00002420:    0536        6.      LSLS     r6,r6,#20
        0x00002422:    1c00        ..      ADDS     r0,r0,#0
        0x00002424:    4171        qA      ADCS     r1,r1,r6
        0x00002426:    07ce        ..      LSLS     r6,r1,#31
        0x00002428:    0840        @.      LSRS     r0,r0,#1
        0x0000242a:    4330        0C      ORRS     r0,r0,r6
        0x0000242c:    0849        I.      LSRS     r1,r1,#1
        0x0000242e:    18c0        ..      ADDS     r0,r0,r3
        0x00002430:    4151        QA      ADCS     r1,r1,r2
        0x00002432:    462a        *F      MOV      r2,r5
        0x00002434:    4623        #F      MOV      r3,r4
        0x00002436:    f000fa29    ..).    BL       _double_round ; 0x288c
        0x0000243a:    e7cd        ..      B        0x23d8 ; __aeabi_dadd + 200
        0x0000243c:    e7ff        ..      B        0x243e ; __aeabi_dadd + 302
        0x0000243e:    9804        ..      LDR      r0,[sp,#0x10]
        0x00002440:    2201        ."      MOVS     r2,#1
        0x00002442:    0040        @.      LSLS     r0,r0,#1
        0x00002444:    17c1        ..      ASRS     r1,r0,#31
        0x00002446:    1a12        ..      SUBS     r2,r2,r0
        0x00002448:    2300        .#      MOVS     r3,#0
        0x0000244a:    418b        .A      SBCS     r3,r3,r1
        0x0000244c:    9804        ..      LDR      r0,[sp,#0x10]
        0x0000244e:    4631        1F      MOV      r1,r6
        0x00002450:    17c4        ..      ASRS     r4,r0,#31
        0x00002452:    1a38        8.      SUBS     r0,r7,r0
        0x00002454:    41a1        .A      SBCS     r1,r1,r4
        0x00002456:    e7ee        ..      B        0x2436 ; __aeabi_dadd + 294
    __aeabi_dsub
        0x00002458:    b430        0.      PUSH     {r4,r5}
        0x0000245a:    2401        .$      MOVS     r4,#1
        0x0000245c:    07e4        ..      LSLS     r4,r4,#31
        0x0000245e:    4063        c@      EORS     r3,r3,r4
        0x00002460:    bc30        0.      POP      {r4,r5}
        0x00002462:    e755        U.      B        __aeabi_dadd ; 0x2310
    __aeabi_drsub
        0x00002464:    b430        0.      PUSH     {r4,r5}
        0x00002466:    2401        .$      MOVS     r4,#1
        0x00002468:    07e4        ..      LSLS     r4,r4,#31
        0x0000246a:    4061        a@      EORS     r1,r1,r4
        0x0000246c:    bc30        0.      POP      {r4,r5}
        0x0000246e:    e74f        O.      B        __aeabi_dadd ; 0x2310
    $d
        0x00002470:    ffe00000    ....    DCD    4292870144
    $t
    .text
    __aeabi_dmul
        0x00002474:    b5f0        ..      PUSH     {r4-r7,lr}
        0x00002476:    b41f        ..      PUSH     {r0-r4}
        0x00002478:    b088        ..      SUB      sp,sp,#0x20
        0x0000247a:    990b        ..      LDR      r1,[sp,#0x2c]
        0x0000247c:    9809        ..      LDR      r0,[sp,#0x24]
        0x0000247e:    2400        .$      MOVS     r4,#0
        0x00002480:    4048        H@      EORS     r0,r0,r1
        0x00002482:    9909        ..      LDR      r1,[sp,#0x24]
        0x00002484:    0fc0        ..      LSRS     r0,r0,#31
        0x00002486:    0049        I.      LSLS     r1,r1,#1
        0x00002488:    0849        I.      LSRS     r1,r1,#1
        0x0000248a:    9109        ..      STR      r1,[sp,#0x24]
        0x0000248c:    07c0        ..      LSLS     r0,r0,#31
        0x0000248e:    990b        ..      LDR      r1,[sp,#0x2c]
        0x00002490:    9000        ..      STR      r0,[sp,#0]
        0x00002492:    0049        I.      LSLS     r1,r1,#1
        0x00002494:    0849        I.      LSRS     r1,r1,#1
        0x00002496:    910b        ..      STR      r1,[sp,#0x2c]
        0x00002498:    9909        ..      LDR      r1,[sp,#0x24]
        0x0000249a:    9808        ..      LDR      r0,[sp,#0x20]
        0x0000249c:    46a6        .F      MOV      lr,r4
        0x0000249e:    4308        .C      ORRS     r0,r0,r1
        0x000024a0:    d01c        ..      BEQ      0x24dc ; __aeabi_dmul + 104
        0x000024a2:    990b        ..      LDR      r1,[sp,#0x2c]
        0x000024a4:    980a        ..      LDR      r0,[sp,#0x28]
        0x000024a6:    4308        .C      ORRS     r0,r0,r1
        0x000024a8:    d018        ..      BEQ      0x24dc ; __aeabi_dmul + 104
        0x000024aa:    9809        ..      LDR      r0,[sp,#0x24]
        0x000024ac:    2401        .$      MOVS     r4,#1
        0x000024ae:    0040        @.      LSLS     r0,r0,#1
        0x000024b0:    0d42        B.      LSRS     r2,r0,#21
        0x000024b2:    0048        H.      LSLS     r0,r1,#1
        0x000024b4:    0d41        A.      LSRS     r1,r0,#21
        0x000024b6:    9809        ..      LDR      r0,[sp,#0x24]
        0x000024b8:    0524        $.      LSLS     r4,r4,#20
        0x000024ba:    0300        ..      LSLS     r0,r0,#12
        0x000024bc:    0b00        ..      LSRS     r0,r0,#12
        0x000024be:    4320         C      ORRS     r0,r0,r4
        0x000024c0:    9009        ..      STR      r0,[sp,#0x24]
        0x000024c2:    980b        ..      LDR      r0,[sp,#0x2c]
        0x000024c4:    0300        ..      LSLS     r0,r0,#12
        0x000024c6:    0b00        ..      LSRS     r0,r0,#12
        0x000024c8:    4320         C      ORRS     r0,r0,r4
        0x000024ca:    900b        ..      STR      r0,[sp,#0x2c]
        0x000024cc:    1850        P.      ADDS     r0,r2,r1
        0x000024ce:    491c        .I      LDR      r1,[pc,#112] ; [0x2540] = 0xfffffc0d
        0x000024d0:    1840        @.      ADDS     r0,r0,r1
        0x000024d2:    2200        ."      MOVS     r2,#0
        0x000024d4:    9001        ..      STR      r0,[sp,#4]
        0x000024d6:    4614        .F      MOV      r4,r2
        0x000024d8:    4610        .F      MOV      r0,r2
        0x000024da:    e005        ..      B        0x24e8 ; __aeabi_dmul + 116
        0x000024dc:    2000        .       MOVS     r0,#0
        0x000024de:    4601        .F      MOV      r1,r0
        0x000024e0:    b00d        ..      ADD      sp,sp,#0x34
        0x000024e2:    bdf0        ..      POP      {r4-r7,pc}
        0x000024e4:    2803        .(      CMP      r0,#3
        0x000024e6:    da01        ..      BGE      0x24ec ; __aeabi_dmul + 120
        0x000024e8:    4603        .F      MOV      r3,r0
        0x000024ea:    e000        ..      B        0x24ee ; __aeabi_dmul + 122
        0x000024ec:    2303        .#      MOVS     r3,#3
        0x000024ee:    469c        .F      MOV      r12,r3
        0x000024f0:    1ac1        ..      SUBS     r1,r0,r3
        0x000024f2:    ae0a        ..      ADD      r6,sp,#0x28
        0x000024f4:    e00a        ..      B        0x250c ; __aeabi_dmul + 152
        0x000024f6:    005f        _.      LSLS     r7,r3,#1
        0x000024f8:    ad08        ..      ADD      r5,sp,#0x20
        0x000024fa:    5bed        .[      LDRH     r5,[r5,r7]
        0x000024fc:    004f        O.      LSLS     r7,r1,#1
        0x000024fe:    5bf7        .[      LDRH     r7,[r6,r7]
        0x00002500:    437d        }C      MULS     r5,r7,r5
        0x00002502:    2700        .'      MOVS     r7,#0
        0x00002504:    18aa        ..      ADDS     r2,r5,r2
        0x00002506:    417c        |A      ADCS     r4,r4,r7
        0x00002508:    1c49        I.      ADDS     r1,r1,#1
        0x0000250a:    1e5b        [.      SUBS     r3,r3,#1
        0x0000250c:    4561        aE      CMP      r1,r12
        0x0000250e:    ddf2        ..      BLE      0x24f6 ; __aeabi_dmul + 130
        0x00002510:    0041        A.      LSLS     r1,r0,#1
        0x00002512:    ab04        ..      ADD      r3,sp,#0x10
        0x00002514:    525a        ZR      STRH     r2,[r3,r1]
        0x00002516:    0421        !.      LSLS     r1,r4,#16
        0x00002518:    0c12        ..      LSRS     r2,r2,#16
        0x0000251a:    430a        .C      ORRS     r2,r2,r1
        0x0000251c:    0c24        $.      LSRS     r4,r4,#16
        0x0000251e:    1c40        @.      ADDS     r0,r0,#1
        0x00002520:    2808        .(      CMP      r0,#8
        0x00002522:    dbdf        ..      BLT      0x24e4 ; __aeabi_dmul + 112
        0x00002524:    9801        ..      LDR      r0,[sp,#4]
        0x00002526:    9002        ..      STR      r0,[sp,#8]
        0x00002528:    9900        ..      LDR      r1,[sp,#0]
        0x0000252a:    4670        pF      MOV      r0,lr
        0x0000252c:    9101        ..      STR      r1,[sp,#4]
        0x0000252e:    9000        ..      STR      r0,[sp,#0]
        0x00002530:    9b05        ..      LDR      r3,[sp,#0x14]
        0x00002532:    9a04        ..      LDR      r2,[sp,#0x10]
        0x00002534:    9907        ..      LDR      r1,[sp,#0x1c]
        0x00002536:    9806        ..      LDR      r0,[sp,#0x18]
        0x00002538:    f000f9b5    ....    BL       _double_epilogue ; 0x28a6
        0x0000253c:    e7d0        ..      B        0x24e0 ; __aeabi_dmul + 108
    $d
        0x0000253e:    0000        ..      DCW    0
        0x00002540:    fffffc0d    ....    DCD    4294966285
    $t
    .text
    __aeabi_ddiv
        0x00002544:    b5f0        ..      PUSH     {r4-r7,lr}
        0x00002546:    460c        .F      MOV      r4,r1
        0x00002548:    405c        \@      EORS     r4,r4,r3
        0x0000254a:    b085        ..      SUB      sp,sp,#0x14
        0x0000254c:    0fe4        ..      LSRS     r4,r4,#31
        0x0000254e:    07e4        ..      LSLS     r4,r4,#31
        0x00002550:    9403        ..      STR      r4,[sp,#0xc]
        0x00002552:    004c        L.      LSLS     r4,r1,#1
        0x00002554:    2600        .&      MOVS     r6,#0
        0x00002556:    0864        d.      LSRS     r4,r4,#1
        0x00002558:    0059        Y.      LSLS     r1,r3,#1
        0x0000255a:    4694        .F      MOV      r12,r2
        0x0000255c:    0849        I.      LSRS     r1,r1,#1
        0x0000255e:    4602        .F      MOV      r2,r0
        0x00002560:    9602        ..      STR      r6,[sp,#8]
        0x00002562:    4322        "C      ORRS     r2,r2,r4
        0x00002564:    d021        !.      BEQ      0x25aa ; __aeabi_ddiv + 102
        0x00002566:    4662        bF      MOV      r2,r12
        0x00002568:    430a        .C      ORRS     r2,r2,r1
        0x0000256a:    d01e        ..      BEQ      0x25aa ; __aeabi_ddiv + 102
        0x0000256c:    0062        b.      LSLS     r2,r4,#1
        0x0000256e:    0d57        W.      LSRS     r7,r2,#21
        0x00002570:    004a        J.      LSLS     r2,r1,#1
        0x00002572:    030e        ..      LSLS     r6,r1,#12
        0x00002574:    0323        #.      LSLS     r3,r4,#12
        0x00002576:    0d55        U.      LSRS     r5,r2,#21
        0x00002578:    2401        .$      MOVS     r4,#1
        0x0000257a:    4602        .F      MOV      r2,r0
        0x0000257c:    492c        ,I      LDR      r1,[pc,#176] ; [0x2630] = 0x3fd
        0x0000257e:    0524        $.      LSLS     r4,r4,#20
        0x00002580:    1b78        x.      SUBS     r0,r7,r5
        0x00002582:    0b1b        ..      LSRS     r3,r3,#12
        0x00002584:    0b36        6.      LSRS     r6,r6,#12
        0x00002586:    1840        @.      ADDS     r0,r0,r1
        0x00002588:    4323        #C      ORRS     r3,r3,r4
        0x0000258a:    4326        &C      ORRS     r6,r6,r4
        0x0000258c:    4661        aF      MOV      r1,r12
        0x0000258e:    9000        ..      STR      r0,[sp,#0]
        0x00002590:    461c        .F      MOV      r4,r3
        0x00002592:    1a50        P.      SUBS     r0,r2,r1
        0x00002594:    41b4        .A      SBCS     r4,r4,r6
        0x00002596:    d303        ..      BCC      0x25a0 ; __aeabi_ddiv + 92
        0x00002598:    9800        ..      LDR      r0,[sp,#0]
        0x0000259a:    1c40        @.      ADDS     r0,r0,#1
        0x0000259c:    9000        ..      STR      r0,[sp,#0]
        0x0000259e:    e002        ..      B        0x25a6 ; __aeabi_ddiv + 98
        0x000025a0:    1892        ..      ADDS     r2,r2,r2
        0x000025a2:    9800        ..      LDR      r0,[sp,#0]
        0x000025a4:    415b        [A      ADCS     r3,r3,r3
        0x000025a6:    2800        .(      CMP      r0,#0
        0x000025a8:    da03        ..      BGE      0x25b2 ; __aeabi_ddiv + 110
        0x000025aa:    2000        .       MOVS     r0,#0
        0x000025ac:    4601        .F      MOV      r1,r0
        0x000025ae:    b005        ..      ADD      sp,sp,#0x14
        0x000025b0:    bdf0        ..      POP      {r4-r7,pc}
        0x000025b2:    2000        .       MOVS     r0,#0
        0x000025b4:    2101        .!      MOVS     r1,#1
        0x000025b6:    0509        ..      LSLS     r1,r1,#20
        0x000025b8:    4607        .F      MOV      r7,r0
        0x000025ba:    4686        .F      MOV      lr,r0
        0x000025bc:    e011        ..      B        0x25e2 ; __aeabi_ddiv + 158
        0x000025be:    4664        dF      MOV      r4,r12
        0x000025c0:    461d        .F      MOV      r5,r3
        0x000025c2:    1b14        ..      SUBS     r4,r2,r4
        0x000025c4:    41b5        .A      SBCS     r5,r5,r6
        0x000025c6:    d306        ..      BCC      0x25d6 ; __aeabi_ddiv + 146
        0x000025c8:    4665        eF      MOV      r5,r12
        0x000025ca:    1b52        R.      SUBS     r2,r2,r5
        0x000025cc:    41b3        .A      SBCS     r3,r3,r6
        0x000025ce:    4674        tF      MOV      r4,lr
        0x000025d0:    4307        .C      ORRS     r7,r7,r0
        0x000025d2:    430c        .C      ORRS     r4,r4,r1
        0x000025d4:    46a6        .F      MOV      lr,r4
        0x000025d6:    07cd        ..      LSLS     r5,r1,#31
        0x000025d8:    0840        @.      LSRS     r0,r0,#1
        0x000025da:    0849        I.      LSRS     r1,r1,#1
        0x000025dc:    4328        (C      ORRS     r0,r0,r5
        0x000025de:    1892        ..      ADDS     r2,r2,r2
        0x000025e0:    415b        [A      ADCS     r3,r3,r3
        0x000025e2:    4605        .F      MOV      r5,r0
        0x000025e4:    430d        .C      ORRS     r5,r5,r1
        0x000025e6:    d1ea        ..      BNE      0x25be ; __aeabi_ddiv + 122
        0x000025e8:    4610        .F      MOV      r0,r2
        0x000025ea:    4318        .C      ORRS     r0,r0,r3
        0x000025ec:    d013        ..      BEQ      0x2616 ; __aeabi_ddiv + 210
        0x000025ee:    4660        `F      MOV      r0,r12
        0x000025f0:    4619        .F      MOV      r1,r3
        0x000025f2:    4050        P@      EORS     r0,r0,r2
        0x000025f4:    4071        q@      EORS     r1,r1,r6
        0x000025f6:    4308        .C      ORRS     r0,r0,r1
        0x000025f8:    d006        ..      BEQ      0x2608 ; __aeabi_ddiv + 196
        0x000025fa:    4660        `F      MOV      r0,r12
        0x000025fc:    1a10        ..      SUBS     r0,r2,r0
        0x000025fe:    41b3        .A      SBCS     r3,r3,r6
        0x00002600:    d206        ..      BCS      0x2610 ; __aeabi_ddiv + 204
        0x00002602:    2201        ."      MOVS     r2,#1
        0x00002604:    2300        .#      MOVS     r3,#0
        0x00002606:    e006        ..      B        0x2616 ; __aeabi_ddiv + 210
        0x00002608:    2200        ."      MOVS     r2,#0
        0x0000260a:    2301        .#      MOVS     r3,#1
        0x0000260c:    07db        ..      LSLS     r3,r3,#31
        0x0000260e:    e002        ..      B        0x2616 ; __aeabi_ddiv + 210
        0x00002610:    2201        ."      MOVS     r2,#1
        0x00002612:    43d2        .C      MVNS     r2,r2
        0x00002614:    1053        S.      ASRS     r3,r2,#1
        0x00002616:    9800        ..      LDR      r0,[sp,#0]
        0x00002618:    4674        tF      MOV      r4,lr
        0x0000261a:    0501        ..      LSLS     r1,r0,#20
        0x0000261c:    1c38        8.      ADDS     r0,r7,#0
        0x0000261e:    4161        aA      ADCS     r1,r1,r4
        0x00002620:    9c02        ..      LDR      r4,[sp,#8]
        0x00002622:    9d03        ..      LDR      r5,[sp,#0xc]
        0x00002624:    1900        ..      ADDS     r0,r0,r4
        0x00002626:    4169        iA      ADCS     r1,r1,r5
        0x00002628:    f000f930    ..0.    BL       _double_round ; 0x288c
        0x0000262c:    e7bf        ..      B        0x25ae ; __aeabi_ddiv + 106
    $d
        0x0000262e:    0000        ..      DCW    0
        0x00002630:    000003fd    ....    DCD    1021
    $t
    .text
    __aeabi_i2f
        0x00002634:    17c2        ..      ASRS     r2,r0,#31
        0x00002636:    0fc1        ..      LSRS     r1,r0,#31
        0x00002638:    4050        P@      EORS     r0,r0,r2
        0x0000263a:    b510        ..      PUSH     {r4,lr}
        0x0000263c:    1840        @.      ADDS     r0,r0,r1
        0x0000263e:    07ca        ..      LSLS     r2,r1,#31
        0x00002640:    2396        .#      MOVS     r3,#0x96
        0x00002642:    2100        .!      MOVS     r1,#0
        0x00002644:    f000f8e9    ....    BL       _float_epilogue ; 0x281a
        0x00002648:    bd10        ..      POP      {r4,pc}
    .text
    __aeabi_ui2f
        0x0000264a:    b510        ..      PUSH     {r4,lr}
        0x0000264c:    2200        ."      MOVS     r2,#0
        0x0000264e:    2396        .#      MOVS     r3,#0x96
        0x00002650:    4611        .F      MOV      r1,r2
        0x00002652:    f000f8e2    ....    BL       _float_epilogue ; 0x281a
        0x00002656:    bd10        ..      POP      {r4,pc}
    .text
    __aeabi_i2d
        0x00002658:    b50e        ..      PUSH     {r1-r3,lr}
        0x0000265a:    17c2        ..      ASRS     r2,r0,#31
        0x0000265c:    0fc1        ..      LSRS     r1,r0,#31
        0x0000265e:    4050        P@      EORS     r0,r0,r2
        0x00002660:    07ca        ..      LSLS     r2,r1,#31
        0x00002662:    1840        @.      ADDS     r0,r0,r1
        0x00002664:    2100        .!      MOVS     r1,#0
        0x00002666:    4b05        .K      LDR      r3,[pc,#20] ; [0x267c] = 0x433
        0x00002668:    9302        ..      STR      r3,[sp,#8]
        0x0000266a:    9201        ..      STR      r2,[sp,#4]
        0x0000266c:    9100        ..      STR      r1,[sp,#0]
        0x0000266e:    460a        .F      MOV      r2,r1
        0x00002670:    460b        .F      MOV      r3,r1
        0x00002672:    f000f918    ....    BL       _double_epilogue ; 0x28a6
        0x00002676:    b003        ..      ADD      sp,sp,#0xc
        0x00002678:    bd00        ..      POP      {pc}
    $d
        0x0000267a:    0000        ..      DCW    0
        0x0000267c:    00000433    3...    DCD    1075
    $t
    .text
    __aeabi_f2iz
        0x00002680:    0fc2        ..      LSRS     r2,r0,#31
        0x00002682:    0041        A.      LSLS     r1,r0,#1
        0x00002684:    0240        @.      LSLS     r0,r0,#9
        0x00002686:    2301        .#      MOVS     r3,#1
        0x00002688:    0a40        @.      LSRS     r0,r0,#9
        0x0000268a:    05db        ..      LSLS     r3,r3,#23
        0x0000268c:    07d2        ..      LSLS     r2,r2,#31
        0x0000268e:    0e09        ..      LSRS     r1,r1,#24
        0x00002690:    18c0        ..      ADDS     r0,r0,r3
        0x00002692:    297f        .)      CMP      r1,#0x7f
        0x00002694:    da01        ..      BGE      0x269a ; __aeabi_f2iz + 26
        0x00002696:    2000        .       MOVS     r0,#0
        0x00002698:    4770        pG      BX       lr
        0x0000269a:    2996        .)      CMP      r1,#0x96
        0x0000269c:    dc03        ..      BGT      0x26a6 ; __aeabi_f2iz + 38
        0x0000269e:    2396        .#      MOVS     r3,#0x96
        0x000026a0:    1a59        Y.      SUBS     r1,r3,r1
        0x000026a2:    40c8        .@      LSRS     r0,r0,r1
        0x000026a4:    e001        ..      B        0x26aa ; __aeabi_f2iz + 42
        0x000026a6:    3996        .9      SUBS     r1,r1,#0x96
        0x000026a8:    4088        .@      LSLS     r0,r0,r1
        0x000026aa:    2a00        .*      CMP      r2,#0
        0x000026ac:    d0f4        ..      BEQ      0x2698 ; __aeabi_f2iz + 24
        0x000026ae:    4240        @B      RSBS     r0,r0,#0
        0x000026b0:    4770        pG      BX       lr
    .text
    __aeabi_f2uiz
        0x000026b2:    0041        A.      LSLS     r1,r0,#1
        0x000026b4:    0240        @.      LSLS     r0,r0,#9
        0x000026b6:    2201        ."      MOVS     r2,#1
        0x000026b8:    0a40        @.      LSRS     r0,r0,#9
        0x000026ba:    05d2        ..      LSLS     r2,r2,#23
        0x000026bc:    0e09        ..      LSRS     r1,r1,#24
        0x000026be:    1880        ..      ADDS     r0,r0,r2
        0x000026c0:    297f        .)      CMP      r1,#0x7f
        0x000026c2:    da01        ..      BGE      0x26c8 ; __aeabi_f2uiz + 22
        0x000026c4:    2000        .       MOVS     r0,#0
        0x000026c6:    4770        pG      BX       lr
        0x000026c8:    2996        .)      CMP      r1,#0x96
        0x000026ca:    dc03        ..      BGT      0x26d4 ; __aeabi_f2uiz + 34
        0x000026cc:    2296        ."      MOVS     r2,#0x96
        0x000026ce:    1a51        Q.      SUBS     r1,r2,r1
        0x000026d0:    40c8        .@      LSRS     r0,r0,r1
        0x000026d2:    4770        pG      BX       lr
        0x000026d4:    3996        .9      SUBS     r1,r1,#0x96
        0x000026d6:    4088        .@      LSLS     r0,r0,r1
        0x000026d8:    4770        pG      BX       lr
    .text
    __aeabi_f2d
        0x000026da:    0fc2        ..      LSRS     r2,r0,#31
        0x000026dc:    07d2        ..      LSLS     r2,r2,#31
        0x000026de:    0040        @.      LSLS     r0,r0,#1
        0x000026e0:    0840        @.      LSRS     r0,r0,#1
        0x000026e2:    d00b        ..      BEQ      0x26fc ; __aeabi_f2d + 34
        0x000026e4:    0dc1        ..      LSRS     r1,r0,#23
        0x000026e6:    2307        .#      MOVS     r3,#7
        0x000026e8:    01db        ..      LSLS     r3,r3,#7
        0x000026ea:    18c9        ..      ADDS     r1,r1,r3
        0x000026ec:    0240        @.      LSLS     r0,r0,#9
        0x000026ee:    0509        ..      LSLS     r1,r1,#20
        0x000026f0:    0a40        @.      LSRS     r0,r0,#9
        0x000026f2:    4311        .C      ORRS     r1,r1,r2
        0x000026f4:    08c2        ..      LSRS     r2,r0,#3
        0x000026f6:    0740        @.      LSLS     r0,r0,#29
        0x000026f8:    4311        .C      ORRS     r1,r1,r2
        0x000026fa:    4770        pG      BX       lr
        0x000026fc:    2000        .       MOVS     r0,#0
        0x000026fe:    4601        .F      MOV      r1,r0
        0x00002700:    4770        pG      BX       lr
        0x00002702:    0000        ..      MOVS     r0,r0
    .text
    __aeabi_cdrcmple
        0x00002704:    b510        ..      PUSH     {r4,lr}
        0x00002706:    2900        .)      CMP      r1,#0
        0x00002708:    db04        ..      BLT      0x2714 ; __aeabi_cdrcmple + 16
        0x0000270a:    2401        .$      MOVS     r4,#1
        0x0000270c:    07e4        ..      LSLS     r4,r4,#31
        0x0000270e:    4240        @B      RSBS     r0,r0,#0
        0x00002710:    418c        .A      SBCS     r4,r4,r1
        0x00002712:    4621        !F      MOV      r1,r4
        0x00002714:    2b00        .+      CMP      r3,#0
        0x00002716:    db04        ..      BLT      0x2722 ; __aeabi_cdrcmple + 30
        0x00002718:    461c        .F      MOV      r4,r3
        0x0000271a:    2301        .#      MOVS     r3,#1
        0x0000271c:    07db        ..      LSLS     r3,r3,#31
        0x0000271e:    4252        RB      RSBS     r2,r2,#0
        0x00002720:    41a3        .A      SBCS     r3,r3,r4
        0x00002722:    4299        .B      CMP      r1,r3
        0x00002724:    d100        ..      BNE      0x2728 ; __aeabi_cdrcmple + 36
        0x00002726:    4290        .B      CMP      r0,r2
        0x00002728:    bd10        ..      POP      {r4,pc}
    $d
        0x0000272a:    0000        ..      DCW    0
    $t
    .text
    __aeabi_d2f
        0x0000272c:    0fcb        ..      LSRS     r3,r1,#31
        0x0000272e:    07db        ..      LSLS     r3,r3,#31
        0x00002730:    0049        I.      LSLS     r1,r1,#1
        0x00002732:    b510        ..      PUSH     {r4,lr}
        0x00002734:    0849        I.      LSRS     r1,r1,#1
        0x00002736:    4602        .F      MOV      r2,r0
        0x00002738:    430a        .C      ORRS     r2,r2,r1
        0x0000273a:    d007        ..      BEQ      0x274c ; __aeabi_d2f + 32
        0x0000273c:    0d0a        ..      LSRS     r2,r1,#20
        0x0000273e:    2407        .$      MOVS     r4,#7
        0x00002740:    0309        ..      LSLS     r1,r1,#12
        0x00002742:    01e4        ..      LSLS     r4,r4,#7
        0x00002744:    0b09        ..      LSRS     r1,r1,#12
        0x00002746:    1b12        ..      SUBS     r2,r2,r4
        0x00002748:    2a00        .*      CMP      r2,#0
        0x0000274a:    dc01        ..      BGT      0x2750 ; __aeabi_d2f + 36
        0x0000274c:    2000        .       MOVS     r0,#0
        0x0000274e:    bd10        ..      POP      {r4,pc}
        0x00002750:    00c9        ..      LSLS     r1,r1,#3
        0x00002752:    0f44        D.      LSRS     r4,r0,#29
        0x00002754:    430c        .C      ORRS     r4,r4,r1
        0x00002756:    00c1        ..      LSLS     r1,r0,#3
        0x00002758:    18e0        ..      ADDS     r0,r4,r3
        0x0000275a:    05d2        ..      LSLS     r2,r2,#23
        0x0000275c:    1880        ..      ADDS     r0,r0,r2
        0x0000275e:    f000f854    ..T.    BL       __I$use$fp ; 0x280a
        0x00002762:    bd10        ..      POP      {r4,pc}
    .text
    __aeabi_uldivmod
        0x00002764:    b5f0        ..      PUSH     {r4-r7,lr}
        0x00002766:    b41f        ..      PUSH     {r0-r4}
        0x00002768:    4606        .F      MOV      r6,r0
        0x0000276a:    2000        .       MOVS     r0,#0
        0x0000276c:    b082        ..      SUB      sp,sp,#8
        0x0000276e:    4605        .F      MOV      r5,r0
        0x00002770:    2440        @$      MOVS     r4,#0x40
        0x00002772:    9101        ..      STR      r1,[sp,#4]
        0x00002774:    9000        ..      STR      r0,[sp,#0]
        0x00002776:    e01b        ..      B        0x27b0 ; __aeabi_uldivmod + 76
        0x00002778:    9901        ..      LDR      r1,[sp,#4]
        0x0000277a:    4622        "F      MOV      r2,r4
        0x0000277c:    460f        .F      MOV      r7,r1
        0x0000277e:    4630        0F      MOV      r0,r6
        0x00002780:    f000f916    ....    BL       __aeabi_llsr ; 0x29b0
        0x00002784:    9a04        ..      LDR      r2,[sp,#0x10]
        0x00002786:    9b05        ..      LDR      r3,[sp,#0x14]
        0x00002788:    1a80        ..      SUBS     r0,r0,r2
        0x0000278a:    4199        .A      SBCS     r1,r1,r3
        0x0000278c:    d310        ..      BCC      0x27b0 ; __aeabi_uldivmod + 76
        0x0000278e:    4610        .F      MOV      r0,r2
        0x00002790:    4619        .F      MOV      r1,r3
        0x00002792:    4622        "F      MOV      r2,r4
        0x00002794:    f000f816    ....    BL       __aeabi_llsl ; 0x27c4
        0x00002798:    1a36        6.      SUBS     r6,r6,r0
        0x0000279a:    418f        .A      SBCS     r7,r7,r1
        0x0000279c:    9701        ..      STR      r7,[sp,#4]
        0x0000279e:    4622        "F      MOV      r2,r4
        0x000027a0:    2001        .       MOVS     r0,#1
        0x000027a2:    2100        .!      MOVS     r1,#0
        0x000027a4:    9f00        ..      LDR      r7,[sp,#0]
        0x000027a6:    f000f80d    ....    BL       __aeabi_llsl ; 0x27c4
        0x000027aa:    1838        8.      ADDS     r0,r7,r0
        0x000027ac:    414d        MA      ADCS     r5,r5,r1
        0x000027ae:    9000        ..      STR      r0,[sp,#0]
        0x000027b0:    4620         F      MOV      r0,r4
        0x000027b2:    1e64        d.      SUBS     r4,r4,#1
        0x000027b4:    2800        .(      CMP      r0,#0
        0x000027b6:    dcdf        ..      BGT      0x2778 ; __aeabi_uldivmod + 20
        0x000027b8:    9b01        ..      LDR      r3,[sp,#4]
        0x000027ba:    9800        ..      LDR      r0,[sp,#0]
        0x000027bc:    4629        )F      MOV      r1,r5
        0x000027be:    4632        2F      MOV      r2,r6
        0x000027c0:    b007        ..      ADD      sp,sp,#0x1c
        0x000027c2:    bdf0        ..      POP      {r4-r7,pc}
    .text
    __aeabi_llsl
    _ll_shift_l
        0x000027c4:    b510        ..      PUSH     {r4,lr}
        0x000027c6:    2a20         *      CMP      r2,#0x20
        0x000027c8:    db04        ..      BLT      0x27d4 ; __aeabi_llsl + 16
        0x000027ca:    4601        .F      MOV      r1,r0
        0x000027cc:    3a20         :      SUBS     r2,r2,#0x20
        0x000027ce:    4091        .@      LSLS     r1,r1,r2
        0x000027d0:    2000        .       MOVS     r0,#0
        0x000027d2:    bd10        ..      POP      {r4,pc}
        0x000027d4:    4091        .@      LSLS     r1,r1,r2
        0x000027d6:    2320         #      MOVS     r3,#0x20
        0x000027d8:    1a9c        ..      SUBS     r4,r3,r2
        0x000027da:    4603        .F      MOV      r3,r0
        0x000027dc:    40e3        .@      LSRS     r3,r3,r4
        0x000027de:    4319        .C      ORRS     r1,r1,r3
        0x000027e0:    4090        .@      LSLS     r0,r0,r2
        0x000027e2:    bd10        ..      POP      {r4,pc}
    .text
    __aeabi_lasr
    _ll_sshift_r
        0x000027e4:    b510        ..      PUSH     {r4,lr}
        0x000027e6:    2a20         *      CMP      r2,#0x20
        0x000027e8:    db06        ..      BLT      0x27f8 ; __aeabi_lasr + 20
        0x000027ea:    17cb        ..      ASRS     r3,r1,#31
        0x000027ec:    4608        .F      MOV      r0,r1
        0x000027ee:    3a20         :      SUBS     r2,r2,#0x20
        0x000027f0:    4110        .A      ASRS     r0,r0,r2
        0x000027f2:    17c1        ..      ASRS     r1,r0,#31
        0x000027f4:    430b        .C      ORRS     r3,r3,r1
        0x000027f6:    e006        ..      B        0x2806 ; __aeabi_lasr + 34
        0x000027f8:    460b        .F      MOV      r3,r1
        0x000027fa:    4113        .A      ASRS     r3,r3,r2
        0x000027fc:    40d0        .@      LSRS     r0,r0,r2
        0x000027fe:    2420         $      MOVS     r4,#0x20
        0x00002800:    1aa2        ..      SUBS     r2,r4,r2
        0x00002802:    4091        .@      LSLS     r1,r1,r2
        0x00002804:    4308        .C      ORRS     r0,r0,r1
        0x00002806:    4619        .F      MOV      r1,r3
        0x00002808:    bd10        ..      POP      {r4,pc}
    .text
    .text
    __I$use$fp
    _float_round
        0x0000280a:    2900        .)      CMP      r1,#0
        0x0000280c:    da04        ..      BGE      0x2818 ; __I$use$fp + 14
        0x0000280e:    1c40        @.      ADDS     r0,r0,#1
        0x00002810:    0049        I.      LSLS     r1,r1,#1
        0x00002812:    d101        ..      BNE      0x2818 ; __I$use$fp + 14
        0x00002814:    0840        @.      LSRS     r0,r0,#1
        0x00002816:    0040        @.      LSLS     r0,r0,#1
        0x00002818:    4770        pG      BX       lr
    _float_epilogue
        0x0000281a:    b470        p.      PUSH     {r4-r6}
        0x0000281c:    2400        .$      MOVS     r4,#0
        0x0000281e:    0c05        ..      LSRS     r5,r0,#16
        0x00002820:    d105        ..      BNE      0x282e ; _float_epilogue + 20
        0x00002822:    2410        .$      MOVS     r4,#0x10
        0x00002824:    0400        ..      LSLS     r0,r0,#16
        0x00002826:    d102        ..      BNE      0x282e ; _float_epilogue + 20
        0x00002828:    2900        .)      CMP      r1,#0
        0x0000282a:    d021        !.      BEQ      0x2870 ; _float_epilogue + 86
        0x0000282c:    2411        .$      MOVS     r4,#0x11
        0x0000282e:    0e05        ..      LSRS     r5,r0,#24
        0x00002830:    d101        ..      BNE      0x2836 ; _float_epilogue + 28
        0x00002832:    0200        ..      LSLS     r0,r0,#8
        0x00002834:    3408        .4      ADDS     r4,r4,#8
        0x00002836:    0f05        ..      LSRS     r5,r0,#28
        0x00002838:    d101        ..      BNE      0x283e ; _float_epilogue + 36
        0x0000283a:    0100        ..      LSLS     r0,r0,#4
        0x0000283c:    1d24        $.      ADDS     r4,r4,#4
        0x0000283e:    0f85        ..      LSRS     r5,r0,#30
        0x00002840:    d101        ..      BNE      0x2846 ; _float_epilogue + 44
        0x00002842:    0080        ..      LSLS     r0,r0,#2
        0x00002844:    1ca4        ..      ADDS     r4,r4,#2
        0x00002846:    2800        .(      CMP      r0,#0
        0x00002848:    db01        ..      BLT      0x284e ; _float_epilogue + 52
        0x0000284a:    0040        @.      LSLS     r0,r0,#1
        0x0000284c:    1c64        d.      ADDS     r4,r4,#1
        0x0000284e:    2900        .)      CMP      r1,#0
        0x00002850:    d008        ..      BEQ      0x2864 ; _float_epilogue + 74
        0x00002852:    2520         %      MOVS     r5,#0x20
        0x00002854:    1b2e        ..      SUBS     r6,r5,r4
        0x00002856:    460d        .F      MOV      r5,r1
        0x00002858:    40f5        .@      LSRS     r5,r5,r6
        0x0000285a:    40a1        .@      LSLS     r1,r1,r4
        0x0000285c:    d000        ..      BEQ      0x2860 ; _float_epilogue + 70
        0x0000285e:    2101        .!      MOVS     r1,#1
        0x00002860:    4329        )C      ORRS     r1,r1,r5
        0x00002862:    4308        .C      ORRS     r0,r0,r1
        0x00002864:    0601        ..      LSLS     r1,r0,#24
        0x00002866:    1b1b        ..      SUBS     r3,r3,r4
        0x00002868:    0a00        ..      LSRS     r0,r0,#8
        0x0000286a:    1ddb        ..      ADDS     r3,r3,#7
        0x0000286c:    d502        ..      BPL      0x2874 ; _float_epilogue + 90
        0x0000286e:    2000        .       MOVS     r0,#0
        0x00002870:    bc70        p.      POP      {r4-r6}
        0x00002872:    4770        pG      BX       lr
        0x00002874:    05db        ..      LSLS     r3,r3,#23
        0x00002876:    1818        ..      ADDS     r0,r3,r0
        0x00002878:    1880        ..      ADDS     r0,r0,r2
        0x0000287a:    2900        .)      CMP      r1,#0
        0x0000287c:    daf8        ..      BGE      0x2870 ; _float_epilogue + 86
        0x0000287e:    1c40        @.      ADDS     r0,r0,#1
        0x00002880:    0049        I.      LSLS     r1,r1,#1
        0x00002882:    d1f5        ..      BNE      0x2870 ; _float_epilogue + 86
        0x00002884:    bc70        p.      POP      {r4-r6}
        0x00002886:    0840        @.      LSRS     r0,r0,#1
        0x00002888:    0040        @.      LSLS     r0,r0,#1
        0x0000288a:    4770        pG      BX       lr
    .text
    _double_round
        0x0000288c:    b510        ..      PUSH     {r4,lr}
        0x0000288e:    2b00        .+      CMP      r3,#0
        0x00002890:    da08        ..      BGE      0x28a4 ; _double_round + 24
        0x00002892:    2400        .$      MOVS     r4,#0
        0x00002894:    1c40        @.      ADDS     r0,r0,#1
        0x00002896:    4161        aA      ADCS     r1,r1,r4
        0x00002898:    1892        ..      ADDS     r2,r2,r2
        0x0000289a:    415b        [A      ADCS     r3,r3,r3
        0x0000289c:    431a        .C      ORRS     r2,r2,r3
        0x0000289e:    d101        ..      BNE      0x28a4 ; _double_round + 24
        0x000028a0:    0840        @.      LSRS     r0,r0,#1
        0x000028a2:    0040        @.      LSLS     r0,r0,#1
        0x000028a4:    bd10        ..      POP      {r4,pc}
    _double_epilogue
        0x000028a6:    b5f0        ..      PUSH     {r4-r7,lr}
        0x000028a8:    b41f        ..      PUSH     {r0-r4}
        0x000028aa:    b082        ..      SUB      sp,sp,#8
        0x000028ac:    4605        .F      MOV      r5,r0
        0x000028ae:    000c        ..      MOVS     r4,r1
        0x000028b0:    d003        ..      BEQ      0x28ba ; _double_epilogue + 20
        0x000028b2:    4608        .F      MOV      r0,r1
        0x000028b4:    f000f912    ....    BL       __ARM_clz ; 0x2adc
        0x000028b8:    e002        ..      B        0x28c0 ; _double_epilogue + 26
        0x000028ba:    f000f90f    ....    BL       __ARM_clz ; 0x2adc
        0x000028be:    3020         0      ADDS     r0,r0,#0x20
        0x000028c0:    4602        .F      MOV      r2,r0
        0x000028c2:    9000        ..      STR      r0,[sp,#0]
        0x000028c4:    4621        !F      MOV      r1,r4
        0x000028c6:    4628        (F      MOV      r0,r5
        0x000028c8:    f7ffff7c    ..|.    BL       __aeabi_llsl ; 0x27c4
        0x000028cc:    9b04        ..      LDR      r3,[sp,#0x10]
        0x000028ce:    9a05        ..      LDR      r2,[sp,#0x14]
        0x000028d0:    4604        .F      MOV      r4,r0
        0x000028d2:    460f        .F      MOV      r7,r1
        0x000028d4:    4318        .C      ORRS     r0,r0,r3
        0x000028d6:    4311        .C      ORRS     r1,r1,r2
        0x000028d8:    4308        .C      ORRS     r0,r0,r1
        0x000028da:    d014        ..      BEQ      0x2906 ; _double_epilogue + 96
        0x000028dc:    4618        .F      MOV      r0,r3
        0x000028de:    4310        .C      ORRS     r0,r0,r2
        0x000028e0:    d01b        ..      BEQ      0x291a ; _double_epilogue + 116
        0x000028e2:    9800        ..      LDR      r0,[sp,#0]
        0x000028e4:    2140        @!      MOVS     r1,#0x40
        0x000028e6:    1a0a        ..      SUBS     r2,r1,r0
        0x000028e8:    4618        .F      MOV      r0,r3
        0x000028ea:    9905        ..      LDR      r1,[sp,#0x14]
        0x000028ec:    f000f860    ..`.    BL       __aeabi_llsr ; 0x29b0
        0x000028f0:    4605        .F      MOV      r5,r0
        0x000028f2:    460e        .F      MOV      r6,r1
        0x000028f4:    9a00        ..      LDR      r2,[sp,#0]
        0x000028f6:    9905        ..      LDR      r1,[sp,#0x14]
        0x000028f8:    9804        ..      LDR      r0,[sp,#0x10]
        0x000028fa:    f7ffff63    ..c.    BL       __aeabi_llsl ; 0x27c4
        0x000028fe:    4308        .C      ORRS     r0,r0,r1
        0x00002900:    d005        ..      BEQ      0x290e ; _double_epilogue + 104
        0x00002902:    2001        .       MOVS     r0,#1
        0x00002904:    e004        ..      B        0x2910 ; _double_epilogue + 106
        0x00002906:    4620         F      MOV      r0,r4
        0x00002908:    4639        9F      MOV      r1,r7
        0x0000290a:    b007        ..      ADD      sp,sp,#0x1c
        0x0000290c:    bdf0        ..      POP      {r4-r7,pc}
        0x0000290e:    2000        .       MOVS     r0,#0
        0x00002910:    17c1        ..      ASRS     r1,r0,#31
        0x00002912:    4305        .C      ORRS     r5,r5,r0
        0x00002914:    430e        .C      ORRS     r6,r6,r1
        0x00002916:    432c        ,C      ORRS     r4,r4,r5
        0x00002918:    4337        7C      ORRS     r7,r7,r6
        0x0000291a:    9900        ..      LDR      r1,[sp,#0]
        0x0000291c:    980e        ..      LDR      r0,[sp,#0x38]
        0x0000291e:    0563        c.      LSLS     r3,r4,#21
        0x00002920:    1a40        @.      SUBS     r0,r0,r1
        0x00002922:    0579        y.      LSLS     r1,r7,#21
        0x00002924:    0ae4        ..      LSRS     r4,r4,#11
        0x00002926:    2200        ."      MOVS     r2,#0
        0x00002928:    430c        .C      ORRS     r4,r4,r1
        0x0000292a:    0afd        ..      LSRS     r5,r7,#11
        0x0000292c:    300a        .0      ADDS     r0,r0,#0xa
        0x0000292e:    d502        ..      BPL      0x2936 ; _double_epilogue + 144
        0x00002930:    2000        .       MOVS     r0,#0
        0x00002932:    4601        .F      MOV      r1,r0
        0x00002934:    e7e9        ..      B        0x290a ; _double_epilogue + 100
        0x00002936:    0501        ..      LSLS     r1,r0,#20
        0x00002938:    1910        ..      ADDS     r0,r2,r4
        0x0000293a:    4169        iA      ADCS     r1,r1,r5
        0x0000293c:    9c0c        ..      LDR      r4,[sp,#0x30]
        0x0000293e:    9d0d        ..      LDR      r5,[sp,#0x34]
        0x00002940:    1900        ..      ADDS     r0,r0,r4
        0x00002942:    4169        iA      ADCS     r1,r1,r5
        0x00002944:    f7ffffa2    ....    BL       _double_round ; 0x288c
        0x00002948:    e7df        ..      B        0x290a ; _double_epilogue + 100
        0x0000294a:    0000        ..      MOVS     r0,r0
    .text
    __aeabi_d2ulz
        0x0000294c:    004a        J.      LSLS     r2,r1,#1
        0x0000294e:    0309        ..      LSLS     r1,r1,#12
        0x00002950:    2301        .#      MOVS     r3,#1
        0x00002952:    0b09        ..      LSRS     r1,r1,#12
        0x00002954:    051b        ..      LSLS     r3,r3,#20
        0x00002956:    4319        .C      ORRS     r1,r1,r3
        0x00002958:    4b0a        .K      LDR      r3,[pc,#40] ; [0x2984] = 0x3ff
        0x0000295a:    b510        ..      PUSH     {r4,lr}
        0x0000295c:    0d52        R.      LSRS     r2,r2,#21
        0x0000295e:    429a        .B      CMP      r2,r3
        0x00002960:    da02        ..      BGE      0x2968 ; __aeabi_d2ulz + 28
        0x00002962:    2000        .       MOVS     r0,#0
        0x00002964:    4601        .F      MOV      r1,r0
        0x00002966:    bd10        ..      POP      {r4,pc}
        0x00002968:    4b06        .K      LDR      r3,[pc,#24] ; [0x2984] = 0x3ff
        0x0000296a:    3334        43      ADDS     r3,r3,#0x34
        0x0000296c:    429a        .B      CMP      r2,r3
        0x0000296e:    dc03        ..      BGT      0x2978 ; __aeabi_d2ulz + 44
        0x00002970:    1a9a        ..      SUBS     r2,r3,r2
        0x00002972:    f000f81d    ....    BL       __aeabi_llsr ; 0x29b0
        0x00002976:    bd10        ..      POP      {r4,pc}
        0x00002978:    4b03        .K      LDR      r3,[pc,#12] ; [0x2988] = 0xfffffbcd
        0x0000297a:    18d2        ..      ADDS     r2,r2,r3
        0x0000297c:    f7ffff22    ..".    BL       __aeabi_llsl ; 0x27c4
        0x00002980:    bd10        ..      POP      {r4,pc}
    $d
        0x00002982:    0000        ..      DCW    0
        0x00002984:    000003ff    ....    DCD    1023
        0x00002988:    fffffbcd    ....    DCD    4294966221
    $t
    .text
    __scatterload
    __scatterload_rt2
        0x0000298c:    4c06        .L      LDR      r4,[pc,#24] ; [0x29a8] = 0x40c0
        0x0000298e:    2501        .%      MOVS     r5,#1
        0x00002990:    4e06        .N      LDR      r6,[pc,#24] ; [0x29ac] = 0x40e0
        0x00002992:    e005        ..      B        0x29a0 ; __scatterload + 20
        0x00002994:    68e3        .h      LDR      r3,[r4,#0xc]
        0x00002996:    cc07        ..      LDM      r4!,{r0-r2}
        0x00002998:    432b        +C      ORRS     r3,r3,r5
        0x0000299a:    3c0c        .<      SUBS     r4,r4,#0xc
        0x0000299c:    4798        .G      BLX      r3
        0x0000299e:    3410        .4      ADDS     r4,r4,#0x10
        0x000029a0:    42b4        .B      CMP      r4,r6
        0x000029a2:    d3f7        ..      BCC      0x2994 ; __scatterload + 8
        0x000029a4:    f7fdfb90    ....    BL       __main_after_scatterload ; 0xc8
    $d
        0x000029a8:    000040c0    .@..    DCD    16576
        0x000029ac:    000040e0    .@..    DCD    16608
    $t
    .text
    __aeabi_llsr
    _ll_ushift_r
        0x000029b0:    b510        ..      PUSH     {r4,lr}
        0x000029b2:    2a20         *      CMP      r2,#0x20
        0x000029b4:    db04        ..      BLT      0x29c0 ; __aeabi_llsr + 16
        0x000029b6:    4608        .F      MOV      r0,r1
        0x000029b8:    3a20         :      SUBS     r2,r2,#0x20
        0x000029ba:    40d0        .@      LSRS     r0,r0,r2
        0x000029bc:    2100        .!      MOVS     r1,#0
        0x000029be:    bd10        ..      POP      {r4,pc}
        0x000029c0:    460b        .F      MOV      r3,r1
        0x000029c2:    40d3        .@      LSRS     r3,r3,r2
        0x000029c4:    40d0        .@      LSRS     r0,r0,r2
        0x000029c6:    2420         $      MOVS     r4,#0x20
        0x000029c8:    1aa2        ..      SUBS     r2,r4,r2
        0x000029ca:    4091        .@      LSLS     r1,r1,r2
        0x000029cc:    4308        .C      ORRS     r0,r0,r1
        0x000029ce:    4619        .F      MOV      r1,r3
        0x000029d0:    bd10        ..      POP      {r4,pc}
    .text
    _fsqrt
        0x000029d2:    b570        p.      PUSH     {r4-r6,lr}
        0x000029d4:    2800        .(      CMP      r0,#0
        0x000029d6:    dc01        ..      BGT      0x29dc ; _fsqrt + 10
        0x000029d8:    2000        .       MOVS     r0,#0
        0x000029da:    bd70        p.      POP      {r4-r6,pc}
        0x000029dc:    0041        A.      LSLS     r1,r0,#1
        0x000029de:    0240        @.      LSLS     r0,r0,#9
        0x000029e0:    2601        .&      MOVS     r6,#1
        0x000029e2:    0a40        @.      LSRS     r0,r0,#9
        0x000029e4:    05f6        ..      LSLS     r6,r6,#23
        0x000029e6:    0e09        ..      LSRS     r1,r1,#24
        0x000029e8:    1980        ..      ADDS     r0,r0,r6
        0x000029ea:    07ca        ..      LSLS     r2,r1,#31
        0x000029ec:    d101        ..      BNE      0x29f2 ; _fsqrt + 32
        0x000029ee:    0040        @.      LSLS     r0,r0,#1
        0x000029f0:    1e49        I.      SUBS     r1,r1,#1
        0x000029f2:    104d        M.      ASRS     r5,r1,#1
        0x000029f4:    2200        ."      MOVS     r2,#0
        0x000029f6:    4611        .F      MOV      r1,r2
        0x000029f8:    353f        ?5      ADDS     r5,r5,#0x3f
        0x000029fa:    4633        3F      MOV      r3,r6
        0x000029fc:    40cb        .@      LSRS     r3,r3,r1
        0x000029fe:    189b        ..      ADDS     r3,r3,r2
        0x00002a00:    18d4        ..      ADDS     r4,r2,r3
        0x00002a02:    4284        .B      CMP      r4,r0
        0x00002a04:    d801        ..      BHI      0x2a0a ; _fsqrt + 56
        0x00002a06:    1b00        ..      SUBS     r0,r0,r4
        0x00002a08:    461a        .F      MOV      r2,r3
        0x00002a0a:    0040        @.      LSLS     r0,r0,#1
        0x00002a0c:    1c49        I.      ADDS     r1,r1,#1
        0x00002a0e:    2917        .)      CMP      r1,#0x17
        0x00002a10:    ddf3        ..      BLE      0x29fa ; _fsqrt + 40
        0x00002a12:    0051        Q.      LSLS     r1,r2,#1
        0x00002a14:    4281        .B      CMP      r1,r0
        0x00002a16:    d202        ..      BCS      0x2a1e ; _fsqrt + 76
        0x00002a18:    2100        .!      MOVS     r1,#0
        0x00002a1a:    43c9        .C      MVNS     r1,r1
        0x00002a1c:    e000        ..      B        0x2a20 ; _fsqrt + 78
        0x00002a1e:    2100        .!      MOVS     r1,#0
        0x00002a20:    05e8        ..      LSLS     r0,r5,#23
        0x00002a22:    1880        ..      ADDS     r0,r0,r2
        0x00002a24:    f7fffef1    ....    BL       __I$use$fp ; 0x280a
        0x00002a28:    bd70        p.      POP      {r4-r6,pc}
    .text
    __ARM_scalbn
    scalbn
        0x00002a2a:    b570        p.      PUSH     {r4-r6,lr}
        0x00002a2c:    004b        K.      LSLS     r3,r1,#1
        0x00002a2e:    085b        [.      LSRS     r3,r3,#1
        0x00002a30:    4303        .C      ORRS     r3,r3,r0
        0x00002a32:    d00b        ..      BEQ      0x2a4c ; __ARM_scalbn + 34
        0x00002a34:    004b        K.      LSLS     r3,r1,#1
        0x00002a36:    0d5c        \.      LSRS     r4,r3,#21
        0x00002a38:    2600        .&      MOVS     r6,#0
        0x00002a3a:    4633        3F      MOV      r3,r6
        0x00002a3c:    4265        eB      RSBS     r5,r4,#0
        0x00002a3e:    41b3        .A      SBCS     r3,r3,r6
        0x00002a40:    17d4        ..      ASRS     r4,r2,#31
        0x00002a42:    1aad        ..      SUBS     r5,r5,r2
        0x00002a44:    41a3        .A      SBCS     r3,r3,r4
        0x00002a46:    db02        ..      BLT      0x2a4e ; __ARM_scalbn + 36
        0x00002a48:    2000        .       MOVS     r0,#0
        0x00002a4a:    4601        .F      MOV      r1,r0
        0x00002a4c:    bd70        p.      POP      {r4-r6,pc}
        0x00002a4e:    0512        ..      LSLS     r2,r2,#20
        0x00002a50:    1830        0.      ADDS     r0,r6,r0
        0x00002a52:    4151        QA      ADCS     r1,r1,r2
        0x00002a54:    bd70        p.      POP      {r4-r6,pc}
        0x00002a56:    0000        ..      MOVS     r0,r0
    .text
    __aeabi_ui2d
        0x00002a58:    b50e        ..      PUSH     {r1-r3,lr}
        0x00002a5a:    4905        .I      LDR      r1,[pc,#20] ; [0x2a70] = 0x433
        0x00002a5c:    9102        ..      STR      r1,[sp,#8]
        0x00002a5e:    2100        .!      MOVS     r1,#0
        0x00002a60:    9100        ..      STR      r1,[sp,#0]
        0x00002a62:    460a        .F      MOV      r2,r1
        0x00002a64:    460b        .F      MOV      r3,r1
        0x00002a66:    9101        ..      STR      r1,[sp,#4]
        0x00002a68:    f7ffff1d    ....    BL       _double_epilogue ; 0x28a6
        0x00002a6c:    b003        ..      ADD      sp,sp,#0xc
        0x00002a6e:    bd00        ..      POP      {pc}
    $d
        0x00002a70:    00000433    3...    DCD    1075
    $t
    .text
    __aeabi_d2iz
        0x00002a74:    b570        p.      PUSH     {r4-r6,lr}
        0x00002a76:    0fcd        ..      LSRS     r5,r1,#31
        0x00002a78:    004a        J.      LSLS     r2,r1,#1
        0x00002a7a:    0309        ..      LSLS     r1,r1,#12
        0x00002a7c:    2301        .#      MOVS     r3,#1
        0x00002a7e:    0b09        ..      LSRS     r1,r1,#12
        0x00002a80:    051b        ..      LSLS     r3,r3,#20
        0x00002a82:    4319        .C      ORRS     r1,r1,r3
        0x00002a84:    4b0b        .K      LDR      r3,[pc,#44] ; [0x2ab4] = 0x3ff
        0x00002a86:    07ed        ..      LSLS     r5,r5,#31
        0x00002a88:    2400        .$      MOVS     r4,#0
        0x00002a8a:    0d52        R.      LSRS     r2,r2,#21
        0x00002a8c:    429a        .B      CMP      r2,r3
        0x00002a8e:    da01        ..      BGE      0x2a94 ; __aeabi_d2iz + 32
        0x00002a90:    2000        .       MOVS     r0,#0
        0x00002a92:    bd70        p.      POP      {r4-r6,pc}
        0x00002a94:    4b07        .K      LDR      r3,[pc,#28] ; [0x2ab4] = 0x3ff
        0x00002a96:    3334        43      ADDS     r3,r3,#0x34
        0x00002a98:    429a        .B      CMP      r2,r3
        0x00002a9a:    dc03        ..      BGT      0x2aa4 ; __aeabi_d2iz + 48
        0x00002a9c:    1a9a        ..      SUBS     r2,r3,r2
        0x00002a9e:    f7ffff87    ....    BL       __aeabi_llsr ; 0x29b0
        0x00002aa2:    e002        ..      B        0x2aaa ; __aeabi_d2iz + 54
        0x00002aa4:    4904        .I      LDR      r1,[pc,#16] ; [0x2ab8] = 0xfffffbcd
        0x00002aa6:    1851        Q.      ADDS     r1,r2,r1
        0x00002aa8:    4088        .@      LSLS     r0,r0,r1
        0x00002aaa:    432c        ,C      ORRS     r4,r4,r5
        0x00002aac:    d0f1        ..      BEQ      0x2a92 ; __aeabi_d2iz + 30
        0x00002aae:    4240        @B      RSBS     r0,r0,#0
        0x00002ab0:    bd70        p.      POP      {r4-r6,pc}
    $d
        0x00002ab2:    0000        ..      DCW    0
        0x00002ab4:    000003ff    ....    DCD    1023
        0x00002ab8:    fffffbcd    ....    DCD    4294966221
    $t
    i.__0printf
    __0printf
    __1printf
    __2printf
    __c89printf
    printf
        0x00002abc:    b40f        ..      PUSH     {r0-r3}
        0x00002abe:    b510        ..      PUSH     {r4,lr}
        0x00002ac0:    a903        ..      ADD      r1,sp,#0xc
        0x00002ac2:    4b04        .K      LDR      r3,[pc,#16] ; [0x2ad4] = 0x1edb
        0x00002ac4:    4a04        .J      LDR      r2,[pc,#16] ; [0x2ad8] = 0x200000b0
        0x00002ac6:    9802        ..      LDR      r0,[sp,#8]
        0x00002ac8:    f000fc64    ..d.    BL       _printf_core ; 0x3394
        0x00002acc:    bc10        ..      POP      {r4}
        0x00002ace:    bc08        ..      POP      {r3}
        0x00002ad0:    b004        ..      ADD      sp,sp,#0x10
        0x00002ad2:    4718        .G      BX       r3
    $d
        0x00002ad4:    00001edb    ....    DCD    7899
        0x00002ad8:    200000b0    ...     DCD    536871088
    $t
    i.__ARM_clz
    __ARM_clz
        0x00002adc:    2120         !      MOVS     r1,#0x20
        0x00002ade:    0c02        ..      LSRS     r2,r0,#16
        0x00002ae0:    d001        ..      BEQ      0x2ae6 ; __ARM_clz + 10
        0x00002ae2:    2110        .!      MOVS     r1,#0x10
        0x00002ae4:    4610        .F      MOV      r0,r2
        0x00002ae6:    0a02        ..      LSRS     r2,r0,#8
        0x00002ae8:    d001        ..      BEQ      0x2aee ; __ARM_clz + 18
        0x00002aea:    4610        .F      MOV      r0,r2
        0x00002aec:    3908        .9      SUBS     r1,r1,#8
        0x00002aee:    0902        ..      LSRS     r2,r0,#4
        0x00002af0:    d001        ..      BEQ      0x2af6 ; __ARM_clz + 26
        0x00002af2:    4610        .F      MOV      r0,r2
        0x00002af4:    1f09        ..      SUBS     r1,r1,#4
        0x00002af6:    0882        ..      LSRS     r2,r0,#2
        0x00002af8:    d001        ..      BEQ      0x2afe ; __ARM_clz + 34
        0x00002afa:    4610        .F      MOV      r0,r2
        0x00002afc:    1e89        ..      SUBS     r1,r1,#2
        0x00002afe:    0842        B.      LSRS     r2,r0,#1
        0x00002b00:    d001        ..      BEQ      0x2b06 ; __ARM_clz + 42
        0x00002b02:    1e88        ..      SUBS     r0,r1,#2
        0x00002b04:    4770        pG      BX       lr
        0x00002b06:    1a08        ..      SUBS     r0,r1,r0
        0x00002b08:    4770        pG      BX       lr
    i.__ARM_common_ll_muluu
    __ARM_common_ll_muluu
        0x00002b0a:    b4f0        ..      PUSH     {r4-r7}
        0x00002b0c:    0c04        ..      LSRS     r4,r0,#16
        0x00002b0e:    b28b        ..      UXTH     r3,r1
        0x00002b10:    4626        &F      MOV      r6,r4
        0x00002b12:    b282        ..      UXTH     r2,r0
        0x00002b14:    435e        ^C      MULS     r6,r3,r6
        0x00002b16:    0c0d        ..      LSRS     r5,r1,#16
        0x00002b18:    4610        .F      MOV      r0,r2
        0x00002b1a:    0c37        7.      LSRS     r7,r6,#16
        0x00002b1c:    4358        XC      MULS     r0,r3,r0
        0x00002b1e:    0436        6.      LSLS     r6,r6,#16
        0x00002b20:    1980        ..      ADDS     r0,r0,r6
        0x00002b22:    2100        .!      MOVS     r1,#0
        0x00002b24:    4179        yA      ADCS     r1,r1,r7
        0x00002b26:    4616        .F      MOV      r6,r2
        0x00002b28:    436e        nC      MULS     r6,r5,r6
        0x00002b2a:    0c37        7.      LSRS     r7,r6,#16
        0x00002b2c:    0436        6.      LSLS     r6,r6,#16
        0x00002b2e:    1980        ..      ADDS     r0,r0,r6
        0x00002b30:    4179        yA      ADCS     r1,r1,r7
        0x00002b32:    4626        &F      MOV      r6,r4
        0x00002b34:    436e        nC      MULS     r6,r5,r6
        0x00002b36:    1989        ..      ADDS     r1,r1,r6
        0x00002b38:    bcf0        ..      POP      {r4-r7}
        0x00002b3a:    4770        pG      BX       lr
    i.__ARM_fpclassify
    __ARM_fpclassify
        0x00002b3c:    0049        I.      LSLS     r1,r1,#1
        0x00002b3e:    02ca        ..      LSLS     r2,r1,#11
        0x00002b40:    4302        .C      ORRS     r2,r2,r0
        0x00002b42:    0010        ..      MOVS     r0,r2
        0x00002b44:    d000        ..      BEQ      0x2b48 ; __ARM_fpclassify + 12
        0x00002b46:    2004        .       MOVS     r0,#4
        0x00002b48:    0d4a        J.      LSRS     r2,r1,#21
        0x00002b4a:    d001        ..      BEQ      0x2b50 ; __ARM_fpclassify + 20
        0x00002b4c:    2201        ."      MOVS     r2,#1
        0x00002b4e:    4310        .C      ORRS     r0,r0,r2
        0x00002b50:    4a04        .J      LDR      r2,[pc,#16] ; [0x2b64] = 0x7ff
        0x00002b52:    0d49        I.      LSRS     r1,r1,#21
        0x00002b54:    4291        .B      CMP      r1,r2
        0x00002b56:    d101        ..      BNE      0x2b5c ; __ARM_fpclassify + 32
        0x00002b58:    2102        .!      MOVS     r1,#2
        0x00002b5a:    4308        .C      ORRS     r0,r0,r1
        0x00002b5c:    2801        .(      CMP      r0,#1
        0x00002b5e:    d100        ..      BNE      0x2b62 ; __ARM_fpclassify + 38
        0x00002b60:    2005        .       MOVS     r0,#5
        0x00002b62:    4770        pG      BX       lr
    $d
        0x00002b64:    000007ff    ....    DCD    2047
    $t
    i.__ARM_fpclassifyf
    __ARM_fpclassifyf
        0x00002b68:    0041        A.      LSLS     r1,r0,#1
        0x00002b6a:    0208        ..      LSLS     r0,r1,#8
        0x00002b6c:    d000        ..      BEQ      0x2b70 ; __ARM_fpclassifyf + 8
        0x00002b6e:    2004        .       MOVS     r0,#4
        0x00002b70:    0e0a        ..      LSRS     r2,r1,#24
        0x00002b72:    d001        ..      BEQ      0x2b78 ; __ARM_fpclassifyf + 16
        0x00002b74:    2201        ."      MOVS     r2,#1
        0x00002b76:    4310        .C      ORRS     r0,r0,r2
        0x00002b78:    0e09        ..      LSRS     r1,r1,#24
        0x00002b7a:    29ff        .)      CMP      r1,#0xff
        0x00002b7c:    d101        ..      BNE      0x2b82 ; __ARM_fpclassifyf + 26
        0x00002b7e:    2102        .!      MOVS     r1,#2
        0x00002b80:    4308        .C      ORRS     r0,r0,r1
        0x00002b82:    2801        .(      CMP      r0,#1
        0x00002b84:    d100        ..      BNE      0x2b88 ; __ARM_fpclassifyf + 32
        0x00002b86:    2005        .       MOVS     r0,#5
        0x00002b88:    4770        pG      BX       lr
        0x00002b8a:    0000        ..      MOVS     r0,r0
    i.__ieee754_rem_pio2
    __ieee754_rem_pio2
        0x00002b8c:    b5f7        ..      PUSH     {r0-r2,r4-r7,lr}
        0x00002b8e:    b096        ..      SUB      sp,sp,#0x58
        0x00002b90:    4614        .F      MOV      r4,r2
        0x00002b92:    2100        .!      MOVS     r1,#0
        0x00002b94:    60a1        .`      STR      r1,[r4,#8]
        0x00002b96:    60d1        .`      STR      r1,[r2,#0xc]
        0x00002b98:    9917        ..      LDR      r1,[sp,#0x5c]
        0x00002b9a:    9109        ..      STR      r1,[sp,#0x24]
        0x00002b9c:    004d        M.      LSLS     r5,r1,#1
        0x00002b9e:    49cd        .I      LDR      r1,[pc,#820] ; [0x2ed4] = 0x3fe921fb
        0x00002ba0:    086d        m.      LSRS     r5,r5,#1
        0x00002ba2:    428d        .B      CMP      r5,r1
        0x00002ba4:    dc05        ..      BGT      0x2bb2 ; __ieee754_rem_pio2 + 38
        0x00002ba6:    9917        ..      LDR      r1,[sp,#0x5c]
        0x00002ba8:    6061        a`      STR      r1,[r4,#4]
        0x00002baa:    6020         `      STR      r0,[r4,#0]
        0x00002bac:    2000        .       MOVS     r0,#0
        0x00002bae:    b019        ..      ADD      sp,sp,#0x64
        0x00002bb0:    bdf0        ..      POP      {r4-r7,pc}
        0x00002bb2:    49c9        .I      LDR      r1,[pc,#804] ; [0x2ed8] = 0x4002d97c
        0x00002bb4:    4ec9        .N      LDR      r6,[pc,#804] ; [0x2edc] = 0x3ff921fb
        0x00002bb6:    428d        .B      CMP      r5,r1
        0x00002bb8:    da38        8.      BGE      0x2c2c ; __ieee754_rem_pio2 + 160
        0x00002bba:    27d3        .'      MOVS     r7,#0xd3
        0x00002bbc:    9909        ..      LDR      r1,[sp,#0x24]
        0x00002bbe:    057f        ..      LSLS     r7,r7,#21
        0x00002bc0:    2900        .)      CMP      r1,#0
        0x00002bc2:    4ac7        .J      LDR      r2,[pc,#796] ; [0x2ee0] = 0x54400000
        0x00002bc4:    9917        ..      LDR      r1,[sp,#0x5c]
        0x00002bc6:    4633        3F      MOV      r3,r6
        0x00002bc8:    dd17        ..      BLE      0x2bfa ; __ieee754_rem_pio2 + 110
        0x00002bca:    f7fffc45    ..E.    BL       __aeabi_dsub ; 0x2458
        0x00002bce:    42b5        .B      CMP      r5,r6
        0x00002bd0:    d006        ..      BEQ      0x2be0 ; __ieee754_rem_pio2 + 84
        0x00002bd2:    4ac4        .J      LDR      r2,[pc,#784] ; [0x2ee4] = 0x1a626331
        0x00002bd4:    4bc4        .K      LDR      r3,[pc,#784] ; [0x2ee8] = 0x3dd0b461
        0x00002bd6:    f7fffc3f    ..?.    BL       __aeabi_dsub ; 0x2458
        0x00002bda:    6061        a`      STR      r1,[r4,#4]
        0x00002bdc:    6020         `      STR      r0,[r4,#0]
        0x00002bde:    e009        ..      B        0x2bf4 ; __ieee754_rem_pio2 + 104
        0x00002be0:    463a        :F      MOV      r2,r7
        0x00002be2:    4bc1        .K      LDR      r3,[pc,#772] ; [0x2ee8] = 0x3dd0b461
        0x00002be4:    f7fffc38    ..8.    BL       __aeabi_dsub ; 0x2458
        0x00002be8:    4ac0        .J      LDR      r2,[pc,#768] ; [0x2eec] = 0x2e037073
        0x00002bea:    4bc1        .K      LDR      r3,[pc,#772] ; [0x2ef0] = 0x3ba3198a
        0x00002bec:    f7fffc34    ..4.    BL       __aeabi_dsub ; 0x2458
        0x00002bf0:    6061        a`      STR      r1,[r4,#4]
        0x00002bf2:    6020         `      STR      r0,[r4,#0]
        0x00002bf4:    2001        .       MOVS     r0,#1
        0x00002bf6:    b019        ..      ADD      sp,sp,#0x64
        0x00002bf8:    bdf0        ..      POP      {r4-r7,pc}
        0x00002bfa:    f7fffb89    ....    BL       __aeabi_dadd ; 0x2310
        0x00002bfe:    42b5        .B      CMP      r5,r6
        0x00002c00:    d006        ..      BEQ      0x2c10 ; __ieee754_rem_pio2 + 132
        0x00002c02:    4ab8        .J      LDR      r2,[pc,#736] ; [0x2ee4] = 0x1a626331
        0x00002c04:    4bb8        .K      LDR      r3,[pc,#736] ; [0x2ee8] = 0x3dd0b461
        0x00002c06:    f7fffb83    ....    BL       __aeabi_dadd ; 0x2310
        0x00002c0a:    6061        a`      STR      r1,[r4,#4]
        0x00002c0c:    6020         `      STR      r0,[r4,#0]
        0x00002c0e:    e009        ..      B        0x2c24 ; __ieee754_rem_pio2 + 152
        0x00002c10:    463a        :F      MOV      r2,r7
        0x00002c12:    4bb5        .K      LDR      r3,[pc,#724] ; [0x2ee8] = 0x3dd0b461
        0x00002c14:    f7fffb7c    ..|.    BL       __aeabi_dadd ; 0x2310
        0x00002c18:    4ab4        .J      LDR      r2,[pc,#720] ; [0x2eec] = 0x2e037073
        0x00002c1a:    4bb5        .K      LDR      r3,[pc,#724] ; [0x2ef0] = 0x3ba3198a
        0x00002c1c:    f7fffb78    ..x.    BL       __aeabi_dadd ; 0x2310
        0x00002c20:    6061        a`      STR      r1,[r4,#4]
        0x00002c22:    6020         `      STR      r0,[r4,#0]
        0x00002c24:    2000        .       MOVS     r0,#0
        0x00002c26:    43c0        .C      MVNS     r0,r0
        0x00002c28:    b019        ..      ADD      sp,sp,#0x64
        0x00002c2a:    bdf0        ..      POP      {r4-r7,pc}
        0x00002c2c:    49b1        .I      LDR      r1,[pc,#708] ; [0x2ef4] = 0x413921fb
        0x00002c2e:    428d        .B      CMP      r5,r1
        0x00002c30:    9917        ..      LDR      r1,[sp,#0x5c]
        0x00002c32:    dc77        w.      BGT      0x2d24 ; __ieee754_rem_pio2 + 408
        0x00002c34:    0049        I.      LSLS     r1,r1,#1
        0x00002c36:    0849        I.      LSRS     r1,r1,#1
        0x00002c38:    4607        .F      MOV      r7,r0
        0x00002c3a:    4aaf        .J      LDR      r2,[pc,#700] ; [0x2ef8] = 0x6dc9c883
        0x00002c3c:    4baf        .K      LDR      r3,[pc,#700] ; [0x2efc] = 0x3fe45f30
        0x00002c3e:    9104        ..      STR      r1,[sp,#0x10]
        0x00002c40:    f7fffc18    ....    BL       __aeabi_dmul ; 0x2474
        0x00002c44:    2200        ."      MOVS     r2,#0
        0x00002c46:    4bae        .K      LDR      r3,[pc,#696] ; [0x2f00] = 0x3fe00000
        0x00002c48:    f7fffb62    ..b.    BL       __aeabi_dadd ; 0x2310
        0x00002c4c:    f7ffff12    ....    BL       __aeabi_d2iz ; 0x2a74
        0x00002c50:    900a        ..      STR      r0,[sp,#0x28]
        0x00002c52:    f7fffd01    ....    BL       __aeabi_i2d ; 0x2658
        0x00002c56:    4aa2        .J      LDR      r2,[pc,#648] ; [0x2ee0] = 0x54400000
        0x00002c58:    4633        3F      MOV      r3,r6
        0x00002c5a:    9103        ..      STR      r1,[sp,#0xc]
        0x00002c5c:    9002        ..      STR      r0,[sp,#8]
        0x00002c5e:    f7fffc09    ....    BL       __aeabi_dmul ; 0x2474
        0x00002c62:    463a        :F      MOV      r2,r7
        0x00002c64:    9b04        ..      LDR      r3,[sp,#0x10]
        0x00002c66:    f7fffbfd    ....    BL       __aeabi_drsub ; 0x2464
        0x00002c6a:    4606        .F      MOV      r6,r0
        0x00002c6c:    460f        .F      MOV      r7,r1
        0x00002c6e:    4a9d        .J      LDR      r2,[pc,#628] ; [0x2ee4] = 0x1a626331
        0x00002c70:    4b9d        .K      LDR      r3,[pc,#628] ; [0x2ee8] = 0x3dd0b461
        0x00002c72:    9903        ..      LDR      r1,[sp,#0xc]
        0x00002c74:    9802        ..      LDR      r0,[sp,#8]
        0x00002c76:    f7fffbfd    ....    BL       __aeabi_dmul ; 0x2474
        0x00002c7a:    0d2a        *.      LSRS     r2,r5,#20
        0x00002c7c:    2501        .%      MOVS     r5,#1
        0x00002c7e:    920c        ..      STR      r2,[sp,#0x30]
        0x00002c80:    4632        2F      MOV      r2,r6
        0x00002c82:    463b        ;F      MOV      r3,r7
        0x00002c84:    f7fffbee    ....    BL       __aeabi_drsub ; 0x2464
        0x00002c88:    6061        a`      STR      r1,[r4,#4]
        0x00002c8a:    6020         `      STR      r0,[r4,#0]
        0x00002c8c:    2d03        .-      CMP      r5,#3
        0x00002c8e:    d039        9.      BEQ      0x2d04 ; __ieee754_rem_pio2 + 376
        0x00002c90:    0048        H.      LSLS     r0,r1,#1
        0x00002c92:    0d41        A.      LSRS     r1,r0,#21
        0x00002c94:    980c        ..      LDR      r0,[sp,#0x30]
        0x00002c96:    1a40        @.      SUBS     r0,r0,r1
        0x00002c98:    0169        i.      LSLS     r1,r5,#5
        0x00002c9a:    1869        i.      ADDS     r1,r5,r1
        0x00002c9c:    3911        .9      SUBS     r1,r1,#0x11
        0x00002c9e:    4281        .B      CMP      r1,r0
        0x00002ca0:    da30        0.      BGE      0x2d04 ; __ieee754_rem_pio2 + 376
        0x00002ca2:    4998        .I      LDR      r1,[pc,#608] ; [0x2f04] = 0x1326
        0x00002ca4:    0128        (.      LSLS     r0,r5,#4
        0x00002ca6:    4479        yD      ADD      r1,r1,pc
        0x00002ca8:    9608        ..      STR      r6,[sp,#0x20]
        0x00002caa:    900d        ..      STR      r0,[sp,#0x34]
        0x00002cac:    1808        ..      ADDS     r0,r1,r0
        0x00002cae:    9704        ..      STR      r7,[sp,#0x10]
        0x00002cb0:    6843        Ch      LDR      r3,[r0,#4]
        0x00002cb2:    6802        .h      LDR      r2,[r0,#0]
        0x00002cb4:    9903        ..      LDR      r1,[sp,#0xc]
        0x00002cb6:    9802        ..      LDR      r0,[sp,#8]
        0x00002cb8:    f7fffbdc    ....    BL       __aeabi_dmul ; 0x2474
        0x00002cbc:    4602        .F      MOV      r2,r0
        0x00002cbe:    460b        .F      MOV      r3,r1
        0x00002cc0:    9107        ..      STR      r1,[sp,#0x1c]
        0x00002cc2:    9006        ..      STR      r0,[sp,#0x18]
        0x00002cc4:    9904        ..      LDR      r1,[sp,#0x10]
        0x00002cc6:    9808        ..      LDR      r0,[sp,#0x20]
        0x00002cc8:    f7fffbc6    ....    BL       __aeabi_dsub ; 0x2458
        0x00002ccc:    4606        .F      MOV      r6,r0
        0x00002cce:    460f        .F      MOV      r7,r1
        0x00002cd0:    9b04        ..      LDR      r3,[sp,#0x10]
        0x00002cd2:    9a08        ..      LDR      r2,[sp,#0x20]
        0x00002cd4:    f7fffbc6    ....    BL       __aeabi_drsub ; 0x2464
        0x00002cd8:    9b07        ..      LDR      r3,[sp,#0x1c]
        0x00002cda:    9a06        ..      LDR      r2,[sp,#0x18]
        0x00002cdc:    f7fffbbc    ....    BL       __aeabi_dsub ; 0x2458
        0x00002ce0:    9105        ..      STR      r1,[sp,#0x14]
        0x00002ce2:    4989        .I      LDR      r1,[pc,#548] ; [0x2f08] = 0x12e6
        0x00002ce4:    9004        ..      STR      r0,[sp,#0x10]
        0x00002ce6:    4479        yD      ADD      r1,r1,pc
        0x00002ce8:    980d        ..      LDR      r0,[sp,#0x34]
        0x00002cea:    1840        @.      ADDS     r0,r0,r1
        0x00002cec:    68c3        .h      LDR      r3,[r0,#0xc]
        0x00002cee:    6882        .h      LDR      r2,[r0,#8]
        0x00002cf0:    9903        ..      LDR      r1,[sp,#0xc]
        0x00002cf2:    9802        ..      LDR      r0,[sp,#8]
        0x00002cf4:    f7fffbbe    ....    BL       __aeabi_dmul ; 0x2474
        0x00002cf8:    9b05        ..      LDR      r3,[sp,#0x14]
        0x00002cfa:    9a04        ..      LDR      r2,[sp,#0x10]
        0x00002cfc:    f7fffbac    ....    BL       __aeabi_dsub ; 0x2458
        0x00002d00:    1c6d        m.      ADDS     r5,r5,#1
        0x00002d02:    e7bd        ..      B        0x2c80 ; __ieee754_rem_pio2 + 244
        0x00002d04:    9809        ..      LDR      r0,[sp,#0x24]
        0x00002d06:    2800        .(      CMP      r0,#0
        0x00002d08:    da09        ..      BGE      0x2d1e ; __ieee754_rem_pio2 + 402
        0x00002d0a:    2201        ."      MOVS     r2,#1
        0x00002d0c:    6860        `h      LDR      r0,[r4,#4]
        0x00002d0e:    07d2        ..      LSLS     r2,r2,#31
        0x00002d10:    4050        P@      EORS     r0,r0,r2
        0x00002d12:    6060        ``      STR      r0,[r4,#4]
        0x00002d14:    980a        ..      LDR      r0,[sp,#0x28]
        0x00002d16:    b019        ..      ADD      sp,sp,#0x64
        0x00002d18:    4240        @B      RSBS     r0,r0,#0
        0x00002d1a:    bdf0        ..      POP      {r4-r7,pc}
        0x00002d1c:    e002        ..      B        0x2d24 ; __ieee754_rem_pio2 + 408
        0x00002d1e:    980a        ..      LDR      r0,[sp,#0x28]
        0x00002d20:    b019        ..      ADD      sp,sp,#0x64
        0x00002d22:    bdf0        ..      POP      {r4-r7,pc}
        0x00002d24:    0309        ..      LSLS     r1,r1,#12
        0x00002d26:    2201        ."      MOVS     r2,#1
        0x00002d28:    0b09        ..      LSRS     r1,r1,#12
        0x00002d2a:    0512        ..      LSLS     r2,r2,#20
        0x00002d2c:    900e        ..      STR      r0,[sp,#0x38]
        0x00002d2e:    1889        ..      ADDS     r1,r1,r2
        0x00002d30:    9817        ..      LDR      r0,[sp,#0x5c]
        0x00002d32:    9110        ..      STR      r1,[sp,#0x40]
        0x00002d34:    0040        @.      LSLS     r0,r0,#1
        0x00002d36:    4975        uI      LDR      r1,[pc,#468] ; [0x2f0c] = 0xfffffc0b
        0x00002d38:    0d40        @.      LSRS     r0,r0,#21
        0x00002d3a:    1840        @.      ADDS     r0,r0,r1
        0x00002d3c:    1141        A.      ASRS     r1,r0,#5
        0x00002d3e:    06c0        ..      LSLS     r0,r0,#27
        0x00002d40:    0ec0        ..      LSRS     r0,r0,#27
        0x00002d42:    910d        ..      STR      r1,[sp,#0x34]
        0x00002d44:    9013        ..      STR      r0,[sp,#0x4c]
        0x00002d46:    2120         !      MOVS     r1,#0x20
        0x00002d48:    1a08        ..      SUBS     r0,r1,r0
        0x00002d4a:    9014        ..      STR      r0,[sp,#0x50]
        0x00002d4c:    2000        .       MOVS     r0,#0
        0x00002d4e:    9006        ..      STR      r0,[sp,#0x18]
        0x00002d50:    2505        .%      MOVS     r5,#5
        0x00002d52:    9007        ..      STR      r0,[sp,#0x1c]
        0x00002d54:    9813        ..      LDR      r0,[sp,#0x4c]
        0x00002d56:    2800        .(      CMP      r0,#0
        0x00002d58:    980d        ..      LDR      r0,[sp,#0x34]
        0x00002d5a:    d00c        ..      BEQ      0x2d76 ; __ieee754_rem_pio2 + 490
        0x00002d5c:    1940        @.      ADDS     r0,r0,r5
        0x00002d5e:    0082        ..      LSLS     r2,r0,#2
        0x00002d60:    486b        kH      LDR      r0,[pc,#428] ; [0x2f10] = 0x129a
        0x00002d62:    4478        xD      ADD      r0,r0,pc
        0x00002d64:    5887        .X      LDR      r7,[r0,r2]
        0x00002d66:    9913        ..      LDR      r1,[sp,#0x4c]
        0x00002d68:    408f        .@      LSLS     r7,r7,r1
        0x00002d6a:    1810        ..      ADDS     r0,r2,r0
        0x00002d6c:    6841        Ah      LDR      r1,[r0,#4]
        0x00002d6e:    9814        ..      LDR      r0,[sp,#0x50]
        0x00002d70:    40c1        .@      LSRS     r1,r1,r0
        0x00002d72:    430f        .C      ORRS     r7,r7,r1
        0x00002d74:    e004        ..      B        0x2d80 ; __ieee754_rem_pio2 + 500
        0x00002d76:    1940        @.      ADDS     r0,r0,r5
        0x00002d78:    0081        ..      LSLS     r1,r0,#2
        0x00002d7a:    4866        fH      LDR      r0,[pc,#408] ; [0x2f14] = 0x1280
        0x00002d7c:    4478        xD      ADD      r0,r0,pc
        0x00002d7e:    5847        GX      LDR      r7,[r0,r1]
        0x00002d80:    9910        ..      LDR      r1,[sp,#0x40]
        0x00002d82:    4638        8F      MOV      r0,r7
        0x00002d84:    f7fffec1    ....    BL       __ARM_common_ll_muluu ; 0x2b0a
        0x00002d88:    4606        .F      MOV      r6,r0
        0x00002d8a:    910a        ..      STR      r1,[sp,#0x28]
        0x00002d8c:    4638        8F      MOV      r0,r7
        0x00002d8e:    990e        ..      LDR      r1,[sp,#0x38]
        0x00002d90:    f7fffebb    ....    BL       __ARM_common_ll_muluu ; 0x2b0a
        0x00002d94:    198a        ..      ADDS     r2,r1,r6
        0x00002d96:    9b0a        ..      LDR      r3,[sp,#0x28]
        0x00002d98:    428a        .B      CMP      r2,r1
        0x00002d9a:    d201        ..      BCS      0x2da0 ; __ieee754_rem_pio2 + 532
        0x00002d9c:    2101        .!      MOVS     r1,#1
        0x00002d9e:    e000        ..      B        0x2da2 ; __ieee754_rem_pio2 + 534
        0x00002da0:    2100        .!      MOVS     r1,#0
        0x00002da2:    18c9        ..      ADDS     r1,r1,r3
        0x00002da4:    468c        .F      MOV      r12,r1
        0x00002da6:    00af        ..      LSLS     r7,r5,#2
        0x00002da8:    4669        iF      MOV      r1,sp
        0x00002daa:    1879        y.      ADDS     r1,r7,r1
        0x00002dac:    688b        .h      LDR      r3,[r1,#8]
        0x00002dae:    684e        Nh      LDR      r6,[r1,#4]
        0x00002db0:    18c3        ..      ADDS     r3,r0,r3
        0x00002db2:    4283        .B      CMP      r3,r0
        0x00002db4:    d201        ..      BCS      0x2dba ; __ieee754_rem_pio2 + 558
        0x00002db6:    2001        .       MOVS     r0,#1
        0x00002db8:    e000        ..      B        0x2dbc ; __ieee754_rem_pio2 + 560
        0x00002dba:    2000        .       MOVS     r0,#0
        0x00002dbc:    1996        ..      ADDS     r6,r2,r6
        0x00002dbe:    1836        6.      ADDS     r6,r6,r0
        0x00002dc0:    2800        .(      CMP      r0,#0
        0x00002dc2:    d002        ..      BEQ      0x2dca ; __ieee754_rem_pio2 + 574
        0x00002dc4:    4296        .B      CMP      r6,r2
        0x00002dc6:    d902        ..      BLS      0x2dce ; __ieee754_rem_pio2 + 578
        0x00002dc8:    e003        ..      B        0x2dd2 ; __ieee754_rem_pio2 + 582
        0x00002dca:    4296        .B      CMP      r6,r2
        0x00002dcc:    d201        ..      BCS      0x2dd2 ; __ieee754_rem_pio2 + 582
        0x00002dce:    2001        .       MOVS     r0,#1
        0x00002dd0:    e000        ..      B        0x2dd4 ; __ieee754_rem_pio2 + 584
        0x00002dd2:    2000        .       MOVS     r0,#0
        0x00002dd4:    4662        bF      MOV      r2,r12
        0x00002dd6:    1812        ..      ADDS     r2,r2,r0
        0x00002dd8:    604e        N`      STR      r6,[r1,#4]
        0x00002dda:    4668        hF      MOV      r0,sp
        0x00002ddc:    608b        .`      STR      r3,[r1,#8]
        0x00002dde:    51c2        .Q      STR      r2,[r0,r7]
        0x00002de0:    4628        (F      MOV      r0,r5
        0x00002de2:    1e6d        m.      SUBS     r5,r5,#1
        0x00002de4:    2800        .(      CMP      r0,#0
        0x00002de6:    dcb5        ..      BGT      0x2d54 ; __ieee754_rem_pio2 + 456
        0x00002de8:    2101        .!      MOVS     r1,#1
        0x00002dea:    9802        ..      LDR      r0,[sp,#8]
        0x00002dec:    0749        I.      LSLS     r1,r1,#29
        0x00002dee:    1840        @.      ADDS     r0,r0,r1
        0x00002df0:    0f80        ..      LSRS     r0,r0,#30
        0x00002df2:    9013        ..      STR      r0,[sp,#0x4c]
        0x00002df4:    9802        ..      LDR      r0,[sp,#8]
        0x00002df6:    9905        ..      LDR      r1,[sp,#0x14]
        0x00002df8:    0080        ..      LSLS     r0,r0,#2
        0x00002dfa:    9e03        ..      LDR      r6,[sp,#0xc]
        0x00002dfc:    9d04        ..      LDR      r5,[sp,#0x10]
        0x00002dfe:    910b        ..      STR      r1,[sp,#0x2c]
        0x00002e00:    f7fffc2a    ..*.    BL       __aeabi_i2d ; 0x2658
        0x00002e04:    4607        .F      MOV      r7,r0
        0x00002e06:    4630        0F      MOV      r0,r6
        0x00002e08:    9108        ..      STR      r1,[sp,#0x20]
        0x00002e0a:    f7fffe25    ..%.    BL       __aeabi_ui2d ; 0x2a58
        0x00002e0e:    221d        ."      MOVS     r2,#0x1d
        0x00002e10:    43d2        .C      MVNS     r2,r2
        0x00002e12:    f7fffe0a    ....    BL       __ARM_scalbn ; 0x2a2a
        0x00002e16:    9010        ..      STR      r0,[sp,#0x40]
        0x00002e18:    910f        ..      STR      r1,[sp,#0x3c]
        0x00002e1a:    4628        (F      MOV      r0,r5
        0x00002e1c:    f7fffe1c    ....    BL       __aeabi_ui2d ; 0x2a58
        0x00002e20:    223d        ="      MOVS     r2,#0x3d
        0x00002e22:    43d2        .C      MVNS     r2,r2
        0x00002e24:    f7fffe01    ....    BL       __ARM_scalbn ; 0x2a2a
        0x00002e28:    900e        ..      STR      r0,[sp,#0x38]
        0x00002e2a:    910d        ..      STR      r1,[sp,#0x34]
        0x00002e2c:    980b        ..      LDR      r0,[sp,#0x2c]
        0x00002e2e:    f7fffe13    ....    BL       __aeabi_ui2d ; 0x2a58
        0x00002e32:    225d        ]"      MOVS     r2,#0x5d
        0x00002e34:    43d2        .C      MVNS     r2,r2
        0x00002e36:    f7fffdf8    ....    BL       __ARM_scalbn ; 0x2a2a
        0x00002e3a:    910b        ..      STR      r1,[sp,#0x2c]
        0x00002e3c:    900c        ..      STR      r0,[sp,#0x30]
        0x00002e3e:    9b0d        ..      LDR      r3,[sp,#0x34]
        0x00002e40:    9a0e        ..      LDR      r2,[sp,#0x38]
        0x00002e42:    f7fffa65    ..e.    BL       __aeabi_dadd ; 0x2310
        0x00002e46:    9b0f        ..      LDR      r3,[sp,#0x3c]
        0x00002e48:    9a10        ..      LDR      r2,[sp,#0x40]
        0x00002e4a:    f7fffa61    ..a.    BL       __aeabi_dadd ; 0x2310
        0x00002e4e:    463a        :F      MOV      r2,r7
        0x00002e50:    9b08        ..      LDR      r3,[sp,#0x20]
        0x00002e52:    f7fffa5d    ..].    BL       __aeabi_dadd ; 0x2310
        0x00002e56:    2500        .%      MOVS     r5,#0
        0x00002e58:    460e        .F      MOV      r6,r1
        0x00002e5a:    463a        :F      MOV      r2,r7
        0x00002e5c:    4628        (F      MOV      r0,r5
        0x00002e5e:    9b08        ..      LDR      r3,[sp,#0x20]
        0x00002e60:    f7fffafa    ....    BL       __aeabi_dsub ; 0x2458
        0x00002e64:    9b0f        ..      LDR      r3,[sp,#0x3c]
        0x00002e66:    9a10        ..      LDR      r2,[sp,#0x40]
        0x00002e68:    f7fffaf6    ....    BL       __aeabi_dsub ; 0x2458
        0x00002e6c:    9b0d        ..      LDR      r3,[sp,#0x34]
        0x00002e6e:    9a0e        ..      LDR      r2,[sp,#0x38]
        0x00002e70:    f7fffaf2    ....    BL       __aeabi_dsub ; 0x2458
        0x00002e74:    9b0b        ..      LDR      r3,[sp,#0x2c]
        0x00002e76:    9a0c        ..      LDR      r2,[sp,#0x30]
        0x00002e78:    f7fffaf4    ....    BL       __aeabi_drsub ; 0x2464
        0x00002e7c:    4a26        &J      LDR      r2,[pc,#152] ; [0x2f18] = 0x54442d18
        0x00002e7e:    4b27        'K      LDR      r3,[pc,#156] ; [0x2f1c] = 0x3df921fb
        0x00002e80:    f7fffaf8    ....    BL       __aeabi_dmul ; 0x2474
        0x00002e84:    4607        .F      MOV      r7,r0
        0x00002e86:    910d        ..      STR      r1,[sp,#0x34]
        0x00002e88:    4a25        %J      LDR      r2,[pc,#148] ; [0x2f20] = 0x11a62633
        0x00002e8a:    4b26        &K      LDR      r3,[pc,#152] ; [0x2f24] = 0x3c110b46
        0x00002e8c:    4631        1F      MOV      r1,r6
        0x00002e8e:    4628        (F      MOV      r0,r5
        0x00002e90:    f7fffaf0    ....    BL       __aeabi_dmul ; 0x2474
        0x00002e94:    463a        :F      MOV      r2,r7
        0x00002e96:    9b0d        ..      LDR      r3,[sp,#0x34]
        0x00002e98:    f7fffa3a    ..:.    BL       __aeabi_dadd ; 0x2310
        0x00002e9c:    460f        .F      MOV      r7,r1
        0x00002e9e:    2215        ."      MOVS     r2,#0x15
        0x00002ea0:    900c        ..      STR      r0,[sp,#0x30]
        0x00002ea2:    0692        ..      LSLS     r2,r2,#26
        0x00002ea4:    4b1d        .K      LDR      r3,[pc,#116] ; [0x2f1c] = 0x3df921fb
        0x00002ea6:    4631        1F      MOV      r1,r6
        0x00002ea8:    4628        (F      MOV      r0,r5
        0x00002eaa:    f7fffae3    ....    BL       __aeabi_dmul ; 0x2474
        0x00002eae:    463b        ;F      MOV      r3,r7
        0x00002eb0:    9a0c        ..      LDR      r2,[sp,#0x30]
        0x00002eb2:    f7fffa2d    ..-.    BL       __aeabi_dadd ; 0x2310
        0x00002eb6:    9a17        ..      LDR      r2,[sp,#0x5c]
        0x00002eb8:    2a00        .*      CMP      r2,#0
        0x00002eba:    da05        ..      BGE      0x2ec8 ; __ieee754_rem_pio2 + 828
        0x00002ebc:    9a13        ..      LDR      r2,[sp,#0x4c]
        0x00002ebe:    4252        RB      RSBS     r2,r2,#0
        0x00002ec0:    9213        ..      STR      r2,[sp,#0x4c]
        0x00002ec2:    2201        ."      MOVS     r2,#1
        0x00002ec4:    07d2        ..      LSLS     r2,r2,#31
        0x00002ec6:    4051        Q@      EORS     r1,r1,r2
        0x00002ec8:    6061        a`      STR      r1,[r4,#4]
        0x00002eca:    6020         `      STR      r0,[r4,#0]
        0x00002ecc:    9813        ..      LDR      r0,[sp,#0x4c]
        0x00002ece:    b019        ..      ADD      sp,sp,#0x64
        0x00002ed0:    bdf0        ..      POP      {r4-r7,pc}
    $d
        0x00002ed2:    0000        ..      DCW    0
        0x00002ed4:    3fe921fb    .!.?    DCD    1072243195
        0x00002ed8:    4002d97c    |..@    DCD    1073928572
        0x00002edc:    3ff921fb    .!.?    DCD    1073291771
        0x00002ee0:    54400000    ..@T    DCD    1413480448
        0x00002ee4:    1a626331    1cb.    DCD    442655537
        0x00002ee8:    3dd0b461    a..=    DCD    1037087841
        0x00002eec:    2e037073    sp..    DCD    771977331
        0x00002ef0:    3ba3198a    ...;    DCD    1000544650
        0x00002ef4:    413921fb    .!9A    DCD    1094263291
        0x00002ef8:    6dc9c883    ...m    DCD    1841940611
        0x00002efc:    3fe45f30    0_.?    DCD    1071931184
        0x00002f00:    3fe00000    ...?    DCD    1071644672
        0x00002f04:    00001326    &...    DCD    4902
        0x00002f08:    000012e6    ....    DCD    4838
        0x00002f0c:    fffffc0b    ....    DCD    4294966283
        0x00002f10:    0000129a    ....    DCD    4762
        0x00002f14:    00001280    ....    DCD    4736
        0x00002f18:    54442d18    .-DT    DCD    1413754136
        0x00002f1c:    3df921fb    .!.=    DCD    1039737339
        0x00002f20:    11a62633    3&..    DCD    296101427
        0x00002f24:    3c110b46    F..<    DCD    1007749958
    $t
    i.__kernel_cos
    __kernel_cos
        0x00002f28:    b5f0        ..      PUSH     {r4-r7,lr}
        0x00002f2a:    b41f        ..      PUSH     {r0-r4}
        0x00002f2c:    004e        N.      LSLS     r6,r1,#1
        0x00002f2e:    20f9        .       MOVS     r0,#0xf9
        0x00002f30:    0876        v.      LSRS     r6,r6,#1
        0x00002f32:    0580        ..      LSLS     r0,r0,#22
        0x00002f34:    b084        ..      SUB      sp,sp,#0x10
        0x00002f36:    460f        .F      MOV      r7,r1
        0x00002f38:    4286        .B      CMP      r6,r0
        0x00002f3a:    da04        ..      BGE      0x2f46 ; __kernel_cos + 30
        0x00002f3c:    9804        ..      LDR      r0,[sp,#0x10]
        0x00002f3e:    f7fffd99    ....    BL       __aeabi_d2iz ; 0x2a74
        0x00002f42:    2800        .(      CMP      r0,#0
        0x00002f44:    d038        8.      BEQ      0x2fb8 ; __kernel_cos + 144
        0x00002f46:    9a04        ..      LDR      r2,[sp,#0x10]
        0x00002f48:    463b        ;F      MOV      r3,r7
        0x00002f4a:    4610        .F      MOV      r0,r2
        0x00002f4c:    4619        .F      MOV      r1,r3
        0x00002f4e:    f7fffa91    ....    BL       __aeabi_dmul ; 0x2474
        0x00002f52:    4604        .F      MOV      r4,r0
        0x00002f54:    4602        .F      MOV      r2,r0
        0x00002f56:    482c        ,H      LDR      r0,[pc,#176] ; [0x3008] = 0x103e
        0x00002f58:    460d        .F      MOV      r5,r1
        0x00002f5a:    460b        .F      MOV      r3,r1
        0x00002f5c:    2106        .!      MOVS     r1,#6
        0x00002f5e:    4478        xD      ADD      r0,r0,pc
        0x00002f60:    f000f85c    ..\.    BL       __kernel_poly ; 0x301c
        0x00002f64:    4622        "F      MOV      r2,r4
        0x00002f66:    462b        +F      MOV      r3,r5
        0x00002f68:    f7fffa84    ....    BL       __aeabi_dmul ; 0x2474
        0x00002f6c:    9101        ..      STR      r1,[sp,#4]
        0x00002f6e:    9000        ..      STR      r0,[sp,#0]
        0x00002f70:    4639        9F      MOV      r1,r7
        0x00002f72:    9b07        ..      LDR      r3,[sp,#0x1c]
        0x00002f74:    9a06        ..      LDR      r2,[sp,#0x18]
        0x00002f76:    9804        ..      LDR      r0,[sp,#0x10]
        0x00002f78:    f7fffa7c    ..|.    BL       __aeabi_dmul ; 0x2474
        0x00002f7c:    4607        .F      MOV      r7,r0
        0x00002f7e:    9102        ..      STR      r1,[sp,#8]
        0x00002f80:    4620         F      MOV      r0,r4
        0x00002f82:    4629        )F      MOV      r1,r5
        0x00002f84:    9b01        ..      LDR      r3,[sp,#4]
        0x00002f86:    9a00        ..      LDR      r2,[sp,#0]
        0x00002f88:    f7fffa74    ..t.    BL       __aeabi_dmul ; 0x2474
        0x00002f8c:    463a        :F      MOV      r2,r7
        0x00002f8e:    9b02        ..      LDR      r3,[sp,#8]
        0x00002f90:    f7fffa62    ..b.    BL       __aeabi_dsub ; 0x2458
        0x00002f94:    4607        .F      MOV      r7,r0
        0x00002f96:    2200        ."      MOVS     r2,#0
        0x00002f98:    9100        ..      STR      r1,[sp,#0]
        0x00002f9a:    43d2        .C      MVNS     r2,r2
        0x00002f9c:    4620         F      MOV      r0,r4
        0x00002f9e:    4629        )F      MOV      r1,r5
        0x00002fa0:    f7fffd43    ..C.    BL       __ARM_scalbn ; 0x2a2a
        0x00002fa4:    4a19        .J      LDR      r2,[pc,#100] ; [0x300c] = 0x3fd33333
        0x00002fa6:    4296        .B      CMP      r6,r2
        0x00002fa8:    da0a        ..      BGE      0x2fc0 ; __kernel_cos + 152
        0x00002faa:    463a        :F      MOV      r2,r7
        0x00002fac:    9b00        ..      LDR      r3,[sp,#0]
        0x00002fae:    f7fffa53    ..S.    BL       __aeabi_dsub ; 0x2458
        0x00002fb2:    2200        ."      MOVS     r2,#0
        0x00002fb4:    4b16        .K      LDR      r3,[pc,#88] ; [0x3010] = 0x3ff00000
        0x00002fb6:    e023        #.      B        0x3000 ; __kernel_cos + 216
        0x00002fb8:    2000        .       MOVS     r0,#0
        0x00002fba:    4915        .I      LDR      r1,[pc,#84] ; [0x3010] = 0x3ff00000
        0x00002fbc:    b009        ..      ADD      sp,sp,#0x24
        0x00002fbe:    bdf0        ..      POP      {r4-r7,pc}
        0x00002fc0:    4a14        .J      LDR      r2,[pc,#80] ; [0x3014] = 0x3fe90000
        0x00002fc2:    4296        .B      CMP      r6,r2
        0x00002fc4:    dd02        ..      BLE      0x2fcc ; __kernel_cos + 164
        0x00002fc6:    2400        .$      MOVS     r4,#0
        0x00002fc8:    4d13        .M      LDR      r5,[pc,#76] ; [0x3018] = 0x3fd20000
        0x00002fca:    e003        ..      B        0x2fd4 ; __kernel_cos + 172
        0x00002fcc:    2201        ."      MOVS     r2,#1
        0x00002fce:    0552        R.      LSLS     r2,r2,#21
        0x00002fd0:    1ab5        ..      SUBS     r5,r6,r2
        0x00002fd2:    2400        .$      MOVS     r4,#0
        0x00002fd4:    4622        "F      MOV      r2,r4
        0x00002fd6:    462b        +F      MOV      r3,r5
        0x00002fd8:    f7fffa3e    ..>.    BL       __aeabi_dsub ; 0x2458
        0x00002fdc:    4606        .F      MOV      r6,r0
        0x00002fde:    9101        ..      STR      r1,[sp,#4]
        0x00002fe0:    4622        "F      MOV      r2,r4
        0x00002fe2:    462b        +F      MOV      r3,r5
        0x00002fe4:    2000        .       MOVS     r0,#0
        0x00002fe6:    490a        .I      LDR      r1,[pc,#40] ; [0x3010] = 0x3ff00000
        0x00002fe8:    f7fffa36    ..6.    BL       __aeabi_dsub ; 0x2458
        0x00002fec:    460d        .F      MOV      r5,r1
        0x00002fee:    4604        .F      MOV      r4,r0
        0x00002ff0:    463a        :F      MOV      r2,r7
        0x00002ff2:    4630        0F      MOV      r0,r6
        0x00002ff4:    9b00        ..      LDR      r3,[sp,#0]
        0x00002ff6:    9901        ..      LDR      r1,[sp,#4]
        0x00002ff8:    f7fffa2e    ....    BL       __aeabi_dsub ; 0x2458
        0x00002ffc:    4622        "F      MOV      r2,r4
        0x00002ffe:    462b        +F      MOV      r3,r5
        0x00003000:    f7fffa30    ..0.    BL       __aeabi_drsub ; 0x2464
        0x00003004:    b009        ..      ADD      sp,sp,#0x24
        0x00003006:    bdf0        ..      POP      {r4-r7,pc}
    $d
        0x00003008:    0000103e    >...    DCD    4158
        0x0000300c:    3fd33333    33.?    DCD    1070805811
        0x00003010:    3ff00000    ...?    DCD    1072693248
        0x00003014:    3fe90000    ...?    DCD    1072234496
        0x00003018:    3fd20000    ...?    DCD    1070727168
    $t
    i.__kernel_poly
    __kernel_poly
        0x0000301c:    b5f8        ..      PUSH     {r3-r7,lr}
        0x0000301e:    4604        .F      MOV      r4,r0
        0x00003020:    1e4f        O.      SUBS     r7,r1,#1
        0x00003022:    00c8        ..      LSLS     r0,r1,#3
        0x00003024:    3808        .8      SUBS     r0,r0,#8
        0x00003026:    1821        !.      ADDS     r1,r4,r0
        0x00003028:    4615        .F      MOV      r5,r2
        0x0000302a:    461e        .F      MOV      r6,r3
        0x0000302c:    6808        .h      LDR      r0,[r1,#0]
        0x0000302e:    6849        Ih      LDR      r1,[r1,#4]
        0x00003030:    463a        :F      MOV      r2,r7
        0x00003032:    2306        .#      MOVS     r3,#6
        0x00003034:    439a        .C      BICS     r2,r2,r3
        0x00003036:    d010        ..      BEQ      0x305a ; __kernel_poly + 62
        0x00003038:    462a        *F      MOV      r2,r5
        0x0000303a:    4633        3F      MOV      r3,r6
        0x0000303c:    f7fffa1a    ....    BL       __aeabi_dmul ; 0x2474
        0x00003040:    463a        :F      MOV      r2,r7
        0x00003042:    00d2        ..      LSLS     r2,r2,#3
        0x00003044:    3a08        .:      SUBS     r2,r2,#8
        0x00003046:    18a3        ..      ADDS     r3,r4,r2
        0x00003048:    681a        .h      LDR      r2,[r3,#0]
        0x0000304a:    1e7f        ..      SUBS     r7,r7,#1
        0x0000304c:    685b        [h      LDR      r3,[r3,#4]
        0x0000304e:    f7fff95f    .._.    BL       __aeabi_dadd ; 0x2310
        0x00003052:    2206        ."      MOVS     r2,#6
        0x00003054:    463b        ;F      MOV      r3,r7
        0x00003056:    4393        .C      BICS     r3,r3,r2
        0x00003058:    d1ee        ..      BNE      0x3038 ; __kernel_poly + 28
        0x0000305a:    2f02        ./      CMP      r7,#2
        0x0000305c:    d023        #.      BEQ      0x30a6 ; __kernel_poly + 138
        0x0000305e:    2f04        ./      CMP      r7,#4
        0x00003060:    d011        ..      BEQ      0x3086 ; __kernel_poly + 106
        0x00003062:    2f06        ./      CMP      r7,#6
        0x00003064:    d12f        /.      BNE      0x30c6 ; __kernel_poly + 170
        0x00003066:    462a        *F      MOV      r2,r5
        0x00003068:    4633        3F      MOV      r3,r6
        0x0000306a:    f7fffa03    ....    BL       __aeabi_dmul ; 0x2474
        0x0000306e:    6ae3        .j      LDR      r3,[r4,#0x2c]
        0x00003070:    6aa2        .j      LDR      r2,[r4,#0x28]
        0x00003072:    f7fff94d    ..M.    BL       __aeabi_dadd ; 0x2310
        0x00003076:    462a        *F      MOV      r2,r5
        0x00003078:    4633        3F      MOV      r3,r6
        0x0000307a:    f7fff9fb    ....    BL       __aeabi_dmul ; 0x2474
        0x0000307e:    6a63        cj      LDR      r3,[r4,#0x24]
        0x00003080:    6a22        "j      LDR      r2,[r4,#0x20]
        0x00003082:    f7fff945    ..E.    BL       __aeabi_dadd ; 0x2310
        0x00003086:    462a        *F      MOV      r2,r5
        0x00003088:    4633        3F      MOV      r3,r6
        0x0000308a:    f7fff9f3    ....    BL       __aeabi_dmul ; 0x2474
        0x0000308e:    69e3        .i      LDR      r3,[r4,#0x1c]
        0x00003090:    69a2        .i      LDR      r2,[r4,#0x18]
        0x00003092:    f7fff93d    ..=.    BL       __aeabi_dadd ; 0x2310
        0x00003096:    462a        *F      MOV      r2,r5
        0x00003098:    4633        3F      MOV      r3,r6
        0x0000309a:    f7fff9eb    ....    BL       __aeabi_dmul ; 0x2474
        0x0000309e:    6963        ci      LDR      r3,[r4,#0x14]
        0x000030a0:    6922        "i      LDR      r2,[r4,#0x10]
        0x000030a2:    f7fff935    ..5.    BL       __aeabi_dadd ; 0x2310
        0x000030a6:    462a        *F      MOV      r2,r5
        0x000030a8:    4633        3F      MOV      r3,r6
        0x000030aa:    f7fff9e3    ....    BL       __aeabi_dmul ; 0x2474
        0x000030ae:    68e3        .h      LDR      r3,[r4,#0xc]
        0x000030b0:    68a2        .h      LDR      r2,[r4,#8]
        0x000030b2:    f7fff92d    ..-.    BL       __aeabi_dadd ; 0x2310
        0x000030b6:    462a        *F      MOV      r2,r5
        0x000030b8:    4633        3F      MOV      r3,r6
        0x000030ba:    f7fff9db    ....    BL       __aeabi_dmul ; 0x2474
        0x000030be:    6863        ch      LDR      r3,[r4,#4]
        0x000030c0:    6822        "h      LDR      r2,[r4,#0]
        0x000030c2:    f7fff925    ..%.    BL       __aeabi_dadd ; 0x2310
        0x000030c6:    bdf8        ..      POP      {r3-r7,pc}
    i.__kernel_sin
    __kernel_sin
        0x000030c8:    b5f0        ..      PUSH     {r4-r7,lr}
        0x000030ca:    b41f        ..      PUSH     {r0-r4}
        0x000030cc:    4605        .F      MOV      r5,r0
        0x000030ce:    0048        H.      LSLS     r0,r1,#1
        0x000030d0:    460c        .F      MOV      r4,r1
        0x000030d2:    21f9        .!      MOVS     r1,#0xf9
        0x000030d4:    0840        @.      LSRS     r0,r0,#1
        0x000030d6:    0589        ..      LSLS     r1,r1,#22
        0x000030d8:    b086        ..      SUB      sp,sp,#0x18
        0x000030da:    4288        .B      CMP      r0,r1
        0x000030dc:    da0b        ..      BGE      0x30f6 ; __kernel_sin + 46
        0x000030de:    4628        (F      MOV      r0,r5
        0x000030e0:    4621        !F      MOV      r1,r4
        0x000030e2:    f7fffd2b    ..+.    BL       __ARM_fpclassify ; 0x2b3c
        0x000030e6:    2804        .(      CMP      r0,#4
        0x000030e8:    d101        ..      BNE      0x30ee ; __kernel_sin + 38
        0x000030ea:    f000f871    ..q.    BL       __mathlib_dbl_underflow ; 0x31d0
        0x000030ee:    4628        (F      MOV      r0,r5
        0x000030f0:    4621        !F      MOV      r1,r4
        0x000030f2:    b00b        ..      ADD      sp,sp,#0x2c
        0x000030f4:    bdf0        ..      POP      {r4-r7,pc}
        0x000030f6:    462a        *F      MOV      r2,r5
        0x000030f8:    4623        #F      MOV      r3,r4
        0x000030fa:    4610        .F      MOV      r0,r2
        0x000030fc:    4619        .F      MOV      r1,r3
        0x000030fe:    f7fff9b9    ....    BL       __aeabi_dmul ; 0x2474
        0x00003102:    4606        .F      MOV      r6,r0
        0x00003104:    460f        .F      MOV      r7,r1
        0x00003106:    462a        *F      MOV      r2,r5
        0x00003108:    4623        #F      MOV      r3,r4
        0x0000310a:    f7fff9b3    ....    BL       __aeabi_dmul ; 0x2474
        0x0000310e:    9000        ..      STR      r0,[sp,#0]
        0x00003110:    4825        %H      LDR      r0,[pc,#148] ; [0x31a8] = 0xf7a
        0x00003112:    9101        ..      STR      r1,[sp,#4]
        0x00003114:    4632        2F      MOV      r2,r6
        0x00003116:    463b        ;F      MOV      r3,r7
        0x00003118:    2105        .!      MOVS     r1,#5
        0x0000311a:    4478        xD      ADD      r0,r0,pc
        0x0000311c:    f7ffff7e    ..~.    BL       __kernel_poly ; 0x301c
        0x00003120:    9002        ..      STR      r0,[sp,#8]
        0x00003122:    9810        ..      LDR      r0,[sp,#0x40]
        0x00003124:    9103        ..      STR      r1,[sp,#0xc]
        0x00003126:    2800        .(      CMP      r0,#0
        0x00003128:    d029        ).      BEQ      0x317e ; __kernel_sin + 182
        0x0000312a:    4a20         J      LDR      r2,[pc,#128] ; [0x31ac] = 0x55555549
        0x0000312c:    4b20         K      LDR      r3,[pc,#128] ; [0x31b0] = 0xbfc55555
        0x0000312e:    9901        ..      LDR      r1,[sp,#4]
        0x00003130:    9800        ..      LDR      r0,[sp,#0]
        0x00003132:    f7fff99f    ....    BL       __aeabi_dmul ; 0x2474
        0x00003136:    9004        ..      STR      r0,[sp,#0x10]
        0x00003138:    9105        ..      STR      r1,[sp,#0x14]
        0x0000313a:    4668        hF      MOV      r0,sp
        0x0000313c:    c80f        ..      LDM      r0,{r0-r3}
        0x0000313e:    f7fff999    ....    BL       __aeabi_dmul ; 0x2474
        0x00003142:    2200        ."      MOVS     r2,#0
        0x00003144:    9101        ..      STR      r1,[sp,#4]
        0x00003146:    9000        ..      STR      r0,[sp,#0]
        0x00003148:    43d2        .C      MVNS     r2,r2
        0x0000314a:    9909        ..      LDR      r1,[sp,#0x24]
        0x0000314c:    9808        ..      LDR      r0,[sp,#0x20]
        0x0000314e:    f7fffc6c    ..l.    BL       __ARM_scalbn ; 0x2a2a
        0x00003152:    9b01        ..      LDR      r3,[sp,#4]
        0x00003154:    9a00        ..      LDR      r2,[sp,#0]
        0x00003156:    f7fff97f    ....    BL       __aeabi_dsub ; 0x2458
        0x0000315a:    4632        2F      MOV      r2,r6
        0x0000315c:    463b        ;F      MOV      r3,r7
        0x0000315e:    f7fff989    ....    BL       __aeabi_dmul ; 0x2474
        0x00003162:    9b09        ..      LDR      r3,[sp,#0x24]
        0x00003164:    9a08        ..      LDR      r2,[sp,#0x20]
        0x00003166:    f7fff977    ..w.    BL       __aeabi_dsub ; 0x2458
        0x0000316a:    9b05        ..      LDR      r3,[sp,#0x14]
        0x0000316c:    9a04        ..      LDR      r2,[sp,#0x10]
        0x0000316e:    f7fff973    ..s.    BL       __aeabi_dsub ; 0x2458
        0x00003172:    462a        *F      MOV      r2,r5
        0x00003174:    4623        #F      MOV      r3,r4
        0x00003176:    f7fff975    ..u.    BL       __aeabi_drsub ; 0x2464
        0x0000317a:    b00b        ..      ADD      sp,sp,#0x2c
        0x0000317c:    bdf0        ..      POP      {r4-r7,pc}
        0x0000317e:    460b        .F      MOV      r3,r1
        0x00003180:    4630        0F      MOV      r0,r6
        0x00003182:    4639        9F      MOV      r1,r7
        0x00003184:    9a02        ..      LDR      r2,[sp,#8]
        0x00003186:    f7fff975    ..u.    BL       __aeabi_dmul ; 0x2474
        0x0000318a:    4a08        .J      LDR      r2,[pc,#32] ; [0x31ac] = 0x55555549
        0x0000318c:    4b08        .K      LDR      r3,[pc,#32] ; [0x31b0] = 0xbfc55555
        0x0000318e:    f7fff8bf    ....    BL       __aeabi_dadd ; 0x2310
        0x00003192:    9b01        ..      LDR      r3,[sp,#4]
        0x00003194:    9a00        ..      LDR      r2,[sp,#0]
        0x00003196:    f7fff96d    ..m.    BL       __aeabi_dmul ; 0x2474
        0x0000319a:    462a        *F      MOV      r2,r5
        0x0000319c:    4623        #F      MOV      r3,r4
        0x0000319e:    f7fff8b7    ....    BL       __aeabi_dadd ; 0x2310
        0x000031a2:    b00b        ..      ADD      sp,sp,#0x2c
        0x000031a4:    bdf0        ..      POP      {r4-r7,pc}
    $d
        0x000031a6:    0000        ..      DCW    0
        0x000031a8:    00000f7a    z...    DCD    3962
        0x000031ac:    55555549    IUUU    DCD    1431655753
        0x000031b0:    bfc55555    UU..    DCD    3217380693
    $t
    i.__mathlib_dbl_infnan
    __mathlib_dbl_infnan
        0x000031b4:    b510        ..      PUSH     {r4,lr}
        0x000031b6:    2201        ."      MOVS     r2,#1
        0x000031b8:    f7fffc37    ..7.    BL       __ARM_scalbn ; 0x2a2a
        0x000031bc:    bd10        ..      POP      {r4,pc}
    i.__mathlib_dbl_invalid
    __mathlib_dbl_invalid
        0x000031be:    2200        ."      MOVS     r2,#0
        0x000031c0:    b510        ..      PUSH     {r4,lr}
        0x000031c2:    4613        .F      MOV      r3,r2
        0x000031c4:    4610        .F      MOV      r0,r2
        0x000031c6:    4611        .F      MOV      r1,r2
        0x000031c8:    f7fff9bc    ....    BL       __aeabi_ddiv ; 0x2544
        0x000031cc:    bd10        ..      POP      {r4,pc}
        0x000031ce:    0000        ..      MOVS     r0,r0
    i.__mathlib_dbl_underflow
    __mathlib_dbl_underflow
        0x000031d0:    4a03        .J      LDR      r2,[pc,#12] ; [0x31e0] = 0xfffffd01
        0x000031d2:    b510        ..      PUSH     {r4,lr}
        0x000031d4:    2000        .       MOVS     r0,#0
        0x000031d6:    0711        ..      LSLS     r1,r2,#28
        0x000031d8:    f7fffc27    ..'.    BL       __ARM_scalbn ; 0x2a2a
        0x000031dc:    bd10        ..      POP      {r4,pc}
    $d
        0x000031de:    0000        ..      DCW    0
        0x000031e0:    fffffd01    ....    DCD    4294966529
    $t
    i.__mathlib_flt_infnan
    __mathlib_flt_infnan
        0x000031e4:    b510        ..      PUSH     {r4,lr}
        0x000031e6:    2101        .!      MOVS     r1,#1
        0x000031e8:    f7fff886    ....    BL       __ARM_scalbnf ; 0x22f8
        0x000031ec:    bd10        ..      POP      {r4,pc}
    i.__mathlib_flt_infnan2
    __mathlib_flt_infnan2
        0x000031ee:    b510        ..      PUSH     {r4,lr}
        0x000031f0:    f7feffae    ....    BL       __aeabi_fadd ; 0x2150
        0x000031f4:    bd10        ..      POP      {r4,pc}
    i.__mathlib_flt_invalid
    __mathlib_flt_invalid
        0x000031f6:    b510        ..      PUSH     {r4,lr}
        0x000031f8:    2100        .!      MOVS     r1,#0
        0x000031fa:    4608        .F      MOV      r0,r1
        0x000031fc:    f7fff83e    ..>.    BL       __aeabi_fdiv ; 0x227c
        0x00003200:    bd10        ..      POP      {r4,pc}
    i.__mathlib_flt_underflow
    __mathlib_flt_underflow
        0x00003202:    215e        ^!      MOVS     r1,#0x5e
        0x00003204:    b510        ..      PUSH     {r4,lr}
        0x00003206:    43c9        .C      MVNS     r1,r1
        0x00003208:    0708        ..      LSLS     r0,r1,#28
        0x0000320a:    f7fff875    ..u.    BL       __ARM_scalbnf ; 0x22f8
        0x0000320e:    bd10        ..      POP      {r4,pc}
    i.__scatterload_copy
    __scatterload_copy
        0x00003210:    e002        ..      B        0x3218 ; __scatterload_copy + 8
        0x00003212:    c808        ..      LDM      r0!,{r3}
        0x00003214:    1f12        ..      SUBS     r2,r2,#4
        0x00003216:    c108        ..      STM      r1!,{r3}
        0x00003218:    2a00        .*      CMP      r2,#0
        0x0000321a:    d1fa        ..      BNE      0x3212 ; __scatterload_copy + 2
        0x0000321c:    4770        pG      BX       lr
    i.__scatterload_null
    __scatterload_null
        0x0000321e:    4770        pG      BX       lr
    i.__scatterload_zeroinit
    __scatterload_zeroinit
        0x00003220:    2000        .       MOVS     r0,#0
        0x00003222:    e001        ..      B        0x3228 ; __scatterload_zeroinit + 8
        0x00003224:    c101        ..      STM      r1!,{r0}
        0x00003226:    1f12        ..      SUBS     r2,r2,#4
        0x00003228:    2a00        .*      CMP      r2,#0
        0x0000322a:    d1fb        ..      BNE      0x3224 ; __scatterload_zeroinit + 4
        0x0000322c:    4770        pG      BX       lr
        0x0000322e:    0000        ..      MOVS     r0,r0
    i.__set_errno
    __set_errno
        0x00003230:    4901        .I      LDR      r1,[pc,#4] ; [0x3238] = 0x200000b4
        0x00003232:    6008        .`      STR      r0,[r1,#0]
        0x00003234:    4770        pG      BX       lr
    $d
        0x00003236:    0000        ..      DCW    0
        0x00003238:    200000b4    ...     DCD    536871092
    $t
    i._fp_digits
    _fp_digits
        0x0000323c:    b5f0        ..      PUSH     {r4-r7,lr}
        0x0000323e:    b41f        ..      PUSH     {r0-r4}
        0x00003240:    b084        ..      SUB      sp,sp,#0x10
        0x00003242:    9807        ..      LDR      r0,[sp,#0x1c]
        0x00003244:    9906        ..      LDR      r1,[sp,#0x18]
        0x00003246:    0d02        ..      LSRS     r2,r0,#20
        0x00003248:    4301        .C      ORRS     r1,r1,r0
        0x0000324a:    d014        ..      BEQ      0x3276 ; _fp_digits + 58
        0x0000324c:    484a        JH      LDR      r0,[pc,#296] ; [0x3378] = 0xfffffc01
        0x0000324e:    494b        KI      LDR      r1,[pc,#300] ; [0x337c] = 0x4d10
        0x00003250:    1810        ..      ADDS     r0,r2,r0
        0x00003252:    4348        HC      MULS     r0,r1,r0
        0x00003254:    1405        ..      ASRS     r5,r0,#16
        0x00003256:    980f        ..      LDR      r0,[sp,#0x3c]
        0x00003258:    2801        .(      CMP      r0,#1
        0x0000325a:    980e        ..      LDR      r0,[sp,#0x38]
        0x0000325c:    d01c        ..      BEQ      0x3298 ; _fp_digits + 92
        0x0000325e:    1a28        (.      SUBS     r0,r5,r0
        0x00003260:    1c40        @.      ADDS     r0,r0,#1
        0x00003262:    2400        .$      MOVS     r4,#0
        0x00003264:    4e46        FN      LDR      r6,[pc,#280] ; [0x3380] = 0x40240000
        0x00003266:    4947        GI      LDR      r1,[pc,#284] ; [0x3384] = 0x3ff00000
        0x00003268:    9400        ..      STR      r4,[sp,#0]
        0x0000326a:    9101        ..      STR      r1,[sp,#4]
        0x0000326c:    9002        ..      STR      r0,[sp,#8]
        0x0000326e:    2800        .(      CMP      r0,#0
        0x00003270:    da14        ..      BGE      0x329c ; _fp_digits + 96
        0x00003272:    4247        GB      RSBS     r7,r0,#0
        0x00003274:    e027        '.      B        0x32c6 ; _fp_digits + 138
        0x00003276:    980f        ..      LDR      r0,[sp,#0x3c]
        0x00003278:    2401        .$      MOVS     r4,#1
        0x0000327a:    a343        C.      ADR      r3,{pc}+0x10e ; 0x3388
        0x0000327c:    2801        .(      CMP      r0,#1
        0x0000327e:    d008        ..      BEQ      0x3292 ; _fp_digits + 86
        0x00003280:    2100        .!      MOVS     r1,#0
        0x00003282:    9804        ..      LDR      r0,[sp,#0x10]
        0x00003284:    9a0f        ..      LDR      r2,[sp,#0x3c]
        0x00003286:    6084        .`      STR      r4,[r0,#8]
        0x00003288:    6003        .`      STR      r3,[r0,#0]
        0x0000328a:    60c2        .`      STR      r2,[r0,#0xc]
        0x0000328c:    6041        A`      STR      r1,[r0,#4]
        0x0000328e:    b009        ..      ADD      sp,sp,#0x24
        0x00003290:    bdf0        ..      POP      {r4-r7,pc}
        0x00003292:    980e        ..      LDR      r0,[sp,#0x38]
        0x00003294:    43c1        .C      MVNS     r1,r0
        0x00003296:    e7f4        ..      B        0x3282 ; _fp_digits + 70
        0x00003298:    4240        @B      RSBS     r0,r0,#0
        0x0000329a:    e7e2        ..      B        0x3262 ; _fp_digits + 38
        0x0000329c:    4607        .F      MOV      r7,r0
        0x0000329e:    e012        ..      B        0x32c6 ; _fp_digits + 138
        0x000032a0:    07f8        ..      LSLS     r0,r7,#31
        0x000032a2:    d007        ..      BEQ      0x32b4 ; _fp_digits + 120
        0x000032a4:    4622        "F      MOV      r2,r4
        0x000032a6:    4633        3F      MOV      r3,r6
        0x000032a8:    9901        ..      LDR      r1,[sp,#4]
        0x000032aa:    9800        ..      LDR      r0,[sp,#0]
        0x000032ac:    f7fff8e2    ....    BL       __aeabi_dmul ; 0x2474
        0x000032b0:    9101        ..      STR      r1,[sp,#4]
        0x000032b2:    9000        ..      STR      r0,[sp,#0]
        0x000032b4:    4622        "F      MOV      r2,r4
        0x000032b6:    4633        3F      MOV      r3,r6
        0x000032b8:    4610        .F      MOV      r0,r2
        0x000032ba:    4619        .F      MOV      r1,r3
        0x000032bc:    f7fff8da    ....    BL       __aeabi_dmul ; 0x2474
        0x000032c0:    4604        .F      MOV      r4,r0
        0x000032c2:    460e        .F      MOV      r6,r1
        0x000032c4:    107f        ..      ASRS     r7,r7,#1
        0x000032c6:    2f00        ./      CMP      r7,#0
        0x000032c8:    d1ea        ..      BNE      0x32a0 ; _fp_digits + 100
        0x000032ca:    9802        ..      LDR      r0,[sp,#8]
        0x000032cc:    9b01        ..      LDR      r3,[sp,#4]
        0x000032ce:    2800        .(      CMP      r0,#0
        0x000032d0:    9a00        ..      LDR      r2,[sp,#0]
        0x000032d2:    9907        ..      LDR      r1,[sp,#0x1c]
        0x000032d4:    9806        ..      LDR      r0,[sp,#0x18]
        0x000032d6:    da02        ..      BGE      0x32de ; _fp_digits + 162
        0x000032d8:    f7fff8cc    ....    BL       __aeabi_dmul ; 0x2474
        0x000032dc:    e001        ..      B        0x32e2 ; _fp_digits + 166
        0x000032de:    f7fff931    ..1.    BL       __aeabi_ddiv ; 0x2544
        0x000032e2:    4604        .F      MOV      r4,r0
        0x000032e4:    460e        .F      MOV      r6,r1
        0x000032e6:    2200        ."      MOVS     r2,#0
        0x000032e8:    4b28        (K      LDR      r3,[pc,#160] ; [0x338c] = 0x43f00000
        0x000032ea:    f7fffa0b    ....    BL       __aeabi_cdrcmple ; 0x2704
        0x000032ee:    d803        ..      BHI      0x32f8 ; _fp_digits + 188
        0x000032f0:    2000        .       MOVS     r0,#0
        0x000032f2:    43c0        .C      MVNS     r0,r0
        0x000032f4:    4601        .F      MOV      r1,r0
        0x000032f6:    e007        ..      B        0x3308 ; _fp_digits + 204
        0x000032f8:    2200        ."      MOVS     r2,#0
        0x000032fa:    4b25        %K      LDR      r3,[pc,#148] ; [0x3390] = 0x3fe00000
        0x000032fc:    4620         F      MOV      r0,r4
        0x000032fe:    4631        1F      MOV      r1,r6
        0x00003300:    f7fff806    ....    BL       __aeabi_dadd ; 0x2310
        0x00003304:    f7fffb22    ..".    BL       __aeabi_d2ulz ; 0x294c
        0x00003308:    2410        .$      MOVS     r4,#0x10
        0x0000330a:    e009        ..      B        0x3320 ; _fp_digits + 228
        0x0000330c:    2c00        .,      CMP      r4,#0
        0x0000330e:    db0a        ..      BLT      0x3326 ; _fp_digits + 234
        0x00003310:    220a        ."      MOVS     r2,#0xa
        0x00003312:    2300        .#      MOVS     r3,#0
        0x00003314:    f7fffa26    ..&.    BL       __aeabi_uldivmod ; 0x2764
        0x00003318:    9b05        ..      LDR      r3,[sp,#0x14]
        0x0000331a:    3230        02      ADDS     r2,r2,#0x30
        0x0000331c:    551a        .U      STRB     r2,[r3,r4]
        0x0000331e:    1e64        d.      SUBS     r4,r4,#1
        0x00003320:    4602        .F      MOV      r2,r0
        0x00003322:    430a        .C      ORRS     r2,r2,r1
        0x00003324:    d1f2        ..      BNE      0x330c ; _fp_digits + 208
        0x00003326:    2211        ."      MOVS     r2,#0x11
        0x00003328:    1c64        d.      ADDS     r4,r4,#1
        0x0000332a:    9b05        ..      LDR      r3,[sp,#0x14]
        0x0000332c:    1b12        ..      SUBS     r2,r2,r4
        0x0000332e:    191c        ..      ADDS     r4,r3,r4
        0x00003330:    9b0f        ..      LDR      r3,[sp,#0x3c]
        0x00003332:    2b01        .+      CMP      r3,#1
        0x00003334:    d003        ..      BEQ      0x333e ; _fp_digits + 258
        0x00003336:    2301        .#      MOVS     r3,#1
        0x00003338:    4308        .C      ORRS     r0,r0,r1
        0x0000333a:    d10e        ..      BNE      0x335a ; _fp_digits + 286
        0x0000333c:    e00a        ..      B        0x3354 ; _fp_digits + 280
        0x0000333e:    4308        .C      ORRS     r0,r0,r1
        0x00003340:    d004        ..      BEQ      0x334c ; _fp_digits + 272
        0x00003342:    2011        .       MOVS     r0,#0x11
        0x00003344:    900e        ..      STR      r0,[sp,#0x38]
        0x00003346:    2000        .       MOVS     r0,#0
        0x00003348:    900f        ..      STR      r0,[sp,#0x3c]
        0x0000334a:    e784        ..      B        0x3256 ; _fp_digits + 26
        0x0000334c:    980e        ..      LDR      r0,[sp,#0x38]
        0x0000334e:    1a15        ..      SUBS     r5,r2,r0
        0x00003350:    1e6d        m.      SUBS     r5,r5,#1
        0x00003352:    e00b        ..      B        0x336c ; _fp_digits + 304
        0x00003354:    980e        ..      LDR      r0,[sp,#0x38]
        0x00003356:    4282        .B      CMP      r2,r0
        0x00003358:    dd02        ..      BLE      0x3360 ; _fp_digits + 292
        0x0000335a:    2300        .#      MOVS     r3,#0
        0x0000335c:    1c6d        m.      ADDS     r5,r5,#1
        0x0000335e:    e003        ..      B        0x3368 ; _fp_digits + 300
        0x00003360:    4282        .B      CMP      r2,r0
        0x00003362:    da01        ..      BGE      0x3368 ; _fp_digits + 300
        0x00003364:    2300        .#      MOVS     r3,#0
        0x00003366:    1e6d        m.      SUBS     r5,r5,#1
        0x00003368:    2b00        .+      CMP      r3,#0
        0x0000336a:    d0ee        ..      BEQ      0x334a ; _fp_digits + 270
        0x0000336c:    9804        ..      LDR      r0,[sp,#0x10]
        0x0000336e:    990f        ..      LDR      r1,[sp,#0x3c]
        0x00003370:    6082        .`      STR      r2,[r0,#8]
        0x00003372:    60c1        .`      STR      r1,[r0,#0xc]
        0x00003374:    c030        0.      STM      r0!,{r4,r5}
        0x00003376:    e78a        ..      B        0x328e ; _fp_digits + 82
    $d
        0x00003378:    fffffc01    ....    DCD    4294966273
        0x0000337c:    00004d10    .M..    DCD    19728
        0x00003380:    40240000    ..$@    DCD    1076101120
        0x00003384:    3ff00000    ...?    DCD    1072693248
        0x00003388:    00000030    0...    DCD    48
        0x0000338c:    43f00000    ...C    DCD    1139802112
        0x00003390:    3fe00000    ...?    DCD    1071644672
    $t
    i._printf_core
    _printf_core
        0x00003394:    b5ff        ..      PUSH     {r0-r7,lr}
        0x00003396:    b097        ..      SUB      sp,sp,#0x5c
        0x00003398:    4606        .F      MOV      r6,r0
        0x0000339a:    2500        .%      MOVS     r5,#0
        0x0000339c:    e218        ..      B        0x37d0 ; _printf_core + 1084
        0x0000339e:    2825        %(      CMP      r0,#0x25
        0x000033a0:    d177        w.      BNE      0x3492 ; _printf_core + 254
        0x000033a2:    2400        .$      MOVS     r4,#0
        0x000033a4:    4627        'F      MOV      r7,r4
        0x000033a6:    49fd        .I      LDR      r1,[pc,#1012] ; [0x379c] = 0x12809
        0x000033a8:    9404        ..      STR      r4,[sp,#0x10]
        0x000033aa:    e000        ..      B        0x33ae ; _printf_core + 26
        0x000033ac:    4304        .C      ORRS     r4,r4,r0
        0x000033ae:    1c76        v.      ADDS     r6,r6,#1
        0x000033b0:    7832        2x      LDRB     r2,[r6,#0]
        0x000033b2:    2001        .       MOVS     r0,#1
        0x000033b4:    3a20         :      SUBS     r2,r2,#0x20
        0x000033b6:    4090        .@      LSLS     r0,r0,r2
        0x000033b8:    4208        .B      TST      r0,r1
        0x000033ba:    d1f7        ..      BNE      0x33ac ; _printf_core + 24
        0x000033bc:    7830        0x      LDRB     r0,[r6,#0]
        0x000033be:    282a        *(      CMP      r0,#0x2a
        0x000033c0:    d00e        ..      BEQ      0x33e0 ; _printf_core + 76
        0x000033c2:    2202        ."      MOVS     r2,#2
        0x000033c4:    7830        0x      LDRB     r0,[r6,#0]
        0x000033c6:    4601        .F      MOV      r1,r0
        0x000033c8:    3930        09      SUBS     r1,r1,#0x30
        0x000033ca:    2909        .)      CMP      r1,#9
        0x000033cc:    d816        ..      BHI      0x33fc ; _printf_core + 104
        0x000033ce:    9904        ..      LDR      r1,[sp,#0x10]
        0x000033d0:    230a        .#      MOVS     r3,#0xa
        0x000033d2:    4359        YC      MULS     r1,r3,r1
        0x000033d4:    3930        09      SUBS     r1,r1,#0x30
        0x000033d6:    1840        @.      ADDS     r0,r0,r1
        0x000033d8:    4314        .C      ORRS     r4,r4,r2
        0x000033da:    1c76        v.      ADDS     r6,r6,#1
        0x000033dc:    9004        ..      STR      r0,[sp,#0x10]
        0x000033de:    e7f1        ..      B        0x33c4 ; _printf_core + 48
        0x000033e0:    9818        ..      LDR      r0,[sp,#0x60]
        0x000033e2:    c802        ..      LDM      r0!,{r1}
        0x000033e4:    9104        ..      STR      r1,[sp,#0x10]
        0x000033e6:    9018        ..      STR      r0,[sp,#0x60]
        0x000033e8:    2900        .)      CMP      r1,#0
        0x000033ea:    da04        ..      BGE      0x33f6 ; _printf_core + 98
        0x000033ec:    2001        .       MOVS     r0,#1
        0x000033ee:    0340        @.      LSLS     r0,r0,#13
        0x000033f0:    4304        .C      ORRS     r4,r4,r0
        0x000033f2:    4248        HB      RSBS     r0,r1,#0
        0x000033f4:    9004        ..      STR      r0,[sp,#0x10]
        0x000033f6:    2002        .       MOVS     r0,#2
        0x000033f8:    4304        .C      ORRS     r4,r4,r0
        0x000033fa:    1c76        v.      ADDS     r6,r6,#1
        0x000033fc:    7830        0x      LDRB     r0,[r6,#0]
        0x000033fe:    282e        .(      CMP      r0,#0x2e
        0x00003400:    d114        ..      BNE      0x342c ; _printf_core + 152
        0x00003402:    2004        .       MOVS     r0,#4
        0x00003404:    4304        .C      ORRS     r4,r4,r0
        0x00003406:    7870        px      LDRB     r0,[r6,#1]
        0x00003408:    1c76        v.      ADDS     r6,r6,#1
        0x0000340a:    282a        *(      CMP      r0,#0x2a
        0x0000340c:    d109        ..      BNE      0x3422 ; _printf_core + 142
        0x0000340e:    9818        ..      LDR      r0,[sp,#0x60]
        0x00003410:    1c76        v.      ADDS     r6,r6,#1
        0x00003412:    c880        ..      LDM      r0!,{r7}
        0x00003414:    9018        ..      STR      r0,[sp,#0x60]
        0x00003416:    e009        ..      B        0x342c ; _printf_core + 152
        0x00003418:    210a        .!      MOVS     r1,#0xa
        0x0000341a:    434f        OC      MULS     r7,r1,r7
        0x0000341c:    3f30        0?      SUBS     r7,r7,#0x30
        0x0000341e:    19c7        ..      ADDS     r7,r0,r7
        0x00003420:    1c76        v.      ADDS     r6,r6,#1
        0x00003422:    7830        0x      LDRB     r0,[r6,#0]
        0x00003424:    4601        .F      MOV      r1,r0
        0x00003426:    3930        09      SUBS     r1,r1,#0x30
        0x00003428:    2909        .)      CMP      r1,#9
        0x0000342a:    d9f5        ..      BLS      0x3418 ; _printf_core + 132
        0x0000342c:    7830        0x      LDRB     r0,[r6,#0]
        0x0000342e:    286c        l(      CMP      r0,#0x6c
        0x00003430:    d010        ..      BEQ      0x3454 ; _printf_core + 192
        0x00003432:    dc06        ..      BGT      0x3442 ; _printf_core + 174
        0x00003434:    284c        L(      CMP      r0,#0x4c
        0x00003436:    d01a        ..      BEQ      0x346e ; _printf_core + 218
        0x00003438:    2868        h(      CMP      r0,#0x68
        0x0000343a:    d00e        ..      BEQ      0x345a ; _printf_core + 198
        0x0000343c:    286a        j(      CMP      r0,#0x6a
        0x0000343e:    d117        ..      BNE      0x3470 ; _printf_core + 220
        0x00003440:    e004        ..      B        0x344c ; _printf_core + 184
        0x00003442:    2874        t(      CMP      r0,#0x74
        0x00003444:    d013        ..      BEQ      0x346e ; _printf_core + 218
        0x00003446:    287a        z(      CMP      r0,#0x7a
        0x00003448:    d112        ..      BNE      0x3470 ; _printf_core + 220
        0x0000344a:    e010        ..      B        0x346e ; _printf_core + 218
        0x0000344c:    2001        .       MOVS     r0,#1
        0x0000344e:    0540        @.      LSLS     r0,r0,#21
        0x00003450:    4304        .C      ORRS     r4,r4,r0
        0x00003452:    e00c        ..      B        0x346e ; _printf_core + 218
        0x00003454:    2101        .!      MOVS     r1,#1
        0x00003456:    0509        ..      LSLS     r1,r1,#20
        0x00003458:    e001        ..      B        0x345e ; _printf_core + 202
        0x0000345a:    2103        .!      MOVS     r1,#3
        0x0000345c:    0509        ..      LSLS     r1,r1,#20
        0x0000345e:    430c        .C      ORRS     r4,r4,r1
        0x00003460:    7871        qx      LDRB     r1,[r6,#1]
        0x00003462:    4281        .B      CMP      r1,r0
        0x00003464:    d103        ..      BNE      0x346e ; _printf_core + 218
        0x00003466:    2001        .       MOVS     r0,#1
        0x00003468:    0500        ..      LSLS     r0,r0,#20
        0x0000346a:    1824        $.      ADDS     r4,r4,r0
        0x0000346c:    1c76        v.      ADDS     r6,r6,#1
        0x0000346e:    1c76        v.      ADDS     r6,r6,#1
        0x00003470:    7830        0x      LDRB     r0,[r6,#0]
        0x00003472:    9011        ..      STR      r0,[sp,#0x44]
        0x00003474:    2866        f(      CMP      r0,#0x66
        0x00003476:    d00b        ..      BEQ      0x3490 ; _printf_core + 252
        0x00003478:    dc13        ..      BGT      0x34a2 ; _printf_core + 270
        0x0000347a:    2858        X(      CMP      r0,#0x58
        0x0000347c:    d07d        }.      BEQ      0x357a ; _printf_core + 486
        0x0000347e:    dc09        ..      BGT      0x3494 ; _printf_core + 256
        0x00003480:    2800        .(      CMP      r0,#0
        0x00003482:    d07b        {.      BEQ      0x357c ; _printf_core + 488
        0x00003484:    2845        E(      CMP      r0,#0x45
        0x00003486:    d0f6        ..      BEQ      0x3476 ; _printf_core + 226
        0x00003488:    2846        F(      CMP      r0,#0x46
        0x0000348a:    d0f4        ..      BEQ      0x3476 ; _printf_core + 226
        0x0000348c:    2847        G(      CMP      r0,#0x47
        0x0000348e:    d11a        ..      BNE      0x34c6 ; _printf_core + 306
        0x00003490:    e1a5        ..      B        0x37de ; _printf_core + 1098
        0x00003492:    e018        ..      B        0x34c6 ; _printf_core + 306
        0x00003494:    2863        c(      CMP      r0,#0x63
        0x00003496:    d035        5.      BEQ      0x3504 ; _printf_core + 368
        0x00003498:    2864        d(      CMP      r0,#0x64
        0x0000349a:    d070        p.      BEQ      0x357e ; _printf_core + 490
        0x0000349c:    2865        e(      CMP      r0,#0x65
        0x0000349e:    d112        ..      BNE      0x34c6 ; _printf_core + 306
        0x000034a0:    e19d        ..      B        0x37de ; _printf_core + 1098
        0x000034a2:    2870        p(      CMP      r0,#0x70
        0x000034a4:    d06c        l.      BEQ      0x3580 ; _printf_core + 492
        0x000034a6:    dc08        ..      BGT      0x34ba ; _printf_core + 294
        0x000034a8:    2867        g(      CMP      r0,#0x67
        0x000034aa:    d0f1        ..      BEQ      0x3490 ; _printf_core + 252
        0x000034ac:    2869        i(      CMP      r0,#0x69
        0x000034ae:    d07b        {.      BEQ      0x35a8 ; _printf_core + 532
        0x000034b0:    286e        n(      CMP      r0,#0x6e
        0x000034b2:    d00d        ..      BEQ      0x34d0 ; _printf_core + 316
        0x000034b4:    286f        o(      CMP      r0,#0x6f
        0x000034b6:    d106        ..      BNE      0x34c6 ; _printf_core + 306
        0x000034b8:    e0ba        ..      B        0x3630 ; _printf_core + 668
        0x000034ba:    2873        s(      CMP      r0,#0x73
        0x000034bc:    d02e        ..      BEQ      0x351c ; _printf_core + 392
        0x000034be:    2875        u(      CMP      r0,#0x75
        0x000034c0:    d071        q.      BEQ      0x35a6 ; _printf_core + 530
        0x000034c2:    2878        x(      CMP      r0,#0x78
        0x000034c4:    d059        Y.      BEQ      0x357a ; _printf_core + 486
        0x000034c6:    9a1a        ..      LDR      r2,[sp,#0x68]
        0x000034c8:    9919        ..      LDR      r1,[sp,#0x64]
        0x000034ca:    4790        .G      BLX      r2
        0x000034cc:    1c6d        m.      ADDS     r5,r5,#1
        0x000034ce:    e17e        ~.      B        0x37ce ; _printf_core + 1082
        0x000034d0:    0260        `.      LSLS     r0,r4,#9
        0x000034d2:    0f40        @.      LSRS     r0,r0,#29
        0x000034d4:    2802        .(      CMP      r0,#2
        0x000034d6:    d009        ..      BEQ      0x34ec ; _printf_core + 344
        0x000034d8:    2803        .(      CMP      r0,#3
        0x000034da:    d00d        ..      BEQ      0x34f8 ; _printf_core + 356
        0x000034dc:    2804        .(      CMP      r0,#4
        0x000034de:    9818        ..      LDR      r0,[sp,#0x60]
        0x000034e0:    6801        .h      LDR      r1,[r0,#0]
        0x000034e2:    d00d        ..      BEQ      0x3500 ; _printf_core + 364
        0x000034e4:    600d        .`      STR      r5,[r1,#0]
        0x000034e6:    1d00        ..      ADDS     r0,r0,#4
        0x000034e8:    9018        ..      STR      r0,[sp,#0x60]
        0x000034ea:    e170        p.      B        0x37ce ; _printf_core + 1082
        0x000034ec:    9818        ..      LDR      r0,[sp,#0x60]
        0x000034ee:    17ea        ..      ASRS     r2,r5,#31
        0x000034f0:    6801        .h      LDR      r1,[r0,#0]
        0x000034f2:    600d        .`      STR      r5,[r1,#0]
        0x000034f4:    604a        J`      STR      r2,[r1,#4]
        0x000034f6:    e7f6        ..      B        0x34e6 ; _printf_core + 338
        0x000034f8:    9818        ..      LDR      r0,[sp,#0x60]
        0x000034fa:    6801        .h      LDR      r1,[r0,#0]
        0x000034fc:    800d        ..      STRH     r5,[r1,#0]
        0x000034fe:    e7f2        ..      B        0x34e6 ; _printf_core + 338
        0x00003500:    700d        .p      STRB     r5,[r1,#0]
        0x00003502:    e7f0        ..      B        0x34e6 ; _printf_core + 338
        0x00003504:    9818        ..      LDR      r0,[sp,#0x60]
        0x00003506:    466a        jF      MOV      r2,sp
        0x00003508:    7801        .x      LDRB     r1,[r0,#0]
        0x0000350a:    7211        .r      STRB     r1,[r2,#8]
        0x0000350c:    1d00        ..      ADDS     r0,r0,#4
        0x0000350e:    9018        ..      STR      r0,[sp,#0x60]
        0x00003510:    2000        .       MOVS     r0,#0
        0x00003512:    7250        Pr      STRB     r0,[r2,#9]
        0x00003514:    a802        ..      ADD      r0,sp,#8
        0x00003516:    9000        ..      STR      r0,[sp,#0]
        0x00003518:    2001        .       MOVS     r0,#1
        0x0000351a:    e005        ..      B        0x3528 ; _printf_core + 404
        0x0000351c:    9818        ..      LDR      r0,[sp,#0x60]
        0x0000351e:    c802        ..      LDM      r0!,{r1}
        0x00003520:    9018        ..      STR      r0,[sp,#0x60]
        0x00003522:    2000        .       MOVS     r0,#0
        0x00003524:    9100        ..      STR      r1,[sp,#0]
        0x00003526:    43c0        .C      MVNS     r0,r0
        0x00003528:    0761        a.      LSLS     r1,r4,#29
        0x0000352a:    d50d        ..      BPL      0x3548 ; _printf_core + 436
        0x0000352c:    2100        .!      MOVS     r1,#0
        0x0000352e:    e001        ..      B        0x3534 ; _printf_core + 416
        0x00003530:    9901        ..      LDR      r1,[sp,#4]
        0x00003532:    1c49        I.      ADDS     r1,r1,#1
        0x00003534:    9101        ..      STR      r1,[sp,#4]
        0x00003536:    42b9        .B      CMP      r1,r7
        0x00003538:    da12        ..      BGE      0x3560 ; _printf_core + 460
        0x0000353a:    4281        .B      CMP      r1,r0
        0x0000353c:    dbf8        ..      BLT      0x3530 ; _printf_core + 412
        0x0000353e:    9a00        ..      LDR      r2,[sp,#0]
        0x00003540:    5c51        Q\      LDRB     r1,[r2,r1]
        0x00003542:    2900        .)      CMP      r1,#0
        0x00003544:    d1f4        ..      BNE      0x3530 ; _printf_core + 412
        0x00003546:    e00b        ..      B        0x3560 ; _printf_core + 460
        0x00003548:    2100        .!      MOVS     r1,#0
        0x0000354a:    e001        ..      B        0x3550 ; _printf_core + 444
        0x0000354c:    9901        ..      LDR      r1,[sp,#4]
        0x0000354e:    1c49        I.      ADDS     r1,r1,#1
        0x00003550:    9101        ..      STR      r1,[sp,#4]
        0x00003552:    4281        .B      CMP      r1,r0
        0x00003554:    dbfa        ..      BLT      0x354c ; _printf_core + 440
        0x00003556:    9a01        ..      LDR      r2,[sp,#4]
        0x00003558:    9900        ..      LDR      r1,[sp,#0]
        0x0000355a:    5c89        .\      LDRB     r1,[r1,r2]
        0x0000355c:    2900        .)      CMP      r1,#0
        0x0000355e:    d1f5        ..      BNE      0x354c ; _printf_core + 440
        0x00003560:    9901        ..      LDR      r1,[sp,#4]
        0x00003562:    9804        ..      LDR      r0,[sp,#0x10]
        0x00003564:    9b1a        ..      LDR      r3,[sp,#0x68]
        0x00003566:    1a47        G.      SUBS     r7,r0,r1
        0x00003568:    4621        !F      MOV      r1,r4
        0x0000356a:    4638        8F      MOV      r0,r7
        0x0000356c:    9a19        ..      LDR      r2,[sp,#0x64]
        0x0000356e:    f000fa97    ....    BL       _printf_pre_padding ; 0x3aa0
        0x00003572:    9901        ..      LDR      r1,[sp,#4]
        0x00003574:    1940        @.      ADDS     r0,r0,r5
        0x00003576:    1845        E.      ADDS     r5,r0,r1
        0x00003578:    e00b        ..      B        0x3592 ; _printf_core + 510
        0x0000357a:    e04f        O.      B        0x361c ; _printf_core + 648
        0x0000357c:    e12c        ,.      B        0x37d8 ; _printf_core + 1092
        0x0000357e:    e013        ..      B        0x35a8 ; _printf_core + 532
        0x00003580:    e04e        N.      B        0x3620 ; _printf_core + 652
        0x00003582:    9800        ..      LDR      r0,[sp,#0]
        0x00003584:    9900        ..      LDR      r1,[sp,#0]
        0x00003586:    7800        .x      LDRB     r0,[r0,#0]
        0x00003588:    1c49        I.      ADDS     r1,r1,#1
        0x0000358a:    9100        ..      STR      r1,[sp,#0]
        0x0000358c:    9a1a        ..      LDR      r2,[sp,#0x68]
        0x0000358e:    9919        ..      LDR      r1,[sp,#0x64]
        0x00003590:    4790        .G      BLX      r2
        0x00003592:    9801        ..      LDR      r0,[sp,#4]
        0x00003594:    1e40        @.      SUBS     r0,r0,#1
        0x00003596:    9001        ..      STR      r0,[sp,#4]
        0x00003598:    1c40        @.      ADDS     r0,r0,#1
        0x0000359a:    d1f2        ..      BNE      0x3582 ; _printf_core + 494
        0x0000359c:    4621        !F      MOV      r1,r4
        0x0000359e:    4638        8F      MOV      r0,r7
        0x000035a0:    9b1a        ..      LDR      r3,[sp,#0x68]
        0x000035a2:    9a19        ..      LDR      r2,[sp,#0x64]
        0x000035a4:    e110        ..      B        0x37c8 ; _printf_core + 1076
        0x000035a6:    e037        7.      B        0x3618 ; _printf_core + 644
        0x000035a8:    200a        .       MOVS     r0,#0xa
        0x000035aa:    2100        .!      MOVS     r1,#0
        0x000035ac:    9000        ..      STR      r0,[sp,#0]
        0x000035ae:    9101        ..      STR      r1,[sp,#4]
        0x000035b0:    0260        `.      LSLS     r0,r4,#9
        0x000035b2:    0f41        A.      LSRS     r1,r0,#29
        0x000035b4:    2902        .)      CMP      r1,#2
        0x000035b6:    d007        ..      BEQ      0x35c8 ; _printf_core + 564
        0x000035b8:    9a18        ..      LDR      r2,[sp,#0x60]
        0x000035ba:    ca01        ..      LDM      r2!,{r0}
        0x000035bc:    9218        ..      STR      r2,[sp,#0x60]
        0x000035be:    17c2        ..      ASRS     r2,r0,#31
        0x000035c0:    4694        .F      MOV      r12,r2
        0x000035c2:    2903        .)      CMP      r1,#3
        0x000035c4:    d008        ..      BEQ      0x35d8 ; _printf_core + 580
        0x000035c6:    e00a        ..      B        0x35de ; _printf_core + 586
        0x000035c8:    9818        ..      LDR      r0,[sp,#0x60]
        0x000035ca:    1dc0        ..      ADDS     r0,r0,#7
        0x000035cc:    08c1        ..      LSRS     r1,r0,#3
        0x000035ce:    00c9        ..      LSLS     r1,r1,#3
        0x000035d0:    c905        ..      LDM      r1!,{r0,r2}
        0x000035d2:    9118        ..      STR      r1,[sp,#0x60]
        0x000035d4:    4694        .F      MOV      r12,r2
        0x000035d6:    e007        ..      B        0x35e8 ; _printf_core + 596
        0x000035d8:    b200        ..      SXTH     r0,r0
        0x000035da:    17c2        ..      ASRS     r2,r0,#31
        0x000035dc:    4694        .F      MOV      r12,r2
        0x000035de:    2904        .)      CMP      r1,#4
        0x000035e0:    d102        ..      BNE      0x35e8 ; _printf_core + 596
        0x000035e2:    b240        @.      SXTB     r0,r0
        0x000035e4:    17c1        ..      ASRS     r1,r0,#31
        0x000035e6:    468c        .F      MOV      r12,r1
        0x000035e8:    2200        ."      MOVS     r2,#0
        0x000035ea:    4661        aF      MOV      r1,r12
        0x000035ec:    4594        .E      CMP      r12,r2
        0x000035ee:    da06        ..      BGE      0x35fe ; _printf_core + 618
        0x000035f0:    460a        .F      MOV      r2,r1
        0x000035f2:    2100        .!      MOVS     r1,#0
        0x000035f4:    4240        @B      RSBS     r0,r0,#0
        0x000035f6:    4191        .A      SBCS     r1,r1,r2
        0x000035f8:    468c        .F      MOV      r12,r1
        0x000035fa:    212d        -!      MOVS     r1,#0x2d
        0x000035fc:    e002        ..      B        0x3604 ; _printf_core + 624
        0x000035fe:    0521        !.      LSLS     r1,r4,#20
        0x00003600:    d504        ..      BPL      0x360c ; _printf_core + 632
        0x00003602:    212b        +!      MOVS     r1,#0x2b
        0x00003604:    466a        jF      MOV      r2,sp
        0x00003606:    7311        .s      STRB     r1,[r2,#0xc]
        0x00003608:    2101        .!      MOVS     r1,#1
        0x0000360a:    e003        ..      B        0x3614 ; _printf_core + 640
        0x0000360c:    07e1        ..      LSLS     r1,r4,#31
        0x0000360e:    d001        ..      BEQ      0x3614 ; _printf_core + 640
        0x00003610:    2120         !      MOVS     r1,#0x20
        0x00003612:    e7f7        ..      B        0x3604 ; _printf_core + 624
        0x00003614:    9102        ..      STR      r1,[sp,#8]
        0x00003616:    e055        U.      B        0x36c4 ; _printf_core + 816
        0x00003618:    200a        .       MOVS     r0,#0xa
        0x0000361a:    e00a        ..      B        0x3632 ; _printf_core + 670
        0x0000361c:    2010        .       MOVS     r0,#0x10
        0x0000361e:    e008        ..      B        0x3632 ; _printf_core + 670
        0x00003620:    2010        .       MOVS     r0,#0x10
        0x00003622:    9000        ..      STR      r0,[sp,#0]
        0x00003624:    2100        .!      MOVS     r1,#0
        0x00003626:    2004        .       MOVS     r0,#4
        0x00003628:    4304        .C      ORRS     r4,r4,r0
        0x0000362a:    9101        ..      STR      r1,[sp,#4]
        0x0000362c:    2708        .'      MOVS     r7,#8
        0x0000362e:    e003        ..      B        0x3638 ; _printf_core + 676
        0x00003630:    2008        .       MOVS     r0,#8
        0x00003632:    2100        .!      MOVS     r1,#0
        0x00003634:    9101        ..      STR      r1,[sp,#4]
        0x00003636:    9000        ..      STR      r0,[sp,#0]
        0x00003638:    0260        `.      LSLS     r0,r4,#9
        0x0000363a:    0f41        A.      LSRS     r1,r0,#29
        0x0000363c:    2902        .)      CMP      r1,#2
        0x0000363e:    d007        ..      BEQ      0x3650 ; _printf_core + 700
        0x00003640:    9a18        ..      LDR      r2,[sp,#0x60]
        0x00003642:    ca01        ..      LDM      r2!,{r0}
        0x00003644:    9218        ..      STR      r2,[sp,#0x60]
        0x00003646:    2200        ."      MOVS     r2,#0
        0x00003648:    4694        .F      MOV      r12,r2
        0x0000364a:    2903        .)      CMP      r1,#3
        0x0000364c:    d008        ..      BEQ      0x3660 ; _printf_core + 716
        0x0000364e:    e008        ..      B        0x3662 ; _printf_core + 718
        0x00003650:    9818        ..      LDR      r0,[sp,#0x60]
        0x00003652:    1dc0        ..      ADDS     r0,r0,#7
        0x00003654:    08c1        ..      LSRS     r1,r0,#3
        0x00003656:    00c9        ..      LSLS     r1,r1,#3
        0x00003658:    c905        ..      LDM      r1!,{r0,r2}
        0x0000365a:    9118        ..      STR      r1,[sp,#0x60]
        0x0000365c:    4694        .F      MOV      r12,r2
        0x0000365e:    e003        ..      B        0x3668 ; _printf_core + 724
        0x00003660:    b280        ..      UXTH     r0,r0
        0x00003662:    2904        .)      CMP      r1,#4
        0x00003664:    d100        ..      BNE      0x3668 ; _printf_core + 724
        0x00003666:    b2c0        ..      UXTB     r0,r0
        0x00003668:    2100        .!      MOVS     r1,#0
        0x0000366a:    9102        ..      STR      r1,[sp,#8]
        0x0000366c:    0721        !.      LSLS     r1,r4,#28
        0x0000366e:    d529        ).      BPL      0x36c4 ; _printf_core + 816
        0x00003670:    9911        ..      LDR      r1,[sp,#0x44]
        0x00003672:    2970        p)      CMP      r1,#0x70
        0x00003674:    d006        ..      BEQ      0x3684 ; _printf_core + 752
        0x00003676:    9a00        ..      LDR      r2,[sp,#0]
        0x00003678:    2110        .!      MOVS     r1,#0x10
        0x0000367a:    9b01        ..      LDR      r3,[sp,#4]
        0x0000367c:    404a        J@      EORS     r2,r2,r1
        0x0000367e:    431a        .C      ORRS     r2,r2,r3
        0x00003680:    d005        ..      BEQ      0x368e ; _printf_core + 762
        0x00003682:    e00e        ..      B        0x36a2 ; _printf_core + 782
        0x00003684:    2140        @!      MOVS     r1,#0x40
        0x00003686:    466a        jF      MOV      r2,sp
        0x00003688:    7311        .s      STRB     r1,[r2,#0xc]
        0x0000368a:    2101        .!      MOVS     r1,#1
        0x0000368c:    e008        ..      B        0x36a0 ; _printf_core + 780
        0x0000368e:    4661        aF      MOV      r1,r12
        0x00003690:    4301        .C      ORRS     r1,r1,r0
        0x00003692:    d006        ..      BEQ      0x36a2 ; _printf_core + 782
        0x00003694:    2130        0!      MOVS     r1,#0x30
        0x00003696:    466a        jF      MOV      r2,sp
        0x00003698:    7311        .s      STRB     r1,[r2,#0xc]
        0x0000369a:    9911        ..      LDR      r1,[sp,#0x44]
        0x0000369c:    7351        Qs      STRB     r1,[r2,#0xd]
        0x0000369e:    2102        .!      MOVS     r1,#2
        0x000036a0:    9102        ..      STR      r1,[sp,#8]
        0x000036a2:    9a00        ..      LDR      r2,[sp,#0]
        0x000036a4:    2108        .!      MOVS     r1,#8
        0x000036a6:    9b01        ..      LDR      r3,[sp,#4]
        0x000036a8:    404a        J@      EORS     r2,r2,r1
        0x000036aa:    431a        .C      ORRS     r2,r2,r3
        0x000036ac:    d10a        ..      BNE      0x36c4 ; _printf_core + 816
        0x000036ae:    4661        aF      MOV      r1,r12
        0x000036b0:    4301        .C      ORRS     r1,r1,r0
        0x000036b2:    d101        ..      BNE      0x36b8 ; _printf_core + 804
        0x000036b4:    0761        a.      LSLS     r1,r4,#29
        0x000036b6:    d505        ..      BPL      0x36c4 ; _printf_core + 816
        0x000036b8:    2130        0!      MOVS     r1,#0x30
        0x000036ba:    466a        jF      MOV      r2,sp
        0x000036bc:    7311        .s      STRB     r1,[r2,#0xc]
        0x000036be:    2101        .!      MOVS     r1,#1
        0x000036c0:    1e7f        ..      SUBS     r7,r7,#1
        0x000036c2:    9102        ..      STR      r1,[sp,#8]
        0x000036c4:    9911        ..      LDR      r1,[sp,#0x44]
        0x000036c6:    2958        X)      CMP      r1,#0x58
        0x000036c8:    d004        ..      BEQ      0x36d4 ; _printf_core + 832
        0x000036ca:    a135        5.      ADR      r1,{pc}+0xd6 ; 0x37a0
        0x000036cc:    910e        ..      STR      r1,[sp,#0x38]
        0x000036ce:    a90d        ..      ADD      r1,sp,#0x34
        0x000036d0:    910d        ..      STR      r1,[sp,#0x34]
        0x000036d2:    e00d        ..      B        0x36f0 ; _printf_core + 860
        0x000036d4:    a137        7.      ADR      r1,{pc}+0xe0 ; 0x37b4
        0x000036d6:    e7f9        ..      B        0x36cc ; _printf_core + 824
        0x000036d8:    4661        aF      MOV      r1,r12
        0x000036da:    9b01        ..      LDR      r3,[sp,#4]
        0x000036dc:    9a00        ..      LDR      r2,[sp,#0]
        0x000036de:    f7fff841    ..A.    BL       __aeabi_uldivmod ; 0x2764
        0x000036e2:    9b0e        ..      LDR      r3,[sp,#0x38]
        0x000036e4:    468c        .F      MOV      r12,r1
        0x000036e6:    5c9b        .\      LDRB     r3,[r3,r2]
        0x000036e8:    9a0d        ..      LDR      r2,[sp,#0x34]
        0x000036ea:    1e52        R.      SUBS     r2,r2,#1
        0x000036ec:    920d        ..      STR      r2,[sp,#0x34]
        0x000036ee:    7013        .p      STRB     r3,[r2,#0]
        0x000036f0:    4661        aF      MOV      r1,r12
        0x000036f2:    4301        .C      ORRS     r1,r1,r0
        0x000036f4:    d1f0        ..      BNE      0x36d8 ; _printf_core + 836
        0x000036f6:    980d        ..      LDR      r0,[sp,#0x34]
        0x000036f8:    a905        ..      ADD      r1,sp,#0x14
        0x000036fa:    1a08        ..      SUBS     r0,r1,r0
        0x000036fc:    3020         0      ADDS     r0,r0,#0x20
        0x000036fe:    9001        ..      STR      r0,[sp,#4]
        0x00003700:    0760        `.      LSLS     r0,r4,#29
        0x00003702:    d503        ..      BPL      0x370c ; _printf_core + 888
        0x00003704:    2001        .       MOVS     r0,#1
        0x00003706:    0400        ..      LSLS     r0,r0,#16
        0x00003708:    4384        .C      BICS     r4,r4,r0
        0x0000370a:    e000        ..      B        0x370e ; _printf_core + 890
        0x0000370c:    2701        .'      MOVS     r7,#1
        0x0000370e:    9801        ..      LDR      r0,[sp,#4]
        0x00003710:    4287        .B      CMP      r7,r0
        0x00003712:    dd01        ..      BLE      0x3718 ; _printf_core + 900
        0x00003714:    1a38        8.      SUBS     r0,r7,r0
        0x00003716:    e000        ..      B        0x371a ; _printf_core + 902
        0x00003718:    2000        .       MOVS     r0,#0
        0x0000371a:    9901        ..      LDR      r1,[sp,#4]
        0x0000371c:    9000        ..      STR      r0,[sp,#0]
        0x0000371e:    1841        A.      ADDS     r1,r0,r1
        0x00003720:    9802        ..      LDR      r0,[sp,#8]
        0x00003722:    1809        ..      ADDS     r1,r1,r0
        0x00003724:    9804        ..      LDR      r0,[sp,#0x10]
        0x00003726:    1a40        @.      SUBS     r0,r0,r1
        0x00003728:    9004        ..      STR      r0,[sp,#0x10]
        0x0000372a:    03e0        ..      LSLS     r0,r4,#15
        0x0000372c:    d406        ..      BMI      0x373c ; _printf_core + 936
        0x0000372e:    4621        !F      MOV      r1,r4
        0x00003730:    9b1a        ..      LDR      r3,[sp,#0x68]
        0x00003732:    9a19        ..      LDR      r2,[sp,#0x64]
        0x00003734:    9804        ..      LDR      r0,[sp,#0x10]
        0x00003736:    f000f9b3    ....    BL       _printf_pre_padding ; 0x3aa0
        0x0000373a:    1945        E.      ADDS     r5,r0,r5
        0x0000373c:    2700        .'      MOVS     r7,#0
        0x0000373e:    e006        ..      B        0x374e ; _printf_core + 954
        0x00003740:    a803        ..      ADD      r0,sp,#0xc
        0x00003742:    9a1a        ..      LDR      r2,[sp,#0x68]
        0x00003744:    5dc0        .]      LDRB     r0,[r0,r7]
        0x00003746:    9919        ..      LDR      r1,[sp,#0x64]
        0x00003748:    4790        .G      BLX      r2
        0x0000374a:    1c6d        m.      ADDS     r5,r5,#1
        0x0000374c:    1c7f        ..      ADDS     r7,r7,#1
        0x0000374e:    9802        ..      LDR      r0,[sp,#8]
        0x00003750:    4287        .B      CMP      r7,r0
        0x00003752:    dbf5        ..      BLT      0x3740 ; _printf_core + 940
        0x00003754:    03e0        ..      LSLS     r0,r4,#15
        0x00003756:    d50c        ..      BPL      0x3772 ; _printf_core + 990
        0x00003758:    4621        !F      MOV      r1,r4
        0x0000375a:    9b1a        ..      LDR      r3,[sp,#0x68]
        0x0000375c:    9a19        ..      LDR      r2,[sp,#0x64]
        0x0000375e:    9804        ..      LDR      r0,[sp,#0x10]
        0x00003760:    f000f99e    ....    BL       _printf_pre_padding ; 0x3aa0
        0x00003764:    1945        E.      ADDS     r5,r0,r5
        0x00003766:    e004        ..      B        0x3772 ; _printf_core + 990
        0x00003768:    9a1a        ..      LDR      r2,[sp,#0x68]
        0x0000376a:    2030        0       MOVS     r0,#0x30
        0x0000376c:    9919        ..      LDR      r1,[sp,#0x64]
        0x0000376e:    4790        .G      BLX      r2
        0x00003770:    1c6d        m.      ADDS     r5,r5,#1
        0x00003772:    9900        ..      LDR      r1,[sp,#0]
        0x00003774:    1e48        H.      SUBS     r0,r1,#1
        0x00003776:    9000        ..      STR      r0,[sp,#0]
        0x00003778:    2900        .)      CMP      r1,#0
        0x0000377a:    dcf5        ..      BGT      0x3768 ; _printf_core + 980
        0x0000377c:    e008        ..      B        0x3790 ; _printf_core + 1020
        0x0000377e:    980d        ..      LDR      r0,[sp,#0x34]
        0x00003780:    990d        ..      LDR      r1,[sp,#0x34]
        0x00003782:    7800        .x      LDRB     r0,[r0,#0]
        0x00003784:    1c49        I.      ADDS     r1,r1,#1
        0x00003786:    910d        ..      STR      r1,[sp,#0x34]
        0x00003788:    9a1a        ..      LDR      r2,[sp,#0x68]
        0x0000378a:    9919        ..      LDR      r1,[sp,#0x64]
        0x0000378c:    4790        .G      BLX      r2
        0x0000378e:    1c6d        m.      ADDS     r5,r5,#1
        0x00003790:    9901        ..      LDR      r1,[sp,#4]
        0x00003792:    1e48        H.      SUBS     r0,r1,#1
        0x00003794:    9001        ..      STR      r0,[sp,#4]
        0x00003796:    2900        .)      CMP      r1,#0
        0x00003798:    dcf1        ..      BGT      0x377e ; _printf_core + 1002
        0x0000379a:    e163        c.      B        0x3a64 ; _printf_core + 1744
    $d
        0x0000379c:    00012809    .(..    DCD    75785
        0x000037a0:    33323130    0123    DCD    858927408
        0x000037a4:    37363534    4567    DCD    926299444
        0x000037a8:    62613938    89ab    DCD    1650538808
        0x000037ac:    66656463    cdef    DCD    1717920867
        0x000037b0:    00000000    ....    DCD    0
        0x000037b4:    33323130    0123    DCD    858927408
        0x000037b8:    37363534    4567    DCD    926299444
        0x000037bc:    42413938    89AB    DCD    1111570744
        0x000037c0:    46454443    CDEF    DCD    1178944579
        0x000037c4:    00000000    ....    DCD    0
    $t
        0x000037c8:    f000f95a    ..Z.    BL       _printf_post_padding ; 0x3a80
        0x000037cc:    1945        E.      ADDS     r5,r0,r5
        0x000037ce:    1c76        v.      ADDS     r6,r6,#1
        0x000037d0:    7830        0x      LDRB     r0,[r6,#0]
        0x000037d2:    2800        .(      CMP      r0,#0
        0x000037d4:    d000        ..      BEQ      0x37d8 ; _printf_core + 1092
        0x000037d6:    e5e2        ..      B        0x339e ; _printf_core + 10
        0x000037d8:    4628        (F      MOV      r0,r5
        0x000037da:    b01b        ..      ADD      sp,sp,#0x6c
        0x000037dc:    bdf0        ..      POP      {r4-r7,pc}
        0x000037de:    0760        `.      LSLS     r0,r4,#29
        0x000037e0:    d400        ..      BMI      0x37e4 ; _printf_core + 1104
        0x000037e2:    2706        .'      MOVS     r7,#6
        0x000037e4:    9818        ..      LDR      r0,[sp,#0x60]
        0x000037e6:    1dc0        ..      ADDS     r0,r0,#7
        0x000037e8:    08c1        ..      LSRS     r1,r0,#3
        0x000037ea:    00c9        ..      LSLS     r1,r1,#3
        0x000037ec:    6848        Hh      LDR      r0,[r1,#4]
        0x000037ee:    680a        .h      LDR      r2,[r1,#0]
        0x000037f0:    3108        .1      ADDS     r1,r1,#8
        0x000037f2:    0fc3        ..      LSRS     r3,r0,#31
        0x000037f4:    07db        ..      LSLS     r3,r3,#31
        0x000037f6:    9118        ..      STR      r1,[sp,#0x60]
        0x000037f8:    0019        ..      MOVS     r1,r3
        0x000037fa:    d001        ..      BEQ      0x3800 ; _printf_core + 1132
        0x000037fc:    a19c        ..      ADR      r1,{pc}+0x274 ; 0x3a70
        0x000037fe:    e008        ..      B        0x3812 ; _printf_core + 1150
        0x00003800:    0521        !.      LSLS     r1,r4,#20
        0x00003802:    d501        ..      BPL      0x3808 ; _printf_core + 1140
        0x00003804:    a19b        ..      ADR      r1,{pc}+0x270 ; 0x3a74
        0x00003806:    e004        ..      B        0x3812 ; _printf_core + 1150
        0x00003808:    07e1        ..      LSLS     r1,r4,#31
        0x0000380a:    d001        ..      BEQ      0x3810 ; _printf_core + 1148
        0x0000380c:    a19a        ..      ADR      r1,{pc}+0x26c ; 0x3a78
        0x0000380e:    e000        ..      B        0x3812 ; _printf_core + 1150
        0x00003810:    a19a        ..      ADR      r1,{pc}+0x26c ; 0x3a7c
        0x00003812:    0043        C.      LSLS     r3,r0,#1
        0x00003814:    9811        ..      LDR      r0,[sp,#0x44]
        0x00003816:    085b        [.      LSRS     r3,r3,#1
        0x00003818:    9110        ..      STR      r1,[sp,#0x40]
        0x0000381a:    2865        e(      CMP      r0,#0x65
        0x0000381c:    d00c        ..      BEQ      0x3838 ; _printf_core + 1188
        0x0000381e:    dc06        ..      BGT      0x382e ; _printf_core + 1178
        0x00003820:    2845        E(      CMP      r0,#0x45
        0x00003822:    d009        ..      BEQ      0x3838 ; _printf_core + 1188
        0x00003824:    2846        F(      CMP      r0,#0x46
        0x00003826:    d01d        ..      BEQ      0x3864 ; _printf_core + 1232
        0x00003828:    2847        G(      CMP      r0,#0x47
        0x0000382a:    d141        A.      BNE      0x38b0 ; _printf_core + 1308
        0x0000382c:    e041        A.      B        0x38b2 ; _printf_core + 1310
        0x0000382e:    2866        f(      CMP      r0,#0x66
        0x00003830:    d018        ..      BEQ      0x3864 ; _printf_core + 1232
        0x00003832:    2867        g(      CMP      r0,#0x67
        0x00003834:    d13c        <.      BNE      0x38b0 ; _printf_core + 1308
        0x00003836:    e03c        <.      B        0x38b2 ; _printf_core + 1310
        0x00003838:    2100        .!      MOVS     r1,#0
        0x0000383a:    2f11        ./      CMP      r7,#0x11
        0x0000383c:    db01        ..      BLT      0x3842 ; _printf_core + 1198
        0x0000383e:    2011        .       MOVS     r0,#0x11
        0x00003840:    e000        ..      B        0x3844 ; _printf_core + 1200
        0x00003842:    1c78        x.      ADDS     r0,r7,#1
        0x00003844:    9101        ..      STR      r1,[sp,#4]
        0x00003846:    9000        ..      STR      r0,[sp,#0]
        0x00003848:    a908        ..      ADD      r1,sp,#0x20
        0x0000384a:    a811        ..      ADD      r0,sp,#0x44
        0x0000384c:    f7fffcf6    ....    BL       _fp_digits ; 0x323c
        0x00003850:    9913        ..      LDR      r1,[sp,#0x4c]
        0x00003852:    9105        ..      STR      r1,[sp,#0x14]
        0x00003854:    2100        .!      MOVS     r1,#0
        0x00003856:    9a11        ..      LDR      r2,[sp,#0x44]
        0x00003858:    9215        ..      STR      r2,[sp,#0x54]
        0x0000385a:    1c7f        ..      ADDS     r7,r7,#1
        0x0000385c:    9812        ..      LDR      r0,[sp,#0x48]
        0x0000385e:    9701        ..      STR      r7,[sp,#4]
        0x00003860:    9100        ..      STR      r1,[sp,#0]
        0x00003862:    e050        P.      B        0x3906 ; _printf_core + 1394
        0x00003864:    2001        .       MOVS     r0,#1
        0x00003866:    07c0        ..      LSLS     r0,r0,#31
        0x00003868:    9003        ..      STR      r0,[sp,#0xc]
        0x0000386a:    2001        .       MOVS     r0,#1
        0x0000386c:    9001        ..      STR      r0,[sp,#4]
        0x0000386e:    a908        ..      ADD      r1,sp,#0x20
        0x00003870:    9700        ..      STR      r7,[sp,#0]
        0x00003872:    a811        ..      ADD      r0,sp,#0x44
        0x00003874:    f7fffce2    ....    BL       _fp_digits ; 0x323c
        0x00003878:    9a13        ..      LDR      r2,[sp,#0x4c]
        0x0000387a:    9914        ..      LDR      r1,[sp,#0x50]
        0x0000387c:    9205        ..      STR      r2,[sp,#0x14]
        0x0000387e:    2200        ."      MOVS     r2,#0
        0x00003880:    9b11        ..      LDR      r3,[sp,#0x44]
        0x00003882:    9200        ..      STR      r2,[sp,#0]
        0x00003884:    9812        ..      LDR      r0,[sp,#0x48]
        0x00003886:    9315        ..      STR      r3,[sp,#0x54]
        0x00003888:    9a05        ..      LDR      r2,[sp,#0x14]
        0x0000388a:    9201        ..      STR      r2,[sp,#4]
        0x0000388c:    2900        .)      CMP      r1,#0
        0x0000388e:    d001        ..      BEQ      0x3894 ; _printf_core + 1280
        0x00003890:    4610        .F      MOV      r0,r2
        0x00003892:    e002        ..      B        0x389a ; _printf_core + 1286
        0x00003894:    1c79        y.      ADDS     r1,r7,#1
        0x00003896:    1840        @.      ADDS     r0,r0,r1
        0x00003898:    9001        ..      STR      r0,[sp,#4]
        0x0000389a:    1a38        8.      SUBS     r0,r7,r0
        0x0000389c:    d501        ..      BPL      0x38a2 ; _printf_core + 1294
        0x0000389e:    9801        ..      LDR      r0,[sp,#4]
        0x000038a0:    e004        ..      B        0x38ac ; _printf_core + 1304
        0x000038a2:    4240        @B      RSBS     r0,r0,#0
        0x000038a4:    1e40        @.      SUBS     r0,r0,#1
        0x000038a6:    9000        ..      STR      r0,[sp,#0]
        0x000038a8:    1c78        x.      ADDS     r0,r7,#1
        0x000038aa:    9001        ..      STR      r0,[sp,#4]
        0x000038ac:    1bc0        ..      SUBS     r0,r0,r7
        0x000038ae:    9002        ..      STR      r0,[sp,#8]
        0x000038b0:    e043        C.      B        0x393a ; _printf_core + 1446
        0x000038b2:    2f01        ./      CMP      r7,#1
        0x000038b4:    da00        ..      BGE      0x38b8 ; _printf_core + 1316
        0x000038b6:    2701        .'      MOVS     r7,#1
        0x000038b8:    2100        .!      MOVS     r1,#0
        0x000038ba:    2f11        ./      CMP      r7,#0x11
        0x000038bc:    dd01        ..      BLE      0x38c2 ; _printf_core + 1326
        0x000038be:    2011        .       MOVS     r0,#0x11
        0x000038c0:    e000        ..      B        0x38c4 ; _printf_core + 1328
        0x000038c2:    4638        8F      MOV      r0,r7
        0x000038c4:    9101        ..      STR      r1,[sp,#4]
        0x000038c6:    9000        ..      STR      r0,[sp,#0]
        0x000038c8:    a908        ..      ADD      r1,sp,#0x20
        0x000038ca:    a811        ..      ADD      r0,sp,#0x44
        0x000038cc:    f7fffcb6    ....    BL       _fp_digits ; 0x323c
        0x000038d0:    9913        ..      LDR      r1,[sp,#0x4c]
        0x000038d2:    9105        ..      STR      r1,[sp,#0x14]
        0x000038d4:    9a11        ..      LDR      r2,[sp,#0x44]
        0x000038d6:    2100        .!      MOVS     r1,#0
        0x000038d8:    9812        ..      LDR      r0,[sp,#0x48]
        0x000038da:    9215        ..      STR      r2,[sp,#0x54]
        0x000038dc:    9100        ..      STR      r1,[sp,#0]
        0x000038de:    9701        ..      STR      r7,[sp,#4]
        0x000038e0:    0721        !.      LSLS     r1,r4,#28
        0x000038e2:    d40c        ..      BMI      0x38fe ; _printf_core + 1386
        0x000038e4:    9905        ..      LDR      r1,[sp,#0x14]
        0x000038e6:    42b9        .B      CMP      r1,r7
        0x000038e8:    db01        ..      BLT      0x38ee ; _printf_core + 1370
        0x000038ea:    9901        ..      LDR      r1,[sp,#4]
        0x000038ec:    e000        ..      B        0x38f0 ; _printf_core + 1372
        0x000038ee:    9101        ..      STR      r1,[sp,#4]
        0x000038f0:    2901        .)      CMP      r1,#1
        0x000038f2:    dd04        ..      BLE      0x38fe ; _printf_core + 1386
        0x000038f4:    9a15        ..      LDR      r2,[sp,#0x54]
        0x000038f6:    1e49        I.      SUBS     r1,r1,#1
        0x000038f8:    5c51        Q\      LDRB     r1,[r2,r1]
        0x000038fa:    2930        0)      CMP      r1,#0x30
        0x000038fc:    d006        ..      BEQ      0x390c ; _printf_core + 1400
        0x000038fe:    42b8        .B      CMP      r0,r7
        0x00003900:    da01        ..      BGE      0x3906 ; _printf_core + 1394
        0x00003902:    1d01        ..      ADDS     r1,r0,#4
        0x00003904:    da05        ..      BGE      0x3912 ; _printf_core + 1406
        0x00003906:    2101        .!      MOVS     r1,#1
        0x00003908:    9102        ..      STR      r1,[sp,#8]
        0x0000390a:    e015        ..      B        0x3938 ; _printf_core + 1444
        0x0000390c:    9901        ..      LDR      r1,[sp,#4]
        0x0000390e:    1e49        I.      SUBS     r1,r1,#1
        0x00003910:    e7ed        ..      B        0x38ee ; _printf_core + 1370
        0x00003912:    2800        .(      CMP      r0,#0
        0x00003914:    dc05        ..      BGT      0x3922 ; _printf_core + 1422
        0x00003916:    9900        ..      LDR      r1,[sp,#0]
        0x00003918:    1841        A.      ADDS     r1,r0,r1
        0x0000391a:    9100        ..      STR      r1,[sp,#0]
        0x0000391c:    9901        ..      LDR      r1,[sp,#4]
        0x0000391e:    1a09        ..      SUBS     r1,r1,r0
        0x00003920:    e003        ..      B        0x392a ; _printf_core + 1430
        0x00003922:    9a01        ..      LDR      r2,[sp,#4]
        0x00003924:    1c41        A.      ADDS     r1,r0,#1
        0x00003926:    4291        .B      CMP      r1,r2
        0x00003928:    dd00        ..      BLE      0x392c ; _printf_core + 1432
        0x0000392a:    9101        ..      STR      r1,[sp,#4]
        0x0000392c:    9900        ..      LDR      r1,[sp,#0]
        0x0000392e:    1a40        @.      SUBS     r0,r0,r1
        0x00003930:    1c40        @.      ADDS     r0,r0,#1
        0x00003932:    9002        ..      STR      r0,[sp,#8]
        0x00003934:    2001        .       MOVS     r0,#1
        0x00003936:    07c0        ..      LSLS     r0,r0,#31
        0x00003938:    9003        ..      STR      r0,[sp,#0xc]
        0x0000393a:    0720         .      LSLS     r0,r4,#28
        0x0000393c:    d406        ..      BMI      0x394c ; _printf_core + 1464
        0x0000393e:    9902        ..      LDR      r1,[sp,#8]
        0x00003940:    9801        ..      LDR      r0,[sp,#4]
        0x00003942:    4281        .B      CMP      r1,r0
        0x00003944:    db02        ..      BLT      0x394c ; _printf_core + 1464
        0x00003946:    2000        .       MOVS     r0,#0
        0x00003948:    43c0        .C      MVNS     r0,r0
        0x0000394a:    9002        ..      STR      r0,[sp,#8]
        0x0000394c:    2000        .       MOVS     r0,#0
        0x0000394e:    4669        iF      MOV      r1,sp
        0x00003950:    77c8        .w      STRB     r0,[r1,#0x1f]
        0x00003952:    af07        ..      ADD      r7,sp,#0x1c
        0x00003954:    2101        .!      MOVS     r1,#1
        0x00003956:    9803        ..      LDR      r0,[sp,#0xc]
        0x00003958:    3703        .7      ADDS     r7,#3
        0x0000395a:    07c9        ..      LSLS     r1,r1,#31
        0x0000395c:    4288        .B      CMP      r0,r1
        0x0000395e:    d024        $.      BEQ      0x39aa ; _printf_core + 1558
        0x00003960:    2002        .       MOVS     r0,#2
        0x00003962:    9011        ..      STR      r0,[sp,#0x44]
        0x00003964:    202b        +       MOVS     r0,#0x2b
        0x00003966:    9012        ..      STR      r0,[sp,#0x48]
        0x00003968:    9803        ..      LDR      r0,[sp,#0xc]
        0x0000396a:    2800        .(      CMP      r0,#0
        0x0000396c:    da0c        ..      BGE      0x3988 ; _printf_core + 1524
        0x0000396e:    4240        @B      RSBS     r0,r0,#0
        0x00003970:    9003        ..      STR      r0,[sp,#0xc]
        0x00003972:    202d        -       MOVS     r0,#0x2d
        0x00003974:    9012        ..      STR      r0,[sp,#0x48]
        0x00003976:    e007        ..      B        0x3988 ; _printf_core + 1524
        0x00003978:    210a        .!      MOVS     r1,#0xa
        0x0000397a:    9803        ..      LDR      r0,[sp,#0xc]
        0x0000397c:    f7fefbbe    ....    BL       __aeabi_uidiv ; 0x20fc
        0x00003980:    3130        01      ADDS     r1,r1,#0x30
        0x00003982:    1e7f        ..      SUBS     r7,r7,#1
        0x00003984:    9003        ..      STR      r0,[sp,#0xc]
        0x00003986:    7039        9p      STRB     r1,[r7,#0]
        0x00003988:    9911        ..      LDR      r1,[sp,#0x44]
        0x0000398a:    1e48        H.      SUBS     r0,r1,#1
        0x0000398c:    9011        ..      STR      r0,[sp,#0x44]
        0x0000398e:    2900        .)      CMP      r1,#0
        0x00003990:    dcf2        ..      BGT      0x3978 ; _printf_core + 1508
        0x00003992:    9803        ..      LDR      r0,[sp,#0xc]
        0x00003994:    2800        .(      CMP      r0,#0
        0x00003996:    d1ef        ..      BNE      0x3978 ; _printf_core + 1508
        0x00003998:    1e79        y.      SUBS     r1,r7,#1
        0x0000399a:    9812        ..      LDR      r0,[sp,#0x48]
        0x0000399c:    7008        .p      STRB     r0,[r1,#0]
        0x0000399e:    7830        0x      LDRB     r0,[r6,#0]
        0x000039a0:    2120         !      MOVS     r1,#0x20
        0x000039a2:    4008        .@      ANDS     r0,r0,r1
        0x000039a4:    3045        E0      ADDS     r0,r0,#0x45
        0x000039a6:    1ebf        ..      SUBS     r7,r7,#2
        0x000039a8:    7038        8p      STRB     r0,[r7,#0]
        0x000039aa:    a806        ..      ADD      r0,sp,#0x18
        0x000039ac:    1bc0        ..      SUBS     r0,r0,r7
        0x000039ae:    1dc0        ..      ADDS     r0,r0,#7
        0x000039b0:    9003        ..      STR      r0,[sp,#0xc]
        0x000039b2:    9810        ..      LDR      r0,[sp,#0x40]
        0x000039b4:    7800        .x      LDRB     r0,[r0,#0]
        0x000039b6:    2800        .(      CMP      r0,#0
        0x000039b8:    d000        ..      BEQ      0x39bc ; _printf_core + 1576
        0x000039ba:    2001        .       MOVS     r0,#1
        0x000039bc:    9901        ..      LDR      r1,[sp,#4]
        0x000039be:    1841        A.      ADDS     r1,r0,r1
        0x000039c0:    9802        ..      LDR      r0,[sp,#8]
        0x000039c2:    17c0        ..      ASRS     r0,r0,#31
        0x000039c4:    1809        ..      ADDS     r1,r1,r0
        0x000039c6:    9803        ..      LDR      r0,[sp,#0xc]
        0x000039c8:    1809        ..      ADDS     r1,r1,r0
        0x000039ca:    9804        ..      LDR      r0,[sp,#0x10]
        0x000039cc:    1a40        @.      SUBS     r0,r0,r1
        0x000039ce:    1e40        @.      SUBS     r0,r0,#1
        0x000039d0:    9004        ..      STR      r0,[sp,#0x10]
        0x000039d2:    03e0        ..      LSLS     r0,r4,#15
        0x000039d4:    d406        ..      BMI      0x39e4 ; _printf_core + 1616
        0x000039d6:    4621        !F      MOV      r1,r4
        0x000039d8:    9b1a        ..      LDR      r3,[sp,#0x68]
        0x000039da:    9a19        ..      LDR      r2,[sp,#0x64]
        0x000039dc:    9804        ..      LDR      r0,[sp,#0x10]
        0x000039de:    f000f85f    .._.    BL       _printf_pre_padding ; 0x3aa0
        0x000039e2:    1945        E.      ADDS     r5,r0,r5
        0x000039e4:    9810        ..      LDR      r0,[sp,#0x40]
        0x000039e6:    7800        .x      LDRB     r0,[r0,#0]
        0x000039e8:    2800        .(      CMP      r0,#0
        0x000039ea:    d003        ..      BEQ      0x39f4 ; _printf_core + 1632
        0x000039ec:    9a1a        ..      LDR      r2,[sp,#0x68]
        0x000039ee:    9919        ..      LDR      r1,[sp,#0x64]
        0x000039f0:    4790        .G      BLX      r2
        0x000039f2:    1c6d        m.      ADDS     r5,r5,#1
        0x000039f4:    03e0        ..      LSLS     r0,r4,#15
        0x000039f6:    d524        $.      BPL      0x3a42 ; _printf_core + 1710
        0x000039f8:    4621        !F      MOV      r1,r4
        0x000039fa:    9b1a        ..      LDR      r3,[sp,#0x68]
        0x000039fc:    9a19        ..      LDR      r2,[sp,#0x64]
        0x000039fe:    9804        ..      LDR      r0,[sp,#0x10]
        0x00003a00:    f000f84e    ..N.    BL       _printf_pre_padding ; 0x3aa0
        0x00003a04:    1945        E.      ADDS     r5,r0,r5
        0x00003a06:    e01c        ..      B        0x3a42 ; _printf_core + 1710
        0x00003a08:    9800        ..      LDR      r0,[sp,#0]
        0x00003a0a:    2800        .(      CMP      r0,#0
        0x00003a0c:    db07        ..      BLT      0x3a1e ; _printf_core + 1674
        0x00003a0e:    9900        ..      LDR      r1,[sp,#0]
        0x00003a10:    9805        ..      LDR      r0,[sp,#0x14]
        0x00003a12:    4288        .B      CMP      r0,r1
        0x00003a14:    dd03        ..      BLE      0x3a1e ; _printf_core + 1674
        0x00003a16:    9815        ..      LDR      r0,[sp,#0x54]
        0x00003a18:    5c40        @\      LDRB     r0,[r0,r1]
        0x00003a1a:    9919        ..      LDR      r1,[sp,#0x64]
        0x00003a1c:    e001        ..      B        0x3a22 ; _printf_core + 1678
        0x00003a1e:    9919        ..      LDR      r1,[sp,#0x64]
        0x00003a20:    2030        0       MOVS     r0,#0x30
        0x00003a22:    9a1a        ..      LDR      r2,[sp,#0x68]
        0x00003a24:    4790        .G      BLX      r2
        0x00003a26:    9800        ..      LDR      r0,[sp,#0]
        0x00003a28:    1c6d        m.      ADDS     r5,r5,#1
        0x00003a2a:    1c40        @.      ADDS     r0,r0,#1
        0x00003a2c:    9000        ..      STR      r0,[sp,#0]
        0x00003a2e:    9802        ..      LDR      r0,[sp,#8]
        0x00003a30:    1e40        @.      SUBS     r0,r0,#1
        0x00003a32:    9002        ..      STR      r0,[sp,#8]
        0x00003a34:    2800        .(      CMP      r0,#0
        0x00003a36:    d104        ..      BNE      0x3a42 ; _printf_core + 1710
        0x00003a38:    9a1a        ..      LDR      r2,[sp,#0x68]
        0x00003a3a:    202e        .       MOVS     r0,#0x2e
        0x00003a3c:    9919        ..      LDR      r1,[sp,#0x64]
        0x00003a3e:    4790        .G      BLX      r2
        0x00003a40:    1c6d        m.      ADDS     r5,r5,#1
        0x00003a42:    9901        ..      LDR      r1,[sp,#4]
        0x00003a44:    1e48        H.      SUBS     r0,r1,#1
        0x00003a46:    9001        ..      STR      r0,[sp,#4]
        0x00003a48:    2900        .)      CMP      r1,#0
        0x00003a4a:    dcdd        ..      BGT      0x3a08 ; _printf_core + 1652
        0x00003a4c:    e005        ..      B        0x3a5a ; _printf_core + 1734
        0x00003a4e:    7838        8x      LDRB     r0,[r7,#0]
        0x00003a50:    9a1a        ..      LDR      r2,[sp,#0x68]
        0x00003a52:    1c7f        ..      ADDS     r7,r7,#1
        0x00003a54:    9919        ..      LDR      r1,[sp,#0x64]
        0x00003a56:    4790        .G      BLX      r2
        0x00003a58:    1c6d        m.      ADDS     r5,r5,#1
        0x00003a5a:    9903        ..      LDR      r1,[sp,#0xc]
        0x00003a5c:    1e48        H.      SUBS     r0,r1,#1
        0x00003a5e:    9003        ..      STR      r0,[sp,#0xc]
        0x00003a60:    2900        .)      CMP      r1,#0
        0x00003a62:    dcf4        ..      BGT      0x3a4e ; _printf_core + 1722
        0x00003a64:    4621        !F      MOV      r1,r4
        0x00003a66:    9b1a        ..      LDR      r3,[sp,#0x68]
        0x00003a68:    9a19        ..      LDR      r2,[sp,#0x64]
        0x00003a6a:    9804        ..      LDR      r0,[sp,#0x10]
        0x00003a6c:    e6ac        ..      B        0x37c8 ; _printf_core + 1076
    $d
        0x00003a6e:    0000        ..      DCW    0
        0x00003a70:    0000002d    -...    DCD    45
        0x00003a74:    0000002b    +...    DCD    43
        0x00003a78:    00000020     ...    DCD    32
        0x00003a7c:    00000000    ....    DCD    0
    $t
    i._printf_post_padding
    _printf_post_padding
        0x00003a80:    b5f8        ..      PUSH     {r3-r7,lr}
        0x00003a82:    4604        .F      MOV      r4,r0
        0x00003a84:    2500        .%      MOVS     r5,#0
        0x00003a86:    461e        .F      MOV      r6,r3
        0x00003a88:    4617        .F      MOV      r7,r2
        0x00003a8a:    0488        ..      LSLS     r0,r1,#18
        0x00003a8c:    d404        ..      BMI      0x3a98 ; _printf_post_padding + 24
        0x00003a8e:    e005        ..      B        0x3a9c ; _printf_post_padding + 28
        0x00003a90:    4639        9F      MOV      r1,r7
        0x00003a92:    2020                MOVS     r0,#0x20
        0x00003a94:    47b0        .G      BLX      r6
        0x00003a96:    1c6d        m.      ADDS     r5,r5,#1
        0x00003a98:    1e64        d.      SUBS     r4,r4,#1
        0x00003a9a:    d5f9        ..      BPL      0x3a90 ; _printf_post_padding + 16
        0x00003a9c:    4628        (F      MOV      r0,r5
        0x00003a9e:    bdf8        ..      POP      {r3-r7,pc}
    i._printf_pre_padding
    _printf_pre_padding
        0x00003aa0:    b5ff        ..      PUSH     {r0-r7,lr}
        0x00003aa2:    4604        .F      MOV      r4,r0
        0x00003aa4:    2500        .%      MOVS     r5,#0
        0x00003aa6:    b081        ..      SUB      sp,sp,#4
        0x00003aa8:    461e        .F      MOV      r6,r3
        0x00003aaa:    03c8        ..      LSLS     r0,r1,#15
        0x00003aac:    d501        ..      BPL      0x3ab2 ; _printf_pre_padding + 18
        0x00003aae:    2730        0'      MOVS     r7,#0x30
        0x00003ab0:    e000        ..      B        0x3ab4 ; _printf_pre_padding + 20
        0x00003ab2:    2720         '      MOVS     r7,#0x20
        0x00003ab4:    0488        ..      LSLS     r0,r1,#18
        0x00003ab6:    d504        ..      BPL      0x3ac2 ; _printf_pre_padding + 34
        0x00003ab8:    e005        ..      B        0x3ac6 ; _printf_pre_padding + 38
        0x00003aba:    4638        8F      MOV      r0,r7
        0x00003abc:    9903        ..      LDR      r1,[sp,#0xc]
        0x00003abe:    47b0        .G      BLX      r6
        0x00003ac0:    1c6d        m.      ADDS     r5,r5,#1
        0x00003ac2:    1e64        d.      SUBS     r4,r4,#1
        0x00003ac4:    d5f9        ..      BPL      0x3aba ; _printf_pre_padding + 26
        0x00003ac6:    4628        (F      MOV      r0,r5
        0x00003ac8:    b005        ..      ADD      sp,sp,#0x14
        0x00003aca:    bdf0        ..      POP      {r4-r7,pc}
    i.asinf
    asinf
        0x00003acc:    b5f8        ..      PUSH     {r3-r7,lr}
        0x00003ace:    4604        .F      MOV      r4,r0
        0x00003ad0:    2147        G!      MOVS     r1,#0x47
        0x00003ad2:    0040        @.      LSLS     r0,r0,#1
        0x00003ad4:    0649        I.      LSLS     r1,r1,#25
        0x00003ad6:    220d        ."      MOVS     r2,#0xd
        0x00003ad8:    1841        A.      ADDS     r1,r0,r1
        0x00003ada:    0612        ..      LSLS     r2,r2,#24
        0x00003adc:    4291        .B      CMP      r1,r2
        0x00003ade:    d853        S.      BHI      0x3b88 ; asinf + 188
        0x00003ae0:    213f        ?!      MOVS     r1,#0x3f
        0x00003ae2:    0649        I.      LSLS     r1,r1,#25
        0x00003ae4:    4288        .B      CMP      r0,r1
        0x00003ae6:    d91b        ..      BLS      0x3b20 ; asinf + 84
        0x00003ae8:    0060        `.      LSLS     r0,r4,#1
        0x00003aea:    217f        .!      MOVS     r1,#0x7f
        0x00003aec:    0840        @.      LSRS     r0,r0,#1
        0x00003aee:    05c9        ..      LSLS     r1,r1,#23
        0x00003af0:    f7fefb83    ....    BL       __aeabi_frsub ; 0x21fa
        0x00003af4:    2100        .!      MOVS     r1,#0
        0x00003af6:    43c9        .C      MVNS     r1,r1
        0x00003af8:    f7fefbfe    ....    BL       __ARM_scalbnf ; 0x22f8
        0x00003afc:    4607        .F      MOV      r7,r0
        0x00003afe:    f000fa39    ..9.    BL       sqrtf ; 0x3f74
        0x00003b02:    2c00        .,      CMP      r4,#0
        0x00003b04:    da04        ..      BGE      0x3b10 ; asinf + 68
        0x00003b06:    4d2f        /M      LDR      r5,[pc,#188] ; [0x3bc4] = 0xb9fdaa22
        0x00003b08:    4e2d        -N      LDR      r6,[pc,#180] ; [0x3bc0] = 0xbfc90000
        0x00003b0a:    07a9        ..      LSLS     r1,r5,#30
        0x00003b0c:    4048        H@      EORS     r0,r0,r1
        0x00003b0e:    e001        ..      B        0x3b14 ; asinf + 72
        0x00003b10:    4e2d        -N      LDR      r6,[pc,#180] ; [0x3bc8] = 0x3fc90000
        0x00003b12:    4d2e        .M      LDR      r5,[pc,#184] ; [0x3bcc] = 0x39fdaa22
        0x00003b14:    2103        .!      MOVS     r1,#3
        0x00003b16:    0789        ..      LSLS     r1,r1,#30
        0x00003b18:    f7fefb73    ..s.    BL       __aeabi_fmul ; 0x2202
        0x00003b1c:    4604        .F      MOV      r4,r0
        0x00003b1e:    e006        ..      B        0x3b2e ; asinf + 98
        0x00003b20:    2600        .&      MOVS     r6,#0
        0x00003b22:    4621        !F      MOV      r1,r4
        0x00003b24:    4635        5F      MOV      r5,r6
        0x00003b26:    4608        .F      MOV      r0,r1
        0x00003b28:    f7fefb6b    ..k.    BL       __aeabi_fmul ; 0x2202
        0x00003b2c:    4607        .F      MOV      r7,r0
        0x00003b2e:    4928        (I      LDR      r1,[pc,#160] ; [0x3bd0] = 0x3d1cfe24
        0x00003b30:    4638        8F      MOV      r0,r7
        0x00003b32:    f7fefb66    ..f.    BL       __aeabi_fmul ; 0x2202
        0x00003b36:    4927        'I      LDR      r1,[pc,#156] ; [0x3bd4] = 0x3cd88ac7
        0x00003b38:    f7fefb0a    ....    BL       __aeabi_fadd ; 0x2150
        0x00003b3c:    4639        9F      MOV      r1,r7
        0x00003b3e:    f7fefb60    ..`.    BL       __aeabi_fmul ; 0x2202
        0x00003b42:    4925        %I      LDR      r1,[pc,#148] ; [0x3bd8] = 0x3d38671e
        0x00003b44:    f7fefb04    ....    BL       __aeabi_fadd ; 0x2150
        0x00003b48:    4639        9F      MOV      r1,r7
        0x00003b4a:    f7fefb5a    ..Z.    BL       __aeabi_fmul ; 0x2202
        0x00003b4e:    4923        #I      LDR      r1,[pc,#140] ; [0x3bdc] = 0x3d99931b
        0x00003b50:    f7fefafe    ....    BL       __aeabi_fadd ; 0x2150
        0x00003b54:    4639        9F      MOV      r1,r7
        0x00003b56:    f7fefb54    ..T.    BL       __aeabi_fmul ; 0x2202
        0x00003b5a:    4921        !I      LDR      r1,[pc,#132] ; [0x3be0] = 0x3e2aaaaf
        0x00003b5c:    f7fefaf8    ....    BL       __aeabi_fadd ; 0x2150
        0x00003b60:    9000        ..      STR      r0,[sp,#0]
        0x00003b62:    4639        9F      MOV      r1,r7
        0x00003b64:    4620         F      MOV      r0,r4
        0x00003b66:    f7fefb4c    ..L.    BL       __aeabi_fmul ; 0x2202
        0x00003b6a:    9900        ..      LDR      r1,[sp,#0]
        0x00003b6c:    f7fefb49    ..I.    BL       __aeabi_fmul ; 0x2202
        0x00003b70:    4607        .F      MOV      r7,r0
        0x00003b72:    4629        )F      MOV      r1,r5
        0x00003b74:    4620         F      MOV      r0,r4
        0x00003b76:    f7fefaeb    ....    BL       __aeabi_fadd ; 0x2150
        0x00003b7a:    4639        9F      MOV      r1,r7
        0x00003b7c:    f7fefae8    ....    BL       __aeabi_fadd ; 0x2150
        0x00003b80:    4631        1F      MOV      r1,r6
        0x00003b82:    f7fefae5    ....    BL       __aeabi_fadd ; 0x2150
        0x00003b86:    bdf8        ..      POP      {r3-r7,pc}
        0x00003b88:    2139        9!      MOVS     r1,#0x39
        0x00003b8a:    0649        I.      LSLS     r1,r1,#25
        0x00003b8c:    4288        .B      CMP      r0,r1
        0x00003b8e:    d208        ..      BCS      0x3ba2 ; asinf + 214
        0x00003b90:    4620         F      MOV      r0,r4
        0x00003b92:    f7feffe9    ....    BL       __ARM_fpclassifyf ; 0x2b68
        0x00003b96:    2804        .(      CMP      r0,#4
        0x00003b98:    d101        ..      BNE      0x3b9e ; asinf + 210
        0x00003b9a:    f7fffb32    ..2.    BL       __mathlib_flt_underflow ; 0x3202
        0x00003b9e:    4620         F      MOV      r0,r4
        0x00003ba0:    bdf8        ..      POP      {r3-r7,pc}
        0x00003ba2:    21ff        .!      MOVS     r1,#0xff
        0x00003ba4:    0609        ..      LSLS     r1,r1,#24
        0x00003ba6:    4288        .B      CMP      r0,r1
        0x00003ba8:    d903        ..      BLS      0x3bb2 ; asinf + 230
        0x00003baa:    4620         F      MOV      r0,r4
        0x00003bac:    f7fffb1a    ....    BL       __mathlib_flt_infnan ; 0x31e4
        0x00003bb0:    bdf8        ..      POP      {r3-r7,pc}
        0x00003bb2:    2001        .       MOVS     r0,#1
        0x00003bb4:    f7fffb3c    ..<.    BL       __set_errno ; 0x3230
        0x00003bb8:    f7fffb1d    ....    BL       __mathlib_flt_invalid ; 0x31f6
        0x00003bbc:    bdf8        ..      POP      {r3-r7,pc}
    $d
        0x00003bbe:    0000        ..      DCW    0
        0x00003bc0:    bfc90000    ....    DCD    3217620992
        0x00003bc4:    b9fdaa22    "...    DCD    3120409122
        0x00003bc8:    3fc90000    ...?    DCD    1070137344
        0x00003bcc:    39fdaa22    "..9    DCD    972925474
        0x00003bd0:    3d1cfe24    $..=    DCD    1025310244
        0x00003bd4:    3cd88ac7    ...<    DCD    1020824263
        0x00003bd8:    3d38671e    .g8=    DCD    1027106590
        0x00003bdc:    3d99931b    ...=    DCD    1033474843
        0x00003be0:    3e2aaaaf    ..*>    DCD    1042983599
    $t
    i.atan2f
    atan2f
        0x00003be4:    b5f0        ..      PUSH     {r4-r7,lr}
        0x00003be6:    460c        .F      MOV      r4,r1
        0x00003be8:    4601        .F      MOV      r1,r0
        0x00003bea:    221d        ."      MOVS     r2,#0x1d
        0x00003bec:    004b        K.      LSLS     r3,r1,#1
        0x00003bee:    06d2        ..      LSLS     r2,r2,#27
        0x00003bf0:    189f        ..      ADDS     r7,r3,r2
        0x00003bf2:    26e5        .&      MOVS     r6,#0xe5
        0x00003bf4:    4605        .F      MOV      r5,r0
        0x00003bf6:    0636        6.      LSLS     r6,r6,#24
        0x00003bf8:    0062        b.      LSLS     r2,r4,#1
        0x00003bfa:    b087        ..      SUB      sp,sp,#0x1c
        0x00003bfc:    4620         F      MOV      r0,r4
        0x00003bfe:    42b7        .B      CMP      r7,r6
        0x00003c00:    d27d        }.      BCS      0x3cfe ; atan2f + 282
        0x00003c02:    271d        .'      MOVS     r7,#0x1d
        0x00003c04:    06ff        ..      LSLS     r7,r7,#27
        0x00003c06:    19d7        ..      ADDS     r7,r2,r7
        0x00003c08:    42b7        .B      CMP      r7,r6
        0x00003c0a:    d278        x.      BCS      0x3cfe ; atan2f + 282
        0x00003c0c:    004f        O.      LSLS     r7,r1,#1
        0x00003c0e:    0043        C.      LSLS     r3,r0,#1
        0x00003c10:    0e3e        >.      LSRS     r6,r7,#24
        0x00003c12:    0e1a        ..      LSRS     r2,r3,#24
        0x00003c14:    1ab2        ..      SUBS     r2,r6,r2
        0x00003c16:    2a1b        .*      CMP      r2,#0x1b
        0x00003c18:    dd07        ..      BLE      0x3c2a ; atan2f + 70
        0x00003c1a:    2900        .)      CMP      r1,#0
        0x00003c1c:    da02        ..      BGE      0x3c24 ; atan2f + 64
        0x00003c1e:    4875        uH      LDR      r0,[pc,#468] ; [0x3df4] = 0xbfc90fdb
        0x00003c20:    b007        ..      ADD      sp,sp,#0x1c
        0x00003c22:    bdf0        ..      POP      {r4-r7,pc}
        0x00003c24:    4874        tH      LDR      r0,[pc,#464] ; [0x3df8] = 0x3fc90fdb
        0x00003c26:    b007        ..      ADD      sp,sp,#0x1c
        0x00003c28:    bdf0        ..      POP      {r4-r7,pc}
        0x00003c2a:    261a        .&      MOVS     r6,#0x1a
        0x00003c2c:    42f2        .B      CMN      r2,r6
        0x00003c2e:    da17        ..      BGE      0x3c60 ; atan2f + 124
        0x00003c30:    2800        .(      CMP      r0,#0
        0x00003c32:    da07        ..      BGE      0x3c44 ; atan2f + 96
        0x00003c34:    2900        .)      CMP      r1,#0
        0x00003c36:    da02        ..      BGE      0x3c3e ; atan2f + 90
        0x00003c38:    4870        pH      LDR      r0,[pc,#448] ; [0x3dfc] = 0xc0490fdb
        0x00003c3a:    b007        ..      ADD      sp,sp,#0x1c
        0x00003c3c:    bdf0        ..      POP      {r4-r7,pc}
        0x00003c3e:    4870        pH      LDR      r0,[pc,#448] ; [0x3e00] = 0x40490fdb
        0x00003c40:    b007        ..      ADD      sp,sp,#0x1c
        0x00003c42:    bdf0        ..      POP      {r4-r7,pc}
        0x00003c44:    4621        !F      MOV      r1,r4
        0x00003c46:    4628        (F      MOV      r0,r5
        0x00003c48:    f7fefb18    ....    BL       __aeabi_fdiv ; 0x227c
        0x00003c4c:    4604        .F      MOV      r4,r0
        0x00003c4e:    f7feff8b    ....    BL       __ARM_fpclassifyf ; 0x2b68
        0x00003c52:    2804        .(      CMP      r0,#4
        0x00003c54:    d101        ..      BNE      0x3c5a ; atan2f + 118
        0x00003c56:    f7fffad4    ....    BL       __mathlib_flt_underflow ; 0x3202
        0x00003c5a:    4620         F      MOV      r0,r4
        0x00003c5c:    b007        ..      ADD      sp,sp,#0x1c
        0x00003c5e:    bdf0        ..      POP      {r4-r7,pc}
        0x00003c60:    429f        .B      CMP      r7,r3
        0x00003c62:    d911        ..      BLS      0x3c88 ; atan2f + 164
        0x00003c64:    2900        .)      CMP      r1,#0
        0x00003c66:    da02        ..      BGE      0x3c6e ; atan2f + 138
        0x00003c68:    4f66        fO      LDR      r7,[pc,#408] ; [0x3e04] = 0xbfc90000
        0x00003c6a:    4e67        gN      LDR      r6,[pc,#412] ; [0x3e08] = 0xb9fdaa22
        0x00003c6c:    e001        ..      B        0x3c72 ; atan2f + 142
        0x00003c6e:    4f67        gO      LDR      r7,[pc,#412] ; [0x3e0c] = 0x3fc90000
        0x00003c70:    4e67        gN      LDR      r6,[pc,#412] ; [0x3e10] = 0x39fdaa22
        0x00003c72:    4623        #F      MOV      r3,r4
        0x00003c74:    462c        ,F      MOV      r4,r5
        0x00003c76:    461d        .F      MOV      r5,r3
        0x00003c78:    2201        ."      MOVS     r2,#1
        0x00003c7a:    4603        .F      MOV      r3,r0
        0x00003c7c:    07d2        ..      LSLS     r2,r2,#31
        0x00003c7e:    4608        .F      MOV      r0,r1
        0x00003c80:    4054        T@      EORS     r4,r4,r2
        0x00003c82:    4050        P@      EORS     r0,r0,r2
        0x00003c84:    4619        .F      MOV      r1,r3
        0x00003c86:    e00b        ..      B        0x3ca0 ; atan2f + 188
        0x00003c88:    2800        .(      CMP      r0,#0
        0x00003c8a:    da07        ..      BGE      0x3c9c ; atan2f + 184
        0x00003c8c:    2900        .)      CMP      r1,#0
        0x00003c8e:    da02        ..      BGE      0x3c96 ; atan2f + 178
        0x00003c90:    4f60        `O      LDR      r7,[pc,#384] ; [0x3e14] = 0xc0490000
        0x00003c92:    4e61        aN      LDR      r6,[pc,#388] ; [0x3e18] = 0xba7daa22
        0x00003c94:    e004        ..      B        0x3ca0 ; atan2f + 188
        0x00003c96:    4f61        aO      LDR      r7,[pc,#388] ; [0x3e1c] = 0x40490000
        0x00003c98:    4e61        aN      LDR      r6,[pc,#388] ; [0x3e20] = 0x3a7daa22
        0x00003c9a:    e001        ..      B        0x3ca0 ; atan2f + 188
        0x00003c9c:    2600        .&      MOVS     r6,#0
        0x00003c9e:    4637        7F      MOV      r7,r6
        0x00003ca0:    1a42        B.      SUBS     r2,r0,r1
        0x00003ca2:    2301        .#      MOVS     r3,#1
        0x00003ca4:    0052        R.      LSLS     r2,r2,#1
        0x00003ca6:    061b        ..      LSLS     r3,r3,#24
        0x00003ca8:    429a        .B      CMP      r2,r3
        0x00003caa:    d230        0.      BCS      0x3d0e ; atan2f + 298
        0x00003cac:    4048        H@      EORS     r0,r0,r1
        0x00003cae:    495d        ]I      LDR      r1,[pc,#372] ; [0x3e24] = 0x3eed6000
        0x00003cb0:    d50b        ..      BPL      0x3cca ; atan2f + 230
        0x00003cb2:    20bf        .       MOVS     r0,#0xbf
        0x00003cb4:    0600        ..      LSLS     r0,r0,#24
        0x00003cb6:    9003        ..      STR      r0,[sp,#0xc]
        0x00003cb8:    4638        8F      MOV      r0,r7
        0x00003cba:    f7fefa9a    ....    BL       __aeabi_fsub ; 0x21f2
        0x00003cbe:    4607        .F      MOV      r7,r0
        0x00003cc0:    4959        YI      LDR      r1,[pc,#356] ; [0x3e28] = 0x37ce0ac3
        0x00003cc2:    4630        0F      MOV      r0,r6
        0x00003cc4:    f7fefa95    ....    BL       __aeabi_fsub ; 0x21f2
        0x00003cc8:    e00a        ..      B        0x3ce0 ; atan2f + 252
        0x00003cca:    203f        ?       MOVS     r0,#0x3f
        0x00003ccc:    0600        ..      LSLS     r0,r0,#24
        0x00003cce:    9003        ..      STR      r0,[sp,#0xc]
        0x00003cd0:    4638        8F      MOV      r0,r7
        0x00003cd2:    f7fefa3d    ..=.    BL       __aeabi_fadd ; 0x2150
        0x00003cd6:    4607        .F      MOV      r7,r0
        0x00003cd8:    4953        SI      LDR      r1,[pc,#332] ; [0x3e28] = 0x37ce0ac3
        0x00003cda:    4630        0F      MOV      r0,r6
        0x00003cdc:    f7fefa38    ..8.    BL       __aeabi_fadd ; 0x2150
        0x00003ce0:    4606        .F      MOV      r6,r0
        0x00003ce2:    4628        (F      MOV      r0,r5
        0x00003ce4:    9903        ..      LDR      r1,[sp,#0xc]
        0x00003ce6:    f7fefa8c    ....    BL       __aeabi_fmul ; 0x2202
        0x00003cea:    4621        !F      MOV      r1,r4
        0x00003cec:    f7fefa30    ..0.    BL       __aeabi_fadd ; 0x2150
        0x00003cf0:    9000        ..      STR      r0,[sp,#0]
        0x00003cf2:    4621        !F      MOV      r1,r4
        0x00003cf4:    9803        ..      LDR      r0,[sp,#0xc]
        0x00003cf6:    f7fefa84    ....    BL       __aeabi_fmul ; 0x2202
        0x00003cfa:    4629        )F      MOV      r1,r5
        0x00003cfc:    e000        ..      B        0x3d00 ; atan2f + 284
        0x00003cfe:    e03a        :.      B        0x3d76 ; atan2f + 402
        0x00003d00:    f7fefa7b    ..{.    BL       __aeabi_frsub ; 0x21fa
        0x00003d04:    9900        ..      LDR      r1,[sp,#0]
        0x00003d06:    f7fefab9    ....    BL       __aeabi_fdiv ; 0x227c
        0x00003d0a:    4604        .F      MOV      r4,r0
        0x00003d0c:    e004        ..      B        0x3d18 ; atan2f + 308
        0x00003d0e:    4621        !F      MOV      r1,r4
        0x00003d10:    4628        (F      MOV      r0,r5
        0x00003d12:    f7fefab3    ....    BL       __aeabi_fdiv ; 0x227c
        0x00003d16:    4604        .F      MOV      r4,r0
        0x00003d18:    4601        .F      MOV      r1,r0
        0x00003d1a:    f7fefa72    ..r.    BL       __aeabi_fmul ; 0x2202
        0x00003d1e:    4943        CI      LDR      r1,[pc,#268] ; [0x3e2c] = 0xbd65ad2d
        0x00003d20:    9000        ..      STR      r0,[sp,#0]
        0x00003d22:    f7fefa6e    ..n.    BL       __aeabi_fmul ; 0x2202
        0x00003d26:    4942        BI      LDR      r1,[pc,#264] ; [0x3e30] = 0x3dd5b88f
        0x00003d28:    f7fefa12    ....    BL       __aeabi_fadd ; 0x2150
        0x00003d2c:    9900        ..      LDR      r1,[sp,#0]
        0x00003d2e:    f7fefa68    ..h.    BL       __aeabi_fmul ; 0x2202
        0x00003d32:    4940        @I      LDR      r1,[pc,#256] ; [0x3e34] = 0xbe11b50f
        0x00003d34:    f7fefa0c    ....    BL       __aeabi_fadd ; 0x2150
        0x00003d38:    9900        ..      LDR      r1,[sp,#0]
        0x00003d3a:    f7fefa62    ..b.    BL       __aeabi_fmul ; 0x2202
        0x00003d3e:    493e        >I      LDR      r1,[pc,#248] ; [0x3e38] = 0x3e4cc861
        0x00003d40:    f7fefa06    ....    BL       __aeabi_fadd ; 0x2150
        0x00003d44:    9900        ..      LDR      r1,[sp,#0]
        0x00003d46:    f7fefa5c    ..\.    BL       __aeabi_fmul ; 0x2202
        0x00003d4a:    493c        <I      LDR      r1,[pc,#240] ; [0x3e3c] = 0xbeaaaaa8
        0x00003d4c:    f7fefa00    ....    BL       __aeabi_fadd ; 0x2150
        0x00003d50:    4605        .F      MOV      r5,r0
        0x00003d52:    4620         F      MOV      r0,r4
        0x00003d54:    9900        ..      LDR      r1,[sp,#0]
        0x00003d56:    f7fefa54    ..T.    BL       __aeabi_fmul ; 0x2202
        0x00003d5a:    4629        )F      MOV      r1,r5
        0x00003d5c:    f7fefa51    ..Q.    BL       __aeabi_fmul ; 0x2202
        0x00003d60:    4631        1F      MOV      r1,r6
        0x00003d62:    f7fef9f5    ....    BL       __aeabi_fadd ; 0x2150
        0x00003d66:    4621        !F      MOV      r1,r4
        0x00003d68:    f7fef9f2    ....    BL       __aeabi_fadd ; 0x2150
        0x00003d6c:    4639        9F      MOV      r1,r7
        0x00003d6e:    f7fef9ef    ....    BL       __aeabi_fadd ; 0x2150
        0x00003d72:    b007        ..      ADD      sp,sp,#0x1c
        0x00003d74:    bdf0        ..      POP      {r4-r7,pc}
        0x00003d76:    26ff        .&      MOVS     r6,#0xff
        0x00003d78:    0636        6.      LSLS     r6,r6,#24
        0x00003d7a:    42b3        .B      CMP      r3,r6
        0x00003d7c:    d801        ..      BHI      0x3d82 ; atan2f + 414
        0x00003d7e:    42b2        .B      CMP      r2,r6
        0x00003d80:    d905        ..      BLS      0x3d8e ; atan2f + 426
        0x00003d82:    4601        .F      MOV      r1,r0
        0x00003d84:    4628        (F      MOV      r0,r5
        0x00003d86:    f7fffa32    ..2.    BL       __mathlib_flt_infnan2 ; 0x31ee
        0x00003d8a:    b007        ..      ADD      sp,sp,#0x1c
        0x00003d8c:    bdf0        ..      POP      {r4-r7,pc}
        0x00003d8e:    462f        /F      MOV      r7,r5
        0x00003d90:    4307        .C      ORRS     r7,r7,r0
        0x00003d92:    007f        ..      LSLS     r7,r7,#1
        0x00003d94:    d00a        ..      BEQ      0x3dac ; atan2f + 456
        0x00003d96:    42b3        .B      CMP      r3,r6
        0x00003d98:    d10c        ..      BNE      0x3db4 ; atan2f + 464
        0x00003d9a:    42b2        .B      CMP      r2,r6
        0x00003d9c:    d10a        ..      BNE      0x3db4 ; atan2f + 464
        0x00003d9e:    2201        ."      MOVS     r2,#1
        0x00003da0:    0792        ..      LSLS     r2,r2,#30
        0x00003da2:    4390        .C      BICS     r0,r0,r2
        0x00003da4:    4391        .C      BICS     r1,r1,r2
        0x00003da6:    460d        .F      MOV      r5,r1
        0x00003da8:    4604        .F      MOV      r4,r0
        0x00003daa:    e72f        /.      B        0x3c0c ; atan2f + 40
        0x00003dac:    22ff        ."      MOVS     r2,#0xff
        0x00003dae:    05d2        ..      LSLS     r2,r2,#23
        0x00003db0:    4310        .C      ORRS     r0,r0,r2
        0x00003db2:    e7f9        ..      B        0x3da8 ; atan2f + 452
        0x00003db4:    42b3        .B      CMP      r3,r6
        0x00003db6:    d008        ..      BEQ      0x3dca ; atan2f + 486
        0x00003db8:    0046        F.      LSLS     r6,r0,#1
        0x00003dba:    d006        ..      BEQ      0x3dca ; atan2f + 486
        0x00003dbc:    4053        S@      EORS     r3,r3,r2
        0x00003dbe:    d4f4        ..      BMI      0x3daa ; atan2f + 454
        0x00003dc0:    2a00        .*      CMP      r2,#0
        0x00003dc2:    db08        ..      BLT      0x3dd6 ; atan2f + 498
        0x00003dc4:    269f        .&      MOVS     r6,#0x9f
        0x00003dc6:    05f6        ..      LSLS     r6,r6,#23
        0x00003dc8:    e007        ..      B        0x3dda ; atan2f + 502
        0x00003dca:    22ff        ."      MOVS     r2,#0xff
        0x00003dcc:    05d2        ..      LSLS     r2,r2,#23
        0x00003dce:    4311        .C      ORRS     r1,r1,r2
        0x00003dd0:    0fe0        ..      LSRS     r0,r4,#31
        0x00003dd2:    07c0        ..      LSLS     r0,r0,#31
        0x00003dd4:    e71a        ..      B        0x3c0c ; atan2f + 40
        0x00003dd6:    265f        _&      MOVS     r6,#0x5f
        0x00003dd8:    05f6        ..      LSLS     r6,r6,#23
        0x00003dda:    4631        1F      MOV      r1,r6
        0x00003ddc:    4628        (F      MOV      r0,r5
        0x00003dde:    f7fefa10    ....    BL       __aeabi_fmul ; 0x2202
        0x00003de2:    4605        .F      MOV      r5,r0
        0x00003de4:    4631        1F      MOV      r1,r6
        0x00003de6:    4620         F      MOV      r0,r4
        0x00003de8:    f7fefa0b    ....    BL       __aeabi_fmul ; 0x2202
        0x00003dec:    4604        .F      MOV      r4,r0
        0x00003dee:    4629        )F      MOV      r1,r5
        0x00003df0:    e70c        ..      B        0x3c0c ; atan2f + 40
    $d
        0x00003df2:    0000        ..      DCW    0
        0x00003df4:    bfc90fdb    ....    DCD    3217625051
        0x00003df8:    3fc90fdb    ...?    DCD    1070141403
        0x00003dfc:    c0490fdb    ..I.    DCD    3226013659
        0x00003e00:    40490fdb    ..I@    DCD    1078530011
        0x00003e04:    bfc90000    ....    DCD    3217620992
        0x00003e08:    b9fdaa22    "...    DCD    3120409122
        0x00003e0c:    3fc90000    ...?    DCD    1070137344
        0x00003e10:    39fdaa22    "..9    DCD    972925474
        0x00003e14:    c0490000    ..I.    DCD    3226009600
        0x00003e18:    ba7daa22    ".}.    DCD    3128797730
        0x00003e1c:    40490000    ..I@    DCD    1078525952
        0x00003e20:    3a7daa22    ".}:    DCD    981314082
        0x00003e24:    3eed6000    .`.>    DCD    1055744000
        0x00003e28:    37ce0ac3    ...7    DCD    936250051
        0x00003e2c:    bd65ad2d    -.e.    DCD    3177557293
        0x00003e30:    3dd5b88f    ...=    DCD    1037416591
        0x00003e34:    be11b50f    ....    DCD    3188831503
        0x00003e38:    3e4cc861    a.L>    DCD    1045219425
        0x00003e3c:    beaaaaa8    ....    DCD    3198855848
    $t
    i.cos
    cos
        0x00003e40:    b500        ..      PUSH     {lr}
        0x00003e42:    004a        J.      LSLS     r2,r1,#1
        0x00003e44:    4b22        "K      LDR      r3,[pc,#136] ; [0x3ed0] = 0x3fe921fb
        0x00003e46:    0852        R.      LSRS     r2,r2,#1
        0x00003e48:    b087        ..      SUB      sp,sp,#0x1c
        0x00003e4a:    429a        .B      CMP      r2,r3
        0x00003e4c:    dc02        ..      BGT      0x3e54 ; cos + 20
        0x00003e4e:    2200        ."      MOVS     r2,#0
        0x00003e50:    4613        .F      MOV      r3,r2
        0x00003e52:    e025        %.      B        0x3ea0 ; cos + 96
        0x00003e54:    4b1f        .K      LDR      r3,[pc,#124] ; [0x3ed4] = 0x7ff00000
        0x00003e56:    429a        .B      CMP      r2,r3
        0x00003e58:    d108        ..      BNE      0x3e6c ; cos + 44
        0x00003e5a:    2800        .(      CMP      r0,#0
        0x00003e5c:    d108        ..      BNE      0x3e70 ; cos + 48
        0x00003e5e:    2001        .       MOVS     r0,#1
        0x00003e60:    f7fff9e6    ....    BL       __set_errno ; 0x3230
        0x00003e64:    f7fff9ab    ....    BL       __mathlib_dbl_invalid ; 0x31be
        0x00003e68:    b007        ..      ADD      sp,sp,#0x1c
        0x00003e6a:    bd00        ..      POP      {pc}
        0x00003e6c:    429a        .B      CMP      r2,r3
        0x00003e6e:    db03        ..      BLT      0x3e78 ; cos + 56
        0x00003e70:    f7fff9a0    ....    BL       __mathlib_dbl_infnan ; 0x31b4
        0x00003e74:    b007        ..      ADD      sp,sp,#0x1c
        0x00003e76:    bd00        ..      POP      {pc}
        0x00003e78:    aa02        ..      ADD      r2,sp,#8
        0x00003e7a:    f7fefe87    ....    BL       __ieee754_rem_pio2 ; 0x2b8c
        0x00003e7e:    0781        ..      LSLS     r1,r0,#30
        0x00003e80:    0f89        ..      LSRS     r1,r1,#30
        0x00003e82:    d00b        ..      BEQ      0x3e9c ; cos + 92
        0x00003e84:    2001        .       MOVS     r0,#1
        0x00003e86:    2901        .)      CMP      r1,#1
        0x00003e88:    d00e        ..      BEQ      0x3ea8 ; cos + 104
        0x00003e8a:    2902        .)      CMP      r1,#2
        0x00003e8c:    d016        ..      BEQ      0x3ebc ; cos + 124
        0x00003e8e:    9000        ..      STR      r0,[sp,#0]
        0x00003e90:    a802        ..      ADD      r0,sp,#8
        0x00003e92:    c80f        ..      LDM      r0,{r0-r3}
        0x00003e94:    f7fff918    ....    BL       __kernel_sin ; 0x30c8
        0x00003e98:    b007        ..      ADD      sp,sp,#0x1c
        0x00003e9a:    bd00        ..      POP      {pc}
        0x00003e9c:    a802        ..      ADD      r0,sp,#8
        0x00003e9e:    c80f        ..      LDM      r0,{r0-r3}
        0x00003ea0:    f7fff842    ..B.    BL       __kernel_cos ; 0x2f28
        0x00003ea4:    b007        ..      ADD      sp,sp,#0x1c
        0x00003ea6:    bd00        ..      POP      {pc}
        0x00003ea8:    9000        ..      STR      r0,[sp,#0]
        0x00003eaa:    a802        ..      ADD      r0,sp,#8
        0x00003eac:    c80f        ..      LDM      r0,{r0-r3}
        0x00003eae:    f7fff90b    ....    BL       __kernel_sin ; 0x30c8
        0x00003eb2:    2201        ."      MOVS     r2,#1
        0x00003eb4:    07d2        ..      LSLS     r2,r2,#31
        0x00003eb6:    4051        Q@      EORS     r1,r1,r2
        0x00003eb8:    b007        ..      ADD      sp,sp,#0x1c
        0x00003eba:    bd00        ..      POP      {pc}
        0x00003ebc:    a802        ..      ADD      r0,sp,#8
        0x00003ebe:    c80f        ..      LDM      r0,{r0-r3}
        0x00003ec0:    f7fff832    ..2.    BL       __kernel_cos ; 0x2f28
        0x00003ec4:    2201        ."      MOVS     r2,#1
        0x00003ec6:    07d2        ..      LSLS     r2,r2,#31
        0x00003ec8:    4051        Q@      EORS     r1,r1,r2
        0x00003eca:    b007        ..      ADD      sp,sp,#0x1c
        0x00003ecc:    bd00        ..      POP      {pc}
    $d
        0x00003ece:    0000        ..      DCW    0
        0x00003ed0:    3fe921fb    .!.?    DCD    1072243195
        0x00003ed4:    7ff00000    ....    DCD    2146435072
    $t
    i.sin
    sin
        0x00003ed8:    b500        ..      PUSH     {lr}
        0x00003eda:    004a        J.      LSLS     r2,r1,#1
        0x00003edc:    4b23        #K      LDR      r3,[pc,#140] ; [0x3f6c] = 0x3fe921fb
        0x00003ede:    0852        R.      LSRS     r2,r2,#1
        0x00003ee0:    b087        ..      SUB      sp,sp,#0x1c
        0x00003ee2:    429a        .B      CMP      r2,r3
        0x00003ee4:    dc03        ..      BGT      0x3eee ; sin + 22
        0x00003ee6:    2200        ."      MOVS     r2,#0
        0x00003ee8:    4613        .F      MOV      r3,r2
        0x00003eea:    9200        ..      STR      r2,[sp,#0]
        0x00003eec:    e029        ).      B        0x3f42 ; sin + 106
        0x00003eee:    4b20         K      LDR      r3,[pc,#128] ; [0x3f70] = 0x7ff00000
        0x00003ef0:    429a        .B      CMP      r2,r3
        0x00003ef2:    d108        ..      BNE      0x3f06 ; sin + 46
        0x00003ef4:    2800        .(      CMP      r0,#0
        0x00003ef6:    d108        ..      BNE      0x3f0a ; sin + 50
        0x00003ef8:    2001        .       MOVS     r0,#1
        0x00003efa:    f7fff999    ....    BL       __set_errno ; 0x3230
        0x00003efe:    f7fff95e    ..^.    BL       __mathlib_dbl_invalid ; 0x31be
        0x00003f02:    b007        ..      ADD      sp,sp,#0x1c
        0x00003f04:    bd00        ..      POP      {pc}
        0x00003f06:    429a        .B      CMP      r2,r3
        0x00003f08:    db03        ..      BLT      0x3f12 ; sin + 58
        0x00003f0a:    f7fff953    ..S.    BL       __mathlib_dbl_infnan ; 0x31b4
        0x00003f0e:    b007        ..      ADD      sp,sp,#0x1c
        0x00003f10:    bd00        ..      POP      {pc}
        0x00003f12:    aa02        ..      ADD      r2,sp,#8
        0x00003f14:    f7fefe3a    ..:.    BL       __ieee754_rem_pio2 ; 0x2b8c
        0x00003f18:    0781        ..      LSLS     r1,r0,#30
        0x00003f1a:    0f89        ..      LSRS     r1,r1,#30
        0x00003f1c:    2001        .       MOVS     r0,#1
        0x00003f1e:    2900        .)      CMP      r1,#0
        0x00003f20:    d00c        ..      BEQ      0x3f3c ; sin + 100
        0x00003f22:    2901        .)      CMP      r1,#1
        0x00003f24:    d011        ..      BEQ      0x3f4a ; sin + 114
        0x00003f26:    2902        .)      CMP      r1,#2
        0x00003f28:    d015        ..      BEQ      0x3f56 ; sin + 126
        0x00003f2a:    a802        ..      ADD      r0,sp,#8
        0x00003f2c:    c80f        ..      LDM      r0,{r0-r3}
        0x00003f2e:    f7fefffb    ....    BL       __kernel_cos ; 0x2f28
        0x00003f32:    2201        ."      MOVS     r2,#1
        0x00003f34:    07d2        ..      LSLS     r2,r2,#31
        0x00003f36:    4051        Q@      EORS     r1,r1,r2
        0x00003f38:    b007        ..      ADD      sp,sp,#0x1c
        0x00003f3a:    bd00        ..      POP      {pc}
        0x00003f3c:    9000        ..      STR      r0,[sp,#0]
        0x00003f3e:    a802        ..      ADD      r0,sp,#8
        0x00003f40:    c80f        ..      LDM      r0,{r0-r3}
        0x00003f42:    f7fff8c1    ....    BL       __kernel_sin ; 0x30c8
        0x00003f46:    b007        ..      ADD      sp,sp,#0x1c
        0x00003f48:    bd00        ..      POP      {pc}
        0x00003f4a:    a802        ..      ADD      r0,sp,#8
        0x00003f4c:    c80f        ..      LDM      r0,{r0-r3}
        0x00003f4e:    f7feffeb    ....    BL       __kernel_cos ; 0x2f28
        0x00003f52:    b007        ..      ADD      sp,sp,#0x1c
        0x00003f54:    bd00        ..      POP      {pc}
        0x00003f56:    9000        ..      STR      r0,[sp,#0]
        0x00003f58:    a802        ..      ADD      r0,sp,#8
        0x00003f5a:    c80f        ..      LDM      r0,{r0-r3}
        0x00003f5c:    f7fff8b4    ....    BL       __kernel_sin ; 0x30c8
        0x00003f60:    2201        ."      MOVS     r2,#1
        0x00003f62:    07d2        ..      LSLS     r2,r2,#31
        0x00003f64:    4051        Q@      EORS     r1,r1,r2
        0x00003f66:    b007        ..      ADD      sp,sp,#0x1c
        0x00003f68:    bd00        ..      POP      {pc}
    $d
        0x00003f6a:    0000        ..      DCW    0
        0x00003f6c:    3fe921fb    .!.?    DCD    1072243195
        0x00003f70:    7ff00000    ....    DCD    2146435072
    $t
    i.sqrtf
    sqrtf
        0x00003f74:    b570        p.      PUSH     {r4-r6,lr}
        0x00003f76:    4605        .F      MOV      r5,r0
        0x00003f78:    f7fefd2b    ..+.    BL       _fsqrt ; 0x29d2
        0x00003f7c:    0041        A.      LSLS     r1,r0,#1
        0x00003f7e:    4604        .F      MOV      r4,r0
        0x00003f80:    20ff        .       MOVS     r0,#0xff
        0x00003f82:    0849        I.      LSRS     r1,r1,#1
        0x00003f84:    05c0        ..      LSLS     r0,r0,#23
        0x00003f86:    1a41        A.      SUBS     r1,r0,r1
        0x00003f88:    0fc9        ..      LSRS     r1,r1,#31
        0x00003f8a:    d007        ..      BEQ      0x3f9c ; sqrtf + 40
        0x00003f8c:    0069        i.      LSLS     r1,r5,#1
        0x00003f8e:    0849        I.      LSRS     r1,r1,#1
        0x00003f90:    1a40        @.      SUBS     r0,r0,r1
        0x00003f92:    0fc0        ..      LSRS     r0,r0,#31
        0x00003f94:    d102        ..      BNE      0x3f9c ; sqrtf + 40
        0x00003f96:    2001        .       MOVS     r0,#1
        0x00003f98:    f7fff94a    ..J.    BL       __set_errno ; 0x3230
        0x00003f9c:    4620         F      MOV      r0,r4
        0x00003f9e:    bd70        p.      POP      {r4-r6,pc}
    $d.realdata
    .constdata
    C
        0x00003fa0:    5555554c    LUUU    DCD    1431655756
        0x00003fa4:    3fa55555    UU.?    DCD    1067799893
        0x00003fa8:    16c15177    wQ..    DCD    381768055
        0x00003fac:    bf56c16c    l.V.    DCD    3210133868
        0x00003fb0:    19cb1590    ....    DCD    432739728
        0x00003fb4:    3efa01a0    ...>    DCD    1056571808
        0x00003fb8:    809c52ad    .R..    DCD    2157728429
        0x00003fbc:    be927e4f    O~..    DCD    3197271631
        0x00003fc0:    bdb4b1c4    ....    DCD    3182735812
        0x00003fc4:    3e21ee9e    ..!>    DCD    1042411166
        0x00003fc8:    be8838d4    .8..    DCD    3196598484
        0x00003fcc:    bda8fae9    ....    DCD    3181968105
    .constdata
    pio2s
        0x00003fd0:    54400000    ..@T    DCD    1413480448
        0x00003fd4:    3ff921fb    .!.?    DCD    1073291771
        0x00003fd8:    1a626331    1cb.    DCD    442655537
        0x00003fdc:    3dd0b461    a..=    DCD    1037087841
        0x00003fe0:    1a600000    ..`.    DCD    442499072
        0x00003fe4:    3dd0b461    a..=    DCD    1037087841
        0x00003fe8:    2e037073    sp..    DCD    771977331
        0x00003fec:    3ba3198a    ...;    DCD    1000544650
        0x00003ff0:    2e000000    ....    DCD    771751936
        0x00003ff4:    3ba3198a    ...;    DCD    1000544650
        0x00003ff8:    252049c1    .I %    DCD    622873025
        0x00003ffc:    397b839a    ..{9    DCD    964395930
    twooverpi
        0x00004000:    00000000    ....    DCD    0
        0x00004004:    00000000    ....    DCD    0
        0x00004008:    a2f9836e    n...    DCD    2734261102
        0x0000400c:    4e441529    ).DN    DCD    1313084713
        0x00004010:    fc2757d1    .W'.    DCD    4230436817
        0x00004014:    f534ddc0    ..4.    DCD    4113882560
        0x00004018:    db629599    ..b.    DCD    3680671129
        0x0000401c:    3c439041    A.C<    DCD    1011060801
        0x00004020:    fe5163ab    .cQ.    DCD    4266746795
        0x00004024:    debbc561    a...    DCD    3736847713
        0x00004028:    b7246e3a    :n$.    DCD    3072618042
        0x0000402c:    424dd2e0    ..MB    DCD    1112396512
        0x00004030:    06492eea    ..I.    DCD    105459434
        0x00004034:    09d1921c    ....    DCD    164729372
        0x00004038:    fe1deb1c    ....    DCD    4263373596
        0x0000403c:    b129a73e    >.).    DCD    2972297022
        0x00004040:    e88235f5    .5..    DCD    3900847605
        0x00004044:    2ebb4484    .D..    DCD    784024708
        0x00004048:    e99c7026    &p..    DCD    3919343654
        0x0000404c:    b45f7e41    A~_.    DCD    3026157121
        0x00004050:    3991d639    9..9    DCD    965858873
        0x00004054:    835339f4    .9S.    DCD    2203269620
        0x00004058:    9c845f8b    ._..    DCD    2625920907
        0x0000405c:    bdf9283b    ;(..    DCD    3187222587
        0x00004060:    1ff897ff    ....    DCD    536385535
        0x00004064:    de05980f    ....    DCD    3724908559
        0x00004068:    ef2f118b    ../.    DCD    4012839307
        0x0000406c:    5a0a6d1f    .m.Z    DCD    1510632735
        0x00004070:    6d367ecf    .~6m    DCD    1832287951
        0x00004074:    27cb09b7    ...'    DCD    667617719
        0x00004078:    4f463f66    f?FO    DCD    1330003814
        0x0000407c:    9e5fea2d    -._.    DCD    2657085997
        0x00004080:    7527bac7    ..'u    DCD    1965537991
        0x00004084:    ebe5f17b    {...    DCD    3957715323
        0x00004088:    3d0739f7    .9.=    DCD    1023883767
        0x0000408c:    8a5292ea    ..R.    DCD    2320667370
        0x00004090:    6bfb5fb1    ._.k    DCD    1811636145
        0x00004094:    1f8d5d08    .]..    DCD    529358088
    .constdata
    S
        0x00004098:    1110f8a6    ....    DCD    286324902
        0x0000409c:    3f811111    ...?    DCD    1065423121
        0x000040a0:    19c161d5    .a..    DCD    432103893
        0x000040a4:    bf2a01a0    ..*.    DCD    3207201184
        0x000040a8:    57b1fe7d    }..W    DCD    1471282813
        0x000040ac:    3ec71de3    ...>    DCD    1053236707
        0x000040b0:    8a2b9ceb    ..+.    DCD    2318114027
        0x000040b4:    be5ae5e6    ..Z.    DCD    3193628134
        0x000040b8:    5acfd57c    |..Z    DCD    1523570044
        0x000040bc:    3de5d93a    :..=    DCD    1038473530
    Region$$Table$$Base
        0x000040c0:    000040e0    .@..    DCD    16608
        0x000040c4:    20000000    ...     DCD    536870912
        0x000040c8:    000000b8    ....    DCD    184
        0x000040cc:    00003210    .2..    DCD    12816
        0x000040d0:    00004198    .A..    DCD    16792
        0x000040d4:    200000b8    ...     DCD    536871096
        0x000040d8:    000001d8    ....    DCD    472
        0x000040dc:    00003220     2..    DCD    12832
    Region$$Table$$Limit

** Section #2 'ER_RW' (SHT_PROGBITS) [SHF_ALLOC + SHF_WRITE]
    Size   : 184 bytes (alignment 8)
    Address: 0x20000000


** Section #3 'ER_ZI' (SHT_NOBITS) [SHF_ALLOC + SHF_WRITE]
    Size   : 472 bytes (alignment 8)
    Address: 0x200000b8


** Section #4 '.debug_abbrev' (SHT_PROGBITS)
    Size   : 1476 bytes


** Section #5 '.debug_frame' (SHT_PROGBITS)
    Size   : 4160 bytes


** Section #6 '.debug_info' (SHT_PROGBITS)
    Size   : 31988 bytes


** Section #7 '.debug_line' (SHT_PROGBITS)
    Size   : 11928 bytes


** Section #8 '.debug_loc' (SHT_PROGBITS)
    Size   : 7136 bytes


** Section #9 '.debug_macinfo' (SHT_PROGBITS)
    Size   : 145908 bytes


** Section #10 '.debug_pubnames' (SHT_PROGBITS)
    Size   : 2394 bytes


** Section #11 '.symtab' (SHT_SYMTAB)
    Size   : 10080 bytes (alignment 4)
    String table #12 '.strtab'
    Last local symbol no. 388


** Section #12 '.strtab' (SHT_STRTAB)
    Size   : 7840 bytes


** Section #13 '.note' (SHT_NOTE)
    Size   : 28 bytes (alignment 4)


** Section #14 '.comment' (SHT_PROGBITS)
    Size   : 51356 bytes


** Section #15 '.shstrtab' (SHT_STRTAB)
    Size   : 156 bytes


