
========================================================================

** ELF Header Information

    File Name: .\output\HD_Drone.axf

    Machine class: ELFCLASS32 (32-bit)
    Data encoding: ELFDATA2LSB (Little endian)
    Header version: EV_CURRENT (Current version)
    Operating System ABI: none
    ABI Version: 0
    File Type: ET_EXEC (Executable) (2)
    Machine: EM_ARM (ARM)

    Image Entry point: 0x00001171
    Flags: EF_ARM_HASENTRY + EF_ARM_ABI_FLOAT_SOFT (0x05000202)

    ARM ELF revision: 5 (ABI version 2)

    Conforms to Soft float procedure-call standard

    Built with
    Component: ARM Compiler 5.06 update 2 (build 183) Tool: armasm [4d35b2]
    Component: ARM Compiler 5.06 update 2 (build 183) Tool: armlink [4d35b7]

    Header size: 52 bytes (0x34)
    Program header entry size: 32 bytes (0x20)
    Section header entry size: 40 bytes (0x28)

    Program header entries: 1
    Section header entries: 16

    Program header offset: 361684 (0x000584d4)
    Section header offset: 361716 (0x000584f4)

    Section header string table index: 15

========================================================================

** Program header #0 (PT_LOAD) [PF_X + PF_W + PF_R + PF_ARM_ENTRY]
    Size : 28284 bytes (26276 bytes in file)
    Virtual address: 0x00000000 (Alignment 8)


========================================================================

** Section #1 'ER_RO' (SHT_PROGBITS) [SHF_ALLOC + SHF_EXECINSTR]
    Size   : 26096 bytes (alignment 8)
    Address: 0x00000000

    $d.realdata
    RESET
    __Vectors
        0x00000000:    20000dfc    ...     DCD    536874492
        0x00000004:    00001171    q...    DCD    4465
        0x00000008:    00001175    u...    DCD    4469
        0x0000000c:    000000d5    ....    DCD    213
        0x00000010:    00000000    ....    DCD    0
        0x00000014:    00000000    ....    DCD    0
        0x00000018:    00000000    ....    DCD    0
        0x0000001c:    00000000    ....    DCD    0
        0x00000020:    00000000    ....    DCD    0
        0x00000024:    00000000    ....    DCD    0
        0x00000028:    00000000    ....    DCD    0
        0x0000002c:    00001179    y...    DCD    4473
        0x00000030:    00000000    ....    DCD    0
        0x00000034:    00000000    ....    DCD    0
        0x00000038:    0000117b    {...    DCD    4475
        0x0000003c:    0000117d    }...    DCD    4477
        0x00000040:    0000117f    ....    DCD    4479
        0x00000044:    0000117f    ....    DCD    4479
        0x00000048:    0000117f    ....    DCD    4479
        0x0000004c:    0000117f    ....    DCD    4479
        0x00000050:    0000117f    ....    DCD    4479
        0x00000054:    0000117f    ....    DCD    4479
        0x00000058:    0000117f    ....    DCD    4479
        0x0000005c:    0000117f    ....    DCD    4479
        0x00000060:    0000117f    ....    DCD    4479
        0x00000064:    00001cb9    ....    DCD    7353
        0x00000068:    0000117f    ....    DCD    4479
        0x0000006c:    0000117f    ....    DCD    4479
        0x00000070:    000031b9    .1..    DCD    12729
        0x00000074:    0000117f    ....    DCD    4479
        0x00000078:    0000117f    ....    DCD    4479
        0x0000007c:    0000117f    ....    DCD    4479
        0x00000080:    0000117f    ....    DCD    4479
        0x00000084:    0000117f    ....    DCD    4479
        0x00000088:    0000117f    ....    DCD    4479
        0x0000008c:    0000117f    ....    DCD    4479
        0x00000090:    0000117f    ....    DCD    4479
        0x00000094:    0000117f    ....    DCD    4479
        0x00000098:    0000117f    ....    DCD    4479
        0x0000009c:    0000117f    ....    DCD    4479
        0x000000a0:    0000117f    ....    DCD    4479
        0x000000a4:    0000117f    ....    DCD    4479
        0x000000a8:    0000117f    ....    DCD    4479
        0x000000ac:    0000117f    ....    DCD    4479
        0x000000b0:    0000117f    ....    DCD    4479
        0x000000b4:    0000117f    ....    DCD    4479
        0x000000b8:    0000117f    ....    DCD    4479
        0x000000bc:    0000117f    ....    DCD    4479
    $t
    .ARM.Collect$$$$00000000
    .ARM.Collect$$$$00000001
    __main
    _main_stk
        0x000000c0:    4803        .H      LDR      r0,__lit__00000000 ; [0xd0] = 0x20000dfc
        0x000000c2:    4685        .F      MOV      sp,r0
    .ARM.Collect$$$$00000004
    _main_scatterload
        0x000000c4:    f004fc90    ....    BL       __scatterload ; 0x49e8
    .ARM.Collect$$$$00000008
    .ARM.Collect$$$$0000000A
    .ARM.Collect$$$$0000000B
    __main_after_scatterload
    _main_clock
    _main_cpp_init
    _main_init
        0x000000c8:    4800        .H      LDR      r0,[pc,#0] ; [0xcc] = 0x10e9
        0x000000ca:    4700        .G      BX       r0
    $d
        0x000000cc:    000010e9    ....    DCD    4329
    .ARM.Collect$$$$00002712
    __lit__00000000
    .ARM.Collect$$$$0000000D
    .ARM.Collect$$$$0000000F
    __rt_final_cpp
    __rt_final_exit
        0x000000d0:    20000dfc    ...     DCD    536874492
    $t
    .emb_text
    HardFault_Handler
        0x000000d4:    2004        .       MOVS     r0,#4
        0x000000d6:    4671        qF      MOV      r1,lr
        0x000000d8:    4208        .B      TST      r0,r1
        0x000000da:    d002        ..      BEQ      0xe2 ; HardFault_Handler + 14
        0x000000dc:    f3ef8009    ....    MRS      r0,PSP
        0x000000e0:    e001        ..      B        0xe6 ; HardFault_Handler + 18
        0x000000e2:    f3ef8008    ....    MRS      r0,MSP
        0x000000e6:    4671        qF      MOV      r1,lr
        0x000000e8:    4a00        .J      LDR      r2,[pc,#0] ; [0xec] = 0x36b7
        0x000000ea:    4710        .G      BX       r2
    $d
        0x000000ec:    000036b7    .6..    DCD    14007
    $t
    .text
    configure_fifo
        0x000000f0:    b510        ..      PUSH     {r4,lr}
        0x000000f2:    22c0        ."      MOVS     r2,#0xc0
        0x000000f4:    2147        G!      MOVS     r1,#0x47
        0x000000f6:    20d0        .       MOVS     r0,#0xd0
        0x000000f8:    f002fb5a    ..Z.    BL       I2C_WriteByte ; 0x27b0
        0x000000fc:    217d        }!      MOVS     r1,#0x7d
        0x000000fe:    00c9        ..      LSLS     r1,r1,#3
        0x00000100:    48fe        .H      LDR      r0,[pc,#1016] ; [0x4fc] = 0x40010000
        0x00000102:    f003fbaf    ....    BL       TIMER_Delay ; 0x3864
        0x00000106:    22b0        ."      MOVS     r2,#0xb0
        0x00000108:    217e        ~!      MOVS     r1,#0x7e
        0x0000010a:    20d0        .       MOVS     r0,#0xd0
        0x0000010c:    f002fb50    ..P.    BL       I2C_WriteByte ; 0x27b0
        0x00000110:    2001        .       MOVS     r0,#1
        0x00000112:    bd10        ..      POP      {r4,pc}
    configure_gyro
        0x00000114:    b570        p.      PUSH     {r4-r6,lr}
        0x00000116:    222c        ,"      MOVS     r2,#0x2c
        0x00000118:    2142        B!      MOVS     r1,#0x42
        0x0000011a:    20d0        .       MOVS     r0,#0xd0
        0x0000011c:    f002fb48    ..H.    BL       I2C_WriteByte ; 0x27b0
        0x00000120:    247d        }$      MOVS     r4,#0x7d
        0x00000122:    4df6        .M      LDR      r5,[pc,#984] ; [0x4fc] = 0x40010000
        0x00000124:    00e4        ..      LSLS     r4,r4,#3
        0x00000126:    4621        !F      MOV      r1,r4
        0x00000128:    4628        (F      MOV      r0,r5
        0x0000012a:    f003fb9b    ....    BL       TIMER_Delay ; 0x3864
        0x0000012e:    2201        ."      MOVS     r2,#1
        0x00000130:    2143        C!      MOVS     r1,#0x43
        0x00000132:    20d0        .       MOVS     r0,#0xd0
        0x00000134:    f002fb3c    ..<.    BL       I2C_WriteByte ; 0x27b0
        0x00000138:    4621        !F      MOV      r1,r4
        0x0000013a:    4628        (F      MOV      r0,r5
        0x0000013c:    f003fb92    ....    BL       TIMER_Delay ; 0x3864
        0x00000140:    49f0        .I      LDR      r1,[pc,#960] ; [0x504] = 0x20000000
        0x00000142:    48ef        .H      LDR      r0,[pc,#956] ; [0x500] = 0x3cfa0000
        0x00000144:    6048        H`      STR      r0,[r1,#4]
        0x00000146:    2001        .       MOVS     r0,#1
        0x00000148:    bd70        p.      POP      {r4-r6,pc}
    configure_accel
        0x0000014a:    b570        p.      PUSH     {r4-r6,lr}
        0x0000014c:    222c        ,"      MOVS     r2,#0x2c
        0x0000014e:    2140        @!      MOVS     r1,#0x40
        0x00000150:    20d0        .       MOVS     r0,#0xd0
        0x00000152:    f002fb2d    ..-.    BL       I2C_WriteByte ; 0x27b0
        0x00000156:    247d        }$      MOVS     r4,#0x7d
        0x00000158:    4de8        .M      LDR      r5,[pc,#928] ; [0x4fc] = 0x40010000
        0x0000015a:    00e4        ..      LSLS     r4,r4,#3
        0x0000015c:    4621        !F      MOV      r1,r4
        0x0000015e:    4628        (F      MOV      r0,r5
        0x00000160:    f003fb80    ....    BL       TIMER_Delay ; 0x3864
        0x00000164:    2205        ."      MOVS     r2,#5
        0x00000166:    2141        A!      MOVS     r1,#0x41
        0x00000168:    20d0        .       MOVS     r0,#0xd0
        0x0000016a:    f002fb21    ..!.    BL       I2C_WriteByte ; 0x27b0
        0x0000016e:    4621        !F      MOV      r1,r4
        0x00000170:    4628        (F      MOV      r0,r5
        0x00000172:    f003fb77    ..w.    BL       TIMER_Delay ; 0x3864
        0x00000176:    49e3        .I      LDR      r1,[pc,#908] ; [0x504] = 0x20000000
        0x00000178:    48e3        .H      LDR      r0,[pc,#908] ; [0x508] = 0x3a9ce80a
        0x0000017a:    6008        .`      STR      r0,[r1,#0]
        0x0000017c:    2001        .       MOVS     r0,#1
        0x0000017e:    bd70        p.      POP      {r4-r6,pc}
    bmi160_init
        0x00000180:    b5f8        ..      PUSH     {r3-r7,lr}
        0x00000182:    4dde        .M      LDR      r5,[pc,#888] ; [0x4fc] = 0x40010000
        0x00000184:    2600        .&      MOVS     r6,#0
        0x00000186:    4634        4F      MOV      r4,r6
        0x00000188:    49e0        .I      LDR      r1,[pc,#896] ; [0x50c] = 0x2710
        0x0000018a:    4628        (F      MOV      r0,r5
        0x0000018c:    f003fb6a    ..j.    BL       TIMER_Delay ; 0x3864
        0x00000190:    277d        }'      MOVS     r7,#0x7d
        0x00000192:    017f        ..      LSLS     r7,r7,#5
        0x00000194:    22b6        ."      MOVS     r2,#0xb6
        0x00000196:    217e        ~!      MOVS     r1,#0x7e
        0x00000198:    20d0        .       MOVS     r0,#0xd0
        0x0000019a:    f002fb09    ....    BL       I2C_WriteByte ; 0x27b0
        0x0000019e:    49dc        .I      LDR      r1,[pc,#880] ; [0x510] = 0x186a0
        0x000001a0:    4628        (F      MOV      r0,r5
        0x000001a2:    f003fb5f    .._.    BL       TIMER_Delay ; 0x3864
        0x000001a6:    2100        .!      MOVS     r1,#0
        0x000001a8:    20d0        .       MOVS     r0,#0xd0
        0x000001aa:    f002fb4c    ..L.    BL       I2C_ReadByte ; 0x2846
        0x000001ae:    28d1        .(      CMP      r0,#0xd1
        0x000001b0:    d11f        ..      BNE      0x1f2 ; bmi160_init + 114
        0x000001b2:    2211        ."      MOVS     r2,#0x11
        0x000001b4:    217e        ~!      MOVS     r1,#0x7e
        0x000001b6:    20d0        .       MOVS     r0,#0xd0
        0x000001b8:    f002fafa    ....    BL       I2C_WriteByte ; 0x27b0
        0x000001bc:    4639        9F      MOV      r1,r7
        0x000001be:    4628        (F      MOV      r0,r5
        0x000001c0:    f003fb50    ..P.    BL       TIMER_Delay ; 0x3864
        0x000001c4:    2215        ."      MOVS     r2,#0x15
        0x000001c6:    217e        ~!      MOVS     r1,#0x7e
        0x000001c8:    20d0        .       MOVS     r0,#0xd0
        0x000001ca:    f002faf1    ....    BL       I2C_WriteByte ; 0x27b0
        0x000001ce:    49d1        .I      LDR      r1,[pc,#836] ; [0x514] = 0x13c68
        0x000001d0:    4628        (F      MOV      r0,r5
        0x000001d2:    f003fb47    ..G.    BL       TIMER_Delay ; 0x3864
        0x000001d6:    f7ffffb8    ....    BL       configure_accel ; 0x14a
        0x000001da:    2800        .(      CMP      r0,#0
        0x000001dc:    d009        ..      BEQ      0x1f2 ; bmi160_init + 114
        0x000001de:    f7ffff99    ....    BL       configure_gyro ; 0x114
        0x000001e2:    2800        .(      CMP      r0,#0
        0x000001e4:    d005        ..      BEQ      0x1f2 ; bmi160_init + 114
        0x000001e6:    f7ffff83    ....    BL       configure_fifo ; 0xf0
        0x000001ea:    2800        .(      CMP      r0,#0
        0x000001ec:    d001        ..      BEQ      0x1f2 ; bmi160_init + 114
        0x000001ee:    2601        .&      MOVS     r6,#1
        0x000001f0:    e003        ..      B        0x1fa ; bmi160_init + 122
        0x000001f2:    1c64        d.      ADDS     r4,r4,#1
        0x000001f4:    b2e4        ..      UXTB     r4,r4
        0x000001f6:    2c05        .,      CMP      r4,#5
        0x000001f8:    d3cc        ..      BCC      0x194 ; bmi160_init + 20
        0x000001fa:    4630        0F      MOV      r0,r6
        0x000001fc:    bdf8        ..      POP      {r3-r7,pc}
    read_fifo
        0x000001fe:    b5f1        ..      PUSH     {r0,r4-r7,lr}
        0x00000200:    b0ff        ..      SUB      sp,sp,#0x1fc
        0x00000202:    b0ff        ..      SUB      sp,sp,#0x1fc
        0x00000204:    b0a0        ..      SUB      sp,sp,#0x80
        0x00000206:    2000        .       MOVS     r0,#0
        0x00000208:    901a        ..      STR      r0,[sp,#0x68]
        0x0000020a:    9016        ..      STR      r0,[sp,#0x58]
        0x0000020c:    9018        ..      STR      r0,[sp,#0x60]
        0x0000020e:    9015        ..      STR      r0,[sp,#0x54]
        0x00000210:    9011        ..      STR      r0,[sp,#0x44]
        0x00000212:    9019        ..      STR      r0,[sp,#0x64]
        0x00000214:    9017        ..      STR      r0,[sp,#0x5c]
        0x00000216:    9010        ..      STR      r0,[sp,#0x40]
        0x00000218:    9013        ..      STR      r0,[sp,#0x4c]
        0x0000021a:    901b        ..      STR      r0,[sp,#0x6c]
        0x0000021c:    48be        .H      LDR      r0,[pc,#760] ; [0x518] = 0x6404
        0x0000021e:    aa10        ..      ADD      r2,sp,#0x40
        0x00000220:    c80a        ..      LDM      r0!,{r1,r3}
        0x00000222:    9301        ..      STR      r3,[sp,#4]
        0x00000224:    9100        ..      STR      r1,[sp,#0]
        0x00000226:    6843        Ch      LDR      r3,[r0,#4]
        0x00000228:    6801        .h      LDR      r1,[r0,#0]
        0x0000022a:    9303        ..      STR      r3,[sp,#0xc]
        0x0000022c:    9102        ..      STR      r1,[sp,#8]
        0x0000022e:    68c1        .h      LDR      r1,[r0,#0xc]
        0x00000230:    6880        .h      LDR      r0,[r0,#8]
        0x00000232:    9105        ..      STR      r1,[sp,#0x14]
        0x00000234:    49b8        .I      LDR      r1,[pc,#736] ; [0x518] = 0x6404
        0x00000236:    9004        ..      STR      r0,[sp,#0x10]
        0x00000238:    6988        .i      LDR      r0,[r1,#0x18]
        0x0000023a:    69c9        .i      LDR      r1,[r1,#0x1c]
        0x0000023c:    9006        ..      STR      r0,[sp,#0x18]
        0x0000023e:    48b6        .H      LDR      r0,[pc,#728] ; [0x518] = 0x6404
        0x00000240:    9107        ..      STR      r1,[sp,#0x1c]
        0x00000242:    4601        .F      MOV      r1,r0
        0x00000244:    6a43        Cj      LDR      r3,[r0,#0x24]
        0x00000246:    6a00        .j      LDR      r0,[r0,#0x20]
        0x00000248:    3120         1      ADDS     r1,r1,#0x20
        0x0000024a:    9309        ..      STR      r3,[sp,#0x24]
        0x0000024c:    9008        ..      STR      r0,[sp,#0x20]
        0x0000024e:    68cb        .h      LDR      r3,[r1,#0xc]
        0x00000250:    6888        .h      LDR      r0,[r1,#8]
        0x00000252:    930b        ..      STR      r3,[sp,#0x2c]
        0x00000254:    900a        ..      STR      r0,[sp,#0x28]
        0x00000256:    6908        .i      LDR      r0,[r1,#0x10]
        0x00000258:    6949        Ii      LDR      r1,[r1,#0x14]
        0x0000025a:    910d        ..      STR      r1,[sp,#0x34]
        0x0000025c:    49ae        .I      LDR      r1,[pc,#696] ; [0x518] = 0x6404
        0x0000025e:    900c        ..      STR      r0,[sp,#0x30]
        0x00000260:    6b88        .k      LDR      r0,[r1,#0x38]
        0x00000262:    6bc9        .k      LDR      r1,[r1,#0x3c]
        0x00000264:    900e        ..      STR      r0,[sp,#0x38]
        0x00000266:    2000        .       MOVS     r0,#0
        0x00000268:    901d        ..      STR      r0,[sp,#0x74]
        0x0000026a:    2001        .       MOVS     r0,#1
        0x0000026c:    910f        ..      STR      r1,[sp,#0x3c]
        0x0000026e:    901c        ..      STR      r0,[sp,#0x70]
        0x00000270:    2302        .#      MOVS     r3,#2
        0x00000272:    2122        "!      MOVS     r1,#0x22
        0x00000274:    20d0        .       MOVS     r0,#0xd0
        0x00000276:    f002fb56    ..V.    BL       I2C_SequentialRead ; 0x2926
        0x0000027a:    aa10        ..      ADD      r2,sp,#0x40
        0x0000027c:    7850        Px      LDRB     r0,[r2,#1]
        0x0000027e:    0740        @.      LSLS     r0,r0,#29
        0x00000280:    0d44        D.      LSRS     r4,r0,#21
        0x00000282:    7810        .x      LDRB     r0,[r2,#0]
        0x00000284:    4304        .C      ORRS     r4,r4,r0
        0x00000286:    d00a        ..      BEQ      0x29e ; read_fifo + 160
        0x00000288:    a9ff        ..      ADD      r1,sp,#0x3fc
        0x0000028a:    6fc8        .o      LDR      r0,[r1,#0x7c]
        0x0000028c:    3080        .0      ADDS     r0,r0,#0x80
        0x0000028e:    9012        ..      STR      r0,[sp,#0x48]
        0x00000290:    2cf0        .,      CMP      r4,#0xf0
        0x00000292:    d90a        ..      BLS      0x2aa ; read_fifo + 172
        0x00000294:    3cf0        .<      SUBS     r4,r4,#0xf0
        0x00000296:    b2a0        ..      UXTH     r0,r4
        0x00000298:    24f0        .$      MOVS     r4,#0xf0
        0x0000029a:    9014        ..      STR      r0,[sp,#0x50]
        0x0000029c:    e007        ..      B        0x2ae ; read_fifo + 176
        0x0000029e:    2000        .       MOVS     r0,#0
        0x000002a0:    901c        ..      STR      r0,[sp,#0x70]
        0x000002a2:    b07f        ..      ADD      sp,sp,#0x1fc
        0x000002a4:    b07f        ..      ADD      sp,sp,#0x1fc
        0x000002a6:    b021        !.      ADD      sp,sp,#0x84
        0x000002a8:    bdf0        ..      POP      {r4-r7,pc}
        0x000002aa:    2000        .       MOVS     r0,#0
        0x000002ac:    9014        ..      STR      r0,[sp,#0x50]
        0x000002ae:    4623        #F      MOV      r3,r4
        0x000002b0:    aa1e        ..      ADD      r2,sp,#0x78
        0x000002b2:    2124        $!      MOVS     r1,#0x24
        0x000002b4:    20d0        .       MOVS     r0,#0xd0
        0x000002b6:    f002fb36    ..6.    BL       I2C_SequentialRead ; 0x2926
        0x000002ba:    9814        ..      LDR      r0,[sp,#0x50]
        0x000002bc:    2800        .(      CMP      r0,#0
        0x000002be:    d006        ..      BEQ      0x2ce ; read_fifo + 208
        0x000002c0:    22b0        ."      MOVS     r2,#0xb0
        0x000002c2:    217e        ~!      MOVS     r1,#0x7e
        0x000002c4:    20d0        .       MOVS     r0,#0xd0
        0x000002c6:    f002fa73    ..s.    BL       I2C_WriteByte ; 0x27b0
        0x000002ca:    2000        .       MOVS     r0,#0
        0x000002cc:    9014        ..      STR      r0,[sp,#0x50]
        0x000002ce:    210c        .!      MOVS     r1,#0xc
        0x000002d0:    4620         F      MOV      r0,r4
        0x000002d2:    f003fef3    ....    BL       __aeabi_uidiv ; 0x40bc
        0x000002d6:    b2c0        ..      UXTB     r0,r0
        0x000002d8:    4684        .F      MOV      r12,r0
        0x000002da:    9813        ..      LDR      r0,[sp,#0x4c]
        0x000002dc:    e10b        ..      B        0x4f6 ; read_fifo + 760
        0x000002de:    991b        ..      LDR      r1,[sp,#0x6c]
        0x000002e0:    a81e        ..      ADD      r0,sp,#0x78
        0x000002e2:    1840        @.      ADDS     r0,r0,r1
        0x000002e4:    7841        Ax      LDRB     r1,[r0,#1]
        0x000002e6:    7802        .x      LDRB     r2,[r0,#0]
        0x000002e8:    0209        ..      LSLS     r1,r1,#8
        0x000002ea:    4311        .C      ORRS     r1,r1,r2
        0x000002ec:    b20d        ..      SXTH     r5,r1
        0x000002ee:    9912        ..      LDR      r1,[sp,#0x48]
        0x000002f0:    aeff        ..      ADD      r6,sp,#0x3fc
        0x000002f2:    828d        ..      STRH     r5,[r1,#0x14]
        0x000002f4:    78c1        .x      LDRB     r1,[r0,#3]
        0x000002f6:    7882        .x      LDRB     r2,[r0,#2]
        0x000002f8:    0209        ..      LSLS     r1,r1,#8
        0x000002fa:    4311        .C      ORRS     r1,r1,r2
        0x000002fc:    b20c        ..      SXTH     r4,r1
        0x000002fe:    9912        ..      LDR      r1,[sp,#0x48]
        0x00000300:    82cc        ..      STRH     r4,[r1,#0x16]
        0x00000302:    7941        Ay      LDRB     r1,[r0,#5]
        0x00000304:    7902        .y      LDRB     r2,[r0,#4]
        0x00000306:    0209        ..      LSLS     r1,r1,#8
        0x00000308:    4311        .C      ORRS     r1,r1,r2
        0x0000030a:    b20b        ..      SXTH     r3,r1
        0x0000030c:    9912        ..      LDR      r1,[sp,#0x48]
        0x0000030e:    830b        ..      STRH     r3,[r1,#0x18]
        0x00000310:    79c1        .y      LDRB     r1,[r0,#7]
        0x00000312:    7982        .y      LDRB     r2,[r0,#6]
        0x00000314:    0209        ..      LSLS     r1,r1,#8
        0x00000316:    4311        .C      ORRS     r1,r1,r2
        0x00000318:    b20a        ..      SXTH     r2,r1
        0x0000031a:    6ff1        .o      LDR      r1,[r6,#0x7c]
        0x0000031c:    800a        ..      STRH     r2,[r1,#0]
        0x0000031e:    7a41        Az      LDRB     r1,[r0,#9]
        0x00000320:    7a06        .z      LDRB     r6,[r0,#8]
        0x00000322:    0209        ..      LSLS     r1,r1,#8
        0x00000324:    4331        1C      ORRS     r1,r1,r6
        0x00000326:    aeff        ..      ADD      r6,sp,#0x3fc
        0x00000328:    6ff6        .o      LDR      r6,[r6,#0x7c]
        0x0000032a:    b209        ..      SXTH     r1,r1
        0x0000032c:    8071        q.      STRH     r1,[r6,#2]
        0x0000032e:    7ac6        .z      LDRB     r6,[r0,#0xb]
        0x00000330:    7a80        .z      LDRB     r0,[r0,#0xa]
        0x00000332:    0236        6.      LSLS     r6,r6,#8
        0x00000334:    4306        .C      ORRS     r6,r6,r0
        0x00000336:    b230        0.      SXTH     r0,r6
        0x00000338:    aeff        ..      ADD      r6,sp,#0x3fc
        0x0000033a:    6ff6        .o      LDR      r6,[r6,#0x7c]
        0x0000033c:    80b0        ..      STRH     r0,[r6,#4]
        0x0000033e:    9e1d        ..      LDR      r6,[sp,#0x74]
        0x00000340:    2e00        ..      CMP      r6,#0
        0x00000342:    d007        ..      BEQ      0x354 ; read_fifo + 342
        0x00000344:    466f        oF      MOV      r7,sp
        0x00000346:    2608        .&      MOVS     r6,#8
        0x00000348:    5fbe        ._      LDRSH    r6,[r7,r6]
        0x0000034a:    42b5        .B      CMP      r5,r6
        0x0000034c:    dd1e        ..      BLE      0x38c ; read_fifo + 398
        0x0000034e:    463e        >F      MOV      r6,r7
        0x00000350:    813d        =.      STRH     r5,[r7,#8]
        0x00000352:    e020         .      B        0x396 ; read_fifo + 408
        0x00000354:    2701        .'      MOVS     r7,#1
        0x00000356:    466e        nF      MOV      r6,sp
        0x00000358:    971d        ..      STR      r7,[sp,#0x74]
        0x0000035a:    8232        2.      STRH     r2,[r6,#0x10]
        0x0000035c:    8032        2.      STRH     r2,[r6,#0]
        0x0000035e:    8271        q.      STRH     r1,[r6,#0x12]
        0x00000360:    8071        q.      STRH     r1,[r6,#2]
        0x00000362:    82b0        ..      STRH     r0,[r6,#0x14]
        0x00000364:    80b0        ..      STRH     r0,[r6,#4]
        0x00000366:    8632        2.      STRH     r2,[r6,#0x30]
        0x00000368:    8432        2.      STRH     r2,[r6,#0x20]
        0x0000036a:    8671        q.      STRH     r1,[r6,#0x32]
        0x0000036c:    8471        q.      STRH     r1,[r6,#0x22]
        0x0000036e:    86b0        ..      STRH     r0,[r6,#0x34]
        0x00000370:    84b0        ..      STRH     r0,[r6,#0x24]
        0x00000372:    8335        5.      STRH     r5,[r6,#0x18]
        0x00000374:    8135        5.      STRH     r5,[r6,#8]
        0x00000376:    8374        t.      STRH     r4,[r6,#0x1a]
        0x00000378:    8174        t.      STRH     r4,[r6,#0xa]
        0x0000037a:    83b3        ..      STRH     r3,[r6,#0x1c]
        0x0000037c:    81b3        ..      STRH     r3,[r6,#0xc]
        0x0000037e:    8735        5.      STRH     r5,[r6,#0x38]
        0x00000380:    8535        5.      STRH     r5,[r6,#0x28]
        0x00000382:    8774        t.      STRH     r4,[r6,#0x3a]
        0x00000384:    8574        t.      STRH     r4,[r6,#0x2a]
        0x00000386:    87b3        ..      STRH     r3,[r6,#0x3c]
        0x00000388:    85b3        ..      STRH     r3,[r6,#0x2c]
        0x0000038a:    e09a        ..      B        0x4c2 ; read_fifo + 708
        0x0000038c:    2618        .&      MOVS     r6,#0x18
        0x0000038e:    5fbe        ._      LDRSH    r6,[r7,r6]
        0x00000390:    42b5        .B      CMP      r5,r6
        0x00000392:    dd02        ..      BLE      0x39a ; read_fifo + 412
        0x00000394:    463e        >F      MOV      r6,r7
        0x00000396:    8335        5.      STRH     r5,[r6,#0x18]
        0x00000398:    e00c        ..      B        0x3b4 ; read_fifo + 438
        0x0000039a:    2628        (&      MOVS     r6,#0x28
        0x0000039c:    5fbe        ._      LDRSH    r6,[r7,r6]
        0x0000039e:    42b5        .B      CMP      r5,r6
        0x000003a0:    da02        ..      BGE      0x3a8 ; read_fifo + 426
        0x000003a2:    463e        >F      MOV      r6,r7
        0x000003a4:    853d        =.      STRH     r5,[r7,#0x28]
        0x000003a6:    e004        ..      B        0x3b2 ; read_fifo + 436
        0x000003a8:    2638        8&      MOVS     r6,#0x38
        0x000003aa:    5fbe        ._      LDRSH    r6,[r7,r6]
        0x000003ac:    42b5        .B      CMP      r5,r6
        0x000003ae:    da01        ..      BGE      0x3b4 ; read_fifo + 438
        0x000003b0:    463e        >F      MOV      r6,r7
        0x000003b2:    8735        5.      STRH     r5,[r6,#0x38]
        0x000003b4:    260a        .&      MOVS     r6,#0xa
        0x000003b6:    5fbe        ._      LDRSH    r6,[r7,r6]
        0x000003b8:    42b4        .B      CMP      r4,r6
        0x000003ba:    dd02        ..      BLE      0x3c2 ; read_fifo + 452
        0x000003bc:    463e        >F      MOV      r6,r7
        0x000003be:    817c        |.      STRH     r4,[r7,#0xa]
        0x000003c0:    e004        ..      B        0x3cc ; read_fifo + 462
        0x000003c2:    261a        .&      MOVS     r6,#0x1a
        0x000003c4:    5fbe        ._      LDRSH    r6,[r7,r6]
        0x000003c6:    42b4        .B      CMP      r4,r6
        0x000003c8:    dd02        ..      BLE      0x3d0 ; read_fifo + 466
        0x000003ca:    463e        >F      MOV      r6,r7
        0x000003cc:    8374        t.      STRH     r4,[r6,#0x1a]
        0x000003ce:    e00c        ..      B        0x3ea ; read_fifo + 492
        0x000003d0:    262a        *&      MOVS     r6,#0x2a
        0x000003d2:    5fbe        ._      LDRSH    r6,[r7,r6]
        0x000003d4:    42b4        .B      CMP      r4,r6
        0x000003d6:    da02        ..      BGE      0x3de ; read_fifo + 480
        0x000003d8:    463e        >F      MOV      r6,r7
        0x000003da:    857c        |.      STRH     r4,[r7,#0x2a]
        0x000003dc:    e004        ..      B        0x3e8 ; read_fifo + 490
        0x000003de:    263a        :&      MOVS     r6,#0x3a
        0x000003e0:    5fbe        ._      LDRSH    r6,[r7,r6]
        0x000003e2:    42b4        .B      CMP      r4,r6
        0x000003e4:    da01        ..      BGE      0x3ea ; read_fifo + 492
        0x000003e6:    463e        >F      MOV      r6,r7
        0x000003e8:    8774        t.      STRH     r4,[r6,#0x3a]
        0x000003ea:    260c        .&      MOVS     r6,#0xc
        0x000003ec:    5fbe        ._      LDRSH    r6,[r7,r6]
        0x000003ee:    42b3        .B      CMP      r3,r6
        0x000003f0:    dd02        ..      BLE      0x3f8 ; read_fifo + 506
        0x000003f2:    463e        >F      MOV      r6,r7
        0x000003f4:    81bb        ..      STRH     r3,[r7,#0xc]
        0x000003f6:    e004        ..      B        0x402 ; read_fifo + 516
        0x000003f8:    261c        .&      MOVS     r6,#0x1c
        0x000003fa:    5fbe        ._      LDRSH    r6,[r7,r6]
        0x000003fc:    42b3        .B      CMP      r3,r6
        0x000003fe:    dd02        ..      BLE      0x406 ; read_fifo + 520
        0x00000400:    463e        >F      MOV      r6,r7
        0x00000402:    83b3        ..      STRH     r3,[r6,#0x1c]
        0x00000404:    e00c        ..      B        0x420 ; read_fifo + 546
        0x00000406:    262c        ,&      MOVS     r6,#0x2c
        0x00000408:    5fbe        ._      LDRSH    r6,[r7,r6]
        0x0000040a:    42b3        .B      CMP      r3,r6
        0x0000040c:    da02        ..      BGE      0x414 ; read_fifo + 534
        0x0000040e:    463e        >F      MOV      r6,r7
        0x00000410:    85bb        ..      STRH     r3,[r7,#0x2c]
        0x00000412:    e004        ..      B        0x41e ; read_fifo + 544
        0x00000414:    263c        <&      MOVS     r6,#0x3c
        0x00000416:    5fbe        ._      LDRSH    r6,[r7,r6]
        0x00000418:    42b3        .B      CMP      r3,r6
        0x0000041a:    da01        ..      BGE      0x420 ; read_fifo + 546
        0x0000041c:    463e        >F      MOV      r6,r7
        0x0000041e:    87b3        ..      STRH     r3,[r6,#0x3c]
        0x00000420:    2600        .&      MOVS     r6,#0
        0x00000422:    5fbe        ._      LDRSH    r6,[r7,r6]
        0x00000424:    42b2        .B      CMP      r2,r6
        0x00000426:    dd02        ..      BLE      0x42e ; read_fifo + 560
        0x00000428:    463e        >F      MOV      r6,r7
        0x0000042a:    803a        :.      STRH     r2,[r7,#0]
        0x0000042c:    e004        ..      B        0x438 ; read_fifo + 570
        0x0000042e:    2610        .&      MOVS     r6,#0x10
        0x00000430:    5fbe        ._      LDRSH    r6,[r7,r6]
        0x00000432:    42b2        .B      CMP      r2,r6
        0x00000434:    dd02        ..      BLE      0x43c ; read_fifo + 574
        0x00000436:    463e        >F      MOV      r6,r7
        0x00000438:    8232        2.      STRH     r2,[r6,#0x10]
        0x0000043a:    e00c        ..      B        0x456 ; read_fifo + 600
        0x0000043c:    2620         &      MOVS     r6,#0x20
        0x0000043e:    5fbe        ._      LDRSH    r6,[r7,r6]
        0x00000440:    42b2        .B      CMP      r2,r6
        0x00000442:    da02        ..      BGE      0x44a ; read_fifo + 588
        0x00000444:    463e        >F      MOV      r6,r7
        0x00000446:    843a        :.      STRH     r2,[r7,#0x20]
        0x00000448:    e004        ..      B        0x454 ; read_fifo + 598
        0x0000044a:    2630        0&      MOVS     r6,#0x30
        0x0000044c:    5fbe        ._      LDRSH    r6,[r7,r6]
        0x0000044e:    42b2        .B      CMP      r2,r6
        0x00000450:    da01        ..      BGE      0x456 ; read_fifo + 600
        0x00000452:    463e        >F      MOV      r6,r7
        0x00000454:    8632        2.      STRH     r2,[r6,#0x30]
        0x00000456:    2602        .&      MOVS     r6,#2
        0x00000458:    5fbe        ._      LDRSH    r6,[r7,r6]
        0x0000045a:    42b1        .B      CMP      r1,r6
        0x0000045c:    dd02        ..      BLE      0x464 ; read_fifo + 614
        0x0000045e:    463e        >F      MOV      r6,r7
        0x00000460:    8079        y.      STRH     r1,[r7,#2]
        0x00000462:    e004        ..      B        0x46e ; read_fifo + 624
        0x00000464:    2612        .&      MOVS     r6,#0x12
        0x00000466:    5fbe        ._      LDRSH    r6,[r7,r6]
        0x00000468:    42b1        .B      CMP      r1,r6
        0x0000046a:    dd02        ..      BLE      0x472 ; read_fifo + 628
        0x0000046c:    463e        >F      MOV      r6,r7
        0x0000046e:    8271        q.      STRH     r1,[r6,#0x12]
        0x00000470:    e00c        ..      B        0x48c ; read_fifo + 654
        0x00000472:    2622        "&      MOVS     r6,#0x22
        0x00000474:    5fbe        ._      LDRSH    r6,[r7,r6]
        0x00000476:    42b1        .B      CMP      r1,r6
        0x00000478:    da02        ..      BGE      0x480 ; read_fifo + 642
        0x0000047a:    463e        >F      MOV      r6,r7
        0x0000047c:    8479        y.      STRH     r1,[r7,#0x22]
        0x0000047e:    e004        ..      B        0x48a ; read_fifo + 652
        0x00000480:    2632        2&      MOVS     r6,#0x32
        0x00000482:    5fbe        ._      LDRSH    r6,[r7,r6]
        0x00000484:    42b1        .B      CMP      r1,r6
        0x00000486:    da01        ..      BGE      0x48c ; read_fifo + 654
        0x00000488:    463e        >F      MOV      r6,r7
        0x0000048a:    8671        q.      STRH     r1,[r6,#0x32]
        0x0000048c:    2604        .&      MOVS     r6,#4
        0x0000048e:    5fbe        ._      LDRSH    r6,[r7,r6]
        0x00000490:    42b0        .B      CMP      r0,r6
        0x00000492:    dd02        ..      BLE      0x49a ; read_fifo + 668
        0x00000494:    463e        >F      MOV      r6,r7
        0x00000496:    80b8        ..      STRH     r0,[r7,#4]
        0x00000498:    e004        ..      B        0x4a4 ; read_fifo + 678
        0x0000049a:    2614        .&      MOVS     r6,#0x14
        0x0000049c:    5fbe        ._      LDRSH    r6,[r7,r6]
        0x0000049e:    42b0        .B      CMP      r0,r6
        0x000004a0:    dd02        ..      BLE      0x4a8 ; read_fifo + 682
        0x000004a2:    463e        >F      MOV      r6,r7
        0x000004a4:    82b0        ..      STRH     r0,[r6,#0x14]
        0x000004a6:    e00c        ..      B        0x4c2 ; read_fifo + 708
        0x000004a8:    2624        $&      MOVS     r6,#0x24
        0x000004aa:    5fbe        ._      LDRSH    r6,[r7,r6]
        0x000004ac:    42b0        .B      CMP      r0,r6
        0x000004ae:    da02        ..      BGE      0x4b6 ; read_fifo + 696
        0x000004b0:    463e        >F      MOV      r6,r7
        0x000004b2:    84b8        ..      STRH     r0,[r7,#0x24]
        0x000004b4:    e004        ..      B        0x4c0 ; read_fifo + 706
        0x000004b6:    2634        4&      MOVS     r6,#0x34
        0x000004b8:    5fbe        ._      LDRSH    r6,[r7,r6]
        0x000004ba:    42b0        .B      CMP      r0,r6
        0x000004bc:    da01        ..      BGE      0x4c2 ; read_fifo + 708
        0x000004be:    463e        >F      MOV      r6,r7
        0x000004c0:    86b0        ..      STRH     r0,[r6,#0x34]
        0x000004c2:    9e18        ..      LDR      r6,[sp,#0x60]
        0x000004c4:    18b2        ..      ADDS     r2,r6,r2
        0x000004c6:    9218        ..      STR      r2,[sp,#0x60]
        0x000004c8:    9a19        ..      LDR      r2,[sp,#0x64]
        0x000004ca:    1851        Q.      ADDS     r1,r2,r1
        0x000004cc:    9119        ..      STR      r1,[sp,#0x64]
        0x000004ce:    991a        ..      LDR      r1,[sp,#0x68]
        0x000004d0:    1808        ..      ADDS     r0,r1,r0
        0x000004d2:    901a        ..      STR      r0,[sp,#0x68]
        0x000004d4:    9815        ..      LDR      r0,[sp,#0x54]
        0x000004d6:    1940        @.      ADDS     r0,r0,r5
        0x000004d8:    9015        ..      STR      r0,[sp,#0x54]
        0x000004da:    9816        ..      LDR      r0,[sp,#0x58]
        0x000004dc:    1900        ..      ADDS     r0,r0,r4
        0x000004de:    9016        ..      STR      r0,[sp,#0x58]
        0x000004e0:    9817        ..      LDR      r0,[sp,#0x5c]
        0x000004e2:    18c0        ..      ADDS     r0,r0,r3
        0x000004e4:    9017        ..      STR      r0,[sp,#0x5c]
        0x000004e6:    981b        ..      LDR      r0,[sp,#0x6c]
        0x000004e8:    300c        .0      ADDS     r0,r0,#0xc
        0x000004ea:    b280        ..      UXTH     r0,r0
        0x000004ec:    901b        ..      STR      r0,[sp,#0x6c]
        0x000004ee:    9813        ..      LDR      r0,[sp,#0x4c]
        0x000004f0:    1c40        @.      ADDS     r0,r0,#1
        0x000004f2:    b2c0        ..      UXTB     r0,r0
        0x000004f4:    9013        ..      STR      r0,[sp,#0x4c]
        0x000004f6:    4560        `E      CMP      r0,r12
        0x000004f8:    e010        ..      B        0x51c ; read_fifo + 798
    $d
        0x000004fa:    0000        ..      DCW    0
        0x000004fc:    40010000    ...@    DCD    1073807360
        0x00000500:    3cfa0000    ...<    DCD    1023016960
        0x00000504:    20000000    ...     DCD    536870912
        0x00000508:    3a9ce80a    ...:    DCD    983361546
        0x0000050c:    00002710    .'..    DCD    10000
        0x00000510:    000186a0    ....    DCD    100000
        0x00000514:    00013c68    h<..    DCD    81000
        0x00000518:    00006404    .d..    DCD    25604
    $t
        0x0000051c:    d200        ..      BCS      0x520 ; read_fifo + 802
        0x0000051e:    e6de        ..      B        0x2de ; read_fifo + 224
        0x00000520:    9913        ..      LDR      r1,[sp,#0x4c]
        0x00000522:    9811        ..      LDR      r0,[sp,#0x44]
        0x00000524:    1840        @.      ADDS     r0,r0,r1
        0x00000526:    b2c0        ..      UXTB     r0,r0
        0x00000528:    9011        ..      STR      r0,[sp,#0x44]
        0x0000052a:    9814        ..      LDR      r0,[sp,#0x50]
        0x0000052c:    2800        .(      CMP      r0,#0
        0x0000052e:    d003        ..      BEQ      0x538 ; read_fifo + 826
        0x00000530:    4604        .F      MOV      r4,r0
        0x00000532:    2000        .       MOVS     r0,#0
        0x00000534:    9013        ..      STR      r0,[sp,#0x4c]
        0x00000536:    e6ab        ..      B        0x290 ; read_fifo + 146
        0x00000538:    466a        jF      MOV      r2,sp
        0x0000053a:    2100        .!      MOVS     r1,#0
        0x0000053c:    5e51        Q^      LDRSH    r1,[r2,r1]
        0x0000053e:    9818        ..      LDR      r0,[sp,#0x60]
        0x00000540:    1a41        A.      SUBS     r1,r0,r1
        0x00000542:    2020                MOVS     r0,#0x20
        0x00000544:    5e10        .^      LDRSH    r0,[r2,r0]
        0x00000546:    1a08        ..      SUBS     r0,r1,r0
        0x00000548:    9911        ..      LDR      r1,[sp,#0x44]
        0x0000054a:    1e89        ..      SUBS     r1,r1,#2
        0x0000054c:    f003fdcc    ....    BL       __aeabi_idiv ; 0x40e8
        0x00000550:    aaff        ..      ADD      r2,sp,#0x3fc
        0x00000552:    6fd1        .o      LDR      r1,[r2,#0x7c]
        0x00000554:    466a        jF      MOV      r2,sp
        0x00000556:    80c8        ..      STRH     r0,[r1,#6]
        0x00000558:    2102        .!      MOVS     r1,#2
        0x0000055a:    5e51        Q^      LDRSH    r1,[r2,r1]
        0x0000055c:    9819        ..      LDR      r0,[sp,#0x64]
        0x0000055e:    1a40        @.      SUBS     r0,r0,r1
        0x00000560:    2122        "!      MOVS     r1,#0x22
        0x00000562:    5e51        Q^      LDRSH    r1,[r2,r1]
        0x00000564:    1a40        @.      SUBS     r0,r0,r1
        0x00000566:    9911        ..      LDR      r1,[sp,#0x44]
        0x00000568:    1e89        ..      SUBS     r1,r1,#2
        0x0000056a:    f003fdbd    ....    BL       __aeabi_idiv ; 0x40e8
        0x0000056e:    aaff        ..      ADD      r2,sp,#0x3fc
        0x00000570:    6fd1        .o      LDR      r1,[r2,#0x7c]
        0x00000572:    466a        jF      MOV      r2,sp
        0x00000574:    8108        ..      STRH     r0,[r1,#8]
        0x00000576:    2104        .!      MOVS     r1,#4
        0x00000578:    5e51        Q^      LDRSH    r1,[r2,r1]
        0x0000057a:    981a        ..      LDR      r0,[sp,#0x68]
        0x0000057c:    1a40        @.      SUBS     r0,r0,r1
        0x0000057e:    2124        $!      MOVS     r1,#0x24
        0x00000580:    5e51        Q^      LDRSH    r1,[r2,r1]
        0x00000582:    1a40        @.      SUBS     r0,r0,r1
        0x00000584:    9911        ..      LDR      r1,[sp,#0x44]
        0x00000586:    1e89        ..      SUBS     r1,r1,#2
        0x00000588:    f003fdae    ....    BL       __aeabi_idiv ; 0x40e8
        0x0000058c:    aaff        ..      ADD      r2,sp,#0x3fc
        0x0000058e:    6fd1        .o      LDR      r1,[r2,#0x7c]
        0x00000590:    466a        jF      MOV      r2,sp
        0x00000592:    8148        H.      STRH     r0,[r1,#0xa]
        0x00000594:    2108        .!      MOVS     r1,#8
        0x00000596:    5e51        Q^      LDRSH    r1,[r2,r1]
        0x00000598:    9815        ..      LDR      r0,[sp,#0x54]
        0x0000059a:    1a40        @.      SUBS     r0,r0,r1
        0x0000059c:    2128        (!      MOVS     r1,#0x28
        0x0000059e:    5e51        Q^      LDRSH    r1,[r2,r1]
        0x000005a0:    1a40        @.      SUBS     r0,r0,r1
        0x000005a2:    9911        ..      LDR      r1,[sp,#0x44]
        0x000005a4:    1e89        ..      SUBS     r1,r1,#2
        0x000005a6:    f003fd9f    ....    BL       __aeabi_idiv ; 0x40e8
        0x000005aa:    9912        ..      LDR      r1,[sp,#0x48]
        0x000005ac:    466a        jF      MOV      r2,sp
        0x000005ae:    8348        H.      STRH     r0,[r1,#0x1a]
        0x000005b0:    210a        .!      MOVS     r1,#0xa
        0x000005b2:    5e51        Q^      LDRSH    r1,[r2,r1]
        0x000005b4:    9816        ..      LDR      r0,[sp,#0x58]
        0x000005b6:    1a40        @.      SUBS     r0,r0,r1
        0x000005b8:    212a        *!      MOVS     r1,#0x2a
        0x000005ba:    5e51        Q^      LDRSH    r1,[r2,r1]
        0x000005bc:    1a40        @.      SUBS     r0,r0,r1
        0x000005be:    9911        ..      LDR      r1,[sp,#0x44]
        0x000005c0:    1e89        ..      SUBS     r1,r1,#2
        0x000005c2:    f003fd91    ....    BL       __aeabi_idiv ; 0x40e8
        0x000005c6:    9912        ..      LDR      r1,[sp,#0x48]
        0x000005c8:    466a        jF      MOV      r2,sp
        0x000005ca:    8388        ..      STRH     r0,[r1,#0x1c]
        0x000005cc:    210c        .!      MOVS     r1,#0xc
        0x000005ce:    5e51        Q^      LDRSH    r1,[r2,r1]
        0x000005d0:    9817        ..      LDR      r0,[sp,#0x5c]
        0x000005d2:    1a40        @.      SUBS     r0,r0,r1
        0x000005d4:    212c        ,!      MOVS     r1,#0x2c
        0x000005d6:    5e51        Q^      LDRSH    r1,[r2,r1]
        0x000005d8:    1a40        @.      SUBS     r0,r0,r1
        0x000005da:    9911        ..      LDR      r1,[sp,#0x44]
        0x000005dc:    1e89        ..      SUBS     r1,r1,#2
        0x000005de:    f003fd83    ....    BL       __aeabi_idiv ; 0x40e8
        0x000005e2:    9912        ..      LDR      r1,[sp,#0x48]
        0x000005e4:    83c8        ..      STRH     r0,[r1,#0x1e]
        0x000005e6:    981c        ..      LDR      r0,[sp,#0x70]
        0x000005e8:    e65b        [.      B        0x2a2 ; read_fifo + 164
    bmi160_read_raw
        0x000005ea:    b510        ..      PUSH     {r4,lr}
        0x000005ec:    f7fffe07    ....    BL       read_fifo ; 0x1fe
        0x000005f0:    bd10        ..      POP      {r4,pc}
        0x000005f2:    0000        ..      MOVS     r0,r0
    .text
    calculate
        0x000005f4:    b5f0        ..      PUSH     {r4-r7,lr}
        0x000005f6:    2000        .       MOVS     r0,#0
        0x000005f8:    b090        ..      SUB      sp,sp,#0x40
        0x000005fa:    900d        ..      STR      r0,[sp,#0x34]
        0x000005fc:    900c        ..      STR      r0,[sp,#0x30]
        0x000005fe:    900b        ..      STR      r0,[sp,#0x2c]
        0x00000600:    900a        ..      STR      r0,[sp,#0x28]
        0x00000602:    9009        ..      STR      r0,[sp,#0x24]
        0x00000604:    9008        ..      STR      r0,[sp,#0x20]
        0x00000606:    4684        .F      MOV      r12,r0
        0x00000608:    9007        ..      STR      r0,[sp,#0x1c]
        0x0000060a:    48fe        .H      LDR      r0,[pc,#1016] ; [0xa04] = 0x200000b4
        0x0000060c:    7800        .x      LDRB     r0,[r0,#0]
        0x0000060e:    900e        ..      STR      r0,[sp,#0x38]
        0x00000610:    2803        .(      CMP      r0,#3
        0x00000612:    d113        ..      BNE      0x63c ; calculate + 72
        0x00000614:    48fc        .H      LDR      r0,[pc,#1008] ; [0xa08] = 0x22f
        0x00000616:    9007        ..      STR      r0,[sp,#0x1c]
        0x00000618:    48fb        .H      LDR      r0,[pc,#1004] ; [0xa08] = 0x22f
        0x0000061a:    380a        .8      SUBS     r0,r0,#0xa
        0x0000061c:    4684        .F      MOV      r12,r0
        0x0000061e:    207d        }       MOVS     r0,#0x7d
        0x00000620:    0100        ..      LSLS     r0,r0,#4
        0x00000622:    900d        ..      STR      r0,[sp,#0x34]
        0x00000624:    20af        .       MOVS     r0,#0xaf
        0x00000626:    0080        ..      LSLS     r0,r0,#2
        0x00000628:    900c        ..      STR      r0,[sp,#0x30]
        0x0000062a:    48f8        .H      LDR      r0,[pc,#992] ; [0xa0c] = 0xfffffa17
        0x0000062c:    900b        ..      STR      r0,[sp,#0x2c]
        0x0000062e:    202e        .       MOVS     r0,#0x2e
        0x00000630:    900a        ..      STR      r0,[sp,#0x28]
        0x00000632:    48f7        .H      LDR      r0,[pc,#988] ; [0xa10] = 0x333
        0x00000634:    9009        ..      STR      r0,[sp,#0x24]
        0x00000636:    2008        .       MOVS     r0,#8
        0x00000638:    43c0        .C      MVNS     r0,r0
        0x0000063a:    9008        ..      STR      r0,[sp,#0x20]
        0x0000063c:    48f5        .H      LDR      r0,[pc,#980] ; [0xa14] = 0x20000008
        0x0000063e:    7800        .x      LDRB     r0,[r0,#0]
        0x00000640:    900f        ..      STR      r0,[sp,#0x3c]
        0x00000642:    0903        ..      LSRS     r3,r0,#4
        0x00000644:    2001        .       MOVS     r0,#1
        0x00000646:    05c0        ..      LSLS     r0,r0,#23
        0x00000648:    1a08        ..      SUBS     r0,r1,r0
        0x0000064a:    49ee        .I      LDR      r1,[pc,#952] ; [0xa04] = 0x200000b4
        0x0000064c:    1100        ..      ASRS     r0,r0,#4
        0x0000064e:    8aca        ..      LDRH     r2,[r1,#0x16]
        0x00000650:    6acc        .j      LDR      r4,[r1,#0x2c]
        0x00000652:    0112        ..      LSLS     r2,r2,#4
        0x00000654:    1886        ..      ADDS     r6,r0,r2
        0x00000656:    8b48        H.      LDRH     r0,[r1,#0x1a]
        0x00000658:    8b0f        ..      LDRH     r7,[r1,#0x18]
        0x0000065a:    38ff        .8      SUBS     r0,r0,#0xff
        0x0000065c:    3801        .8      SUBS     r0,#1
        0x0000065e:    4370        pC      MULS     r0,r6,r0
        0x00000660:    1385        ..      ASRS     r5,r0,#14
        0x00000662:    8b88        ..      LDRH     r0,[r1,#0x1c]
        0x00000664:    8bca        ..      LDRH     r2,[r1,#0x1e]
        0x00000666:    0124        $.      LSLS     r4,r4,#4
        0x00000668:    9401        ..      STR      r4,[sp,#4]
        0x0000066a:    8c0c        ..      LDRH     r4,[r1,#0x20]
        0x0000066c:    9406        ..      STR      r4,[sp,#0x18]
        0x0000066e:    8c4c        L.      LDRH     r4,[r1,#0x22]
        0x00000670:    9405        ..      STR      r4,[sp,#0x14]
        0x00000672:    684c        Lh      LDR      r4,[r1,#4]
        0x00000674:    9400        ..      STR      r4,[sp,#0]
        0x00000676:    8d0c        ..      LDRH     r4,[r1,#0x28]
        0x00000678:    9404        ..      STR      r4,[sp,#0x10]
        0x0000067a:    8c8c        ..      LDRH     r4,[r1,#0x24]
        0x0000067c:    4370        pC      MULS     r0,r6,r0
        0x0000067e:    9403        ..      STR      r4,[sp,#0xc]
        0x00000680:    1480        ..      ASRS     r0,r0,#18
        0x00000682:    8ccc        ..      LDRH     r4,[r1,#0x26]
        0x00000684:    4370        pC      MULS     r0,r6,r0
        0x00000686:    9402        ..      STR      r4,[sp,#8]
        0x00000688:    1480        ..      ASRS     r0,r0,#18
        0x0000068a:    6b0c        .k      LDR      r4,[r1,#0x30]
        0x0000068c:    4375        uC      MULS     r5,r6,r5
        0x0000068e:    4370        pC      MULS     r0,r6,r0
        0x00000690:    6b49        Ik      LDR      r1,[r1,#0x34]
        0x00000692:    2b01        .+      CMP      r3,#1
        0x00000694:    d02e        ..      BEQ      0x6f4 ; calculate + 256
        0x00000696:    9b0f        ..      LDR      r3,[sp,#0x3c]
        0x00000698:    071b        ..      LSLS     r3,r3,#28
        0x0000069a:    0f1b        ..      LSRS     r3,r3,#28
        0x0000069c:    2b01        .+      CMP      r3,#1
        0x0000069e:    d029        ).      BEQ      0x6f4 ; calculate + 256
        0x000006a0:    4bdd        .K      LDR      r3,[pc,#884] ; [0xa18] = 0x1142
        0x000006a2:    18fb        ..      ADDS     r3,r7,r3
        0x000006a4:    4373        sC      MULS     r3,r6,r3
        0x000006a6:    105f        _.      ASRS     r7,r3,#1
        0x000006a8:    112b        +.      ASRS     r3,r5,#4
        0x000006aa:    4ddc        .M      LDR      r5,[pc,#880] ; [0xa1c] = 0x4e20000
        0x000006ac:    1bed        ..      SUBS     r5,r5,r7
        0x000006ae:    1aed        ..      SUBS     r5,r5,r3
        0x000006b0:    1a2d        -.      SUBS     r5,r5,r0
        0x000006b2:    18fb        ..      ADDS     r3,r7,r3
        0x000006b4:    1818        ..      ADDS     r0,r3,r0
        0x000006b6:    1300        ..      ASRS     r0,r0,#12
        0x000006b8:    4342        BC      MULS     r2,r0,r2
        0x000006ba:    1412        ..      ASRS     r2,r2,#16
        0x000006bc:    13ee        ..      ASRS     r6,r5,#15
        0x000006be:    4623        #F      MOV      r3,r4
        0x000006c0:    4342        BC      MULS     r2,r0,r2
        0x000006c2:    4dd0        .M      LDR      r5,[pc,#832] ; [0xa04] = 0x200000b4
        0x000006c4:    4343        CC      MULS     r3,r0,r3
        0x000006c6:    1092        ..      ASRS     r2,r2,#2
        0x000006c8:    189a        ..      ADDS     r2,r3,r2
        0x000006ca:    1293        ..      ASRS     r3,r2,#10
        0x000006cc:    612e        .a      STR      r6,[r5,#0x10]
        0x000006ce:    9a01        ..      LDR      r2,[sp,#4]
        0x000006d0:    189a        ..      ADDS     r2,r3,r2
        0x000006d2:    4bd3        .K      LDR      r3,[pc,#844] ; [0xa20] = 0x339580
        0x000006d4:    18d2        ..      ADDS     r2,r2,r3
        0x000006d6:    9201        ..      STR      r2,[sp,#4]
        0x000006d8:    4bd2        .K      LDR      r3,[pc,#840] ; [0xa24] = 0x1c29
        0x000006da:    9a06        ..      LDR      r2,[sp,#0x18]
        0x000006dc:    18d2        ..      ADDS     r2,r2,r3
        0x000006de:    9b05        ..      LDR      r3,[sp,#0x14]
        0x000006e0:    4342        BC      MULS     r2,r0,r2
        0x000006e2:    4343        CC      MULS     r3,r0,r3
        0x000006e4:    145b        [.      ASRS     r3,r3,#17
        0x000006e6:    4343        CC      MULS     r3,r0,r3
        0x000006e8:    1292        ..      ASRS     r2,r2,#10
        0x000006ea:    131b        ..      ASRS     r3,r3,#12
        0x000006ec:    4293        .B      CMP      r3,r2
        0x000006ee:    db40        @.      BLT      0x772 ; calculate + 382
        0x000006f0:    1a9d        ..      SUBS     r5,r3,r2
        0x000006f2:    e03f        ?.      B        0x774 ; calculate + 384
        0x000006f4:    4bc8        .K      LDR      r3,[pc,#800] ; [0xa18] = 0x1142
        0x000006f6:    3329        )3      ADDS     r3,r3,#0x29
        0x000006f8:    18fb        ..      ADDS     r3,r7,r3
        0x000006fa:    112f        /.      ASRS     r7,r5,#4
        0x000006fc:    4373        sC      MULS     r3,r6,r3
        0x000006fe:    4dc7        .M      LDR      r5,[pc,#796] ; [0xa1c] = 0x4e20000
        0x00000700:    105b        [.      ASRS     r3,r3,#1
        0x00000702:    1aed        ..      SUBS     r5,r5,r3
        0x00000704:    1bed        ..      SUBS     r5,r5,r7
        0x00000706:    1a2d        -.      SUBS     r5,r5,r0
        0x00000708:    19db        ..      ADDS     r3,r3,r7
        0x0000070a:    1818        ..      ADDS     r0,r3,r0
        0x0000070c:    1300        ..      ASRS     r0,r0,#12
        0x0000070e:    4bc6        .K      LDR      r3,[pc,#792] ; [0xa28] = 0xffffeea5
        0x00000710:    4342        BC      MULS     r2,r0,r2
        0x00000712:    1412        ..      ASRS     r2,r2,#16
        0x00000714:    13ee        ..      ASRS     r6,r5,#15
        0x00000716:    18e3        ..      ADDS     r3,r4,r3
        0x00000718:    4342        BC      MULS     r2,r0,r2
        0x0000071a:    4dba        .M      LDR      r5,[pc,#744] ; [0xa04] = 0x200000b4
        0x0000071c:    4343        CC      MULS     r3,r0,r3
        0x0000071e:    1092        ..      ASRS     r2,r2,#2
        0x00000720:    189a        ..      ADDS     r2,r3,r2
        0x00000722:    1293        ..      ASRS     r3,r2,#10
        0x00000724:    612e        .a      STR      r6,[r5,#0x10]
        0x00000726:    9a01        ..      LDR      r2,[sp,#4]
        0x00000728:    189a        ..      ADDS     r2,r3,r2
        0x0000072a:    4bc0        .K      LDR      r3,[pc,#768] ; [0xa2c] = 0x1d70a0
        0x0000072c:    18d2        ..      ADDS     r2,r2,r3
        0x0000072e:    9201        ..      STR      r2,[sp,#4]
        0x00000730:    4bbc        .K      LDR      r3,[pc,#752] ; [0xa24] = 0x1c29
        0x00000732:    9a06        ..      LDR      r2,[sp,#0x18]
        0x00000734:    3b1d        .;      SUBS     r3,r3,#0x1d
        0x00000736:    18d2        ..      ADDS     r2,r2,r3
        0x00000738:    9b05        ..      LDR      r3,[sp,#0x14]
        0x0000073a:    4342        BC      MULS     r2,r0,r2
        0x0000073c:    4343        CC      MULS     r3,r0,r3
        0x0000073e:    145b        [.      ASRS     r3,r3,#17
        0x00000740:    4343        CC      MULS     r3,r0,r3
        0x00000742:    1292        ..      ASRS     r2,r2,#10
        0x00000744:    131b        ..      ASRS     r3,r3,#12
        0x00000746:    4293        .B      CMP      r3,r2
        0x00000748:    db01        ..      BLT      0x74e ; calculate + 346
        0x0000074a:    1a9d        ..      SUBS     r5,r3,r2
        0x0000074c:    e000        ..      B        0x750 ; calculate + 348
        0x0000074e:    1ad5        ..      SUBS     r5,r2,r3
        0x00000750:    12ee        ..      ASRS     r6,r5,#11
        0x00000752:    4fb7        .O      LDR      r7,[pc,#732] ; [0xa30] = 0x28a1a
        0x00000754:    056d        m.      LSLS     r5,r5,#21
        0x00000756:    19cf        ..      ADDS     r7,r1,r7
        0x00000758:    0d6d        m.      LSRS     r5,r5,#21
        0x0000075a:    437d        }C      MULS     r5,r7,r5
        0x0000075c:    437e        ~C      MULS     r6,r7,r6
        0x0000075e:    0aed        ..      LSRS     r5,r5,#11
        0x00000760:    1a9a        ..      SUBS     r2,r3,r2
        0x00000762:    d502        ..      BPL      0x76a ; calculate + 374
        0x00000764:    1972        r.      ADDS     r2,r6,r5
        0x00000766:    4252        RB      RSBS     r2,r2,#0
        0x00000768:    e000        ..      B        0x76c ; calculate + 376
        0x0000076a:    1972        r.      ADDS     r2,r6,r5
        0x0000076c:    12d3        ..      ASRS     r3,r2,#11
        0x0000076e:    4ab0        .J      LDR      r2,[pc,#704] ; [0xa30] = 0x28a1a
        0x00000770:    e010        ..      B        0x794 ; calculate + 416
        0x00000772:    1ad5        ..      SUBS     r5,r2,r3
        0x00000774:    12ee        ..      ASRS     r6,r5,#11
        0x00000776:    4faf        .O      LDR      r7,[pc,#700] ; [0xa34] = 0x45b9a
        0x00000778:    056d        m.      LSLS     r5,r5,#21
        0x0000077a:    19cf        ..      ADDS     r7,r1,r7
        0x0000077c:    0d6d        m.      LSRS     r5,r5,#21
        0x0000077e:    437d        }C      MULS     r5,r7,r5
        0x00000780:    437e        ~C      MULS     r6,r7,r6
        0x00000782:    0aed        ..      LSRS     r5,r5,#11
        0x00000784:    1a9a        ..      SUBS     r2,r3,r2
        0x00000786:    d502        ..      BPL      0x78e ; calculate + 410
        0x00000788:    1972        r.      ADDS     r2,r6,r5
        0x0000078a:    4252        RB      RSBS     r2,r2,#0
        0x0000078c:    e000        ..      B        0x790 ; calculate + 412
        0x0000078e:    1972        r.      ADDS     r2,r6,r5
        0x00000790:    12d3        ..      ASRS     r3,r2,#11
        0x00000792:    4aa8        .J      LDR      r2,[pc,#672] ; [0xa34] = 0x45b9a
        0x00000794:    9d01        ..      LDR      r5,[sp,#4]
        0x00000796:    189a        ..      ADDS     r2,r3,r2
        0x00000798:    1889        ..      ADDS     r1,r1,r2
        0x0000079a:    9a00        ..      LDR      r2,[sp,#0]
        0x0000079c:    4b99        .K      LDR      r3,[pc,#612] ; [0xa04] = 0x200000b4
        0x0000079e:    1b55        U.      SUBS     r5,r2,r5
        0x000007a0:    2201        ."      MOVS     r2,#1
        0x000007a2:    05d2        ..      LSLS     r2,r2,#23
        0x000007a4:    1aaa        ..      SUBS     r2,r5,r2
        0x000007a6:    12cd        ..      ASRS     r5,r1,#11
        0x000007a8:    10d2        ..      ASRS     r2,r2,#3
        0x000007aa:    0549        I.      LSLS     r1,r1,#21
        0x000007ac:    0d49        I.      LSRS     r1,r1,#21
        0x000007ae:    4351        QC      MULS     r1,r2,r1
        0x000007b0:    4355        UC      MULS     r5,r2,r5
        0x000007b2:    9a04        ..      LDR      r2,[sp,#0x10]
        0x000007b4:    12c9        ..      ASRS     r1,r1,#11
        0x000007b6:    4342        BC      MULS     r2,r0,r2
        0x000007b8:    2001        .       MOVS     r0,#1
        0x000007ba:    0540        @.      LSLS     r0,r0,#21
        0x000007bc:    1810        ..      ADDS     r0,r2,r0
        0x000007be:    1869        i.      ADDS     r1,r5,r1
        0x000007c0:    10c0        ..      ASRS     r0,r0,#3
        0x000007c2:    9a03        ..      LDR      r2,[sp,#0xc]
        0x000007c4:    9d02        ..      LDR      r5,[sp,#8]
        0x000007c6:    4342        BC      MULS     r2,r0,r2
        0x000007c8:    1289        ..      ASRS     r1,r1,#10
        0x000007ca:    4345        EC      MULS     r5,r0,r5
        0x000007cc:    13e8        ..      ASRS     r0,r5,#15
        0x000007ce:    1452        R.      ASRS     r2,r2,#17
        0x000007d0:    4348        HC      MULS     r0,r1,r0
        0x000007d2:    434a        JC      MULS     r2,r1,r2
        0x000007d4:    1480        ..      ASRS     r0,r0,#18
        0x000007d6:    1092        ..      ASRS     r2,r2,#2
        0x000007d8:    4348        HC      MULS     r0,r1,r0
        0x000007da:    1810        ..      ADDS     r0,r2,r0
        0x000007dc:    13c0        ..      ASRS     r0,r0,#15
        0x000007de:    1841        A.      ADDS     r1,r0,r1
        0x000007e0:    4895        .H      LDR      r0,[pc,#596] ; [0xa38] = 0x18628
        0x000007e2:    461a        .F      MOV      r2,r3
        0x000007e4:    1808        ..      ADDS     r0,r1,r0
        0x000007e6:    60d8        .`      STR      r0,[r3,#0xc]
        0x000007e8:    980e        ..      LDR      r0,[sp,#0x38]
        0x000007ea:    2803        .(      CMP      r0,#3
        0x000007ec:    d12d        -.      BNE      0x84a ; calculate + 598
        0x000007ee:    7851        Qx      LDRB     r1,[r2,#1]
        0x000007f0:    07c8        ..      LSLS     r0,r1,#31
        0x000007f2:    d012        ..      BEQ      0x81a ; calculate + 550
        0x000007f4:    2001        .       MOVS     r0,#1
        0x000007f6:    0380        ..      LSLS     r0,r0,#14
        0x000007f8:    1a23        #.      SUBS     r3,r4,r0
        0x000007fa:    4c90        .L      LDR      r4,[pc,#576] ; [0xa3c] = 0xfffff63c
        0x000007fc:    6910        .i      LDR      r0,[r2,#0x10]
        0x000007fe:    1900        ..      ADDS     r0,r0,r4
        0x00000800:    4664        dF      MOV      r4,r12
        0x00000802:    435c        \C      MULS     r4,r3,r4
        0x00000804:    9b07        ..      LDR      r3,[sp,#0x1c]
        0x00000806:    1264        d.      ASRS     r4,r4,#9
        0x00000808:    18e3        ..      ADDS     r3,r4,r3
        0x0000080a:    111b        ..      ASRS     r3,r3,#4
        0x0000080c:    4343        CC      MULS     r3,r0,r3
        0x0000080e:    13db        ..      ASRS     r3,r3,#15
        0x00000810:    4343        CC      MULS     r3,r0,r3
        0x00000812:    12d8        ..      ASRS     r0,r3,#11
        0x00000814:    68d3        .h      LDR      r3,[r2,#0xc]
        0x00000816:    1a18        ..      SUBS     r0,r3,r0
        0x00000818:    60d0        .`      STR      r0,[r2,#0xc]
        0x0000081a:    0788        ..      LSLS     r0,r1,#30
        0x0000081c:    d515        ..      BPL      0x84a ; calculate + 598
        0x0000081e:    6910        .i      LDR      r0,[r2,#0x10]
        0x00000820:    990d        ..      LDR      r1,[sp,#0x34]
        0x00000822:    4288        .B      CMP      r0,r1
        0x00000824:    da11        ..      BGE      0x84a ; calculate + 598
        0x00000826:    9b0b        ..      LDR      r3,[sp,#0x2c]
        0x00000828:    4601        .F      MOV      r1,r0
        0x0000082a:    4359        YC      MULS     r1,r3,r1
        0x0000082c:    140b        ..      ASRS     r3,r1,#16
        0x0000082e:    990a        ..      LDR      r1,[sp,#0x28]
        0x00000830:    1859        Y.      ADDS     r1,r3,r1
        0x00000832:    9b0c        ..      LDR      r3,[sp,#0x30]
        0x00000834:    4298        .B      CMP      r0,r3
        0x00000836:    da05        ..      BGE      0x844 ; calculate + 592
        0x00000838:    9b09        ..      LDR      r3,[sp,#0x24]
        0x0000083a:    4358        XC      MULS     r0,r3,r0
        0x0000083c:    1403        ..      ASRS     r3,r0,#16
        0x0000083e:    9808        ..      LDR      r0,[sp,#0x20]
        0x00000840:    1818        ..      ADDS     r0,r3,r0
        0x00000842:    1841        A.      ADDS     r1,r0,r1
        0x00000844:    68d0        .h      LDR      r0,[r2,#0xc]
        0x00000846:    1a40        @.      SUBS     r0,r0,r1
        0x00000848:    60d0        .`      STR      r0,[r2,#0xc]
        0x0000084a:    b010        ..      ADD      sp,sp,#0x40
        0x0000084c:    bdf0        ..      POP      {r4-r7,pc}
    fbm320_read_long_data
        0x0000084e:    b508        ..      PUSH     {r3,lr}
        0x00000850:    2303        .#      MOVS     r3,#3
        0x00000852:    466a        jF      MOV      r2,sp
        0x00000854:    21f6        .!      MOVS     r1,#0xf6
        0x00000856:    20d8        .       MOVS     r0,#0xd8
        0x00000858:    f002f865    ..e.    BL       I2C_SequentialRead ; 0x2926
        0x0000085c:    4669        iF      MOV      r1,sp
        0x0000085e:    7808        .x      LDRB     r0,[r1,#0]
        0x00000860:    7849        Ix      LDRB     r1,[r1,#1]
        0x00000862:    0400        ..      LSLS     r0,r0,#16
        0x00000864:    0209        ..      LSLS     r1,r1,#8
        0x00000866:    4308        .C      ORRS     r0,r0,r1
        0x00000868:    4669        iF      MOV      r1,sp
        0x0000086a:    7889        .x      LDRB     r1,[r1,#2]
        0x0000086c:    4308        .C      ORRS     r0,r0,r1
        0x0000086e:    bd08        ..      POP      {r3,pc}
    coefficient
        0x00000870:    b5f0        ..      PUSH     {r4-r7,lr}
        0x00000872:    b085        ..      SUB      sp,sp,#0x14
        0x00000874:    2400        .$      MOVS     r4,#0
        0x00000876:    466f        oF      MOV      r7,sp
        0x00000878:    0065        e.      LSLS     r5,r4,#1
        0x0000087a:    4629        )F      MOV      r1,r5
        0x0000087c:    31aa        .1      ADDS     r1,r1,#0xaa
        0x0000087e:    20d8        .       MOVS     r0,#0xd8
        0x00000880:    f001ffe1    ....    BL       I2C_ReadByte ; 0x2846
        0x00000884:    0206        ..      LSLS     r6,r0,#8
        0x00000886:    4629        )F      MOV      r1,r5
        0x00000888:    31ab        .1      ADDS     r1,r1,#0xab
        0x0000088a:    20d8        .       MOVS     r0,#0xd8
        0x0000088c:    f001ffdb    ....    BL       I2C_ReadByte ; 0x2846
        0x00000890:    4306        .C      ORRS     r6,r6,r0
        0x00000892:    1c64        d.      ADDS     r4,r4,#1
        0x00000894:    b2e4        ..      UXTB     r4,r4
        0x00000896:    537e        ~S      STRH     r6,[r7,r5]
        0x00000898:    2c09        .,      CMP      r4,#9
        0x0000089a:    d3ed        ..      BCC      0x878 ; coefficient + 8
        0x0000089c:    21d0        .!      MOVS     r1,#0xd0
        0x0000089e:    20d8        .       MOVS     r0,#0xd8
        0x000008a0:    f001ffd1    ....    BL       I2C_ReadByte ; 0x2846
        0x000008a4:    0204        ..      LSLS     r4,r0,#8
        0x000008a6:    21f1        .!      MOVS     r1,#0xf1
        0x000008a8:    20d8        .       MOVS     r0,#0xd8
        0x000008aa:    f001ffcc    ....    BL       I2C_ReadByte ; 0x2846
        0x000008ae:    4304        .C      ORRS     r4,r4,r0
        0x000008b0:    4668        hF      MOV      r0,sp
        0x000008b2:    8244        D.      STRH     r4,[r0,#0x12]
        0x000008b4:    4857        WH      LDR      r0,[pc,#348] ; [0xa14] = 0x20000008
        0x000008b6:    7801        .x      LDRB     r1,[r0,#0]
        0x000008b8:    4852        RH      LDR      r0,[pc,#328] ; [0xa04] = 0x200000b4
        0x000008ba:    090a        ..      LSRS     r2,r1,#4
        0x000008bc:    2a01        .*      CMP      r2,#1
        0x000008be:    d045        E.      BEQ      0x94c ; coefficient + 220
        0x000008c0:    0709        ..      LSLS     r1,r1,#28
        0x000008c2:    0f09        ..      LSRS     r1,r1,#28
        0x000008c4:    2901        .)      CMP      r1,#1
        0x000008c6:    d041        A.      BEQ      0x94c ; coefficient + 220
        0x000008c8:    466d        mF      MOV      r5,sp
        0x000008ca:    882b        +.      LDRH     r3,[r5,#0]
        0x000008cc:    0919        ..      LSRS     r1,r3,#4
        0x000008ce:    82c1        ..      STRH     r1,[r0,#0x16]
        0x000008d0:    8869        i.      LDRH     r1,[r5,#2]
        0x000008d2:    88ae        ..      LDRH     r6,[r5,#4]
        0x000008d4:    094a        J.      LSRS     r2,r1,#5
        0x000008d6:    08d2        ..      LSRS     r2,r2,#3
        0x000008d8:    0775        u.      LSLS     r5,r6,#29
        0x000008da:    00d2        ..      LSLS     r2,r2,#3
        0x000008dc:    0f6d        m.      LSRS     r5,r5,#29
        0x000008de:    432a        *C      ORRS     r2,r2,r5
        0x000008e0:    8302        ..      STRH     r2,[r0,#0x18]
        0x000008e2:    466d        mF      MOV      r5,sp
        0x000008e4:    892a        *.      LDRH     r2,[r5,#8]
        0x000008e6:    0609        ..      LSLS     r1,r1,#24
        0x000008e8:    07d5        ..      LSLS     r5,r2,#31
        0x000008ea:    0dc9        ..      LSRS     r1,r1,#23
        0x000008ec:    0fed        ..      LSRS     r5,r5,#31
        0x000008ee:    4329        )C      ORRS     r1,r1,r5
        0x000008f0:    8341        A.      STRH     r1,[r0,#0x1a]
        0x000008f2:    08f1        ..      LSRS     r1,r6,#3
        0x000008f4:    8381        ..      STRH     r1,[r0,#0x1c]
        0x000008f6:    466d        mF      MOV      r5,sp
        0x000008f8:    88e9        ..      LDRH     r1,[r5,#6]
        0x000008fa:    0852        R.      LSRS     r2,r2,#1
        0x000008fc:    004e        N.      LSLS     r6,r1,#1
        0x000008fe:    8969        i.      LDRH     r1,[r5,#0xa]
        0x00000900:    071b        ..      LSLS     r3,r3,#28
        0x00000902:    07cd        ..      LSLS     r5,r1,#31
        0x00000904:    0fed        ..      LSRS     r5,r5,#31
        0x00000906:    432e        .C      ORRS     r6,r6,r5
        0x00000908:    62c6        .b      STR      r6,[r0,#0x2c]
        0x0000090a:    6302        .c      STR      r2,[r0,#0x30]
        0x0000090c:    08ca        ..      LSRS     r2,r1,#3
        0x0000090e:    83c2        ..      STRH     r2,[r0,#0x1e]
        0x00000910:    466d        mF      MOV      r5,sp
        0x00000912:    89aa        ..      LDRH     r2,[r5,#0xc]
        0x00000914:    0f9b        ..      LSRS     r3,r3,#30
        0x00000916:    0092        ..      LSLS     r2,r2,#2
        0x00000918:    431a        .C      ORRS     r2,r2,r3
        0x0000091a:    6342        Bc      STR      r2,[r0,#0x34]
        0x0000091c:    89eb        ..      LDRH     r3,[r5,#0xe]
        0x0000091e:    08da        ..      LSRS     r2,r3,#3
        0x00000920:    8402        ..      STRH     r2,[r0,#0x20]
        0x00000922:    8a2a        *.      LDRH     r2,[r5,#0x10]
        0x00000924:    0895        ..      LSRS     r5,r2,#2
        0x00000926:    8445        E.      STRH     r5,[r0,#0x22]
        0x00000928:    09a5        ..      LSRS     r5,r4,#6
        0x0000092a:    08ad        ..      LSRS     r5,r5,#2
        0x0000092c:    0792        ..      LSLS     r2,r2,#30
        0x0000092e:    00ad        ..      LSLS     r5,r5,#2
        0x00000930:    0f92        ..      LSRS     r2,r2,#30
        0x00000932:    4315        .C      ORRS     r5,r5,r2
        0x00000934:    8485        ..      STRH     r5,[r0,#0x24]
        0x00000936:    b2e2        ..      UXTB     r2,r4
        0x00000938:    84c2        ..      STRH     r2,[r0,#0x26]
        0x0000093a:    2206        ."      MOVS     r2,#6
        0x0000093c:    4011        .@      ANDS     r1,r1,r2
        0x0000093e:    0089        ..      LSLS     r1,r1,#2
        0x00000940:    075a        Z.      LSLS     r2,r3,#29
        0x00000942:    0f52        R.      LSRS     r2,r2,#29
        0x00000944:    4311        .C      ORRS     r1,r1,r2
        0x00000946:    8501        ..      STRH     r1,[r0,#0x28]
        0x00000948:    b005        ..      ADD      sp,sp,#0x14
        0x0000094a:    bdf0        ..      POP      {r4-r7,pc}
        0x0000094c:    466d        mF      MOV      r5,sp
        0x0000094e:    8829        ).      LDRH     r1,[r5,#0]
        0x00000950:    090a        ..      LSRS     r2,r1,#4
        0x00000952:    82c2        ..      STRH     r2,[r0,#0x16]
        0x00000954:    886b        k.      LDRH     r3,[r5,#2]
        0x00000956:    095a        Z.      LSRS     r2,r3,#5
        0x00000958:    08d6        ..      LSRS     r6,r2,#3
        0x0000095a:    88aa        ..      LDRH     r2,[r5,#4]
        0x0000095c:    00f6        ..      LSLS     r6,r6,#3
        0x0000095e:    0755        U.      LSLS     r5,r2,#29
        0x00000960:    0f6d        m.      LSRS     r5,r5,#29
        0x00000962:    432e        .C      ORRS     r6,r6,r5
        0x00000964:    8306        ..      STRH     r6,[r0,#0x18]
        0x00000966:    061b        ..      LSLS     r3,r3,#24
        0x00000968:    0dde        ..      LSRS     r6,r3,#23
        0x0000096a:    466d        mF      MOV      r5,sp
        0x0000096c:    892b        +.      LDRH     r3,[r5,#8]
        0x0000096e:    08d2        ..      LSRS     r2,r2,#3
        0x00000970:    07dd        ..      LSLS     r5,r3,#31
        0x00000972:    0fed        ..      LSRS     r5,r5,#31
        0x00000974:    432e        .C      ORRS     r6,r6,r5
        0x00000976:    8346        F.      STRH     r6,[r0,#0x1a]
        0x00000978:    8382        ..      STRH     r2,[r0,#0x1c]
        0x0000097a:    466d        mF      MOV      r5,sp
        0x0000097c:    88ea        ..      LDRH     r2,[r5,#6]
        0x0000097e:    078d        ..      LSLS     r5,r1,#30
        0x00000980:    0092        ..      LSLS     r2,r2,#2
        0x00000982:    0fad        ..      LSRS     r5,r5,#30
        0x00000984:    432a        *C      ORRS     r2,r2,r5
        0x00000986:    62c2        .b      STR      r2,[r0,#0x2c]
        0x00000988:    085a        Z.      LSRS     r2,r3,#1
        0x0000098a:    466d        mF      MOV      r5,sp
        0x0000098c:    6302        .c      STR      r2,[r0,#0x30]
        0x0000098e:    896a        j.      LDRH     r2,[r5,#0xa]
        0x00000990:    08d3        ..      LSRS     r3,r2,#3
        0x00000992:    83c3        ..      STRH     r3,[r0,#0x1e]
        0x00000994:    89ab        ..      LDRH     r3,[r5,#0xc]
        0x00000996:    0752        R.      LSLS     r2,r2,#29
        0x00000998:    00db        ..      LSLS     r3,r3,#3
        0x0000099a:    0f52        R.      LSRS     r2,r2,#29
        0x0000099c:    4313        .C      ORRS     r3,r3,r2
        0x0000099e:    6343        Cc      STR      r3,[r0,#0x34]
        0x000009a0:    89ea        ..      LDRH     r2,[r5,#0xe]
        0x000009a2:    08d3        ..      LSRS     r3,r2,#3
        0x000009a4:    8403        ..      STRH     r3,[r0,#0x20]
        0x000009a6:    8a2b        +.      LDRH     r3,[r5,#0x10]
        0x000009a8:    0752        R.      LSLS     r2,r2,#29
        0x000009aa:    089d        ..      LSRS     r5,r3,#2
        0x000009ac:    8445        E.      STRH     r5,[r0,#0x22]
        0x000009ae:    09a5        ..      LSRS     r5,r4,#6
        0x000009b0:    08ad        ..      LSRS     r5,r5,#2
        0x000009b2:    079b        ..      LSLS     r3,r3,#30
        0x000009b4:    00ad        ..      LSLS     r5,r5,#2
        0x000009b6:    0f9b        ..      LSRS     r3,r3,#30
        0x000009b8:    431d        .C      ORRS     r5,r5,r3
        0x000009ba:    8485        ..      STRH     r5,[r0,#0x24]
        0x000009bc:    b2e3        ..      UXTB     r3,r4
        0x000009be:    84c3        ..      STRH     r3,[r0,#0x26]
        0x000009c0:    230c        .#      MOVS     r3,#0xc
        0x000009c2:    4019        .@      ANDS     r1,r1,r3
        0x000009c4:    0049        I.      LSLS     r1,r1,#1
        0x000009c6:    0f52        R.      LSRS     r2,r2,#29
        0x000009c8:    e7bc        ..      B        0x944 ; coefficient + 212
    fbm320_init
        0x000009ca:    b570        p.      PUSH     {r4-r6,lr}
        0x000009cc:    216b        k!      MOVS     r1,#0x6b
        0x000009ce:    20d8        .       MOVS     r0,#0xd8
        0x000009d0:    f001ff39    ..9.    BL       I2C_ReadByte ; 0x2846
        0x000009d4:    2842        B(      CMP      r0,#0x42
        0x000009d6:    d001        ..      BEQ      0x9dc ; fbm320_init + 18
        0x000009d8:    2000        .       MOVS     r0,#0
        0x000009da:    bd70        p.      POP      {r4-r6,pc}
        0x000009dc:    21a5        .!      MOVS     r1,#0xa5
        0x000009de:    20d8        .       MOVS     r0,#0xd8
        0x000009e0:    f001ff31    ..1.    BL       I2C_ReadByte ; 0x2846
        0x000009e4:    2170        p!      MOVS     r1,#0x70
        0x000009e6:    4008        .@      ANDS     r0,r0,r1
        0x000009e8:    0885        ..      LSRS     r5,r0,#2
        0x000009ea:    21f4        .!      MOVS     r1,#0xf4
        0x000009ec:    20d8        .       MOVS     r0,#0xd8
        0x000009ee:    f001ff2a    ..*.    BL       I2C_ReadByte ; 0x2846
        0x000009f2:    0980        ..      LSRS     r0,r0,#6
        0x000009f4:    4305        .C      ORRS     r5,r5,r0
        0x000009f6:    4c03        .L      LDR      r4,[pc,#12] ; [0xa04] = 0x200000b4
        0x000009f8:    2003        .       MOVS     r0,#3
        0x000009fa:    7025        %p      STRB     r5,[r4,#0]
        0x000009fc:    7060        `p      STRB     r0,[r4,#1]
        0x000009fe:    4805        .H      LDR      r0,[pc,#20] ; [0xa14] = 0x20000008
        0x00000a00:    7801        .x      LDRB     r1,[r0,#0]
        0x00000a02:    e01d        ..      B        0xa40 ; fbm320_init + 118
    $d
        0x00000a04:    200000b4    ...     DCD    536871092
        0x00000a08:    0000022f    /...    DCD    559
        0x00000a0c:    fffffa17    ....    DCD    4294965783
        0x00000a10:    00000333    3...    DCD    819
        0x00000a14:    20000008    ...     DCD    536870920
        0x00000a18:    00001142    B...    DCD    4418
        0x00000a1c:    04e20000    ....    DCD    81920000
        0x00000a20:    00339580    ..3.    DCD    3380608
        0x00000a24:    00001c29    )...    DCD    7209
        0x00000a28:    ffffeea5    ....    DCD    4294962853
        0x00000a2c:    001d70a0    .p..    DCD    1929376
        0x00000a30:    00028a1a    ....    DCD    166426
        0x00000a34:    00045b9a    .[..    DCD    285594
        0x00000a38:    00018628    (...    DCD    99880
        0x00000a3c:    fffff63c    <...    DCD    4294964796
    $t
        0x00000a40:    2201        ."      MOVS     r2,#1
        0x00000a42:    4311        .C      ORRS     r1,r1,r2
        0x00000a44:    7001        .p      STRB     r1,[r0,#0]
        0x00000a46:    f7ffff13    ....    BL       coefficient ; 0x870
        0x00000a4a:    222e        ."      MOVS     r2,#0x2e
        0x00000a4c:    21f4        .!      MOVS     r1,#0xf4
        0x00000a4e:    20d8        .       MOVS     r0,#0xd8
        0x00000a50:    f001feae    ....    BL       I2C_WriteByte ; 0x27b0
        0x00000a54:    4d75        uM      LDR      r5,[pc,#468] ; [0xc2c] = 0x40010000
        0x00000a56:    4974        tI      LDR      r1,[pc,#464] ; [0xc28] = 0x1388
        0x00000a58:    4628        (F      MOV      r0,r5
        0x00000a5a:    f002ff03    ....    BL       TIMER_Delay ; 0x3864
        0x00000a5e:    f7fffef6    ....    BL       fbm320_read_long_data ; 0x84e
        0x00000a62:    22f4        ."      MOVS     r2,#0xf4
        0x00000a64:    60a0        .`      STR      r0,[r4,#8]
        0x00000a66:    4611        .F      MOV      r1,r2
        0x00000a68:    20d8        .       MOVS     r0,#0xd8
        0x00000a6a:    f001fea1    ....    BL       I2C_WriteByte ; 0x27b0
        0x00000a6e:    4970        pI      LDR      r1,[pc,#448] ; [0xc30] = 0x4e20
        0x00000a70:    4628        (F      MOV      r0,r5
        0x00000a72:    f002fef7    ....    BL       TIMER_Delay ; 0x3864
        0x00000a76:    f7fffeea    ....    BL       fbm320_read_long_data ; 0x84e
        0x00000a7a:    6060        ``      STR      r0,[r4,#4]
        0x00000a7c:    68a1        .h      LDR      r1,[r4,#8]
        0x00000a7e:    f7fffdb9    ....    BL       calculate ; 0x5f4
        0x00000a82:    222e        ."      MOVS     r2,#0x2e
        0x00000a84:    21f4        .!      MOVS     r1,#0xf4
        0x00000a86:    20d8        .       MOVS     r0,#0xd8
        0x00000a88:    f001fe92    ....    BL       I2C_WriteByte ; 0x27b0
        0x00000a8c:    2001        .       MOVS     r0,#1
        0x00000a8e:    bd70        p.      POP      {r4-r6,pc}
    abs_altitude
        0x00000a90:    b530        0.      PUSH     {r4,r5,lr}
        0x00000a92:    4968        hI      LDR      r1,[pc,#416] ; [0xc34] = 0x19258
        0x00000a94:    4288        .B      CMP      r0,r1
        0x00000a96:    db05        ..      BLT      0xaa4 ; abs_altitude + 20
        0x00000a98:    2367        g#      MOVS     r3,#0x67
        0x00000a9a:    22ff        ."      MOVS     r2,#0xff
        0x00000a9c:    4c66        fL      LDR      r4,[pc,#408] ; [0xc38] = 0xfffde2f5
        0x00000a9e:    4967        gI      LDR      r1,[pc,#412] ; [0xc3c] = 0xffffadf1
        0x00000aa0:    3238        82      ADDS     r2,r2,#0x38
        0x00000aa2:    e07d        }.      B        0xba0 ; abs_altitude + 272
        0x00000aa4:    4966        fI      LDR      r1,[pc,#408] ; [0xc40] = 0x17ed0
        0x00000aa6:    4288        .B      CMP      r0,r1
        0x00000aa8:    db05        ..      BLT      0xab6 ; abs_altitude + 38
        0x00000aaa:    2362        b#      MOVS     r3,#0x62
        0x00000aac:    22ff        ."      MOVS     r2,#0xff
        0x00000aae:    4c65        eL      LDR      r4,[pc,#404] ; [0xc44] = 0x447d3
        0x00000ab0:    4965        eI      LDR      r1,[pc,#404] ; [0xc48] = 0xffffaa93
        0x00000ab2:    3253        S2      ADDS     r2,r2,#0x53
        0x00000ab4:    e074        t.      B        0xba0 ; abs_altitude + 272
        0x00000ab6:    4965        eI      LDR      r1,[pc,#404] ; [0xc4c] = 0x16b48
        0x00000ab8:    4288        .B      CMP      r0,r1
        0x00000aba:    db05        ..      BLT      0xac8 ; abs_altitude + 56
        0x00000abc:    235d        ]#      MOVS     r3,#0x5d
        0x00000abe:    22ff        ."      MOVS     r2,#0xff
        0x00000ac0:    4c63        cL      LDR      r4,[pc,#396] ; [0xc50] = 0xaf1c5
        0x00000ac2:    4964        dI      LDR      r1,[pc,#400] ; [0xc54] = 0xffffa6e3
        0x00000ac4:    3273        s2      ADDS     r2,r2,#0x73
        0x00000ac6:    e06b        k.      B        0xba0 ; abs_altitude + 272
        0x00000ac8:    4963        cI      LDR      r1,[pc,#396] ; [0xc58] = 0x157c0
        0x00000aca:    4288        .B      CMP      r0,r1
        0x00000acc:    db05        ..      BLT      0xada ; abs_altitude + 74
        0x00000ace:    2358        X#      MOVS     r3,#0x58
        0x00000ad0:    22ff        ."      MOVS     r2,#0xff
        0x00000ad2:    4c62        bL      LDR      r4,[pc,#392] ; [0xc5c] = 0x11e7ad
        0x00000ad4:    4962        bI      LDR      r1,[pc,#392] ; [0xc60] = 0xffffa2d2
        0x00000ad6:    3298        .2      ADDS     r2,r2,#0x98
        0x00000ad8:    e062        b.      B        0xba0 ; abs_altitude + 272
        0x00000ada:    4962        bI      LDR      r1,[pc,#392] ; [0xc64] = 0x14438
        0x00000adc:    4288        .B      CMP      r0,r1
        0x00000ade:    db05        ..      BLT      0xaec ; abs_altitude + 92
        0x00000ae0:    2353        S#      MOVS     r3,#0x53
        0x00000ae2:    22ff        ."      MOVS     r2,#0xff
        0x00000ae4:    4c60        `L      LDR      r4,[pc,#384] ; [0xc68] = 0x19318c
        0x00000ae6:    4961        aI      LDR      r1,[pc,#388] ; [0xc6c] = 0xffff9e51
        0x00000ae8:    32c3        .2      ADDS     r2,r2,#0xc3
        0x00000aea:    e059        Y.      B        0xba0 ; abs_altitude + 272
        0x00000aec:    4960        `I      LDR      r1,[pc,#384] ; [0xc70] = 0x130b0
        0x00000aee:    4288        .B      CMP      r0,r1
        0x00000af0:    db05        ..      BLT      0xafe ; abs_altitude + 110
        0x00000af2:    234e        N#      MOVS     r3,#0x4e
        0x00000af4:    22ff        ."      MOVS     r2,#0xff
        0x00000af6:    4c5f        _L      LDR      r4,[pc,#380] ; [0xc74] = 0x20d8c5
        0x00000af8:    495f        _I      LDR      r1,[pc,#380] ; [0xc78] = 0xffff994c
        0x00000afa:    32f6        .2      ADDS     r2,r2,#0xf6
        0x00000afc:    e050        P.      B        0xba0 ; abs_altitude + 272
        0x00000afe:    495f        _I      LDR      r1,[pc,#380] ; [0xc7c] = 0x11d28
        0x00000b00:    4288        .B      CMP      r0,r1
        0x00000b02:    db05        ..      BLT      0xb10 ; abs_altitude + 128
        0x00000b04:    2349        I#      MOVS     r3,#0x49
        0x00000b06:    2223        #"      MOVS     r2,#0x23
        0x00000b08:    4c5d        ]L      LDR      r4,[pc,#372] ; [0xc80] = 0x28e87a
        0x00000b0a:    495e        ^I      LDR      r1,[pc,#376] ; [0xc84] = 0xffff93a9
        0x00000b0c:    0112        ..      LSLS     r2,r2,#4
        0x00000b0e:    e047        G.      B        0xba0 ; abs_altitude + 272
        0x00000b10:    495d        ]I      LDR      r1,[pc,#372] ; [0xc88] = 0x109a0
        0x00000b12:    4288        .B      CMP      r0,r1
        0x00000b14:    db05        ..      BLT      0xb22 ; abs_altitude + 146
        0x00000b16:    2344        D#      MOVS     r3,#0x44
        0x00000b18:    224f        O"      MOVS     r2,#0x4f
        0x00000b1a:    4c5c        \L      LDR      r4,[pc,#368] ; [0xc8c] = 0x316e02
        0x00000b1c:    495c        \I      LDR      r1,[pc,#368] ; [0xc90] = 0xffff8d4a
        0x00000b1e:    00d2        ..      LSLS     r2,r2,#3
        0x00000b20:    e03e        >.      B        0xba0 ; abs_altitude + 272
        0x00000b22:    495c        \I      LDR      r1,[pc,#368] ; [0xc94] = 0xf618
        0x00000b24:    4288        .B      CMP      r0,r1
        0x00000b26:    db04        ..      BLT      0xb32 ; abs_altitude + 162
        0x00000b28:    233f        ?#      MOVS     r3,#0x3f
        0x00000b2a:    4c5b        [L      LDR      r4,[pc,#364] ; [0xc98] = 0x3a798c
        0x00000b2c:    495b        [I      LDR      r1,[pc,#364] ; [0xc9c] = 0xffff8603
        0x00000b2e:    4a5c        \J      LDR      r2,[pc,#368] ; [0xca0] = 0x2cf
        0x00000b30:    e036        6.      B        0xba0 ; abs_altitude + 272
        0x00000b32:    495c        \I      LDR      r1,[pc,#368] ; [0xca4] = 0xe290
        0x00000b34:    4288        .B      CMP      r0,r1
        0x00000b36:    db05        ..      BLT      0xb44 ; abs_altitude + 180
        0x00000b38:    4a59        YJ      LDR      r2,[pc,#356] ; [0xca0] = 0x2cf
        0x00000b3a:    233a        :#      MOVS     r3,#0x3a
        0x00000b3c:    4c5a        ZL      LDR      r4,[pc,#360] ; [0xca8] = 0x441f03
        0x00000b3e:    495b        [I      LDR      r1,[pc,#364] ; [0xcac] = 0xffff7d9f
        0x00000b40:    326b        k2      ADDS     r2,r2,#0x6b
        0x00000b42:    e02d        -.      B        0xba0 ; abs_altitude + 272
        0x00000b44:    495a        ZI      LDR      r1,[pc,#360] ; [0xcb0] = 0xcf08
        0x00000b46:    4288        .B      CMP      r0,r1
        0x00000b48:    db05        ..      BLT      0xb56 ; abs_altitude + 198
        0x00000b4a:    2335        5#      MOVS     r3,#0x35
        0x00000b4c:    220f        ."      MOVS     r2,#0xf
        0x00000b4e:    4c59        YL      LDR      r4,[pc,#356] ; [0xcb4] = 0x4e7757
        0x00000b50:    4959        YI      LDR      r1,[pc,#356] ; [0xcb8] = 0xffff73d3
        0x00000b52:    0192        ..      LSLS     r2,r2,#6
        0x00000b54:    e024        $.      B        0xba0 ; abs_altitude + 272
        0x00000b56:    4959        YI      LDR      r1,[pc,#356] ; [0xcbc] = 0xbb80
        0x00000b58:    4288        .B      CMP      r0,r1
        0x00000b5a:    db04        ..      BLT      0xb66 ; abs_altitude + 214
        0x00000b5c:    2330        0#      MOVS     r3,#0x30
        0x00000b5e:    4c58        XL      LDR      r4,[pc,#352] ; [0xcc0] = 0x59a25c
        0x00000b60:    4958        XI      LDR      r1,[pc,#352] ; [0xcc4] = 0xffff6839
        0x00000b62:    4a59        YJ      LDR      r2,[pc,#356] ; [0xcc8] = 0x46b
        0x00000b64:    e01c        ..      B        0xba0 ; abs_altitude + 272
        0x00000b66:    4959        YI      LDR      r1,[pc,#356] ; [0xccc] = 0xa7f8
        0x00000b68:    4288        .B      CMP      r0,r1
        0x00000b6a:    db05        ..      BLT      0xb78 ; abs_altitude + 232
        0x00000b6c:    4a56        VJ      LDR      r2,[pc,#344] ; [0xcc8] = 0x46b
        0x00000b6e:    232b        +#      MOVS     r3,#0x2b
        0x00000b70:    4c57        WL      LDR      r4,[pc,#348] ; [0xcd0] = 0x65c9aa
        0x00000b72:    4958        XI      LDR      r1,[pc,#352] ; [0xcd4] = 0xffff5a3e
        0x00000b74:    32df        .2      ADDS     r2,r2,#0xdf
        0x00000b76:    e013        ..      B        0xba0 ; abs_altitude + 272
        0x00000b78:    4957        WI      LDR      r1,[pc,#348] ; [0xcd8] = 0x9470
        0x00000b7a:    4288        .B      CMP      r0,r1
        0x00000b7c:    db04        ..      BLT      0xb88 ; abs_altitude + 248
        0x00000b7e:    2326        &#      MOVS     r3,#0x26
        0x00000b80:    4c56        VL      LDR      r4,[pc,#344] ; [0xcdc] = 0x73252d
        0x00000b82:    4957        WI      LDR      r1,[pc,#348] ; [0xce0] = 0xffff4907
        0x00000b84:    4a57        WJ      LDR      r2,[pc,#348] ; [0xce4] = 0x676
        0x00000b86:    e00b        ..      B        0xba0 ; abs_altitude + 272
        0x00000b88:    4957        WI      LDR      r1,[pc,#348] ; [0xce8] = 0x80e8
        0x00000b8a:    4288        .B      CMP      r0,r1
        0x00000b8c:    db04        ..      BLT      0xb98 ; abs_altitude + 264
        0x00000b8e:    2321        !#      MOVS     r3,#0x21
        0x00000b90:    4c56        VL      LDR      r4,[pc,#344] ; [0xcec] = 0x8202cb
        0x00000b92:    4957        WI      LDR      r1,[pc,#348] ; [0xcf0] = 0xffff3344
        0x00000b94:    4a57        WJ      LDR      r2,[pc,#348] ; [0xcf4] = 0x818
        0x00000b96:    e003        ..      B        0xba0 ; abs_altitude + 272
        0x00000b98:    4c57        WL      LDR      r4,[pc,#348] ; [0xcf8] = 0x92d408
        0x00000b9a:    4958        XI      LDR      r1,[pc,#352] ; [0xcfc] = 0xffff16c8
        0x00000b9c:    4a58        XJ      LDR      r2,[pc,#352] ; [0xd00] = 0xa7a
        0x00000b9e:    231c        .#      MOVS     r3,#0x1c
        0x00000ba0:    257d        }%      MOVS     r5,#0x7d
        0x00000ba2:    00ed        ..      LSLS     r5,r5,#3
        0x00000ba4:    436b        kC      MULS     r3,r5,r3
        0x00000ba6:    1ac0        ..      SUBS     r0,r0,r3
        0x00000ba8:    b200        ..      SXTH     r0,r0
        0x00000baa:    4342        BC      MULS     r2,r0,r2
        0x00000bac:    4341        AC      MULS     r1,r0,r1
        0x00000bae:    1292        ..      ASRS     r2,r2,#10
        0x00000bb0:    4342        BC      MULS     r2,r0,r2
        0x00000bb2:    1110        ..      ASRS     r0,r2,#4
        0x00000bb4:    1089        ..      ASRS     r1,r1,#2
        0x00000bb6:    01a2        ..      LSLS     r2,r4,#6
        0x00000bb8:    1851        Q.      ADDS     r1,r2,r1
        0x00000bba:    1808        ..      ADDS     r0,r1,r0
        0x00000bbc:    1180        ..      ASRS     r0,r0,#6
        0x00000bbe:    bd30        0.      POP      {r4,r5,pc}
    fbm320_timer_procedure
        0x00000bc0:    b570        p.      PUSH     {r4-r6,lr}
        0x00000bc2:    4d50        PM      LDR      r5,[pc,#320] ; [0xd04] = 0x20000008
        0x00000bc4:    2601        .&      MOVS     r6,#1
        0x00000bc6:    8868        h.      LDRH     r0,[r5,#2]
        0x00000bc8:    2800        .(      CMP      r0,#0
        0x00000bca:    d005        ..      BEQ      0xbd8 ; fbm320_timer_procedure + 24
        0x00000bcc:    4c4e        NL      LDR      r4,[pc,#312] ; [0xd08] = 0x200000b4
        0x00000bce:    2801        .(      CMP      r0,#1
        0x00000bd0:    d004        ..      BEQ      0xbdc ; fbm320_timer_procedure + 28
        0x00000bd2:    2802        .(      CMP      r0,#2
        0x00000bd4:    d120         .      BNE      0xc18 ; fbm320_timer_procedure + 88
        0x00000bd6:    e00a        ..      B        0xbee ; fbm320_timer_procedure + 46
        0x00000bd8:    22f4        ."      MOVS     r2,#0xf4
        0x00000bda:    e003        ..      B        0xbe4 ; fbm320_timer_procedure + 36
        0x00000bdc:    f7fffe37    ..7.    BL       fbm320_read_long_data ; 0x84e
        0x00000be0:    222e        ."      MOVS     r2,#0x2e
        0x00000be2:    6060        ``      STR      r0,[r4,#4]
        0x00000be4:    21f4        .!      MOVS     r1,#0xf4
        0x00000be6:    20d8        .       MOVS     r0,#0xd8
        0x00000be8:    f001fde2    ....    BL       I2C_WriteByte ; 0x27b0
        0x00000bec:    e014        ..      B        0xc18 ; fbm320_timer_procedure + 88
        0x00000bee:    f7fffe2e    ....    BL       fbm320_read_long_data ; 0x84e
        0x00000bf2:    22f4        ."      MOVS     r2,#0xf4
        0x00000bf4:    60a0        .`      STR      r0,[r4,#8]
        0x00000bf6:    4611        .F      MOV      r1,r2
        0x00000bf8:    20d8        .       MOVS     r0,#0xd8
        0x00000bfa:    f001fdd9    ....    BL       I2C_WriteByte ; 0x27b0
        0x00000bfe:    68a1        .h      LDR      r1,[r4,#8]
        0x00000c00:    6860        `h      LDR      r0,[r4,#4]
        0x00000c02:    f7fffcf7    ....    BL       calculate ; 0x5f4
        0x00000c06:    68e0        .h      LDR      r0,[r4,#0xc]
        0x00000c08:    f7ffff42    ..B.    BL       abs_altitude ; 0xa90
        0x00000c0c:    210a        .!      MOVS     r1,#0xa
        0x00000c0e:    f003fa6b    ..k.    BL       __aeabi_idiv ; 0x40e8
        0x00000c12:    82a0        ..      STRH     r0,[r4,#0x14]
        0x00000c14:    483d        =H      LDR      r0,[pc,#244] ; [0xd0c] = 0x20000010
        0x00000c16:    70c6        .p      STRB     r6,[r0,#3]
        0x00000c18:    8868        h.      LDRH     r0,[r5,#2]
        0x00000c1a:    2803        .(      CMP      r0,#3
        0x00000c1c:    d202        ..      BCS      0xc24 ; fbm320_timer_procedure + 100
        0x00000c1e:    1c40        @.      ADDS     r0,r0,#1
        0x00000c20:    8068        h.      STRH     r0,[r5,#2]
        0x00000c22:    bd70        p.      POP      {r4-r6,pc}
        0x00000c24:    806e        n.      STRH     r6,[r5,#2]
        0x00000c26:    bd70        p.      POP      {r4-r6,pc}
    $d
        0x00000c28:    00001388    ....    DCD    5000
        0x00000c2c:    40010000    ...@    DCD    1073807360
        0x00000c30:    00004e20     N..    DCD    20000
        0x00000c34:    00019258    X...    DCD    103000
        0x00000c38:    fffde2f5    ....    DCD    4294828789
        0x00000c3c:    ffffadf1    ....    DCD    4294946289
        0x00000c40:    00017ed0    .~..    DCD    98000
        0x00000c44:    000447d3    .G..    DCD    280531
        0x00000c48:    ffffaa93    ....    DCD    4294945427
        0x00000c4c:    00016b48    Hk..    DCD    93000
        0x00000c50:    000af1c5    ....    DCD    717253
        0x00000c54:    ffffa6e3    ....    DCD    4294944483
        0x00000c58:    000157c0    .W..    DCD    88000
        0x00000c5c:    0011e7ad    ....    DCD    1173421
        0x00000c60:    ffffa2d2    ....    DCD    4294943442
        0x00000c64:    00014438    8D..    DCD    83000
        0x00000c68:    0019318c    .1..    DCD    1651084
        0x00000c6c:    ffff9e51    Q...    DCD    4294942289
        0x00000c70:    000130b0    .0..    DCD    78000
        0x00000c74:    0020d8c5    .. .    DCD    2152645
        0x00000c78:    ffff994c    L...    DCD    4294941004
        0x00000c7c:    00011d28    (...    DCD    73000
        0x00000c80:    0028e87a    z.(.    DCD    2680954
        0x00000c84:    ffff93a9    ....    DCD    4294939561
        0x00000c88:    000109a0    ....    DCD    68000
        0x00000c8c:    00316e02    .n1.    DCD    3239426
        0x00000c90:    ffff8d4a    J...    DCD    4294937930
        0x00000c94:    0000f618    ....    DCD    63000
        0x00000c98:    003a798c    .y:.    DCD    3832204
        0x00000c9c:    ffff8603    ....    DCD    4294936067
        0x00000ca0:    000002cf    ....    DCD    719
        0x00000ca4:    0000e290    ....    DCD    58000
        0x00000ca8:    00441f03    ..D.    DCD    4464387
        0x00000cac:    ffff7d9f    .}..    DCD    4294933919
        0x00000cb0:    0000cf08    ....    DCD    53000
        0x00000cb4:    004e7757    WwN.    DCD    5142359
        0x00000cb8:    ffff73d3    .s..    DCD    4294931411
        0x00000cbc:    0000bb80    ....    DCD    48000
        0x00000cc0:    0059a25c    \.Y.    DCD    5874268
        0x00000cc4:    ffff6839    9h..    DCD    4294928441
        0x00000cc8:    0000046b    k...    DCD    1131
        0x00000ccc:    0000a7f8    ....    DCD    43000
        0x00000cd0:    0065c9aa    ..e.    DCD    6670762
        0x00000cd4:    ffff5a3e    >Z..    DCD    4294924862
        0x00000cd8:    00009470    p...    DCD    38000
        0x00000cdc:    0073252d    -%s.    DCD    7546157
        0x00000ce0:    ffff4907    .I..    DCD    4294920455
        0x00000ce4:    00000676    v...    DCD    1654
        0x00000ce8:    000080e8    ....    DCD    33000
        0x00000cec:    008202cb    ....    DCD    8520395
        0x00000cf0:    ffff3344    D3..    DCD    4294914884
        0x00000cf4:    00000818    ....    DCD    2072
        0x00000cf8:    0092d408    ....    DCD    9622536
        0x00000cfc:    ffff16c8    ....    DCD    4294907592
        0x00000d00:    00000a7a    z...    DCD    2682
        0x00000d04:    20000008    ...     DCD    536870920
        0x00000d08:    200000b4    ...     DCD    536871092
        0x00000d0c:    20000010    ...     DCD    536870928
    $t
    .text
    motor_init
        0x00000d10:    b57c        |.      PUSH     {r2-r6,lr}
        0x00000d12:    4d3b        ;M      LDR      r5,[pc,#236] ; [0xe00] = 0x55f0
        0x00000d14:    4c3b        ;L      LDR      r4,[pc,#236] ; [0xe04] = 0x40040000
        0x00000d16:    2301        .#      MOVS     r3,#1
        0x00000d18:    462a        *F      MOV      r2,r5
        0x00000d1a:    2100        .!      MOVS     r1,#0
        0x00000d1c:    4620         F      MOV      r0,r4
        0x00000d1e:    f002fc0d    ....    BL       PWM_ConfigOutputChannel ; 0x353c
        0x00000d22:    2301        .#      MOVS     r3,#1
        0x00000d24:    462a        *F      MOV      r2,r5
        0x00000d26:    4619        .F      MOV      r1,r3
        0x00000d28:    4620         F      MOV      r0,r4
        0x00000d2a:    f002fc07    ....    BL       PWM_ConfigOutputChannel ; 0x353c
        0x00000d2e:    2301        .#      MOVS     r3,#1
        0x00000d30:    462a        *F      MOV      r2,r5
        0x00000d32:    2102        .!      MOVS     r1,#2
        0x00000d34:    4620         F      MOV      r0,r4
        0x00000d36:    f002fc01    ....    BL       PWM_ConfigOutputChannel ; 0x353c
        0x00000d3a:    2301        .#      MOVS     r3,#1
        0x00000d3c:    462a        *F      MOV      r2,r5
        0x00000d3e:    2103        .!      MOVS     r1,#3
        0x00000d40:    4620         F      MOV      r0,r4
        0x00000d42:    f002fbfb    ....    BL       PWM_ConfigOutputChannel ; 0x353c
        0x00000d46:    210f        .!      MOVS     r1,#0xf
        0x00000d48:    4620         F      MOV      r0,r4
        0x00000d4a:    f002fc84    ....    BL       PWM_EnableOutput ; 0x3656
        0x00000d4e:    210f        .!      MOVS     r1,#0xf
        0x00000d50:    4620         F      MOV      r0,r4
        0x00000d52:    f002fc6c    ..l.    BL       PWM_Start ; 0x362e
        0x00000d56:    68e0        .h      LDR      r0,[r4,#0xc]
        0x00000d58:    492b        +I      LDR      r1,[pc,#172] ; [0xe08] = 0x2000000c
        0x00000d5a:    6008        .`      STR      r0,[r1,#0]
        0x00000d5c:    69a1        .i      LDR      r1,[r4,#0x18]
        0x00000d5e:    9100        ..      STR      r1,[sp,#0]
        0x00000d60:    9001        ..      STR      r0,[sp,#4]
        0x00000d62:    6963        ci      LDR      r3,[r4,#0x14]
        0x00000d64:    6922        "i      LDR      r2,[r4,#0x10]
        0x00000d66:    68e1        .h      LDR      r1,[r4,#0xc]
        0x00000d68:    4828        (H      LDR      r0,[pc,#160] ; [0xe0c] = 0x6588
        0x00000d6a:    f003fee5    ....    BL       __0printf ; 0x4b38
        0x00000d6e:    6ae0        .j      LDR      r0,[r4,#0x2c]
        0x00000d70:    0c00        ..      LSRS     r0,r0,#16
        0x00000d72:    0400        ..      LSLS     r0,r0,#16
        0x00000d74:    62e0        .b      STR      r0,[r4,#0x2c]
        0x00000d76:    6b20         k      LDR      r0,[r4,#0x30]
        0x00000d78:    0c00        ..      LSRS     r0,r0,#16
        0x00000d7a:    0400        ..      LSLS     r0,r0,#16
        0x00000d7c:    6320         c      STR      r0,[r4,#0x30]
        0x00000d7e:    6b60        `k      LDR      r0,[r4,#0x34]
        0x00000d80:    0c00        ..      LSRS     r0,r0,#16
        0x00000d82:    0400        ..      LSLS     r0,r0,#16
        0x00000d84:    6360        `c      STR      r0,[r4,#0x34]
        0x00000d86:    6ba0        .k      LDR      r0,[r4,#0x38]
        0x00000d88:    0c00        ..      LSRS     r0,r0,#16
        0x00000d8a:    0400        ..      LSLS     r0,r0,#16
        0x00000d8c:    63a0        .c      STR      r0,[r4,#0x38]
        0x00000d8e:    bd7c        |.      POP      {r2-r6,pc}
    motor_update
        0x00000d90:    b5f8        ..      PUSH     {r3-r7,lr}
        0x00000d92:    4606        .F      MOV      r6,r0
        0x00000d94:    2400        .$      MOVS     r4,#0
        0x00000d96:    00a5        ..      LSLS     r5,r4,#2
        0x00000d98:    217f        .!      MOVS     r1,#0x7f
        0x00000d9a:    5970        pY      LDR      r0,[r6,r5]
        0x00000d9c:    2200        ."      MOVS     r2,#0
        0x00000d9e:    05c9        ..      LSLS     r1,r1,#23
        0x00000da0:    f000fabe    ....    BL       data_limit ; 0x1320
        0x00000da4:    5170        pQ      STR      r0,[r6,r5]
        0x00000da6:    4607        .F      MOV      r7,r0
        0x00000da8:    4817        .H      LDR      r0,[pc,#92] ; [0xe08] = 0x2000000c
        0x00000daa:    6800        .h      LDR      r0,[r0,#0]
        0x00000dac:    f003fc49    ..I.    BL       __aeabi_ui2f ; 0x4642
        0x00000db0:    4639        9F      MOV      r1,r7
        0x00000db2:    f003fa22    ..".    BL       __aeabi_fmul ; 0x41fa
        0x00000db6:    f003fc78    ..x.    BL       __aeabi_f2uiz ; 0x46aa
        0x00000dba:    2800        .(      CMP      r0,#0
        0x00000dbc:    d000        ..      BEQ      0xdc0 ; motor_update + 48
        0x00000dbe:    1e40        @.      SUBS     r0,r0,#1
        0x00000dc0:    b281        ..      UXTH     r1,r0
        0x00000dc2:    4810        .H      LDR      r0,[pc,#64] ; [0xe04] = 0x40040000
        0x00000dc4:    1828        (.      ADDS     r0,r5,r0
        0x00000dc6:    6ac2        .j      LDR      r2,[r0,#0x2c]
        0x00000dc8:    0c12        ..      LSRS     r2,r2,#16
        0x00000dca:    0412        ..      LSLS     r2,r2,#16
        0x00000dcc:    4311        .C      ORRS     r1,r1,r2
        0x00000dce:    62c1        .b      STR      r1,[r0,#0x2c]
        0x00000dd0:    1c64        d.      ADDS     r4,r4,#1
        0x00000dd2:    b2e4        ..      UXTB     r4,r4
        0x00000dd4:    2c04        .,      CMP      r4,#4
        0x00000dd6:    d3de        ..      BCC      0xd96 ; motor_update + 6
        0x00000dd8:    bdf8        ..      POP      {r3-r7,pc}
    motor_stop
        0x00000dda:    480a        .H      LDR      r0,[pc,#40] ; [0xe04] = 0x40040000
        0x00000ddc:    6ac1        .j      LDR      r1,[r0,#0x2c]
        0x00000dde:    0c09        ..      LSRS     r1,r1,#16
        0x00000de0:    0409        ..      LSLS     r1,r1,#16
        0x00000de2:    62c1        .b      STR      r1,[r0,#0x2c]
        0x00000de4:    6b01        .k      LDR      r1,[r0,#0x30]
        0x00000de6:    0c09        ..      LSRS     r1,r1,#16
        0x00000de8:    0409        ..      LSLS     r1,r1,#16
        0x00000dea:    6301        .c      STR      r1,[r0,#0x30]
        0x00000dec:    6b41        Ak      LDR      r1,[r0,#0x34]
        0x00000dee:    0c09        ..      LSRS     r1,r1,#16
        0x00000df0:    0409        ..      LSLS     r1,r1,#16
        0x00000df2:    6341        Ac      STR      r1,[r0,#0x34]
        0x00000df4:    6b81        .k      LDR      r1,[r0,#0x38]
        0x00000df6:    0c09        ..      LSRS     r1,r1,#16
        0x00000df8:    0409        ..      LSLS     r1,r1,#16
        0x00000dfa:    6381        .c      STR      r1,[r0,#0x38]
        0x00000dfc:    4770        pG      BX       lr
    $d
        0x00000dfe:    0000        ..      DCW    0
        0x00000e00:    000055f0    .U..    DCD    22000
        0x00000e04:    40040000    ...@    DCD    1074003968
        0x00000e08:    2000000c    ...     DCD    536870924
        0x00000e0c:    00006588    .e..    DCD    25992
    $t
    .text
    system_init
        0x00000e10:    b5f8        ..      PUSH     {r3-r7,lr}
        0x00000e12:    2059        Y       MOVS     r0,#0x59
        0x00000e14:    4c78        xL      LDR      r4,[pc,#480] ; [0xff8] = 0x50000100
        0x00000e16:    2116        .!      MOVS     r1,#0x16
        0x00000e18:    2288        ."      MOVS     r2,#0x88
        0x00000e1a:    6020         `      STR      r0,[r4,#0]
        0x00000e1c:    6021        !`      STR      r1,[r4,#0]
        0x00000e1e:    6022        "`      STR      r2,[r4,#0]
        0x00000e20:    6823        #h      LDR      r3,[r4,#0]
        0x00000e22:    2b00        .+      CMP      r3,#0
        0x00000e24:    d0f9        ..      BEQ      0xe1a ; system_init + 10
        0x00000e26:    f002fb31    ..1.    BL       CLK_InitHIRC ; 0x348c
        0x00000e2a:    f000f96d    ..m.    BL       SystemCoreClockUpdate ; 0x1108
        0x00000e2e:    2505        .%      MOVS     r5,#5
        0x00000e30:    072d        -.      LSLS     r5,r5,#28
        0x00000e32:    6b28        (k      LDR      r0,[r5,#0x30]
        0x00000e34:    4971        qI      LDR      r1,[pc,#452] ; [0xffc] = 0x303
        0x00000e36:    4308        .C      ORRS     r0,r0,r1
        0x00000e38:    6328        (c      STR      r0,[r5,#0x30]
        0x00000e3a:    4f71        qO      LDR      r7,[pc,#452] ; [0x1000] = 0x50004000
        0x00000e3c:    6878        xh      LDR      r0,[r7,#4]
        0x00000e3e:    2601        .&      MOVS     r6,#1
        0x00000e40:    0476        v.      LSLS     r6,r6,#17
        0x00000e42:    43b0        .C      BICS     r0,r0,r6
        0x00000e44:    6078        x`      STR      r0,[r7,#4]
        0x00000e46:    486f        oH      LDR      r0,[pc,#444] ; [0x1004] = 0xa7803d10
        0x00000e48:    f002fb05    ....    BL       CLK_EnableModuleClock ; 0x3456
        0x00000e4c:    486e        nH      LDR      r0,[pc,#440] ; [0x1008] = 0xae800002
        0x00000e4e:    f002fb02    ....    BL       CLK_EnableModuleClock ; 0x3456
        0x00000e52:    2100        .!      MOVS     r1,#0
        0x00000e54:    486c        lH      LDR      r0,[pc,#432] ; [0x1008] = 0xae800002
        0x00000e56:    f002faeb    ....    BL       CLK_SetModuleClock ; 0x3430
        0x00000e5a:    486c        lH      LDR      r0,[pc,#432] ; [0x100c] = 0xaec00003
        0x00000e5c:    f002fafb    ....    BL       CLK_EnableModuleClock ; 0x3456
        0x00000e60:    2100        .!      MOVS     r1,#0
        0x00000e62:    486a        jH      LDR      r0,[pc,#424] ; [0x100c] = 0xaec00003
        0x00000e64:    f002fae4    ....    BL       CLK_SetModuleClock ; 0x3430
        0x00000e68:    4869        iH      LDR      r0,[pc,#420] ; [0x1010] = 0xa7c00014
        0x00000e6a:    f002faf4    ....    BL       CLK_EnableModuleClock ; 0x3456
        0x00000e6e:    4869        iH      LDR      r0,[pc,#420] ; [0x1014] = 0xa7e00015
        0x00000e70:    f002faf1    ....    BL       CLK_EnableModuleClock ; 0x3456
        0x00000e74:    4868        hH      LDR      r0,[pc,#416] ; [0x1018] = 0xe6600017
        0x00000e76:    f002faee    ....    BL       CLK_EnableModuleClock ; 0x3456
        0x00000e7a:    200f        .       MOVS     r0,#0xf
        0x00000e7c:    0280        ..      LSLS     r0,r0,#10
        0x00000e7e:    63a8        .c      STR      r0,[r5,#0x38]
        0x00000e80:    495d        ]I      LDR      r1,[pc,#372] ; [0xff8] = 0x50000100
        0x00000e82:    4866        fH      LDR      r0,[pc,#408] ; [0x101c] = 0x8080
        0x00000e84:    39c0        .9      SUBS     r1,r1,#0xc0
        0x00000e86:    6048        H`      STR      r0,[r1,#4]
        0x00000e88:    4865        eH      LDR      r0,[pc,#404] ; [0x1020] = 0x80000008
        0x00000e8a:    f002fae4    ....    BL       CLK_EnableModuleClock ; 0x3456
        0x00000e8e:    6be8        .k      LDR      r0,[r5,#0x3c]
        0x00000e90:    2103        .!      MOVS     r1,#3
        0x00000e92:    0309        ..      LSLS     r1,r1,#12
        0x00000e94:    4308        .C      ORRS     r0,r0,r1
        0x00000e96:    63e8        .c      STR      r0,[r5,#0x3c]
        0x00000e98:    4859        YH      LDR      r0,[pc,#356] ; [0x1000] = 0x50004000
        0x00000e9a:    30c0        .0      ADDS     r0,r0,#0xc0
        0x00000e9c:    6841        Ah      LDR      r1,[r0,#4]
        0x00000e9e:    2203        ."      MOVS     r2,#3
        0x00000ea0:    0512        ..      LSLS     r2,r2,#20
        0x00000ea2:    4391        .C      BICS     r1,r1,r2
        0x00000ea4:    6041        A`      STR      r1,[r0,#4]
        0x00000ea6:    6b28        (k      LDR      r0,[r5,#0x30]
        0x00000ea8:    2108        .!      MOVS     r1,#8
        0x00000eaa:    4308        .C      ORRS     r0,r0,r1
        0x00000eac:    6328        (c      STR      r0,[r5,#0x30]
        0x00000eae:    6b68        hk      LDR      r0,[r5,#0x34]
        0x00000eb0:    21c2        .!      MOVS     r1,#0xc2
        0x00000eb2:    4308        .C      ORRS     r0,r0,r1
        0x00000eb4:    6368        hc      STR      r0,[r5,#0x34]
        0x00000eb6:    6878        xh      LDR      r0,[r7,#4]
        0x00000eb8:    00b1        ..      LSLS     r1,r6,#2
        0x00000eba:    4388        .C      BICS     r0,r0,r1
        0x00000ebc:    6078        x`      STR      r0,[r7,#4]
        0x00000ebe:    4850        PH      LDR      r0,[pc,#320] ; [0x1000] = 0x50004000
        0x00000ec0:    3040        @0      ADDS     r0,r0,#0x40
        0x00000ec2:    6841        Ah      LDR      r1,[r0,#4]
        0x00000ec4:    43b1        .C      BICS     r1,r1,r6
        0x00000ec6:    6041        A`      STR      r1,[r0,#4]
        0x00000ec8:    6841        Ah      LDR      r1,[r0,#4]
        0x00000eca:    0172        r.      LSLS     r2,r6,#5
        0x00000ecc:    4391        .C      BICS     r1,r1,r2
        0x00000ece:    6041        A`      STR      r1,[r0,#4]
        0x00000ed0:    6841        Ah      LDR      r1,[r0,#4]
        0x00000ed2:    0052        R.      LSLS     r2,r2,#1
        0x00000ed4:    4391        .C      BICS     r1,r1,r2
        0x00000ed6:    6041        A`      STR      r1,[r0,#4]
        0x00000ed8:    4852        RH      LDR      r0,[pc,#328] ; [0x1024] = 0xa660000d
        0x00000eda:    f002fabc    ....    BL       CLK_EnableModuleClock ; 0x3456
        0x00000ede:    2000        .       MOVS     r0,#0
        0x00000ee0:    6020         `      STR      r0,[r4,#0]
        0x00000ee2:    bdf8        ..      POP      {r3-r7,pc}
    param_load
        0x00000ee4:    b5fe        ..      PUSH     {r1-r7,lr}
        0x00000ee6:    2500        .%      MOVS     r5,#0
        0x00000ee8:    4e50        PN      LDR      r6,[pc,#320] ; [0x102c] = 0x43160000
        0x00000eea:    4c4f        OL      LDR      r4,[pc,#316] ; [0x1028] = 0x3c23d70a
        0x00000eec:    9500        ..      STR      r5,[sp,#0]
        0x00000eee:    462b        +F      MOV      r3,r5
        0x00000ef0:    462a        *F      MOV      r2,r5
        0x00000ef2:    4631        1F      MOV      r1,r6
        0x00000ef4:    484e        NH      LDR      r0,[pc,#312] ; [0x1030] = 0x200001bc
        0x00000ef6:    9501        ..      STR      r5,[sp,#4]
        0x00000ef8:    9402        ..      STR      r4,[sp,#8]
        0x00000efa:    f000fa49    ..I.    BL       set_pid_param ; 0x1390
        0x00000efe:    484c        LH      LDR      r0,[pc,#304] ; [0x1030] = 0x200001bc
        0x00000f00:    2300        .#      MOVS     r3,#0
        0x00000f02:    9500        ..      STR      r5,[sp,#0]
        0x00000f04:    461a        .F      MOV      r2,r3
        0x00000f06:    4631        1F      MOV      r1,r6
        0x00000f08:    3830        08      SUBS     r0,r0,#0x30
        0x00000f0a:    9501        ..      STR      r5,[sp,#4]
        0x00000f0c:    9402        ..      STR      r4,[sp,#8]
        0x00000f0e:    f000fa3f    ..?.    BL       set_pid_param ; 0x1390
        0x00000f12:    4847        GH      LDR      r0,[pc,#284] ; [0x1030] = 0x200001bc
        0x00000f14:    2300        .#      MOVS     r3,#0
        0x00000f16:    9500        ..      STR      r5,[sp,#0]
        0x00000f18:    461a        .F      MOV      r2,r3
        0x00000f1a:    4946        FI      LDR      r1,[pc,#280] ; [0x1034] = 0x42c80000
        0x00000f1c:    3030        00      ADDS     r0,r0,#0x30
        0x00000f1e:    9501        ..      STR      r5,[sp,#4]
        0x00000f20:    9402        ..      STR      r4,[sp,#8]
        0x00000f22:    f000fa35    ..5.    BL       set_pid_param ; 0x1390
        0x00000f26:    4842        BH      LDR      r0,[pc,#264] ; [0x1030] = 0x200001bc
        0x00000f28:    4f43        CO      LDR      r7,[pc,#268] ; [0x1038] = 0x41a00000
        0x00000f2a:    4e44        DN      LDR      r6,[pc,#272] ; [0x103c] = 0x3e99999a
        0x00000f2c:    4b44        DK      LDR      r3,[pc,#272] ; [0x1040] = 0x3c1ba5e3
        0x00000f2e:    2200        ."      MOVS     r2,#0
        0x00000f30:    4944        DI      LDR      r1,[pc,#272] ; [0x1044] = 0x3e3851ec
        0x00000f32:    3890        .8      SUBS     r0,r0,#0x90
        0x00000f34:    9701        ..      STR      r7,[sp,#4]
        0x00000f36:    9600        ..      STR      r6,[sp,#0]
        0x00000f38:    9402        ..      STR      r4,[sp,#8]
        0x00000f3a:    f000fa29    ..).    BL       set_pid_param ; 0x1390
        0x00000f3e:    483c        <H      LDR      r0,[pc,#240] ; [0x1030] = 0x200001bc
        0x00000f40:    4b3f        ?K      LDR      r3,[pc,#252] ; [0x1040] = 0x3c1ba5e3
        0x00000f42:    2200        ."      MOVS     r2,#0
        0x00000f44:    493f        ?I      LDR      r1,[pc,#252] ; [0x1044] = 0x3e3851ec
        0x00000f46:    38c0        .8      SUBS     r0,r0,#0xc0
        0x00000f48:    9701        ..      STR      r7,[sp,#4]
        0x00000f4a:    9600        ..      STR      r6,[sp,#0]
        0x00000f4c:    9402        ..      STR      r4,[sp,#8]
        0x00000f4e:    f000fa1f    ....    BL       set_pid_param ; 0x1390
        0x00000f52:    273f        ?'      MOVS     r7,#0x3f
        0x00000f54:    4836        6H      LDR      r0,[pc,#216] ; [0x1030] = 0x200001bc
        0x00000f56:    063f        ?.      LSLS     r7,r7,#24
        0x00000f58:    2300        .#      MOVS     r3,#0
        0x00000f5a:    461a        .F      MOV      r2,r3
        0x00000f5c:    0761        a.      LSLS     r1,r4,#29
        0x00000f5e:    3860        `8      SUBS     r0,r0,#0x60
        0x00000f60:    9701        ..      STR      r7,[sp,#4]
        0x00000f62:    9600        ..      STR      r6,[sp,#0]
        0x00000f64:    9402        ..      STR      r4,[sp,#8]
        0x00000f66:    f000fa13    ....    BL       set_pid_param ; 0x1390
        0x00000f6a:    4831        1H      LDR      r0,[pc,#196] ; [0x1030] = 0x200001bc
        0x00000f6c:    2300        .#      MOVS     r3,#0
        0x00000f6e:    217f        .!      MOVS     r1,#0x7f
        0x00000f70:    461a        .F      MOV      r2,r3
        0x00000f72:    05c9        ..      LSLS     r1,r1,#23
        0x00000f74:    30c0        .0      ADDS     r0,r0,#0xc0
        0x00000f76:    9701        ..      STR      r7,[sp,#4]
        0x00000f78:    9500        ..      STR      r5,[sp,#0]
        0x00000f7a:    9402        ..      STR      r4,[sp,#8]
        0x00000f7c:    f000fa08    ....    BL       set_pid_param ; 0x1390
        0x00000f80:    bdfe        ..      POP      {r1-r7,pc}
    peripheral_init
        0x00000f82:    b510        ..      PUSH     {r4,lr}
        0x00000f84:    21e1        .!      MOVS     r1,#0xe1
        0x00000f86:    0249        I.      LSLS     r1,r1,#9
        0x00000f88:    482f        /H      LDR      r0,[pc,#188] ; [0x1048] = 0x40050000
        0x00000f8a:    f001fd4f    ..O.    BL       uart_console_init ; 0x2a2c
        0x00000f8e:    a02f        /.      ADR      r0,{pc}+0xbe ; 0x104c
        0x00000f90:    f003fdd2    ....    BL       __0printf ; 0x4b38
        0x00000f94:    4933        3I      LDR      r1,[pc,#204] ; [0x1064] = 0xf4240
        0x00000f96:    4834        4H      LDR      r0,[pc,#208] ; [0x1068] = 0x40020000
        0x00000f98:    f001fc06    ....    BL       I2C_Init ; 0x27a8
        0x00000f9c:    f7fffd15    ....    BL       fbm320_init ; 0x9ca
        0x00000fa0:    a032        2.      ADR      r0,{pc}+0xcc ; 0x106c
        0x00000fa2:    f003fdc9    ....    BL       __0printf ; 0x4b38
        0x00000fa6:    f7fff8eb    ....    BL       bmi160_init ; 0x180
        0x00000faa:    a036        6.      ADR      r0,{pc}+0xda ; 0x1084
        0x00000fac:    f003fdc4    ....    BL       __0printf ; 0x4b38
        0x00000fb0:    f7fffeae    ....    BL       motor_init ; 0xd10
        0x00000fb4:    f000fe08    ....    BL       scheduler_init ; 0x1bc8
        0x00000fb8:    f002fd31    ..1.    BL       rc_channel_init ; 0x3a1e
        0x00000fbc:    f7ffff92    ....    BL       param_load ; 0xee4
        0x00000fc0:    a036        6.      ADR      r0,{pc}+0xdc ; 0x109c
        0x00000fc2:    f003fdb9    ....    BL       __0printf ; 0x4b38
        0x00000fc6:    a03b        ;.      ADR      r0,{pc}+0xee ; 0x10b4
        0x00000fc8:    f003fdb6    ....    BL       __0printf ; 0x4b38
        0x00000fcc:    f001fb11    ....    BL       gyro_offset ; 0x25f2
        0x00000fd0:    f001fb94    ....    BL       accel_offset ; 0x26fc
        0x00000fd4:    f001fa54    ..T.    BL       inertial_sensor_init ; 0x2480
        0x00000fd8:    a03d        =.      ADR      r0,{pc}+0xf8 ; 0x10d0
        0x00000fda:    f003fdad    ....    BL       __0printf ; 0x4b38
        0x00000fde:    bd10        ..      POP      {r4,pc}
    fc_status_reset
        0x00000fe0:    4840        @H      LDR      r0,[pc,#256] ; [0x10e4] = 0x20000010
        0x00000fe2:    2100        .!      MOVS     r1,#0
        0x00000fe4:    7001        .p      STRB     r1,[r0,#0]
        0x00000fe6:    2201        ."      MOVS     r2,#1
        0x00000fe8:    7042        Bp      STRB     r2,[r0,#1]
        0x00000fea:    7081        .p      STRB     r1,[r0,#2]
        0x00000fec:    70c1        .p      STRB     r1,[r0,#3]
        0x00000fee:    217d        }!      MOVS     r1,#0x7d
        0x00000ff0:    0109        ..      LSLS     r1,r1,#4
        0x00000ff2:    80c1        ..      STRH     r1,[r0,#6]
        0x00000ff4:    4770        pG      BX       lr
    $d
        0x00000ff6:    0000        ..      DCW    0
        0x00000ff8:    50000100    ...P    DCD    1342177536
        0x00000ffc:    00000303    ....    DCD    771
        0x00001000:    50004000    .@.P    DCD    1342193664
        0x00001004:    a7803d10    .=..    DCD    2810199312
        0x00001008:    ae800002    ....    DCD    2927624194
        0x0000100c:    aec00003    ....    DCD    2931818499
        0x00001010:    a7c00014    ....    DCD    2814378004
        0x00001014:    a7e00015    ....    DCD    2816475157
        0x00001018:    e6600017    ..`.    DCD    3865051159
        0x0000101c:    00008080    ....    DCD    32896
        0x00001020:    80000008    ....    DCD    2147483656
        0x00001024:    a660000d    ..`.    DCD    2791309325
        0x00001028:    3c23d70a    ..#<    DCD    1008981770
        0x0000102c:    43160000    ...C    DCD    1125515264
        0x00001030:    200001bc    ...     DCD    536871356
        0x00001034:    42c80000    ...B    DCD    1120403456
        0x00001038:    41a00000    ...A    DCD    1101004800
        0x0000103c:    3e99999a    ...>    DCD    1050253722
        0x00001040:    3c1ba5e3    ...<    DCD    1008444899
        0x00001044:    3e3851ec    .Q8>    DCD    1043878380
        0x00001048:    40050000    ...@    DCD    1074069504
        0x0000104c:    736e6f63    cons    DCD    1936617315
        0x00001050:    20656c6f    ole     DCD    543517807
        0x00001054:    74696e69    init    DCD    1953066601
        0x00001058:    63757320     suc    DCD    1668641568
        0x0000105c:    73736563    cess    DCD    1936942435
        0x00001060:    00000a21    !...    DCD    2593
        0x00001064:    000f4240    @B..    DCD    1000000
        0x00001068:    40020000    ...@    DCD    1073872896
        0x0000106c:    336d6266    fbm3    DCD    862806630
        0x00001070:    69203032    20 i    DCD    1763717170
        0x00001074:    2074696e    nit     DCD    544500078
        0x00001078:    63637573    succ    DCD    1667462515
        0x0000107c:    21737365    ess!    DCD    561214309
        0x00001080:    0000000a    ....    DCD    10
        0x00001084:    31696d62    bmi1    DCD    828992866
        0x00001088:    69203036    60 i    DCD    1763717174
        0x0000108c:    2074696e    nit     DCD    544500078
        0x00001090:    63637573    succ    DCD    1667462515
        0x00001094:    21737365    ess!    DCD    561214309
        0x00001098:    0000000a    ....    DCD    10
        0x0000109c:    445f4448    HD_D    DCD    1147094088
        0x000010a0:    656e6f72    rone    DCD    1701736306
        0x000010a4:    696e6920     ini    DCD    1768843552
        0x000010a8:    75732074    t su    DCD    1970479220
        0x000010ac:    73656363    cces    DCD    1936024419
        0x000010b0:    000a2173    s!..    DCD    663923
        0x000010b4:    736e6573    sens    DCD    1936614771
        0x000010b8:    6320726f    or c    DCD    1663070831
        0x000010bc:    656c6c6f    olle    DCD    1701604463
        0x000010c0:    6f207463    ct o    DCD    1864397923
        0x000010c4:    65736666    ffse    DCD    1702061670
        0x000010c8:    2e2e2e74    t...    DCD    774778484
        0x000010cc:    0000000a    ....    DCD    10
        0x000010d0:    6c6c6f63    coll    DCD    1819045731
        0x000010d4:    20746365    ect     DCD    544498533
        0x000010d8:    706d6f63    comp    DCD    1886220131
        0x000010dc:    6574656c    lete    DCD    1702126956
        0x000010e0:    0000000a    ....    DCD    10
        0x000010e4:    20000010    ...     DCD    536870928
    $t
    .text
    main
        0x000010e8:    f7fffe92    ....    BL       system_init ; 0xe10
        0x000010ec:    f7ffff78    ..x.    BL       fc_status_reset ; 0xfe0
        0x000010f0:    f7ffff47    ..G.    BL       peripheral_init ; 0xf82
        0x000010f4:    4803        .H      LDR      r0,[pc,#12] ; [0x1104] = 0x40010020
        0x000010f6:    6801        .h      LDR      r1,[r0,#0]
        0x000010f8:    0642        B.      LSLS     r2,r0,#25
        0x000010fa:    4311        .C      ORRS     r1,r1,r2
        0x000010fc:    6001        .`      STR      r1,[r0,#0]
        0x000010fe:    f001f823    ..#.    BL       scheduler_run ; 0x2148
        0x00001102:    e7fc        ..      B        0x10fe ; main + 22
    $d
        0x00001104:    40010020     ..@    DCD    1073807392
    $t
    .text
    SystemCoreClockUpdate
        0x00001108:    b510        ..      PUSH     {r4,lr}
        0x0000110a:    4a13        .J      LDR      r2,[pc,#76] ; [0x1158] = 0x50000200
        0x0000110c:    6a10        .j      LDR      r0,[r2,#0x20]
        0x0000110e:    03c1        ..      LSLS     r1,r0,#15
        0x00001110:    4812        .H      LDR      r0,[pc,#72] ; [0x115c] = 0x2dc6c00
        0x00001112:    d501        ..      BPL      0x1118 ; SystemCoreClockUpdate + 16
        0x00001114:    2100        .!      MOVS     r1,#0
        0x00001116:    e000        ..      B        0x111a ; SystemCoreClockUpdate + 18
        0x00001118:    4601        .F      MOV      r1,r0
        0x0000111a:    4c11        .L      LDR      r4,[pc,#68] ; [0x1160] = 0x20000018
        0x0000111c:    6021        !`      STR      r1,[r4,#0]
        0x0000111e:    6911        .i      LDR      r1,[r2,#0x10]
        0x00001120:    0789        ..      LSLS     r1,r1,#30
        0x00001122:    0f89        ..      LSRS     r1,r1,#30
        0x00001124:    d009        ..      BEQ      0x113a ; SystemCoreClockUpdate + 50
        0x00001126:    2901        .)      CMP      r1,#1
        0x00001128:    d007        ..      BEQ      0x113a ; SystemCoreClockUpdate + 50
        0x0000112a:    2902        .)      CMP      r1,#2
        0x0000112c:    d002        ..      BEQ      0x1134 ; SystemCoreClockUpdate + 44
        0x0000112e:    2903        .)      CMP      r1,#3
        0x00001130:    d002        ..      BEQ      0x1138 ; SystemCoreClockUpdate + 48
        0x00001132:    e002        ..      B        0x113a ; SystemCoreClockUpdate + 50
        0x00001134:    480b        .H      LDR      r0,[pc,#44] ; [0x1164] = 0x2710
        0x00001136:    e000        ..      B        0x113a ; SystemCoreClockUpdate + 50
        0x00001138:    480b        .H      LDR      r0,[pc,#44] ; [0x1168] = 0xf42400
        0x0000113a:    6991        .i      LDR      r1,[r2,#0x18]
        0x0000113c:    078a        ..      LSLS     r2,r1,#30
        0x0000113e:    0f92        ..      LSRS     r2,r2,#30
        0x00001140:    2101        .!      MOVS     r1,#1
        0x00001142:    4091        .@      LSLS     r1,r1,r2
        0x00001144:    f002ffba    ....    BL       __aeabi_uidiv ; 0x40bc
        0x00001148:    4908        .I      LDR      r1,[pc,#32] ; [0x116c] = 0xf4240
        0x0000114a:    6060        ``      STR      r0,[r4,#4]
        0x0000114c:    104a        J.      ASRS     r2,r1,#1
        0x0000114e:    1880        ..      ADDS     r0,r0,r2
        0x00001150:    f002ffb4    ....    BL       __aeabi_uidiv ; 0x40bc
        0x00001154:    60a0        .`      STR      r0,[r4,#8]
        0x00001156:    bd10        ..      POP      {r4,pc}
    $d
        0x00001158:    50000200    ...P    DCD    1342177792
        0x0000115c:    02dc6c00    .l..    DCD    48000000
        0x00001160:    20000018    ...     DCD    536870936
        0x00001164:    00002710    .'..    DCD    10000
        0x00001168:    00f42400    .$..    DCD    16000000
        0x0000116c:    000f4240    @B..    DCD    1000000
    $t
    .text
    Reset_Handler
        0x00001170:    4803        .H      LDR      r0,[pc,#12] ; [0x1180] = 0xc1
        0x00001172:    4700        .G      BX       r0
    NMI_Handler
        0x00001174:    e7fe        ..      B        NMI_Handler ; 0x1174
        0x00001176:    e7fe        ..      B        0x1176 ; NMI_Handler + 2
    SVC_Handler
        0x00001178:    e7fe        ..      B        SVC_Handler ; 0x1178
    PendSV_Handler
        0x0000117a:    e7fe        ..      B        PendSV_Handler ; 0x117a
    SysTick_Handler
        0x0000117c:    e7fe        ..      B        SysTick_Handler ; 0x117c
    Default_Handler
    ACMP_IRQHandler
    ADC_IRQHandler
    BOD_IRQHandler
    EINT0_IRQHandler
    EINT1_IRQHandler
    EINT2_IRQHandler
    FB_IRQHandler
    GPIO01_IRQHandler
    GPIO234_IRQHandler
    GPIO5_IRQHandler
    HIRC_IRQHandler
    I2C0_IRQHandler
    I2C1_IRQHandler
    PDWU_IRQHandler
    PWM_IRQHandler
    SPI0_IRQHandler
    SPI1_IRQHandler
    TMR0_IRQHandler
    TMR2_IRQHandler
    UART1_IRQHandler
    WDT_IRQHandler
        0x0000117e:    e7fe        ..      B        Default_Handler ; 0x117e
    $d
        0x00001180:    000000c1    ....    DCD    193
    $t
    .text
    LPF2pSetCutoffFreq
        0x00001184:    b5fe        ..      PUSH     {r1-r7,lr}
        0x00001186:    4615        .F      MOV      r5,r2
        0x00001188:    460a        .F      MOV      r2,r1
        0x0000118a:    4604        .F      MOV      r4,r0
        0x0000118c:    4629        )F      MOV      r1,r5
        0x0000118e:    4610        .F      MOV      r0,r2
        0x00001190:    f003f870    ..p.    BL       __aeabi_fdiv ; 0x4274
        0x00001194:    4601        .F      MOV      r1,r0
        0x00001196:    4854        TH      LDR      r0,[pc,#336] ; [0x12e8] = 0x40490fdb
        0x00001198:    f003f86c    ..l.    BL       __aeabi_fdiv ; 0x4274
        0x0000119c:    f005f87a    ..z.    BL       tanf ; 0x6294
        0x000011a0:    4601        .F      MOV      r1,r0
        0x000011a2:    9000        ..      STR      r0,[sp,#0]
        0x000011a4:    f003f829    ..).    BL       __aeabi_fmul ; 0x41fa
        0x000011a8:    4606        .F      MOV      r6,r0
        0x000011aa:    9001        ..      STR      r0,[sp,#4]
        0x000011ac:    484f        OH      LDR      r0,[pc,#316] ; [0x12ec] = 0x3f490fdb
        0x000011ae:    f004ff9f    ....    BL       cosf ; 0x60f0
        0x000011b2:    2101        .!      MOVS     r1,#1
        0x000011b4:    f003f89c    ....    BL       __ARM_scalbnf ; 0x42f0
        0x000011b8:    9900        ..      LDR      r1,[sp,#0]
        0x000011ba:    f003f81e    ....    BL       __aeabi_fmul ; 0x41fa
        0x000011be:    277f        .'      MOVS     r7,#0x7f
        0x000011c0:    05ff        ..      LSLS     r7,r7,#23
        0x000011c2:    4639        9F      MOV      r1,r7
        0x000011c4:    f002ffc0    ....    BL       __aeabi_fadd ; 0x4148
        0x000011c8:    4631        1F      MOV      r1,r6
        0x000011ca:    f002ffbd    ....    BL       __aeabi_fadd ; 0x4148
        0x000011ce:    4606        .F      MOV      r6,r0
        0x000011d0:    2001        .       MOVS     r0,#1
        0x000011d2:    05c0        ..      LSLS     r0,r0,#23
        0x000011d4:    6025        %`      STR      r5,[r4,#0]
        0x000011d6:    4285        .B      CMP      r5,r0
        0x000011d8:    db29        ).      BLT      0x122e ; LPF2pSetCutoffFreq + 170
        0x000011da:    4631        1F      MOV      r1,r6
        0x000011dc:    9801        ..      LDR      r0,[sp,#4]
        0x000011de:    f003f849    ..I.    BL       __aeabi_fdiv ; 0x4274
        0x000011e2:    4605        .F      MOV      r5,r0
        0x000011e4:    2101        .!      MOVS     r1,#1
        0x000011e6:    60e0        .`      STR      r0,[r4,#0xc]
        0x000011e8:    f003f882    ....    BL       __ARM_scalbnf ; 0x42f0
        0x000011ec:    6165        ea      STR      r5,[r4,#0x14]
        0x000011ee:    6120         a      STR      r0,[r4,#0x10]
        0x000011f0:    4639        9F      MOV      r1,r7
        0x000011f2:    9801        ..      LDR      r0,[sp,#4]
        0x000011f4:    f002fff9    ....    BL       __aeabi_fsub ; 0x41ea
        0x000011f8:    2101        .!      MOVS     r1,#1
        0x000011fa:    f003f879    ..y.    BL       __ARM_scalbnf ; 0x42f0
        0x000011fe:    4631        1F      MOV      r1,r6
        0x00001200:    f003f838    ..8.    BL       __aeabi_fdiv ; 0x4274
        0x00001204:    6060        ``      STR      r0,[r4,#4]
        0x00001206:    4839        9H      LDR      r0,[pc,#228] ; [0x12ec] = 0x3f490fdb
        0x00001208:    9d01        ..      LDR      r5,[sp,#4]
        0x0000120a:    f004ff71    ..q.    BL       cosf ; 0x60f0
        0x0000120e:    2101        .!      MOVS     r1,#1
        0x00001210:    f003f86e    ..n.    BL       __ARM_scalbnf ; 0x42f0
        0x00001214:    9900        ..      LDR      r1,[sp,#0]
        0x00001216:    f002fff0    ....    BL       __aeabi_fmul ; 0x41fa
        0x0000121a:    4639        9F      MOV      r1,r7
        0x0000121c:    f002ffe9    ....    BL       __aeabi_frsub ; 0x41f2
        0x00001220:    4629        )F      MOV      r1,r5
        0x00001222:    f002ff91    ....    BL       __aeabi_fadd ; 0x4148
        0x00001226:    4631        1F      MOV      r1,r6
        0x00001228:    f003f824    ..$.    BL       __aeabi_fdiv ; 0x4274
        0x0000122c:    60a0        .`      STR      r0,[r4,#8]
        0x0000122e:    2000        .       MOVS     r0,#0
        0x00001230:    61a0        .a      STR      r0,[r4,#0x18]
        0x00001232:    61e0        .a      STR      r0,[r4,#0x1c]
        0x00001234:    bdfe        ..      POP      {r1-r7,pc}
    LPF2pApply
        0x00001236:    b5f8        ..      PUSH     {r3-r7,lr}
        0x00001238:    460f        .F      MOV      r7,r1
        0x0000123a:    4604        .F      MOV      r4,r0
        0x0000123c:    6800        .h      LDR      r0,[r0,#0]
        0x0000123e:    2101        .!      MOVS     r1,#1
        0x00001240:    05c9        ..      LSLS     r1,r1,#23
        0x00001242:    4288        .B      CMP      r0,r1
        0x00001244:    da01        ..      BGE      0x124a ; LPF2pApply + 20
        0x00001246:    4638        8F      MOV      r0,r7
        0x00001248:    bdf8        ..      POP      {r3-r7,pc}
        0x0000124a:    68a1        .h      LDR      r1,[r4,#8]
        0x0000124c:    69e0        .i      LDR      r0,[r4,#0x1c]
        0x0000124e:    9000        ..      STR      r0,[sp,#0]
        0x00001250:    f002ffd3    ....    BL       __aeabi_fmul ; 0x41fa
        0x00001254:    69a6        .i      LDR      r6,[r4,#0x18]
        0x00001256:    4605        .F      MOV      r5,r0
        0x00001258:    4630        0F      MOV      r0,r6
        0x0000125a:    6861        ah      LDR      r1,[r4,#4]
        0x0000125c:    f002ffcd    ....    BL       __aeabi_fmul ; 0x41fa
        0x00001260:    4639        9F      MOV      r1,r7
        0x00001262:    f002ffc6    ....    BL       __aeabi_frsub ; 0x41f2
        0x00001266:    4629        )F      MOV      r1,r5
        0x00001268:    f002ffbf    ....    BL       __aeabi_fsub ; 0x41ea
        0x0000126c:    4605        .F      MOV      r5,r0
        0x0000126e:    0040        @.      LSLS     r0,r0,#1
        0x00001270:    21ff        .!      MOVS     r1,#0xff
        0x00001272:    0840        @.      LSRS     r0,r0,#1
        0x00001274:    05c9        ..      LSLS     r1,r1,#23
        0x00001276:    1a08        ..      SUBS     r0,r1,r0
        0x00001278:    0fc0        ..      LSRS     r0,r0,#31
        0x0000127a:    d108        ..      BNE      0x128e ; LPF2pApply + 88
        0x0000127c:    0068        h.      LSLS     r0,r5,#1
        0x0000127e:    0049        I.      LSLS     r1,r1,#1
        0x00001280:    4288        .B      CMP      r0,r1
        0x00001282:    d101        ..      BNE      0x1288 ; LPF2pApply + 82
        0x00001284:    2001        .       MOVS     r0,#1
        0x00001286:    e000        ..      B        0x128a ; LPF2pApply + 84
        0x00001288:    2000        .       MOVS     r0,#0
        0x0000128a:    2800        .(      CMP      r0,#0
        0x0000128c:    d000        ..      BEQ      0x1290 ; LPF2pApply + 90
        0x0000128e:    463d        =F      MOV      r5,r7
        0x00001290:    6961        ai      LDR      r1,[r4,#0x14]
        0x00001292:    9800        ..      LDR      r0,[sp,#0]
        0x00001294:    f002ffb1    ....    BL       __aeabi_fmul ; 0x41fa
        0x00001298:    9000        ..      STR      r0,[sp,#0]
        0x0000129a:    4630        0F      MOV      r0,r6
        0x0000129c:    6921        !i      LDR      r1,[r4,#0x10]
        0x0000129e:    f002ffac    ....    BL       __aeabi_fmul ; 0x41fa
        0x000012a2:    4607        .F      MOV      r7,r0
        0x000012a4:    4628        (F      MOV      r0,r5
        0x000012a6:    68e1        .h      LDR      r1,[r4,#0xc]
        0x000012a8:    f002ffa7    ....    BL       __aeabi_fmul ; 0x41fa
        0x000012ac:    4639        9F      MOV      r1,r7
        0x000012ae:    f002ff4b    ..K.    BL       __aeabi_fadd ; 0x4148
        0x000012b2:    9900        ..      LDR      r1,[sp,#0]
        0x000012b4:    f002ff48    ..H.    BL       __aeabi_fadd ; 0x4148
        0x000012b8:    61e6        .a      STR      r6,[r4,#0x1c]
        0x000012ba:    61a5        .a      STR      r5,[r4,#0x18]
        0x000012bc:    bdf8        ..      POP      {r3-r7,pc}
    LPF_1st
        0x000012be:    b570        p.      PUSH     {r4-r6,lr}
        0x000012c0:    4616        .F      MOV      r6,r2
        0x000012c2:    460a        .F      MOV      r2,r1
        0x000012c4:    4605        .F      MOV      r5,r0
        0x000012c6:    4631        1F      MOV      r1,r6
        0x000012c8:    4610        .F      MOV      r0,r2
        0x000012ca:    f002ff96    ....    BL       __aeabi_fmul ; 0x41fa
        0x000012ce:    4604        .F      MOV      r4,r0
        0x000012d0:    207f        .       MOVS     r0,#0x7f
        0x000012d2:    4631        1F      MOV      r1,r6
        0x000012d4:    05c0        ..      LSLS     r0,r0,#23
        0x000012d6:    f002ff88    ....    BL       __aeabi_fsub ; 0x41ea
        0x000012da:    4629        )F      MOV      r1,r5
        0x000012dc:    f002ff8d    ....    BL       __aeabi_fmul ; 0x41fa
        0x000012e0:    4621        !F      MOV      r1,r4
        0x000012e2:    f002ff31    ..1.    BL       __aeabi_fadd ; 0x4148
        0x000012e6:    bd70        p.      POP      {r4-r6,pc}
    $d
        0x000012e8:    40490fdb    ..I@    DCD    1078530011
        0x000012ec:    3f490fdb    ..I?    DCD    1061752795
    $t
    .text
    Q_rsqrt
        0x000012f0:    b570        p.      PUSH     {r4-r6,lr}
        0x000012f2:    25ff        .%      MOVS     r5,#0xff
        0x000012f4:    2100        .!      MOVS     r1,#0
        0x000012f6:    4604        .F      MOV      r4,r0
        0x000012f8:    05ad        ..      LSLS     r5,r5,#22
        0x000012fa:    43c9        .C      MVNS     r1,r1
        0x000012fc:    f002fff8    ....    BL       __ARM_scalbnf ; 0x42f0
        0x00001300:    4a1c        .J      LDR      r2,[pc,#112] ; [0x1374] = 0x5f3759df
        0x00001302:    1061        a.      ASRS     r1,r4,#1
        0x00001304:    1a54        T.      SUBS     r4,r2,r1
        0x00001306:    4621        !F      MOV      r1,r4
        0x00001308:    f002ff77    ..w.    BL       __aeabi_fmul ; 0x41fa
        0x0000130c:    4621        !F      MOV      r1,r4
        0x0000130e:    f002ff74    ..t.    BL       __aeabi_fmul ; 0x41fa
        0x00001312:    4629        )F      MOV      r1,r5
        0x00001314:    f002ff6d    ..m.    BL       __aeabi_frsub ; 0x41f2
        0x00001318:    4621        !F      MOV      r1,r4
        0x0000131a:    f002ff6e    ..n.    BL       __aeabi_fmul ; 0x41fa
        0x0000131e:    bd70        p.      POP      {r4-r6,pc}
    data_limit
        0x00001320:    b570        p.      PUSH     {r4-r6,lr}
        0x00001322:    4615        .F      MOV      r5,r2
        0x00001324:    460e        .F      MOV      r6,r1
        0x00001326:    4604        .F      MOV      r4,r0
        0x00001328:    f003fa22    ..".    BL       __aeabi_cfrcmple ; 0x4770
        0x0000132c:    d201        ..      BCS      0x1332 ; data_limit + 18
        0x0000132e:    4634        4F      MOV      r4,r6
        0x00001330:    e005        ..      B        0x133e ; data_limit + 30
        0x00001332:    4629        )F      MOV      r1,r5
        0x00001334:    4620         F      MOV      r0,r4
        0x00001336:    f003fa11    ....    BL       __aeabi_cfcmpeq ; 0x475c
        0x0000133a:    d200        ..      BCS      0x133e ; data_limit + 30
        0x0000133c:    462c        ,F      MOV      r4,r5
        0x0000133e:    4620         F      MOV      r0,r4
        0x00001340:    bd70        p.      POP      {r4-r6,pc}
    VariableParameter
        0x00001342:    207f        .       MOVS     r0,#0x7f
        0x00001344:    05c0        ..      LSLS     r0,r0,#23
        0x00001346:    4770        pG      BX       lr
    Rad
        0x00001348:    b510        ..      PUSH     {r4,lr}
        0x0000134a:    2203        ."      MOVS     r2,#3
        0x0000134c:    0752        R.      LSLS     r2,r2,#29
        0x0000134e:    4b0a        .K      LDR      r3,[pc,#40] ; [0x1378] = 0x400921fb
        0x00001350:    f003f88c    ....    BL       __aeabi_dmul ; 0x446c
        0x00001354:    2200        ."      MOVS     r2,#0
        0x00001356:    4b09        .K      LDR      r3,[pc,#36] ; [0x137c] = 0x40668000
        0x00001358:    f003f8f0    ....    BL       __aeabi_ddiv ; 0x453c
        0x0000135c:    bd10        ..      POP      {r4,pc}
    Degree
        0x0000135e:    b510        ..      PUSH     {r4,lr}
        0x00001360:    2203        ."      MOVS     r2,#3
        0x00001362:    0752        R.      LSLS     r2,r2,#29
        0x00001364:    4b04        .K      LDR      r3,[pc,#16] ; [0x1378] = 0x400921fb
        0x00001366:    f003f8e9    ....    BL       __aeabi_ddiv ; 0x453c
        0x0000136a:    2200        ."      MOVS     r2,#0
        0x0000136c:    4b03        .K      LDR      r3,[pc,#12] ; [0x137c] = 0x40668000
        0x0000136e:    f003f87d    ..}.    BL       __aeabi_dmul ; 0x446c
        0x00001372:    bd10        ..      POP      {r4,pc}
    $d
        0x00001374:    5f3759df    .Y7_    DCD    1597463007
        0x00001378:    400921fb    .!.@    DCD    1074340347
        0x0000137c:    40668000    ..f@    DCD    1080459264
    $t
    .text
    set_pid_filt_hz
        0x00001380:    227f        ."      MOVS     r2,#0x7f
        0x00001382:    05d2        ..      LSLS     r2,r2,#23
        0x00001384:    61c1        .a      STR      r1,[r0,#0x1c]
        0x00001386:    4291        .B      CMP      r1,r2
        0x00001388:    dc00        ..      BGT      0x138c ; set_pid_filt_hz + 12
        0x0000138a:    4611        .F      MOV      r1,r2
        0x0000138c:    61c1        .a      STR      r1,[r0,#0x1c]
        0x0000138e:    4770        pG      BX       lr
    set_pid_param
        0x00001390:    b470        p.      PUSH     {r4-r6}
        0x00001392:    ac03        ..      ADD      r4,sp,#0xc
        0x00001394:    cc70        p.      LDM      r4,{r4-r6}
        0x00001396:    6186        .a      STR      r6,[r0,#0x18]
        0x00001398:    6104        .a      STR      r4,[r0,#0x10]
        0x0000139a:    c00e        ..      STM      r0!,{r1-r3}
        0x0000139c:    2100        .!      MOVS     r1,#0
        0x0000139e:    6001        .`      STR      r1,[r0,#0]
        0x000013a0:    6081        .`      STR      r1,[r0,#8]
        0x000013a2:    4629        )F      MOV      r1,r5
        0x000013a4:    bc70        p.      POP      {r4-r6}
        0x000013a6:    380c        .8      SUBS     r0,r0,#0xc
        0x000013a8:    e7ea        ..      B        set_pid_filt_hz ; 0x1380
    set_pid_param_p
        0x000013aa:    6001        .`      STR      r1,[r0,#0]
        0x000013ac:    4770        pG      BX       lr
    set_pid_param_i
        0x000013ae:    6041        A`      STR      r1,[r0,#4]
        0x000013b0:    2100        .!      MOVS     r1,#0
        0x000013b2:    60c1        .`      STR      r1,[r0,#0xc]
        0x000013b4:    4770        pG      BX       lr
    set_pid_param_d
        0x000013b6:    6081        .`      STR      r1,[r0,#8]
        0x000013b8:    2100        .!      MOVS     r1,#0
        0x000013ba:    6141        Aa      STR      r1,[r0,#0x14]
        0x000013bc:    4770        pG      BX       lr
    get_pid_output
        0x000013be:    b5f8        ..      PUSH     {r3-r7,lr}
        0x000013c0:    6a07        .j      LDR      r7,[r0,#0x20]
        0x000013c2:    4604        .F      MOV      r4,r0
        0x000013c4:    6800        .h      LDR      r0,[r0,#0]
        0x000013c6:    4639        9F      MOV      r1,r7
        0x000013c8:    f002ff17    ....    BL       __aeabi_fmul ; 0x41fa
        0x000013cc:    6260        `b      STR      r0,[r4,#0x24]
        0x000013ce:    6861        ah      LDR      r1,[r4,#4]
        0x000013d0:    0048        H.      LSLS     r0,r1,#1
        0x000013d2:    0e00        ..      LSRS     r0,r0,#24
        0x000013d4:    d022        ".      BEQ      0x141c ; get_pid_output + 94
        0x000013d6:    69a5        .i      LDR      r5,[r4,#0x18]
        0x000013d8:    4e34        4N      LDR      r6,[pc,#208] ; [0x14ac] = 0x80000000
        0x000013da:    0068        h.      LSLS     r0,r5,#1
        0x000013dc:    0e00        ..      LSRS     r0,r0,#24
        0x000013de:    d01d        ..      BEQ      0x141c ; get_pid_output + 94
        0x000013e0:    4638        8F      MOV      r0,r7
        0x000013e2:    f002ff0a    ....    BL       __aeabi_fmul ; 0x41fa
        0x000013e6:    4629        )F      MOV      r1,r5
        0x000013e8:    f002ff07    ....    BL       __aeabi_fmul ; 0x41fa
        0x000013ec:    68e1        .h      LDR      r1,[r4,#0xc]
        0x000013ee:    f002feab    ....    BL       __aeabi_fadd ; 0x4148
        0x000013f2:    60e0        .`      STR      r0,[r4,#0xc]
        0x000013f4:    6922        "i      LDR      r2,[r4,#0x10]
        0x000013f6:    4601        .F      MOV      r1,r0
        0x000013f8:    4072        r@      EORS     r2,r2,r6
        0x000013fa:    4610        .F      MOV      r0,r2
        0x000013fc:    f003f9b8    ....    BL       __aeabi_cfrcmple ; 0x4770
        0x00001400:    d202        ..      BCS      0x1408 ; get_pid_output + 74
        0x00001402:    6920         i      LDR      r0,[r4,#0x10]
        0x00001404:    4070        p@      EORS     r0,r0,r6
        0x00001406:    e007        ..      B        0x1418 ; get_pid_output + 90
        0x00001408:    6921        !i      LDR      r1,[r4,#0x10]
        0x0000140a:    68e0        .h      LDR      r0,[r4,#0xc]
        0x0000140c:    f003f9b0    ....    BL       __aeabi_cfrcmple ; 0x4770
        0x00001410:    d301        ..      BCC      0x1416 ; get_pid_output + 88
        0x00001412:    68e0        .h      LDR      r0,[r4,#0xc]
        0x00001414:    e001        ..      B        0x141a ; get_pid_output + 92
        0x00001416:    6920         i      LDR      r0,[r4,#0x10]
        0x00001418:    60e0        .`      STR      r0,[r4,#0xc]
        0x0000141a:    62a0        .b      STR      r0,[r4,#0x28]
        0x0000141c:    6961        ai      LDR      r1,[r4,#0x14]
        0x0000141e:    68a0        .h      LDR      r0,[r4,#8]
        0x00001420:    f002feeb    ....    BL       __aeabi_fmul ; 0x41fa
        0x00001424:    62e0        .b      STR      r0,[r4,#0x2c]
        0x00001426:    bdf8        ..      POP      {r3-r7,pc}
    get_filt_alpha
        0x00001428:    b570        p.      PUSH     {r4-r6,lr}
        0x0000142a:    4604        .F      MOV      r4,r0
        0x0000142c:    69c0        .i      LDR      r0,[r0,#0x1c]
        0x0000142e:    4d20         M      LDR      r5,[pc,#128] ; [0x14b0] = 0x3f800000
        0x00001430:    0041        A.      LSLS     r1,r0,#1
        0x00001432:    0e09        ..      LSRS     r1,r1,#24
        0x00001434:    d010        ..      BEQ      0x1458 ; get_filt_alpha + 48
        0x00001436:    491f        .I      LDR      r1,[pc,#124] ; [0x14b4] = 0x40c90fdb
        0x00001438:    f002fedf    ....    BL       __aeabi_fmul ; 0x41fa
        0x0000143c:    4601        .F      MOV      r1,r0
        0x0000143e:    4628        (F      MOV      r0,r5
        0x00001440:    f002ff18    ....    BL       __aeabi_fdiv ; 0x4274
        0x00001444:    69a4        .i      LDR      r4,[r4,#0x18]
        0x00001446:    4601        .F      MOV      r1,r0
        0x00001448:    4620         F      MOV      r0,r4
        0x0000144a:    f002fe7d    ..}.    BL       __aeabi_fadd ; 0x4148
        0x0000144e:    4601        .F      MOV      r1,r0
        0x00001450:    4620         F      MOV      r0,r4
        0x00001452:    f002ff0f    ....    BL       __aeabi_fdiv ; 0x4274
        0x00001456:    bd70        p.      POP      {r4-r6,pc}
        0x00001458:    4628        (F      MOV      r0,r5
        0x0000145a:    bd70        p.      POP      {r4-r6,pc}
    set_pid_input
        0x0000145c:    b570        p.      PUSH     {r4-r6,lr}
        0x0000145e:    4604        .F      MOV      r4,r0
        0x00001460:    6985        .i      LDR      r5,[r0,#0x18]
        0x00001462:    2001        .       MOVS     r0,#1
        0x00001464:    05c0        ..      LSLS     r0,r0,#23
        0x00001466:    460e        .F      MOV      r6,r1
        0x00001468:    4285        .B      CMP      r5,r0
        0x0000146a:    db14        ..      BLT      0x1496 ; set_pid_input + 58
        0x0000146c:    4630        0F      MOV      r0,r6
        0x0000146e:    6a21        !j      LDR      r1,[r4,#0x20]
        0x00001470:    f002febb    ....    BL       __aeabi_fsub ; 0x41ea
        0x00001474:    4629        )F      MOV      r1,r5
        0x00001476:    f002fefd    ....    BL       __aeabi_fdiv ; 0x4274
        0x0000147a:    6961        ai      LDR      r1,[r4,#0x14]
        0x0000147c:    f002feb5    ....    BL       __aeabi_fsub ; 0x41ea
        0x00001480:    4605        .F      MOV      r5,r0
        0x00001482:    4620         F      MOV      r0,r4
        0x00001484:    f7ffffd0    ....    BL       get_filt_alpha ; 0x1428
        0x00001488:    4629        )F      MOV      r1,r5
        0x0000148a:    f002feb6    ....    BL       __aeabi_fmul ; 0x41fa
        0x0000148e:    6961        ai      LDR      r1,[r4,#0x14]
        0x00001490:    f002fe5a    ..Z.    BL       __aeabi_fadd ; 0x4148
        0x00001494:    6160        `a      STR      r0,[r4,#0x14]
        0x00001496:    4620         F      MOV      r0,r4
        0x00001498:    6226        &b      STR      r6,[r4,#0x20]
        0x0000149a:    f7ffff90    ....    BL       get_pid_output ; 0x13be
        0x0000149e:    bd70        p.      POP      {r4-r6,pc}
    reset_pid_I
        0x000014a0:    2100        .!      MOVS     r1,#0
        0x000014a2:    60c1        .`      STR      r1,[r0,#0xc]
        0x000014a4:    4770        pG      BX       lr
    reset_pid_D
        0x000014a6:    2100        .!      MOVS     r1,#0
        0x000014a8:    6141        Aa      STR      r1,[r0,#0x14]
        0x000014aa:    4770        pG      BX       lr
    $d
        0x000014ac:    80000000    ....    DCD    2147483648
        0x000014b0:    3f800000    ...?    DCD    1065353216
        0x000014b4:    40c90fdb    ...@    DCD    1086918619
    $t
    .text
    Quaternion_vectorGravity
        0x000014b8:    b5fe        ..      PUSH     {r1-r7,lr}
        0x000014ba:    460c        .F      MOV      r4,r1
        0x000014bc:    6889        .h      LDR      r1,[r1,#8]
        0x000014be:    4605        .F      MOV      r5,r0
        0x000014c0:    6820         h      LDR      r0,[r4,#0]
        0x000014c2:    f002fe9a    ....    BL       __aeabi_fmul ; 0x41fa
        0x000014c6:    68e1        .h      LDR      r1,[r4,#0xc]
        0x000014c8:    4606        .F      MOV      r6,r0
        0x000014ca:    6860        `h      LDR      r0,[r4,#4]
        0x000014cc:    f002fe95    ....    BL       __aeabi_fmul ; 0x41fa
        0x000014d0:    4631        1F      MOV      r1,r6
        0x000014d2:    f002fe8a    ....    BL       __aeabi_fsub ; 0x41ea
        0x000014d6:    2101        .!      MOVS     r1,#1
        0x000014d8:    f002ff0a    ....    BL       __ARM_scalbnf ; 0x42f0
        0x000014dc:    9000        ..      STR      r0,[sp,#0]
        0x000014de:    68e1        .h      LDR      r1,[r4,#0xc]
        0x000014e0:    68a0        .h      LDR      r0,[r4,#8]
        0x000014e2:    f002fe8a    ....    BL       __aeabi_fmul ; 0x41fa
        0x000014e6:    6861        ah      LDR      r1,[r4,#4]
        0x000014e8:    4606        .F      MOV      r6,r0
        0x000014ea:    6820         h      LDR      r0,[r4,#0]
        0x000014ec:    f002fe85    ....    BL       __aeabi_fmul ; 0x41fa
        0x000014f0:    4631        1F      MOV      r1,r6
        0x000014f2:    f002fe29    ..).    BL       __aeabi_fadd ; 0x4148
        0x000014f6:    2101        .!      MOVS     r1,#1
        0x000014f8:    f002fefa    ....    BL       __ARM_scalbnf ; 0x42f0
        0x000014fc:    9001        ..      STR      r0,[sp,#4]
        0x000014fe:    68a1        .h      LDR      r1,[r4,#8]
        0x00001500:    68a0        .h      LDR      r0,[r4,#8]
        0x00001502:    f002fe7a    ..z.    BL       __aeabi_fmul ; 0x41fa
        0x00001506:    6861        ah      LDR      r1,[r4,#4]
        0x00001508:    4606        .F      MOV      r6,r0
        0x0000150a:    6860        `h      LDR      r0,[r4,#4]
        0x0000150c:    f002fe75    ..u.    BL       __aeabi_fmul ; 0x41fa
        0x00001510:    4631        1F      MOV      r1,r6
        0x00001512:    f002fe19    ....    BL       __aeabi_fadd ; 0x4148
        0x00001516:    2101        .!      MOVS     r1,#1
        0x00001518:    f002feea    ....    BL       __ARM_scalbnf ; 0x42f0
        0x0000151c:    217f        .!      MOVS     r1,#0x7f
        0x0000151e:    05c9        ..      LSLS     r1,r1,#23
        0x00001520:    f002fe67    ..g.    BL       __aeabi_frsub ; 0x41f2
        0x00001524:    9002        ..      STR      r0,[sp,#8]
        0x00001526:    9800        ..      LDR      r0,[sp,#0]
        0x00001528:    6028        (`      STR      r0,[r5,#0]
        0x0000152a:    9801        ..      LDR      r0,[sp,#4]
        0x0000152c:    6068        h`      STR      r0,[r5,#4]
        0x0000152e:    9802        ..      LDR      r0,[sp,#8]
        0x00001530:    60a8        .`      STR      r0,[r5,#8]
        0x00001532:    bdfe        ..      POP      {r1-r7,pc}
    Quaternion_ToMatrix
        0x00001534:    b5f8        ..      PUSH     {r3-r7,lr}
        0x00001536:    460d        .F      MOV      r5,r1
        0x00001538:    68c1        .h      LDR      r1,[r0,#0xc]
        0x0000153a:    4604        .F      MOV      r4,r0
        0x0000153c:    68c0        .h      LDR      r0,[r0,#0xc]
        0x0000153e:    f002fe5c    ..\.    BL       __aeabi_fmul ; 0x41fa
        0x00001542:    9000        ..      STR      r0,[sp,#0]
        0x00001544:    68a1        .h      LDR      r1,[r4,#8]
        0x00001546:    68a0        .h      LDR      r0,[r4,#8]
        0x00001548:    f002fe57    ..W.    BL       __aeabi_fmul ; 0x41fa
        0x0000154c:    6861        ah      LDR      r1,[r4,#4]
        0x0000154e:    4607        .F      MOV      r7,r0
        0x00001550:    6860        `h      LDR      r0,[r4,#4]
        0x00001552:    f002fe52    ..R.    BL       __aeabi_fmul ; 0x41fa
        0x00001556:    6821        !h      LDR      r1,[r4,#0]
        0x00001558:    4606        .F      MOV      r6,r0
        0x0000155a:    6820         h      LDR      r0,[r4,#0]
        0x0000155c:    f002fe4d    ..M.    BL       __aeabi_fmul ; 0x41fa
        0x00001560:    4631        1F      MOV      r1,r6
        0x00001562:    f002fdf1    ....    BL       __aeabi_fadd ; 0x4148
        0x00001566:    4639        9F      MOV      r1,r7
        0x00001568:    f002fe3f    ..?.    BL       __aeabi_fsub ; 0x41ea
        0x0000156c:    9900        ..      LDR      r1,[sp,#0]
        0x0000156e:    f002fe3c    ..<.    BL       __aeabi_fsub ; 0x41ea
        0x00001572:    6028        (`      STR      r0,[r5,#0]
        0x00001574:    68a1        .h      LDR      r1,[r4,#8]
        0x00001576:    6860        `h      LDR      r0,[r4,#4]
        0x00001578:    f002fe3f    ..?.    BL       __aeabi_fmul ; 0x41fa
        0x0000157c:    68e1        .h      LDR      r1,[r4,#0xc]
        0x0000157e:    4606        .F      MOV      r6,r0
        0x00001580:    6820         h      LDR      r0,[r4,#0]
        0x00001582:    f002fe3a    ..:.    BL       __aeabi_fmul ; 0x41fa
        0x00001586:    4631        1F      MOV      r1,r6
        0x00001588:    f002fdde    ....    BL       __aeabi_fadd ; 0x4148
        0x0000158c:    2101        .!      MOVS     r1,#1
        0x0000158e:    f002feaf    ....    BL       __ARM_scalbnf ; 0x42f0
        0x00001592:    6068        h`      STR      r0,[r5,#4]
        0x00001594:    68a1        .h      LDR      r1,[r4,#8]
        0x00001596:    6820         h      LDR      r0,[r4,#0]
        0x00001598:    f002fe2f    ../.    BL       __aeabi_fmul ; 0x41fa
        0x0000159c:    68e1        .h      LDR      r1,[r4,#0xc]
        0x0000159e:    4606        .F      MOV      r6,r0
        0x000015a0:    6860        `h      LDR      r0,[r4,#4]
        0x000015a2:    f002fe2a    ..*.    BL       __aeabi_fmul ; 0x41fa
        0x000015a6:    4631        1F      MOV      r1,r6
        0x000015a8:    f002fe1f    ....    BL       __aeabi_fsub ; 0x41ea
        0x000015ac:    2101        .!      MOVS     r1,#1
        0x000015ae:    f002fe9f    ....    BL       __ARM_scalbnf ; 0x42f0
        0x000015b2:    60a8        .`      STR      r0,[r5,#8]
        0x000015b4:    68e1        .h      LDR      r1,[r4,#0xc]
        0x000015b6:    6820         h      LDR      r0,[r4,#0]
        0x000015b8:    f002fe1f    ....    BL       __aeabi_fmul ; 0x41fa
        0x000015bc:    68a1        .h      LDR      r1,[r4,#8]
        0x000015be:    4606        .F      MOV      r6,r0
        0x000015c0:    6860        `h      LDR      r0,[r4,#4]
        0x000015c2:    f002fe1a    ....    BL       __aeabi_fmul ; 0x41fa
        0x000015c6:    4631        1F      MOV      r1,r6
        0x000015c8:    f002fe0f    ....    BL       __aeabi_fsub ; 0x41ea
        0x000015cc:    2101        .!      MOVS     r1,#1
        0x000015ce:    f002fe8f    ....    BL       __ARM_scalbnf ; 0x42f0
        0x000015d2:    60e8        .`      STR      r0,[r5,#0xc]
        0x000015d4:    68e1        .h      LDR      r1,[r4,#0xc]
        0x000015d6:    68e0        .h      LDR      r0,[r4,#0xc]
        0x000015d8:    f002fe0f    ....    BL       __aeabi_fmul ; 0x41fa
        0x000015dc:    9000        ..      STR      r0,[sp,#0]
        0x000015de:    68a1        .h      LDR      r1,[r4,#8]
        0x000015e0:    68a0        .h      LDR      r0,[r4,#8]
        0x000015e2:    f002fe0a    ....    BL       __aeabi_fmul ; 0x41fa
        0x000015e6:    6861        ah      LDR      r1,[r4,#4]
        0x000015e8:    4607        .F      MOV      r7,r0
        0x000015ea:    6860        `h      LDR      r0,[r4,#4]
        0x000015ec:    f002fe05    ....    BL       __aeabi_fmul ; 0x41fa
        0x000015f0:    6821        !h      LDR      r1,[r4,#0]
        0x000015f2:    4606        .F      MOV      r6,r0
        0x000015f4:    6820         h      LDR      r0,[r4,#0]
        0x000015f6:    f002fe00    ....    BL       __aeabi_fmul ; 0x41fa
        0x000015fa:    4631        1F      MOV      r1,r6
        0x000015fc:    f002fdf5    ....    BL       __aeabi_fsub ; 0x41ea
        0x00001600:    4639        9F      MOV      r1,r7
        0x00001602:    f002fda1    ....    BL       __aeabi_fadd ; 0x4148
        0x00001606:    9900        ..      LDR      r1,[sp,#0]
        0x00001608:    f002fdef    ....    BL       __aeabi_fsub ; 0x41ea
        0x0000160c:    6128        (a      STR      r0,[r5,#0x10]
        0x0000160e:    68e1        .h      LDR      r1,[r4,#0xc]
        0x00001610:    68a0        .h      LDR      r0,[r4,#8]
        0x00001612:    f002fdf2    ....    BL       __aeabi_fmul ; 0x41fa
        0x00001616:    6861        ah      LDR      r1,[r4,#4]
        0x00001618:    4606        .F      MOV      r6,r0
        0x0000161a:    6820         h      LDR      r0,[r4,#0]
        0x0000161c:    f002fded    ....    BL       __aeabi_fmul ; 0x41fa
        0x00001620:    4631        1F      MOV      r1,r6
        0x00001622:    f002fd91    ....    BL       __aeabi_fadd ; 0x4148
        0x00001626:    2101        .!      MOVS     r1,#1
        0x00001628:    f002fe62    ..b.    BL       __ARM_scalbnf ; 0x42f0
        0x0000162c:    6168        ha      STR      r0,[r5,#0x14]
        0x0000162e:    68a1        .h      LDR      r1,[r4,#8]
        0x00001630:    6820         h      LDR      r0,[r4,#0]
        0x00001632:    f002fde2    ....    BL       __aeabi_fmul ; 0x41fa
        0x00001636:    68e1        .h      LDR      r1,[r4,#0xc]
        0x00001638:    4606        .F      MOV      r6,r0
        0x0000163a:    6860        `h      LDR      r0,[r4,#4]
        0x0000163c:    f002fddd    ....    BL       __aeabi_fmul ; 0x41fa
        0x00001640:    4631        1F      MOV      r1,r6
        0x00001642:    f002fd81    ....    BL       __aeabi_fadd ; 0x4148
        0x00001646:    2101        .!      MOVS     r1,#1
        0x00001648:    f002fe52    ..R.    BL       __ARM_scalbnf ; 0x42f0
        0x0000164c:    61a8        .a      STR      r0,[r5,#0x18]
        0x0000164e:    6861        ah      LDR      r1,[r4,#4]
        0x00001650:    6820         h      LDR      r0,[r4,#0]
        0x00001652:    f002fdd2    ....    BL       __aeabi_fmul ; 0x41fa
        0x00001656:    68e1        .h      LDR      r1,[r4,#0xc]
        0x00001658:    4606        .F      MOV      r6,r0
        0x0000165a:    68a0        .h      LDR      r0,[r4,#8]
        0x0000165c:    f002fdcd    ....    BL       __aeabi_fmul ; 0x41fa
        0x00001660:    4631        1F      MOV      r1,r6
        0x00001662:    f002fdc2    ....    BL       __aeabi_fsub ; 0x41ea
        0x00001666:    2101        .!      MOVS     r1,#1
        0x00001668:    f002fe42    ..B.    BL       __ARM_scalbnf ; 0x42f0
        0x0000166c:    61e8        .a      STR      r0,[r5,#0x1c]
        0x0000166e:    68e1        .h      LDR      r1,[r4,#0xc]
        0x00001670:    68e0        .h      LDR      r0,[r4,#0xc]
        0x00001672:    f002fdc2    ....    BL       __aeabi_fmul ; 0x41fa
        0x00001676:    9000        ..      STR      r0,[sp,#0]
        0x00001678:    68a1        .h      LDR      r1,[r4,#8]
        0x0000167a:    68a0        .h      LDR      r0,[r4,#8]
        0x0000167c:    f002fdbd    ....    BL       __aeabi_fmul ; 0x41fa
        0x00001680:    6861        ah      LDR      r1,[r4,#4]
        0x00001682:    4607        .F      MOV      r7,r0
        0x00001684:    6860        `h      LDR      r0,[r4,#4]
        0x00001686:    f002fdb8    ....    BL       __aeabi_fmul ; 0x41fa
        0x0000168a:    6821        !h      LDR      r1,[r4,#0]
        0x0000168c:    4606        .F      MOV      r6,r0
        0x0000168e:    6820         h      LDR      r0,[r4,#0]
        0x00001690:    f002fdb3    ....    BL       __aeabi_fmul ; 0x41fa
        0x00001694:    4631        1F      MOV      r1,r6
        0x00001696:    f002fda8    ....    BL       __aeabi_fsub ; 0x41ea
        0x0000169a:    4639        9F      MOV      r1,r7
        0x0000169c:    f002fda5    ....    BL       __aeabi_fsub ; 0x41ea
        0x000016a0:    9900        ..      LDR      r1,[sp,#0]
        0x000016a2:    f002fd51    ..Q.    BL       __aeabi_fadd ; 0x4148
        0x000016a6:    6228        (b      STR      r0,[r5,#0x20]
        0x000016a8:    bdf8        ..      POP      {r3-r7,pc}
    Quaternion_ToAngE
        0x000016aa:    b570        p.      PUSH     {r4-r6,lr}
        0x000016ac:    460d        .F      MOV      r5,r1
        0x000016ae:    4614        .F      MOV      r4,r2
        0x000016b0:    4611        .F      MOV      r1,r2
        0x000016b2:    f7ffff3f    ..?.    BL       Quaternion_ToMatrix ; 0x1534
        0x000016b6:    68a0        .h      LDR      r0,[r4,#8]
        0x000016b8:    f004fb14    ....    BL       asinf ; 0x5ce4
        0x000016bc:    2601        .&      MOVS     r6,#1
        0x000016be:    07f6        ..      LSLS     r6,r6,#31
        0x000016c0:    4070        p@      EORS     r0,r0,r6
        0x000016c2:    6028        (`      STR      r0,[r5,#0]
        0x000016c4:    6a21        !j      LDR      r1,[r4,#0x20]
        0x000016c6:    6960        `i      LDR      r0,[r4,#0x14]
        0x000016c8:    f004fb98    ....    BL       atan2f ; 0x5dfc
        0x000016cc:    4070        p@      EORS     r0,r0,r6
        0x000016ce:    6068        h`      STR      r0,[r5,#4]
        0x000016d0:    6821        !h      LDR      r1,[r4,#0]
        0x000016d2:    6860        `h      LDR      r0,[r4,#4]
        0x000016d4:    f004fb92    ....    BL       atan2f ; 0x5dfc
        0x000016d8:    4070        p@      EORS     r0,r0,r6
        0x000016da:    60a8        .`      STR      r0,[r5,#8]
        0x000016dc:    bd70        p.      POP      {r4-r6,pc}
    Quaternion_Normalize
        0x000016de:    b5f8        ..      PUSH     {r3-r7,lr}
        0x000016e0:    68c1        .h      LDR      r1,[r0,#0xc]
        0x000016e2:    4604        .F      MOV      r4,r0
        0x000016e4:    68c0        .h      LDR      r0,[r0,#0xc]
        0x000016e6:    f002fd88    ....    BL       __aeabi_fmul ; 0x41fa
        0x000016ea:    68a1        .h      LDR      r1,[r4,#8]
        0x000016ec:    4607        .F      MOV      r7,r0
        0x000016ee:    68a0        .h      LDR      r0,[r4,#8]
        0x000016f0:    f002fd83    ....    BL       __aeabi_fmul ; 0x41fa
        0x000016f4:    6861        ah      LDR      r1,[r4,#4]
        0x000016f6:    4606        .F      MOV      r6,r0
        0x000016f8:    6860        `h      LDR      r0,[r4,#4]
        0x000016fa:    f002fd7e    ..~.    BL       __aeabi_fmul ; 0x41fa
        0x000016fe:    6821        !h      LDR      r1,[r4,#0]
        0x00001700:    4605        .F      MOV      r5,r0
        0x00001702:    6820         h      LDR      r0,[r4,#0]
        0x00001704:    f002fd79    ..y.    BL       __aeabi_fmul ; 0x41fa
        0x00001708:    4629        )F      MOV      r1,r5
        0x0000170a:    f002fd1d    ....    BL       __aeabi_fadd ; 0x4148
        0x0000170e:    4631        1F      MOV      r1,r6
        0x00001710:    f002fd1a    ....    BL       __aeabi_fadd ; 0x4148
        0x00001714:    4639        9F      MOV      r1,r7
        0x00001716:    f002fd17    ....    BL       __aeabi_fadd ; 0x4148
        0x0000171a:    f7fffde9    ....    BL       Q_rsqrt ; 0x12f0
        0x0000171e:    4605        .F      MOV      r5,r0
        0x00001720:    6820         h      LDR      r0,[r4,#0]
        0x00001722:    4629        )F      MOV      r1,r5
        0x00001724:    f002fd69    ..i.    BL       __aeabi_fmul ; 0x41fa
        0x00001728:    6020         `      STR      r0,[r4,#0]
        0x0000172a:    6860        `h      LDR      r0,[r4,#4]
        0x0000172c:    4629        )F      MOV      r1,r5
        0x0000172e:    f002fd64    ..d.    BL       __aeabi_fmul ; 0x41fa
        0x00001732:    6060        ``      STR      r0,[r4,#4]
        0x00001734:    68a0        .h      LDR      r0,[r4,#8]
        0x00001736:    4629        )F      MOV      r1,r5
        0x00001738:    f002fd5f    .._.    BL       __aeabi_fmul ; 0x41fa
        0x0000173c:    60a0        .`      STR      r0,[r4,#8]
        0x0000173e:    68e0        .h      LDR      r0,[r4,#0xc]
        0x00001740:    4629        )F      MOV      r1,r5
        0x00001742:    f002fd5a    ..Z.    BL       __aeabi_fmul ; 0x41fa
        0x00001746:    60e0        .`      STR      r0,[r4,#0xc]
        0x00001748:    bdf8        ..      POP      {r3-r7,pc}
    Quaternion_RungeKutta
        0x0000174a:    b5ff        ..      PUSH     {r0-r7,lr}
        0x0000174c:    4604        .F      MOV      r4,r0
        0x0000174e:    6800        .h      LDR      r0,[r0,#0]
        0x00001750:    b083        ..      SUB      sp,sp,#0xc
        0x00001752:    9000        ..      STR      r0,[sp,#0]
        0x00001754:    6865        eh      LDR      r5,[r4,#4]
        0x00001756:    68a7        .h      LDR      r7,[r4,#8]
        0x00001758:    68e6        .h      LDR      r6,[r4,#0xc]
        0x0000175a:    9906        ..      LDR      r1,[sp,#0x18]
        0x0000175c:    4630        0F      MOV      r0,r6
        0x0000175e:    f002fd4c    ..L.    BL       __aeabi_fmul ; 0x41fa
        0x00001762:    9002        ..      STR      r0,[sp,#8]
        0x00001764:    4638        8F      MOV      r0,r7
        0x00001766:    9905        ..      LDR      r1,[sp,#0x14]
        0x00001768:    f002fd47    ..G.    BL       __aeabi_fmul ; 0x41fa
        0x0000176c:    9001        ..      STR      r0,[sp,#4]
        0x0000176e:    2001        .       MOVS     r0,#1
        0x00001770:    07c0        ..      LSLS     r0,r0,#31
        0x00001772:    4068        h@      EORS     r0,r0,r5
        0x00001774:    9904        ..      LDR      r1,[sp,#0x10]
        0x00001776:    f002fd40    ..@.    BL       __aeabi_fmul ; 0x41fa
        0x0000177a:    9901        ..      LDR      r1,[sp,#4]
        0x0000177c:    f002fd35    ..5.    BL       __aeabi_fsub ; 0x41ea
        0x00001780:    9902        ..      LDR      r1,[sp,#8]
        0x00001782:    f002fd32    ..2.    BL       __aeabi_fsub ; 0x41ea
        0x00001786:    990c        ..      LDR      r1,[sp,#0x30]
        0x00001788:    f002fd37    ..7.    BL       __aeabi_fmul ; 0x41fa
        0x0000178c:    6821        !h      LDR      r1,[r4,#0]
        0x0000178e:    f002fcdb    ....    BL       __aeabi_fadd ; 0x4148
        0x00001792:    6020         `      STR      r0,[r4,#0]
        0x00001794:    4638        8F      MOV      r0,r7
        0x00001796:    9906        ..      LDR      r1,[sp,#0x18]
        0x00001798:    f002fd2f    ../.    BL       __aeabi_fmul ; 0x41fa
        0x0000179c:    9002        ..      STR      r0,[sp,#8]
        0x0000179e:    4630        0F      MOV      r0,r6
        0x000017a0:    9905        ..      LDR      r1,[sp,#0x14]
        0x000017a2:    f002fd2a    ..*.    BL       __aeabi_fmul ; 0x41fa
        0x000017a6:    9001        ..      STR      r0,[sp,#4]
        0x000017a8:    9904        ..      LDR      r1,[sp,#0x10]
        0x000017aa:    9800        ..      LDR      r0,[sp,#0]
        0x000017ac:    f002fd25    ..%.    BL       __aeabi_fmul ; 0x41fa
        0x000017b0:    9901        ..      LDR      r1,[sp,#4]
        0x000017b2:    f002fd1a    ....    BL       __aeabi_fsub ; 0x41ea
        0x000017b6:    9902        ..      LDR      r1,[sp,#8]
        0x000017b8:    f002fcc6    ....    BL       __aeabi_fadd ; 0x4148
        0x000017bc:    990c        ..      LDR      r1,[sp,#0x30]
        0x000017be:    f002fd1c    ....    BL       __aeabi_fmul ; 0x41fa
        0x000017c2:    6861        ah      LDR      r1,[r4,#4]
        0x000017c4:    f002fcc0    ....    BL       __aeabi_fadd ; 0x4148
        0x000017c8:    6060        ``      STR      r0,[r4,#4]
        0x000017ca:    4628        (F      MOV      r0,r5
        0x000017cc:    9906        ..      LDR      r1,[sp,#0x18]
        0x000017ce:    f002fd14    ....    BL       __aeabi_fmul ; 0x41fa
        0x000017d2:    9002        ..      STR      r0,[sp,#8]
        0x000017d4:    9905        ..      LDR      r1,[sp,#0x14]
        0x000017d6:    9800        ..      LDR      r0,[sp,#0]
        0x000017d8:    f002fd0f    ....    BL       __aeabi_fmul ; 0x41fa
        0x000017dc:    9001        ..      STR      r0,[sp,#4]
        0x000017de:    4630        0F      MOV      r0,r6
        0x000017e0:    9904        ..      LDR      r1,[sp,#0x10]
        0x000017e2:    f002fd0a    ....    BL       __aeabi_fmul ; 0x41fa
        0x000017e6:    9901        ..      LDR      r1,[sp,#4]
        0x000017e8:    f002fcae    ....    BL       __aeabi_fadd ; 0x4148
        0x000017ec:    9902        ..      LDR      r1,[sp,#8]
        0x000017ee:    f002fcfc    ....    BL       __aeabi_fsub ; 0x41ea
        0x000017f2:    990c        ..      LDR      r1,[sp,#0x30]
        0x000017f4:    f002fd01    ....    BL       __aeabi_fmul ; 0x41fa
        0x000017f8:    68a1        .h      LDR      r1,[r4,#8]
        0x000017fa:    f002fca5    ....    BL       __aeabi_fadd ; 0x4148
        0x000017fe:    60a0        .`      STR      r0,[r4,#8]
        0x00001800:    9906        ..      LDR      r1,[sp,#0x18]
        0x00001802:    9800        ..      LDR      r0,[sp,#0]
        0x00001804:    f002fcf9    ....    BL       __aeabi_fmul ; 0x41fa
        0x00001808:    4606        .F      MOV      r6,r0
        0x0000180a:    4638        8F      MOV      r0,r7
        0x0000180c:    9904        ..      LDR      r1,[sp,#0x10]
        0x0000180e:    f002fcf4    ....    BL       __aeabi_fmul ; 0x41fa
        0x00001812:    4607        .F      MOV      r7,r0
        0x00001814:    4628        (F      MOV      r0,r5
        0x00001816:    9905        ..      LDR      r1,[sp,#0x14]
        0x00001818:    f002fcef    ....    BL       __aeabi_fmul ; 0x41fa
        0x0000181c:    4639        9F      MOV      r1,r7
        0x0000181e:    f002fce4    ....    BL       __aeabi_fsub ; 0x41ea
        0x00001822:    4631        1F      MOV      r1,r6
        0x00001824:    f002fc90    ....    BL       __aeabi_fadd ; 0x4148
        0x00001828:    990c        ..      LDR      r1,[sp,#0x30]
        0x0000182a:    f002fce6    ....    BL       __aeabi_fmul ; 0x41fa
        0x0000182e:    68e1        .h      LDR      r1,[r4,#0xc]
        0x00001830:    f002fc8a    ....    BL       __aeabi_fadd ; 0x4148
        0x00001834:    60e0        .`      STR      r0,[r4,#0xc]
        0x00001836:    b007        ..      ADD      sp,sp,#0x1c
        0x00001838:    bdf0        ..      POP      {r4-r7,pc}
        0x0000183a:    0000        ..      MOVS     r0,r0
    .text
    axis_target_pid_cal
        0x0000183c:    b510        ..      PUSH     {r4,lr}
        0x0000183e:    4604        .F      MOV      r4,r0
        0x00001840:    4608        .F      MOV      r0,r1
        0x00001842:    f002ff46    ..F.    BL       __aeabi_f2d ; 0x46d2
        0x00001846:    f7fffd7f    ....    BL       Rad ; 0x1348
        0x0000184a:    f002ff6b    ..k.    BL       __aeabi_d2f ; 0x4724
        0x0000184e:    4601        .F      MOV      r1,r0
        0x00001850:    4620         F      MOV      r0,r4
        0x00001852:    f7fffe03    ....    BL       set_pid_input ; 0x145c
        0x00001856:    6aa1        .j      LDR      r1,[r4,#0x28]
        0x00001858:    6a60        `j      LDR      r0,[r4,#0x24]
        0x0000185a:    f002fc75    ..u.    BL       __aeabi_fadd ; 0x4148
        0x0000185e:    6ae1        .j      LDR      r1,[r4,#0x2c]
        0x00001860:    f002fc72    ..r.    BL       __aeabi_fadd ; 0x4148
        0x00001864:    bd10        ..      POP      {r4,pc}
    attitude_angle_rate_controller
        0x00001866:    b53e        >.      PUSH     {r1-r5,lr}
        0x00001868:    4668        hF      MOV      r0,sp
        0x0000186a:    f000ff7d    ..}.    BL       get_inertial_vel ; 0x2768
        0x0000186e:    4c53        SL      LDR      r4,[pc,#332] ; [0x19bc] = 0x200002ac
        0x00001870:    9900        ..      LDR      r1,[sp,#0]
        0x00001872:    6820         h      LDR      r0,[r4,#0]
        0x00001874:    f002fcb9    ....    BL       __aeabi_fsub ; 0x41ea
        0x00001878:    4601        .F      MOV      r1,r0
        0x0000187a:    4851        QH      LDR      r0,[pc,#324] ; [0x19c0] = 0x200000fc
        0x0000187c:    f7ffffde    ....    BL       axis_target_pid_cal ; 0x183c
        0x00001880:    f000f972    ..r.    BL       set_motor_roll ; 0x1b68
        0x00001884:    9901        ..      LDR      r1,[sp,#4]
        0x00001886:    6860        `h      LDR      r0,[r4,#4]
        0x00001888:    f002fcaf    ....    BL       __aeabi_fsub ; 0x41ea
        0x0000188c:    4601        .F      MOV      r1,r0
        0x0000188e:    484c        LH      LDR      r0,[pc,#304] ; [0x19c0] = 0x200000fc
        0x00001890:    3030        00      ADDS     r0,r0,#0x30
        0x00001892:    f7ffffd3    ....    BL       axis_target_pid_cal ; 0x183c
        0x00001896:    f000f96a    ..j.    BL       set_motor_pitch ; 0x1b6e
        0x0000189a:    9902        ..      LDR      r1,[sp,#8]
        0x0000189c:    68a0        .h      LDR      r0,[r4,#8]
        0x0000189e:    f002fca4    ....    BL       __aeabi_fsub ; 0x41ea
        0x000018a2:    4601        .F      MOV      r1,r0
        0x000018a4:    4846        FH      LDR      r0,[pc,#280] ; [0x19c0] = 0x200000fc
        0x000018a6:    3060        `0      ADDS     r0,r0,#0x60
        0x000018a8:    f7ffffc8    ....    BL       axis_target_pid_cal ; 0x183c
        0x000018ac:    f000f962    ..b.    BL       set_motor_yaw ; 0x1b74
        0x000018b0:    bd3e        >.      POP      {r1-r5,pc}
    attitude_angle_euler_controller
        0x000018b2:    b5ff        ..      PUSH     {r0-r7,lr}
        0x000018b4:    4e43        CN      LDR      r6,[pc,#268] ; [0x19c4] = 0x20000308
        0x000018b6:    460f        .F      MOV      r7,r1
        0x000018b8:    b081        ..      SUB      sp,sp,#4
        0x000018ba:    4615        .F      MOV      r5,r2
        0x000018bc:    6871        qh      LDR      r1,[r6,#4]
        0x000018be:    f002fc94    ....    BL       __aeabi_fsub ; 0x41ea
        0x000018c2:    4601        .F      MOV      r1,r0
        0x000018c4:    483e        >H      LDR      r0,[pc,#248] ; [0x19c0] = 0x200000fc
        0x000018c6:    3090        .0      ADDS     r0,r0,#0x90
        0x000018c8:    f7ffffb8    ....    BL       axis_target_pid_cal ; 0x183c
        0x000018cc:    9904        ..      LDR      r1,[sp,#0x10]
        0x000018ce:    f002fc94    ....    BL       __aeabi_fmul ; 0x41fa
        0x000018d2:    4c3a        :L      LDR      r4,[pc,#232] ; [0x19bc] = 0x200002ac
        0x000018d4:    6020         `      STR      r0,[r4,#0]
        0x000018d6:    4638        8F      MOV      r0,r7
        0x000018d8:    6831        1h      LDR      r1,[r6,#0]
        0x000018da:    f002fc86    ....    BL       __aeabi_fsub ; 0x41ea
        0x000018de:    4601        .F      MOV      r1,r0
        0x000018e0:    4620         F      MOV      r0,r4
        0x000018e2:    38f0        .8      SUBS     r0,r0,#0xf0
        0x000018e4:    f7ffffaa    ....    BL       axis_target_pid_cal ; 0x183c
        0x000018e8:    9904        ..      LDR      r1,[sp,#0x10]
        0x000018ea:    f002fc86    ....    BL       __aeabi_fmul ; 0x41fa
        0x000018ee:    6060        ``      STR      r0,[r4,#4]
        0x000018f0:    4620         F      MOV      r0,r4
        0x000018f2:    4629        )F      MOV      r1,r5
        0x000018f4:    38c0        .8      SUBS     r0,r0,#0xc0
        0x000018f6:    f7ffffa1    ....    BL       axis_target_pid_cal ; 0x183c
        0x000018fa:    9904        ..      LDR      r1,[sp,#0x10]
        0x000018fc:    f002fc7d    ..}.    BL       __aeabi_fmul ; 0x41fa
        0x00001900:    60a0        .`      STR      r0,[r4,#8]
        0x00001902:    b005        ..      ADD      sp,sp,#0x14
        0x00001904:    bdf0        ..      POP      {r4-r7,pc}
    get_throttle_boosted
        0x00001906:    b5f8        ..      PUSH     {r3-r7,lr}
        0x00001908:    4f2f        /O      LDR      r7,[pc,#188] ; [0x19c8] = 0x200002fc
        0x0000190a:    4606        .F      MOV      r6,r0
        0x0000190c:    6878        xh      LDR      r0,[r7,#4]
        0x0000190e:    f002fee0    ....    BL       __aeabi_f2d ; 0x46d2
        0x00001912:    f004fba1    ....    BL       cos ; 0x6058
        0x00001916:    4604        .F      MOV      r4,r0
        0x00001918:    460d        .F      MOV      r5,r1
        0x0000191a:    6838        8h      LDR      r0,[r7,#0]
        0x0000191c:    f002fed9    ....    BL       __aeabi_f2d ; 0x46d2
        0x00001920:    f004fb9a    ....    BL       cos ; 0x6058
        0x00001924:    4622        "F      MOV      r2,r4
        0x00001926:    462b        +F      MOV      r3,r5
        0x00001928:    f002fda0    ....    BL       __aeabi_dmul ; 0x446c
        0x0000192c:    f002fefa    ....    BL       __aeabi_d2f ; 0x4724
        0x00001930:    4607        .F      MOV      r7,r0
        0x00001932:    2101        .!      MOVS     r1,#1
        0x00001934:    f002fcdc    ....    BL       __ARM_scalbnf ; 0x42f0
        0x00001938:    247f        .$      MOVS     r4,#0x7f
        0x0000193a:    05e4        ..      LSLS     r4,r4,#23
        0x0000193c:    2200        ."      MOVS     r2,#0
        0x0000193e:    4621        !F      MOV      r1,r4
        0x00001940:    f7fffcee    ....    BL       data_limit ; 0x1320
        0x00001944:    4605        .F      MOV      r5,r0
        0x00001946:    223f        ?"      MOVS     r2,#0x3f
        0x00001948:    0612        ..      LSLS     r2,r2,#24
        0x0000194a:    4621        !F      MOV      r1,r4
        0x0000194c:    4638        8F      MOV      r0,r7
        0x0000194e:    f7fffce7    ....    BL       data_limit ; 0x1320
        0x00001952:    4601        .F      MOV      r1,r0
        0x00001954:    4620         F      MOV      r0,r4
        0x00001956:    f002fc8d    ....    BL       __aeabi_fdiv ; 0x4274
        0x0000195a:    4604        .F      MOV      r4,r0
        0x0000195c:    4629        )F      MOV      r1,r5
        0x0000195e:    4630        0F      MOV      r0,r6
        0x00001960:    f002fc4b    ..K.    BL       __aeabi_fmul ; 0x41fa
        0x00001964:    4621        !F      MOV      r1,r4
        0x00001966:    f002fc48    ..H.    BL       __aeabi_fmul ; 0x41fa
        0x0000196a:    4604        .F      MOV      r4,r0
        0x0000196c:    2200        ."      MOVS     r2,#0
        0x0000196e:    4917        .I      LDR      r1,[pc,#92] ; [0x19cc] = 0x3f733333
        0x00001970:    f7fffcd6    ....    BL       data_limit ; 0x1320
        0x00001974:    4620         F      MOV      r0,r4
        0x00001976:    bdf8        ..      POP      {r3-r7,pc}
    attitude_throttle_controller
        0x00001978:    b510        ..      PUSH     {r4,lr}
        0x0000197a:    4614        .F      MOV      r4,r2
        0x0000197c:    2900        .)      CMP      r1,#0
        0x0000197e:    d001        ..      BEQ      0x1984 ; attitude_throttle_controller + 12
        0x00001980:    f7ffffc1    ....    BL       get_throttle_boosted ; 0x1906
        0x00001984:    4621        !F      MOV      r1,r4
        0x00001986:    f000f8f8    ....    BL       set_motor_throttle ; 0x1b7a
        0x0000198a:    bd10        ..      POP      {r4,pc}
    reset_pid_param
        0x0000198c:    b570        p.      PUSH     {r4-r6,lr}
        0x0000198e:    480c        .H      LDR      r0,[pc,#48] ; [0x19c0] = 0x200000fc
        0x00001990:    f7fffd86    ....    BL       reset_pid_I ; 0x14a0
        0x00001994:    480a        .H      LDR      r0,[pc,#40] ; [0x19c0] = 0x200000fc
        0x00001996:    3030        00      ADDS     r0,r0,#0x30
        0x00001998:    4604        .F      MOV      r4,r0
        0x0000199a:    f7fffd81    ....    BL       reset_pid_I ; 0x14a0
        0x0000199e:    4808        .H      LDR      r0,[pc,#32] ; [0x19c0] = 0x200000fc
        0x000019a0:    3060        `0      ADDS     r0,r0,#0x60
        0x000019a2:    4605        .F      MOV      r5,r0
        0x000019a4:    f7fffd7c    ..|.    BL       reset_pid_I ; 0x14a0
        0x000019a8:    4805        .H      LDR      r0,[pc,#20] ; [0x19c0] = 0x200000fc
        0x000019aa:    f7fffd7c    ..|.    BL       reset_pid_D ; 0x14a6
        0x000019ae:    4620         F      MOV      r0,r4
        0x000019b0:    f7fffd79    ..y.    BL       reset_pid_D ; 0x14a6
        0x000019b4:    4628        (F      MOV      r0,r5
        0x000019b6:    f7fffd76    ..v.    BL       reset_pid_D ; 0x14a6
        0x000019ba:    bd70        p.      POP      {r4-r6,pc}
    $d
        0x000019bc:    200002ac    ...     DCD    536871596
        0x000019c0:    200000fc    ...     DCD    536871164
        0x000019c4:    20000308    ...     DCD    536871688
        0x000019c8:    200002fc    ...     DCD    536871676
        0x000019cc:    3f733333    33s?    DCD    1064514355
    $t
    .text
    stabilize_init
        0x000019d0:    b510        ..      PUSH     {r4,lr}
        0x000019d2:    4604        .F      MOV      r4,r0
        0x000019d4:    f7ffffda    ....    BL       reset_pid_param ; 0x198c
        0x000019d8:    2001        .       MOVS     r0,#1
        0x000019da:    bd10        ..      POP      {r4,pc}
    set_flight_mode
        0x000019dc:    b570        p.      PUSH     {r4-r6,lr}
        0x000019de:    4d32        2M      LDR      r5,[pc,#200] ; [0x1aa8] = 0x20000024
        0x000019e0:    4604        .F      MOV      r4,r0
        0x000019e2:    7829        )x      LDRB     r1,[r5,#0]
        0x000019e4:    2000        .       MOVS     r0,#0
        0x000019e6:    2201        ."      MOVS     r2,#1
        0x000019e8:    428c        .B      CMP      r4,r1
        0x000019ea:    d102        ..      BNE      0x19f2 ; set_flight_mode + 22
        0x000019ec:    7069        ip      STRB     r1,[r5,#1]
        0x000019ee:    2001        .       MOVS     r0,#1
        0x000019f0:    bd70        p.      POP      {r4-r6,pc}
        0x000019f2:    0023        #.      MOVS     r3,r4
        0x000019f4:    f003f8e0    ....    BL       __ARM_common_switch8 ; 0x4bb8
    $d
        0x000019f8:    06060304    ....    DCD    101057284
        0x000019fc:    060c        ..      DCW    1548
    $t
        0x000019fe:    4610        .F      MOV      r0,r2
        0x00001a00:    f7ffffe6    ....    BL       stabilize_init ; 0x19d0
        0x00001a04:    2800        .(      CMP      r0,#0
        0x00001a06:    d0f3        ..      BEQ      0x19f0 ; set_flight_mode + 20
        0x00001a08:    7829        )x      LDRB     r1,[r5,#0]
        0x00001a0a:    7069        ip      STRB     r1,[r5,#1]
        0x00001a0c:    702c        ,p      STRB     r4,[r5,#0]
        0x00001a0e:    bd70        p.      POP      {r4-r6,pc}
        0x00001a10:    f7ffffbc    ....    BL       reset_pid_param ; 0x198c
        0x00001a14:    2001        .       MOVS     r0,#1
        0x00001a16:    e7f7        ..      B        0x1a08 ; set_flight_mode + 44
    acro_run
        0x00001a18:    b510        ..      PUSH     {r4,lr}
        0x00001a1a:    4824        $H      LDR      r0,[pc,#144] ; [0x1aac] = 0x20000010
        0x00001a1c:    7800        .x      LDRB     r0,[r0,#0]
        0x00001a1e:    2802        .(      CMP      r0,#2
        0x00001a20:    d113        ..      BNE      0x1a4a ; acro_run + 50
        0x00001a22:    f002f999    ....    BL       get_desired_throttle_expo ; 0x3d58
        0x00001a26:    4604        .F      MOV      r4,r0
        0x00001a28:    4921        !I      LDR      r1,[pc,#132] ; [0x1ab0] = 0x41f00000
        0x00001a2a:    4822        "H      LDR      r0,[pc,#136] ; [0x1ab4] = 0x200002d0
        0x00001a2c:    f002f94f    ..O.    BL       get_desired_leans_angles ; 0x3cce
        0x00001a30:    2200        ."      MOVS     r2,#0
        0x00001a32:    2101        .!      MOVS     r1,#1
        0x00001a34:    4620         F      MOV      r0,r4
        0x00001a36:    f7ffff9f    ....    BL       attitude_throttle_controller ; 0x1978
        0x00001a3a:    481e        .H      LDR      r0,[pc,#120] ; [0x1ab4] = 0x200002d0
        0x00001a3c:    491e        .I      LDR      r1,[pc,#120] ; [0x1ab8] = 0x200002ac
        0x00001a3e:    6802        .h      LDR      r2,[r0,#0]
        0x00001a40:    600a        .`      STR      r2,[r1,#0]
        0x00001a42:    6842        Bh      LDR      r2,[r0,#4]
        0x00001a44:    604a        J`      STR      r2,[r1,#4]
        0x00001a46:    6880        .h      LDR      r0,[r0,#8]
        0x00001a48:    6088        .`      STR      r0,[r1,#8]
        0x00001a4a:    bd10        ..      POP      {r4,pc}
    get_smoothing_gain
        0x00001a4c:    207f        .       MOVS     r0,#0x7f
        0x00001a4e:    05c0        ..      LSLS     r0,r0,#23
        0x00001a50:    4770        pG      BX       lr
    stabilize_run
        0x00001a52:    b538        8.      PUSH     {r3-r5,lr}
        0x00001a54:    4815        .H      LDR      r0,[pc,#84] ; [0x1aac] = 0x20000010
        0x00001a56:    7800        .x      LDRB     r0,[r0,#0]
        0x00001a58:    2802        .(      CMP      r0,#2
        0x00001a5a:    d114        ..      BNE      0x1a86 ; stabilize_run + 52
        0x00001a5c:    f002f97c    ..|.    BL       get_desired_throttle_expo ; 0x3d58
        0x00001a60:    4604        .F      MOV      r4,r0
        0x00001a62:    4913        .I      LDR      r1,[pc,#76] ; [0x1ab0] = 0x41f00000
        0x00001a64:    4813        .H      LDR      r0,[pc,#76] ; [0x1ab4] = 0x200002d0
        0x00001a66:    f002f932    ..2.    BL       get_desired_leans_angles ; 0x3cce
        0x00001a6a:    f7ffffef    ....    BL       get_smoothing_gain ; 0x1a4c
        0x00001a6e:    4603        .F      MOV      r3,r0
        0x00001a70:    4812        .H      LDR      r0,[pc,#72] ; [0x1abc] = 0x3c23d70a
        0x00001a72:    9000        ..      STR      r0,[sp,#0]
        0x00001a74:    480f        .H      LDR      r0,[pc,#60] ; [0x1ab4] = 0x200002d0
        0x00001a76:    c807        ..      LDM      r0,{r0-r2}
        0x00001a78:    f7ffff1b    ....    BL       attitude_angle_euler_controller ; 0x18b2
        0x00001a7c:    2200        ."      MOVS     r2,#0
        0x00001a7e:    2101        .!      MOVS     r1,#1
        0x00001a80:    4620         F      MOV      r0,r4
        0x00001a82:    f7ffff79    ..y.    BL       attitude_throttle_controller ; 0x1978
        0x00001a86:    bd38        8.      POP      {r3-r5,pc}
    update_flight_mode
        0x00001a88:    b510        ..      PUSH     {r4,lr}
        0x00001a8a:    4807        .H      LDR      r0,[pc,#28] ; [0x1aa8] = 0x20000024
        0x00001a8c:    7800        .x      LDRB     r0,[r0,#0]
        0x00001a8e:    0003        ..      MOVS     r3,r0
        0x00001a90:    f003f892    ....    BL       __ARM_common_switch8 ; 0x4bb8
    $d
        0x00001a94:    05050304    ....    DCD    84214532
        0x00001a98:    0506        ..      DCW    1286
    $t
        0x00001a9a:    f7ffffda    ....    BL       stabilize_run ; 0x1a52
        0x00001a9e:    bd10        ..      POP      {r4,pc}
        0x00001aa0:    f7ffffba    ....    BL       acro_run ; 0x1a18
        0x00001aa4:    bd10        ..      POP      {r4,pc}
    $d
        0x00001aa6:    0000        ..      DCW    0
        0x00001aa8:    20000024    $..     DCD    536870948
        0x00001aac:    20000010    ...     DCD    536870928
        0x00001ab0:    41f00000    ...A    DCD    1106247680
        0x00001ab4:    200002d0    ...     DCD    536871632
        0x00001ab8:    200002ac    ...     DCD    536871596
        0x00001abc:    3c23d70a    ..#<    DCD    1008981770
    $t
    .text
    motors_output
        0x00001ac0:    b5fe        ..      PUSH     {r1-r7,lr}
        0x00001ac2:    4835        5H      LDR      r0,[pc,#212] ; [0x1b98] = 0x20000010
        0x00001ac4:    4d35        5M      LDR      r5,[pc,#212] ; [0x1b9c] = 0x200000ec
        0x00001ac6:    7800        .x      LDRB     r0,[r0,#0]
        0x00001ac8:    2802        .(      CMP      r0,#2
        0x00001aca:    d006        ..      BEQ      0x1ada ; motors_output + 26
        0x00001acc:    2801        .(      CMP      r0,#1
        0x00001ace:    d042        B.      BEQ      0x1b56 ; motors_output + 150
        0x00001ad0:    2803        .(      CMP      r0,#3
        0x00001ad2:    d001        ..      BEQ      0x1ad8 ; motors_output + 24
        0x00001ad4:    f7fff981    ....    BL       motor_stop ; 0xdda
        0x00001ad8:    bdfe        ..      POP      {r1-r7,pc}
        0x00001ada:    4c31        1L      LDR      r4,[pc,#196] ; [0x1ba0] = 0x200002dc
        0x00001adc:    4e32        2N      LDR      r6,[pc,#200] ; [0x1ba8] = 0x20000028
        0x00001ade:    4931        1I      LDR      r1,[pc,#196] ; [0x1ba4] = 0x3c23d70a
        0x00001ae0:    6922        "i      LDR      r2,[r4,#0x10]
        0x00001ae2:    6870        ph      LDR      r0,[r6,#4]
        0x00001ae4:    428a        .B      CMP      r2,r1
        0x00001ae6:    dd04        ..      BLE      0x1af2 ; motors_output + 50
        0x00001ae8:    68e1        .h      LDR      r1,[r4,#0xc]
        0x00001aea:    f7fffbe8    ....    BL       LPF_1st ; 0x12be
        0x00001aee:    60e0        .`      STR      r0,[r4,#0xc]
        0x00001af0:    e003        ..      B        0x1afa ; motors_output + 58
        0x00001af2:    0040        @.      LSLS     r0,r0,#1
        0x00001af4:    0e00        ..      LSRS     r0,r0,#24
        0x00001af6:    d001        ..      BEQ      0x1afc ; motors_output + 60
        0x00001af8:    2000        .       MOVS     r0,#0
        0x00001afa:    6070        p`      STR      r0,[r6,#4]
        0x00001afc:    6860        `h      LDR      r0,[r4,#4]
        0x00001afe:    9000        ..      STR      r0,[sp,#0]
        0x00001b00:    68e7        .h      LDR      r7,[r4,#0xc]
        0x00001b02:    4601        .F      MOV      r1,r0
        0x00001b04:    4638        8F      MOV      r0,r7
        0x00001b06:    f002fb1f    ....    BL       __aeabi_fadd ; 0x4148
        0x00001b0a:    9001        ..      STR      r0,[sp,#4]
        0x00001b0c:    6826        &h      LDR      r6,[r4,#0]
        0x00001b0e:    4631        1F      MOV      r1,r6
        0x00001b10:    f002fb6b    ..k.    BL       __aeabi_fsub ; 0x41ea
        0x00001b14:    68a4        .h      LDR      r4,[r4,#8]
        0x00001b16:    4621        !F      MOV      r1,r4
        0x00001b18:    f002fb16    ....    BL       __aeabi_fadd ; 0x4148
        0x00001b1c:    60e8        .`      STR      r0,[r5,#0xc]
        0x00001b1e:    4638        8F      MOV      r0,r7
        0x00001b20:    9900        ..      LDR      r1,[sp,#0]
        0x00001b22:    f002fb62    ..b.    BL       __aeabi_fsub ; 0x41ea
        0x00001b26:    4607        .F      MOV      r7,r0
        0x00001b28:    4631        1F      MOV      r1,r6
        0x00001b2a:    f002fb0d    ....    BL       __aeabi_fadd ; 0x4148
        0x00001b2e:    4621        !F      MOV      r1,r4
        0x00001b30:    f002fb0a    ....    BL       __aeabi_fadd ; 0x4148
        0x00001b34:    60a8        .`      STR      r0,[r5,#8]
        0x00001b36:    4631        1F      MOV      r1,r6
        0x00001b38:    9801        ..      LDR      r0,[sp,#4]
        0x00001b3a:    f002fb05    ....    BL       __aeabi_fadd ; 0x4148
        0x00001b3e:    4621        !F      MOV      r1,r4
        0x00001b40:    f002fb53    ..S.    BL       __aeabi_fsub ; 0x41ea
        0x00001b44:    6068        h`      STR      r0,[r5,#4]
        0x00001b46:    4638        8F      MOV      r0,r7
        0x00001b48:    4631        1F      MOV      r1,r6
        0x00001b4a:    f002fb4e    ..N.    BL       __aeabi_fsub ; 0x41ea
        0x00001b4e:    4621        !F      MOV      r1,r4
        0x00001b50:    f002fb4b    ..K.    BL       __aeabi_fsub ; 0x41ea
        0x00001b54:    e003        ..      B        0x1b5e ; motors_output + 158
        0x00001b56:    4815        .H      LDR      r0,[pc,#84] ; [0x1bac] = 0x3dcccccd
        0x00001b58:    60e8        .`      STR      r0,[r5,#0xc]
        0x00001b5a:    60a8        .`      STR      r0,[r5,#8]
        0x00001b5c:    6068        h`      STR      r0,[r5,#4]
        0x00001b5e:    6028        (`      STR      r0,[r5,#0]
        0x00001b60:    480e        .H      LDR      r0,[pc,#56] ; [0x1b9c] = 0x200000ec
        0x00001b62:    f7fff915    ....    BL       motor_update ; 0xd90
        0x00001b66:    bdfe        ..      POP      {r1-r7,pc}
    set_motor_roll
        0x00001b68:    490d        .I      LDR      r1,[pc,#52] ; [0x1ba0] = 0x200002dc
        0x00001b6a:    6008        .`      STR      r0,[r1,#0]
        0x00001b6c:    4770        pG      BX       lr
    set_motor_pitch
        0x00001b6e:    490c        .I      LDR      r1,[pc,#48] ; [0x1ba0] = 0x200002dc
        0x00001b70:    6048        H`      STR      r0,[r1,#4]
        0x00001b72:    4770        pG      BX       lr
    set_motor_yaw
        0x00001b74:    490a        .I      LDR      r1,[pc,#40] ; [0x1ba0] = 0x200002dc
        0x00001b76:    6088        .`      STR      r0,[r1,#8]
        0x00001b78:    4770        pG      BX       lr
    set_motor_throttle
        0x00001b7a:    4a09        .J      LDR      r2,[pc,#36] ; [0x1ba0] = 0x200002dc
        0x00001b7c:    6111        .a      STR      r1,[r2,#0x10]
        0x00001b7e:    60d0        .`      STR      r0,[r2,#0xc]
        0x00001b80:    4770        pG      BX       lr
    set_trace_throttle
        0x00001b82:    b510        ..      PUSH     {r4,lr}
        0x00001b84:    4908        .I      LDR      r1,[pc,#32] ; [0x1ba8] = 0x20000028
        0x00001b86:    6008        .`      STR      r0,[r1,#0]
        0x00001b88:    f002fda3    ....    BL       __aeabi_f2d ; 0x46d2
        0x00001b8c:    4602        .F      MOV      r2,r0
        0x00001b8e:    460b        .F      MOV      r3,r1
        0x00001b90:    a007        ..      ADR      r0,{pc}+0x20 ; 0x1bb0
        0x00001b92:    f002ffd1    ....    BL       __0printf ; 0x4b38
        0x00001b96:    bd10        ..      POP      {r4,pc}
    $d
        0x00001b98:    20000010    ...     DCD    536870928
        0x00001b9c:    200000ec    ...     DCD    536871148
        0x00001ba0:    200002dc    ...     DCD    536871644
        0x00001ba4:    3c23d70a    ..#<    DCD    1008981770
        0x00001ba8:    20000028    (..     DCD    536870952
        0x00001bac:    3dcccccd    ...=    DCD    1036831949
        0x00001bb0:    63617274    trac    DCD    1667330676
        0x00001bb4:    68742065    e th    DCD    1752440933
        0x00001bb8:    74746f72    rott    DCD    1953787762
        0x00001bbc:    203a656c    le:     DCD    540697964
        0x00001bc0:    66332e25    %.3f    DCD    1714630181
        0x00001bc4:    0000000a    ....    DCD    10
    $t
    .text
    scheduler_init
        0x00001bc8:    b510        ..      PUSH     {r4,lr}
        0x00001bca:    49ff        .I      LDR      r1,[pc,#1020] ; [0x1fc8] = 0x200002f0
        0x00001bcc:    2000        .       MOVS     r0,#0
        0x00001bce:    7008        .p      STRB     r0,[r1,#0]
        0x00001bd0:    7048        Hp      STRB     r0,[r1,#1]
        0x00001bd2:    7088        .p      STRB     r0,[r1,#2]
        0x00001bd4:    70c8        .p      STRB     r0,[r1,#3]
        0x00001bd6:    7108        .q      STRB     r0,[r1,#4]
        0x00001bd8:    7148        Hq      STRB     r0,[r1,#5]
        0x00001bda:    7188        .q      STRB     r0,[r1,#6]
        0x00001bdc:    71c8        .q      STRB     r0,[r1,#7]
        0x00001bde:    7208        .r      STRB     r0,[r1,#8]
        0x00001be0:    4cfa        .L      LDR      r4,[pc,#1000] ; [0x1fcc] = 0x40010020
        0x00001be2:    22ff        ."      MOVS     r2,#0xff
        0x00001be4:    2101        .!      MOVS     r1,#1
        0x00001be6:    3291        .2      ADDS     r2,r2,#0x91
        0x00001be8:    06c9        ..      LSLS     r1,r1,#27
        0x00001bea:    4620         F      MOV      r0,r4
        0x00001bec:    f001fe0b    ....    BL       TIMER_Open ; 0x3806
        0x00001bf0:    6821        !h      LDR      r1,[r4,#0]
        0x00001bf2:    0622        ".      LSLS     r2,r4,#24
        0x00001bf4:    4311        .C      ORRS     r1,r1,r2
        0x00001bf6:    6021        !`      STR      r1,[r4,#0]
        0x00001bf8:    49f5        .I      LDR      r1,[pc,#980] ; [0x1fd0] = 0xe000e100
        0x00001bfa:    1510        ..      ASRS     r0,r2,#20
        0x00001bfc:    6008        .`      STR      r0,[r1,#0]
        0x00001bfe:    4af5        .J      LDR      r2,[pc,#980] ; [0x1fd4] = 0xe000e408
        0x00001c00:    6811        .h      LDR      r1,[r2,#0]
        0x00001c02:    20ff        .       MOVS     r0,#0xff
        0x00001c04:    0200        ..      LSLS     r0,r0,#8
        0x00001c06:    4381        .C      BICS     r1,r1,r0
        0x00001c08:    6011        .`      STR      r1,[r2,#0]
        0x00001c0a:    6821        !h      LDR      r1,[r4,#0]
        0x00001c0c:    06d0        ..      LSLS     r0,r2,#27
        0x00001c0e:    4381        .C      BICS     r1,r1,r0
        0x00001c10:    6021        !`      STR      r1,[r4,#0]
        0x00001c12:    bd10        ..      POP      {r4,pc}
    time_slice
        0x00001c14:    b5fe        ..      PUSH     {r1-r7,lr}
        0x00001c16:    4bf0        .K      LDR      r3,[pc,#960] ; [0x1fd8] = 0x20000030
        0x00001c18:    27ff        .'      MOVS     r7,#0xff
        0x00001c1a:    8818        ..      LDRH     r0,[r3,#0]
        0x00001c1c:    3791        .7      ADDS     r7,r7,#0x91
        0x00001c1e:    1c40        @.      ADDS     r0,r0,#1
        0x00001c20:    b286        ..      UXTH     r6,r0
        0x00001c22:    801e        ..      STRH     r6,[r3,#0]
        0x00001c24:    8858        X.      LDRH     r0,[r3,#2]
        0x00001c26:    2101        .!      MOVS     r1,#1
        0x00001c28:    1c40        @.      ADDS     r0,r0,#1
        0x00001c2a:    b280        ..      UXTH     r0,r0
        0x00001c2c:    8058        X.      STRH     r0,[r3,#2]
        0x00001c2e:    4684        .F      MOV      r12,r0
        0x00001c30:    8898        ..      LDRH     r0,[r3,#4]
        0x00001c32:    4ae5        .J      LDR      r2,[pc,#916] ; [0x1fc8] = 0x200002f0
        0x00001c34:    1c40        @.      ADDS     r0,r0,#1
        0x00001c36:    b280        ..      UXTH     r0,r0
        0x00001c38:    8098        ..      STRH     r0,[r3,#4]
        0x00001c3a:    9002        ..      STR      r0,[sp,#8]
        0x00001c3c:    88d8        ..      LDRH     r0,[r3,#6]
        0x00001c3e:    1c40        @.      ADDS     r0,r0,#1
        0x00001c40:    b280        ..      UXTH     r0,r0
        0x00001c42:    80d8        ..      STRH     r0,[r3,#6]
        0x00001c44:    9001        ..      STR      r0,[sp,#4]
        0x00001c46:    8918        ..      LDRH     r0,[r3,#8]
        0x00001c48:    1c40        @.      ADDS     r0,r0,#1
        0x00001c4a:    b280        ..      UXTH     r0,r0
        0x00001c4c:    8118        ..      STRH     r0,[r3,#8]
        0x00001c4e:    9000        ..      STR      r0,[sp,#0]
        0x00001c50:    8958        X.      LDRH     r0,[r3,#0xa]
        0x00001c52:    1c40        @.      ADDS     r0,r0,#1
        0x00001c54:    b280        ..      UXTH     r0,r0
        0x00001c56:    8158        X.      STRH     r0,[r3,#0xa]
        0x00001c58:    4686        .F      MOV      lr,r0
        0x00001c5a:    8998        ..      LDRH     r0,[r3,#0xc]
        0x00001c5c:    1c40        @.      ADDS     r0,r0,#1
        0x00001c5e:    b285        ..      UXTH     r5,r0
        0x00001c60:    819d        ..      STRH     r5,[r3,#0xc]
        0x00001c62:    89d8        ..      LDRH     r0,[r3,#0xe]
        0x00001c64:    1c40        @.      ADDS     r0,r0,#1
        0x00001c66:    b284        ..      UXTH     r4,r0
        0x00001c68:    2000        .       MOVS     r0,#0
        0x00001c6a:    81dc        ..      STRH     r4,[r3,#0xe]
        0x00001c6c:    42be        .B      CMP      r6,r7
        0x00001c6e:    d301        ..      BCC      0x1c74 ; time_slice + 96
        0x00001c70:    7011        .p      STRB     r1,[r2,#0]
        0x00001c72:    8018        ..      STRH     r0,[r3,#0]
        0x00001c74:    4666        fF      MOV      r6,r12
        0x00001c76:    2e50        P.      CMP      r6,#0x50
        0x00001c78:    d301        ..      BCC      0x1c7e ; time_slice + 106
        0x00001c7a:    7051        Qp      STRB     r1,[r2,#1]
        0x00001c7c:    8058        X.      STRH     r0,[r3,#2]
        0x00001c7e:    9e02        ..      LDR      r6,[sp,#8]
        0x00001c80:    2e28        (.      CMP      r6,#0x28
        0x00001c82:    d301        ..      BCC      0x1c88 ; time_slice + 116
        0x00001c84:    7091        .p      STRB     r1,[r2,#2]
        0x00001c86:    8098        ..      STRH     r0,[r3,#4]
        0x00001c88:    9e01        ..      LDR      r6,[sp,#4]
        0x00001c8a:    2e14        ..      CMP      r6,#0x14
        0x00001c8c:    d301        ..      BCC      0x1c92 ; time_slice + 126
        0x00001c8e:    70d1        .p      STRB     r1,[r2,#3]
        0x00001c90:    80d8        ..      STRH     r0,[r3,#6]
        0x00001c92:    9e00        ..      LDR      r6,[sp,#0]
        0x00001c94:    2e08        ..      CMP      r6,#8
        0x00001c96:    d301        ..      BCC      0x1c9c ; time_slice + 136
        0x00001c98:    7111        .q      STRB     r1,[r2,#4]
        0x00001c9a:    8118        ..      STRH     r0,[r3,#8]
        0x00001c9c:    4676        vF      MOV      r6,lr
        0x00001c9e:    2e04        ..      CMP      r6,#4
        0x00001ca0:    d301        ..      BCC      0x1ca6 ; time_slice + 146
        0x00001ca2:    7151        Qq      STRB     r1,[r2,#5]
        0x00001ca4:    8158        X.      STRH     r0,[r3,#0xa]
        0x00001ca6:    2d02        .-      CMP      r5,#2
        0x00001ca8:    d301        ..      BCC      0x1cae ; time_slice + 154
        0x00001caa:    7191        .q      STRB     r1,[r2,#6]
        0x00001cac:    8198        ..      STRH     r0,[r3,#0xc]
        0x00001cae:    2c04        .,      CMP      r4,#4
        0x00001cb0:    d301        ..      BCC      0x1cb6 ; time_slice + 162
        0x00001cb2:    7211        .r      STRB     r1,[r2,#8]
        0x00001cb4:    81d8        ..      STRH     r0,[r3,#0xe]
        0x00001cb6:    bdfe        ..      POP      {r1-r7,pc}
    TMR1_IRQHandler
        0x00001cb8:    b500        ..      PUSH     {lr}
        0x00001cba:    49c7        .I      LDR      r1,[pc,#796] ; [0x1fd8] = 0x20000030
        0x00001cbc:    2208        ."      MOVS     r2,#8
        0x00001cbe:    6908        .i      LDR      r0,[r1,#0x10]
        0x00001cc0:    1c40        @.      ADDS     r0,r0,#1
        0x00001cc2:    6108        .a      STR      r0,[r1,#0x10]
        0x00001cc4:    42d0        .B      CMN      r0,r2
        0x00001cc6:    d301        ..      BCC      0x1ccc ; TMR1_IRQHandler + 20
        0x00001cc8:    2000        .       MOVS     r0,#0
        0x00001cca:    6108        .a      STR      r0,[r1,#0x10]
        0x00001ccc:    f7ffffa2    ....    BL       time_slice ; 0x1c14
        0x00001cd0:    49be        .I      LDR      r1,[pc,#760] ; [0x1fcc] = 0x40010020
        0x00001cd2:    2001        .       MOVS     r0,#1
        0x00001cd4:    6088        .`      STR      r0,[r1,#8]
        0x00001cd6:    bd00        ..      POP      {pc}
    sched_1Hzloop
        0x00001cd8:    b5f8        ..      PUSH     {r3-r7,lr}
        0x00001cda:    4fbb        .O      LDR      r7,[pc,#748] ; [0x1fc8] = 0x200002f0
        0x00001cdc:    7838        8x      LDRB     r0,[r7,#0]
        0x00001cde:    2800        .(      CMP      r0,#0
        0x00001ce0:    d007        ..      BEQ      0x1cf2 ; sched_1Hzloop + 26
        0x00001ce2:    4ebe        .N      LDR      r6,[pc,#760] ; [0x1fdc] = 0x20000010
        0x00001ce4:    4cbe        .L      LDR      r4,[pc,#760] ; [0x1fe0] = 0x20000028
        0x00001ce6:    7930        0y      LDRB     r0,[r6,#4]
        0x00001ce8:    2500        .%      MOVS     r5,#0
        0x00001cea:    28ff        .(      CMP      r0,#0xff
        0x00001cec:    d002        ..      BEQ      0x1cf4 ; sched_1Hzloop + 28
        0x00001cee:    6025        %`      STR      r5,[r4,#0]
        0x00001cf0:    703d        =p      STRB     r5,[r7,#0]
        0x00001cf2:    bdf8        ..      POP      {r3-r7,pc}
        0x00001cf4:    2003        .       MOVS     r0,#3
        0x00001cf6:    7030        0p      STRB     r0,[r6,#0]
        0x00001cf8:    6820         h      LDR      r0,[r4,#0]
        0x00001cfa:    f002fcea    ....    BL       __aeabi_f2d ; 0x46d2
        0x00001cfe:    4ab9        .J      LDR      r2,[pc,#740] ; [0x1fe4] = 0x9999999a
        0x00001d00:    4bb9        .K      LDR      r3,[pc,#740] ; [0x1fe8] = 0x3fb99999
        0x00001d02:    f002fb01    ....    BL       __aeabi_dadd ; 0x4308
        0x00001d06:    f002fd0d    ....    BL       __aeabi_d2f ; 0x4724
        0x00001d0a:    217f        .!      MOVS     r1,#0x7f
        0x00001d0c:    05c9        ..      LSLS     r1,r1,#23
        0x00001d0e:    6020         `      STR      r0,[r4,#0]
        0x00001d10:    4288        .B      CMP      r0,r1
        0x00001d12:    dd2d        -.      BLE      0x1d70 ; sched_1Hzloop + 152
        0x00001d14:    6025        %`      STR      r5,[r4,#0]
        0x00001d16:    88f0        ..      LDRH     r0,[r6,#6]
        0x00001d18:    217d        }!      MOVS     r1,#0x7d
        0x00001d1a:    00c9        ..      LSLS     r1,r1,#3
        0x00001d1c:    1840        @.      ADDS     r0,r0,r1
        0x00001d1e:    b281        ..      UXTH     r1,r0
        0x00001d20:    80f1        ..      STRH     r1,[r6,#6]
        0x00001d22:    a0b2        ..      ADR      r0,{pc}+0x2ca ; 0x1fec
        0x00001d24:    f002ff08    ....    BL       __0printf ; 0x4b38
        0x00001d28:    88f2        ..      LDRH     r2,[r6,#6]
        0x00001d2a:    2301        .#      MOVS     r3,#1
        0x00001d2c:    2100        .!      MOVS     r1,#0
        0x00001d2e:    48b6        .H      LDR      r0,[pc,#728] ; [0x2008] = 0x40040000
        0x00001d30:    f001fc04    ....    BL       PWM_ConfigOutputChannel ; 0x353c
        0x00001d34:    2301        .#      MOVS     r3,#1
        0x00001d36:    88f2        ..      LDRH     r2,[r6,#6]
        0x00001d38:    4619        .F      MOV      r1,r3
        0x00001d3a:    48b3        .H      LDR      r0,[pc,#716] ; [0x2008] = 0x40040000
        0x00001d3c:    f001fbfe    ....    BL       PWM_ConfigOutputChannel ; 0x353c
        0x00001d40:    88f2        ..      LDRH     r2,[r6,#6]
        0x00001d42:    2301        .#      MOVS     r3,#1
        0x00001d44:    2102        .!      MOVS     r1,#2
        0x00001d46:    48b0        .H      LDR      r0,[pc,#704] ; [0x2008] = 0x40040000
        0x00001d48:    f001fbf8    ....    BL       PWM_ConfigOutputChannel ; 0x353c
        0x00001d4c:    88f2        ..      LDRH     r2,[r6,#6]
        0x00001d4e:    2301        .#      MOVS     r3,#1
        0x00001d50:    2103        .!      MOVS     r1,#3
        0x00001d52:    48ad        .H      LDR      r0,[pc,#692] ; [0x2008] = 0x40040000
        0x00001d54:    f001fbf2    ....    BL       PWM_ConfigOutputChannel ; 0x353c
        0x00001d58:    210f        .!      MOVS     r1,#0xf
        0x00001d5a:    48ab        .H      LDR      r0,[pc,#684] ; [0x2008] = 0x40040000
        0x00001d5c:    f001fc7b    ..{.    BL       PWM_EnableOutput ; 0x3656
        0x00001d60:    210f        .!      MOVS     r1,#0xf
        0x00001d62:    48a9        .H      LDR      r0,[pc,#676] ; [0x2008] = 0x40040000
        0x00001d64:    f001fc63    ..c.    BL       PWM_Start ; 0x362e
        0x00001d68:    48a7        .H      LDR      r0,[pc,#668] ; [0x2008] = 0x40040000
        0x00001d6a:    68c0        .h      LDR      r0,[r0,#0xc]
        0x00001d6c:    49a7        .I      LDR      r1,[pc,#668] ; [0x200c] = 0x2000000c
        0x00001d6e:    6008        .`      STR      r0,[r1,#0]
        0x00001d70:    49a7        .I      LDR      r1,[pc,#668] ; [0x2010] = 0x200000ec
        0x00001d72:    6820         h      LDR      r0,[r4,#0]
        0x00001d74:    60c8        .`      STR      r0,[r1,#0xc]
        0x00001d76:    6088        .`      STR      r0,[r1,#8]
        0x00001d78:    6048        H`      STR      r0,[r1,#4]
        0x00001d7a:    6008        .`      STR      r0,[r1,#0]
        0x00001d7c:    4608        .F      MOV      r0,r1
        0x00001d7e:    f7fff807    ....    BL       motor_update ; 0xd90
        0x00001d82:    e7b5        ..      B        0x1cf0 ; sched_1Hzloop + 24
    sched_10Hzloop
        0x00001d84:    b510        ..      PUSH     {r4,lr}
        0x00001d86:    4c90        .L      LDR      r4,[pc,#576] ; [0x1fc8] = 0x200002f0
        0x00001d88:    78a0        .x      LDRB     r0,[r4,#2]
        0x00001d8a:    2800        .(      CMP      r0,#0
        0x00001d8c:    d003        ..      BEQ      0x1d96 ; sched_10Hzloop + 18
        0x00001d8e:    f002f85c    ..\.    BL       check_motor_armed ; 0x3e4a
        0x00001d92:    2000        .       MOVS     r0,#0
        0x00001d94:    70a0        .p      STRB     r0,[r4,#2]
        0x00001d96:    bd10        ..      POP      {r4,pc}
    sched_20Hzloop
        0x00001d98:    488b        .H      LDR      r0,[pc,#556] ; [0x1fc8] = 0x200002f0
        0x00001d9a:    78c1        .x      LDRB     r1,[r0,#3]
        0x00001d9c:    2900        .)      CMP      r1,#0
        0x00001d9e:    d001        ..      BEQ      0x1da4 ; sched_20Hzloop + 12
        0x00001da0:    2100        .!      MOVS     r1,#0
        0x00001da2:    70c1        .p      STRB     r1,[r0,#3]
        0x00001da4:    4770        pG      BX       lr
    sched_50Hzloop
        0x00001da6:    b5f0        ..      PUSH     {r4-r7,lr}
        0x00001da8:    b087        ..      SUB      sp,sp,#0x1c
        0x00001daa:    a803        ..      ADD      r0,sp,#0xc
        0x00001dac:    f000fcdc    ....    BL       get_inertial_vel ; 0x2768
        0x00001db0:    4885        .H      LDR      r0,[pc,#532] ; [0x1fc8] = 0x200002f0
        0x00001db2:    7900        .y      LDRB     r0,[r0,#4]
        0x00001db4:    2800        .(      CMP      r0,#0
        0x00001db6:    d07c        |.      BEQ      0x1eb2 ; sched_50Hzloop + 268
        0x00001db8:    f001febf    ....    BL       rc_channel_read ; 0x3b3a
        0x00001dbc:    f7feff00    ....    BL       fbm320_timer_procedure ; 0xbc0
        0x00001dc0:    4886        .H      LDR      r0,[pc,#536] ; [0x1fdc] = 0x20000010
        0x00001dc2:    7900        .y      LDRB     r0,[r0,#4]
        0x00001dc4:    2800        .(      CMP      r0,#0
        0x00001dc6:    d00b        ..      BEQ      0x1de0 ; sched_50Hzloop + 58
        0x00001dc8:    28ff        .(      CMP      r0,#0xff
        0x00001dca:    d009        ..      BEQ      0x1de0 ; sched_50Hzloop + 58
        0x00001dcc:    4e91        .N      LDR      r6,[pc,#580] ; [0x2014] = 0x41200000
        0x00001dce:    2801        .(      CMP      r0,#1
        0x00001dd0:    d04c        L.      BEQ      0x1e6c ; sched_50Hzloop + 198
        0x00001dd2:    2802        .(      CMP      r0,#2
        0x00001dd4:    d06e        n.      BEQ      0x1eb4 ; sched_50Hzloop + 270
        0x00001dd6:    2803        .(      CMP      r0,#3
        0x00001dd8:    d06d        m.      BEQ      0x1eb6 ; sched_50Hzloop + 272
        0x00001dda:    2804        .(      CMP      r0,#4
        0x00001ddc:    d06c        l.      BEQ      0x1eb8 ; sched_50Hzloop + 274
        0x00001dde:    e189        ..      B        0x20f4 ; sched_50Hzloop + 846
        0x00001de0:    4c8d        .L      LDR      r4,[pc,#564] ; [0x2018] = 0x200002d0
        0x00001de2:    2101        .!      MOVS     r1,#1
        0x00001de4:    68a0        .h      LDR      r0,[r4,#8]
        0x00001de6:    f002fa83    ....    BL       __ARM_scalbnf ; 0x42f0
        0x00001dea:    498c        .I      LDR      r1,[pc,#560] ; [0x201c] = 0x43480000
        0x00001dec:    f002f9fd    ....    BL       __aeabi_fsub ; 0x41ea
        0x00001df0:    f002fc42    ..B.    BL       __aeabi_f2iz ; 0x4678
        0x00001df4:    b200        ..      SXTH     r0,r0
        0x00001df6:    9000        ..      STR      r0,[sp,#0]
        0x00001df8:    2101        .!      MOVS     r1,#1
        0x00001dfa:    6860        `h      LDR      r0,[r4,#4]
        0x00001dfc:    f002fa78    ..x.    BL       __ARM_scalbnf ; 0x42f0
        0x00001e00:    4986        .I      LDR      r1,[pc,#536] ; [0x201c] = 0x43480000
        0x00001e02:    f002f9f2    ....    BL       __aeabi_fsub ; 0x41ea
        0x00001e06:    f002fc37    ..7.    BL       __aeabi_f2iz ; 0x4678
        0x00001e0a:    b205        ..      SXTH     r5,r0
        0x00001e0c:    2101        .!      MOVS     r1,#1
        0x00001e0e:    6820         h      LDR      r0,[r4,#0]
        0x00001e10:    f002fa6e    ..n.    BL       __ARM_scalbnf ; 0x42f0
        0x00001e14:    4981        .I      LDR      r1,[pc,#516] ; [0x201c] = 0x43480000
        0x00001e16:    f002f9e8    ....    BL       __aeabi_fsub ; 0x41ea
        0x00001e1a:    f002fc2d    ..-.    BL       __aeabi_f2iz ; 0x4678
        0x00001e1e:    4c80        .L      LDR      r4,[pc,#512] ; [0x2020] = 0x20000308
        0x00001e20:    b207        ..      SXTH     r7,r0
        0x00001e22:    2101        .!      MOVS     r1,#1
        0x00001e24:    68a0        .h      LDR      r0,[r4,#8]
        0x00001e26:    f002fa63    ..c.    BL       __ARM_scalbnf ; 0x42f0
        0x00001e2a:    497c        |I      LDR      r1,[pc,#496] ; [0x201c] = 0x43480000
        0x00001e2c:    f002f98c    ....    BL       __aeabi_fadd ; 0x4148
        0x00001e30:    f002fc22    ..".    BL       __aeabi_f2iz ; 0x4678
        0x00001e34:    b200        ..      SXTH     r0,r0
        0x00001e36:    9006        ..      STR      r0,[sp,#0x18]
        0x00001e38:    2101        .!      MOVS     r1,#1
        0x00001e3a:    6820         h      LDR      r0,[r4,#0]
        0x00001e3c:    f002fa58    ..X.    BL       __ARM_scalbnf ; 0x42f0
        0x00001e40:    4976        vI      LDR      r1,[pc,#472] ; [0x201c] = 0x43480000
        0x00001e42:    f002f981    ....    BL       __aeabi_fadd ; 0x4148
        0x00001e46:    f002fc17    ....    BL       __aeabi_f2iz ; 0x4678
        0x00001e4a:    b206        ..      SXTH     r6,r0
        0x00001e4c:    2101        .!      MOVS     r1,#1
        0x00001e4e:    6860        `h      LDR      r0,[r4,#4]
        0x00001e50:    f002fa4e    ..N.    BL       __ARM_scalbnf ; 0x42f0
        0x00001e54:    4971        qI      LDR      r1,[pc,#452] ; [0x201c] = 0x43480000
        0x00001e56:    f002f977    ..w.    BL       __aeabi_fadd ; 0x4148
        0x00001e5a:    f002fc0d    ....    BL       __aeabi_f2iz ; 0x4678
        0x00001e5e:    b201        ..      SXTH     r1,r0
        0x00001e60:    9800        ..      LDR      r0,[sp,#0]
        0x00001e62:    9501        ..      STR      r5,[sp,#4]
        0x00001e64:    9700        ..      STR      r7,[sp,#0]
        0x00001e66:    9002        ..      STR      r0,[sp,#8]
        0x00001e68:    9b06        ..      LDR      r3,[sp,#0x18]
        0x00001e6a:    e091        ..      B        0x1f90 ; sched_50Hzloop + 490
        0x00001e6c:    4c6d        mL      LDR      r4,[pc,#436] ; [0x2024] = 0x200002ac
        0x00001e6e:    4969        iI      LDR      r1,[pc,#420] ; [0x2014] = 0x41200000
        0x00001e70:    68a0        .h      LDR      r0,[r4,#8]
        0x00001e72:    f002f9c2    ....    BL       __aeabi_fmul ; 0x41fa
        0x00001e76:    f002fbff    ....    BL       __aeabi_f2iz ; 0x4678
        0x00001e7a:    b205        ..      SXTH     r5,r0
        0x00001e7c:    4965        eI      LDR      r1,[pc,#404] ; [0x2014] = 0x41200000
        0x00001e7e:    6860        `h      LDR      r0,[r4,#4]
        0x00001e80:    f002f9bb    ....    BL       __aeabi_fmul ; 0x41fa
        0x00001e84:    f002fbf8    ....    BL       __aeabi_f2iz ; 0x4678
        0x00001e88:    b200        ..      SXTH     r0,r0
        0x00001e8a:    9000        ..      STR      r0,[sp,#0]
        0x00001e8c:    4961        aI      LDR      r1,[pc,#388] ; [0x2014] = 0x41200000
        0x00001e8e:    6820         h      LDR      r0,[r4,#0]
        0x00001e90:    f002f9b3    ....    BL       __aeabi_fmul ; 0x41fa
        0x00001e94:    f002fbf0    ....    BL       __aeabi_f2iz ; 0x4678
        0x00001e98:    b207        ..      SXTH     r7,r0
        0x00001e9a:    495e        ^I      LDR      r1,[pc,#376] ; [0x2014] = 0x41200000
        0x00001e9c:    9805        ..      LDR      r0,[sp,#0x14]
        0x00001e9e:    f002f9ac    ....    BL       __aeabi_fmul ; 0x41fa
        0x00001ea2:    f002fbe9    ....    BL       __aeabi_f2iz ; 0x4678
        0x00001ea6:    b206        ..      SXTH     r6,r0
        0x00001ea8:    495a        ZI      LDR      r1,[pc,#360] ; [0x2014] = 0x41200000
        0x00001eaa:    9804        ..      LDR      r0,[sp,#0x10]
        0x00001eac:    f002f9a5    ....    BL       __aeabi_fmul ; 0x41fa
        0x00001eb0:    e003        ..      B        0x1eba ; sched_50Hzloop + 276
        0x00001eb2:    e122        ".      B        0x20fa ; sched_50Hzloop + 852
        0x00001eb4:    e012        ..      B        0x1edc ; sched_50Hzloop + 310
        0x00001eb6:    e06d        m.      B        0x1f94 ; sched_50Hzloop + 494
        0x00001eb8:    e0ed        ..      B        0x2096 ; sched_50Hzloop + 752
        0x00001eba:    f002fbdd    ....    BL       __aeabi_f2iz ; 0x4678
        0x00001ebe:    b204        ..      SXTH     r4,r0
        0x00001ec0:    4954        TI      LDR      r1,[pc,#336] ; [0x2014] = 0x41200000
        0x00001ec2:    9803        ..      LDR      r0,[sp,#0xc]
        0x00001ec4:    f002f999    ....    BL       __aeabi_fmul ; 0x41fa
        0x00001ec8:    f002fbd6    ....    BL       __aeabi_f2iz ; 0x4678
        0x00001ecc:    b201        ..      SXTH     r1,r0
        0x00001ece:    9800        ..      LDR      r0,[sp,#0]
        0x00001ed0:    4633        3F      MOV      r3,r6
        0x00001ed2:    4622        "F      MOV      r2,r4
        0x00001ed4:    9700        ..      STR      r7,[sp,#0]
        0x00001ed6:    9502        ..      STR      r5,[sp,#8]
        0x00001ed8:    9001        ..      STR      r0,[sp,#4]
        0x00001eda:    e0d8        ..      B        0x208e ; sched_50Hzloop + 744
        0x00001edc:    4c52        RL      LDR      r4,[pc,#328] ; [0x2028] = 0x20000320
        0x00001ede:    4631        1F      MOV      r1,r6
        0x00001ee0:    69e0        .i      LDR      r0,[r4,#0x1c]
        0x00001ee2:    f002f98a    ....    BL       __aeabi_fmul ; 0x41fa
        0x00001ee6:    f002fbc7    ....    BL       __aeabi_f2iz ; 0x4678
        0x00001eea:    b200        ..      SXTH     r0,r0
        0x00001eec:    9000        ..      STR      r0,[sp,#0]
        0x00001eee:    494f        OI      LDR      r1,[pc,#316] ; [0x202c] = 0x41f00000
        0x00001ef0:    69a0        .i      LDR      r0,[r4,#0x18]
        0x00001ef2:    f002f982    ....    BL       __aeabi_fmul ; 0x41fa
        0x00001ef6:    4949        II      LDR      r1,[pc,#292] ; [0x201c] = 0x43480000
        0x00001ef8:    f002f977    ..w.    BL       __aeabi_fsub ; 0x41ea
        0x00001efc:    f002fbbc    ....    BL       __aeabi_f2iz ; 0x4678
        0x00001f00:    b202        ..      SXTH     r2,r0
        0x00001f02:    9201        ..      STR      r2,[sp,#4]
        0x00001f04:    4949        II      LDR      r1,[pc,#292] ; [0x202c] = 0x41f00000
        0x00001f06:    6960        `i      LDR      r0,[r4,#0x14]
        0x00001f08:    f002f977    ..w.    BL       __aeabi_fmul ; 0x41fa
        0x00001f0c:    4943        CI      LDR      r1,[pc,#268] ; [0x201c] = 0x43480000
        0x00001f0e:    f002f96c    ..l.    BL       __aeabi_fsub ; 0x41ea
        0x00001f12:    f002fbb1    ....    BL       __aeabi_f2iz ; 0x4678
        0x00001f16:    b205        ..      SXTH     r5,r0
        0x00001f18:    200a        .       MOVS     r0,#0xa
        0x00001f1a:    2130        0!      MOVS     r1,#0x30
        0x00001f1c:    5e20         ^      LDRSH    r0,[r4,r0]
        0x00001f1e:    5e61        a^      LDRSH    r1,[r4,r1]
        0x00001f20:    1a40        @.      SUBS     r0,r0,r1
        0x00001f22:    f002fb83    ....    BL       __aeabi_i2f ; 0x462c
        0x00001f26:    4942        BI      LDR      r1,[pc,#264] ; [0x2030] = 0x20000000
        0x00001f28:    6809        .h      LDR      r1,[r1,#0]
        0x00001f2a:    9102        ..      STR      r1,[sp,#8]
        0x00001f2c:    f002f965    ..e.    BL       __aeabi_fmul ; 0x41fa
        0x00001f30:    4631        1F      MOV      r1,r6
        0x00001f32:    f002f962    ..b.    BL       __aeabi_fmul ; 0x41fa
        0x00001f36:    f002fb9f    ....    BL       __aeabi_f2iz ; 0x4678
        0x00001f3a:    b207        ..      SXTH     r7,r0
        0x00001f3c:    2008        .       MOVS     r0,#8
        0x00001f3e:    212e        .!      MOVS     r1,#0x2e
        0x00001f40:    5e20         ^      LDRSH    r0,[r4,r0]
        0x00001f42:    5e61        a^      LDRSH    r1,[r4,r1]
        0x00001f44:    1a40        @.      SUBS     r0,r0,r1
        0x00001f46:    f002fb71    ..q.    BL       __aeabi_i2f ; 0x462c
        0x00001f4a:    9902        ..      LDR      r1,[sp,#8]
        0x00001f4c:    f002f955    ..U.    BL       __aeabi_fmul ; 0x41fa
        0x00001f50:    4936        6I      LDR      r1,[pc,#216] ; [0x202c] = 0x41f00000
        0x00001f52:    f002f952    ..R.    BL       __aeabi_fmul ; 0x41fa
        0x00001f56:    4931        1I      LDR      r1,[pc,#196] ; [0x201c] = 0x43480000
        0x00001f58:    f002f8f6    ....    BL       __aeabi_fadd ; 0x4148
        0x00001f5c:    f002fb8c    ....    BL       __aeabi_f2iz ; 0x4678
        0x00001f60:    b206        ..      SXTH     r6,r0
        0x00001f62:    2006        .       MOVS     r0,#6
        0x00001f64:    212c        ,!      MOVS     r1,#0x2c
        0x00001f66:    5e20         ^      LDRSH    r0,[r4,r0]
        0x00001f68:    5e61        a^      LDRSH    r1,[r4,r1]
        0x00001f6a:    1a40        @.      SUBS     r0,r0,r1
        0x00001f6c:    f002fb5e    ..^.    BL       __aeabi_i2f ; 0x462c
        0x00001f70:    9902        ..      LDR      r1,[sp,#8]
        0x00001f72:    f002f942    ..B.    BL       __aeabi_fmul ; 0x41fa
        0x00001f76:    492d        -I      LDR      r1,[pc,#180] ; [0x202c] = 0x41f00000
        0x00001f78:    f002f93f    ..?.    BL       __aeabi_fmul ; 0x41fa
        0x00001f7c:    4927        'I      LDR      r1,[pc,#156] ; [0x201c] = 0x43480000
        0x00001f7e:    f002f8e3    ....    BL       __aeabi_fadd ; 0x4148
        0x00001f82:    f002fb79    ..y.    BL       __aeabi_f2iz ; 0x4678
        0x00001f86:    b201        ..      SXTH     r1,r0
        0x00001f88:    9800        ..      LDR      r0,[sp,#0]
        0x00001f8a:    463b        ;F      MOV      r3,r7
        0x00001f8c:    9500        ..      STR      r5,[sp,#0]
        0x00001f8e:    9002        ..      STR      r0,[sp,#8]
        0x00001f90:    4632        2F      MOV      r2,r6
        0x00001f92:    e07c        |.      B        0x208e ; sched_50Hzloop + 744
        0x00001f94:    4c24        $L      LDR      r4,[pc,#144] ; [0x2028] = 0x20000320
        0x00001f96:    4921        !I      LDR      r1,[pc,#132] ; [0x201c] = 0x43480000
        0x00001f98:    3480        .4      ADDS     r4,r4,#0x80
        0x00001f9a:    6b20         k      LDR      r0,[r4,#0x30]
        0x00001f9c:    f002f925    ..%.    BL       __aeabi_fsub ; 0x41ea
        0x00001fa0:    f002fb6a    ..j.    BL       __aeabi_f2iz ; 0x4678
        0x00001fa4:    b207        ..      SXTH     r7,r0
        0x00001fa6:    491d        .I      LDR      r1,[pc,#116] ; [0x201c] = 0x43480000
        0x00001fa8:    6ae0        .j      LDR      r0,[r4,#0x2c]
        0x00001faa:    f002f91e    ....    BL       __aeabi_fsub ; 0x41ea
        0x00001fae:    f002fb63    ..c.    BL       __aeabi_f2iz ; 0x4678
        0x00001fb2:    b200        ..      SXTH     r0,r0
        0x00001fb4:    9001        ..      STR      r0,[sp,#4]
        0x00001fb6:    4919        .I      LDR      r1,[pc,#100] ; [0x201c] = 0x43480000
        0x00001fb8:    6aa0        .j      LDR      r0,[r4,#0x28]
        0x00001fba:    f002f916    ....    BL       __aeabi_fsub ; 0x41ea
        0x00001fbe:    f002fb5b    ..[.    BL       __aeabi_f2iz ; 0x4678
        0x00001fc2:    b206        ..      SXTH     r6,r0
        0x00001fc4:    201e        .       MOVS     r0,#0x1e
        0x00001fc6:    e035        5.      B        0x2034 ; sched_50Hzloop + 654
    $d
        0x00001fc8:    200002f0    ...     DCD    536871664
        0x00001fcc:    40010020     ..@    DCD    1073807392
        0x00001fd0:    e000e100    ....    DCD    3758153984
        0x00001fd4:    e000e408    ....    DCD    3758154760
        0x00001fd8:    20000030    0..     DCD    536870960
        0x00001fdc:    20000010    ...     DCD    536870928
        0x00001fe0:    20000028    (..     DCD    536870952
        0x00001fe4:    9999999a    ....    DCD    2576980378
        0x00001fe8:    3fb99999    ...?    DCD    1069128089
        0x00001fec:    72727563    curr    DCD    1920103779
        0x00001ff0:    20746e65    ent     DCD    544501349
        0x00001ff4:    6f746f6d    moto    DCD    1869901677
        0x00001ff8:    57502072    r PW    DCD    1464868978
        0x00001ffc:    7266204d    M fr    DCD    1919295565
        0x00002000:    253a7165    eq:%    DCD    624587109
        0x00002004:    00000a64    d...    DCD    2660
        0x00002008:    40040000    ...@    DCD    1074003968
        0x0000200c:    2000000c    ...     DCD    536870924
        0x00002010:    200000ec    ...     DCD    536871148
        0x00002014:    41200000    .. A    DCD    1092616192
        0x00002018:    200002d0    ...     DCD    536871632
        0x0000201c:    43480000    ..HC    DCD    1128792064
        0x00002020:    20000308    ...     DCD    536871688
        0x00002024:    200002ac    ...     DCD    536871596
        0x00002028:    20000320     ..     DCD    536871712
        0x0000202c:    41f00000    ...A    DCD    1106247680
        0x00002030:    20000000    ...     DCD    536870912
    $t
        0x00002034:    5e20         ^      LDRSH    r0,[r4,r0]
        0x00002036:    f002faf9    ....    BL       __aeabi_i2f ; 0x462c
        0x0000203a:    4946        FI      LDR      r1,[pc,#280] ; [0x2154] = 0x20000004
        0x0000203c:    6809        .h      LDR      r1,[r1,#0]
        0x0000203e:    9100        ..      STR      r1,[sp,#0]
        0x00002040:    f002f8db    ....    BL       __aeabi_fmul ; 0x41fa
        0x00002044:    4944        DI      LDR      r1,[pc,#272] ; [0x2158] = 0x43480000
        0x00002046:    f002f87f    ....    BL       __aeabi_fadd ; 0x4148
        0x0000204a:    f002fb15    ....    BL       __aeabi_f2iz ; 0x4678
        0x0000204e:    b200        ..      SXTH     r0,r0
        0x00002050:    9006        ..      STR      r0,[sp,#0x18]
        0x00002052:    201c        .       MOVS     r0,#0x1c
        0x00002054:    5e20         ^      LDRSH    r0,[r4,r0]
        0x00002056:    f002fae9    ....    BL       __aeabi_i2f ; 0x462c
        0x0000205a:    9900        ..      LDR      r1,[sp,#0]
        0x0000205c:    f002f8cd    ....    BL       __aeabi_fmul ; 0x41fa
        0x00002060:    493d        =I      LDR      r1,[pc,#244] ; [0x2158] = 0x43480000
        0x00002062:    f002f871    ..q.    BL       __aeabi_fadd ; 0x4148
        0x00002066:    f002fb07    ....    BL       __aeabi_f2iz ; 0x4678
        0x0000206a:    b205        ..      SXTH     r5,r0
        0x0000206c:    201a        .       MOVS     r0,#0x1a
        0x0000206e:    5e20         ^      LDRSH    r0,[r4,r0]
        0x00002070:    f002fadc    ....    BL       __aeabi_i2f ; 0x462c
        0x00002074:    9900        ..      LDR      r1,[sp,#0]
        0x00002076:    f002f8c0    ....    BL       __aeabi_fmul ; 0x41fa
        0x0000207a:    4937        7I      LDR      r1,[pc,#220] ; [0x2158] = 0x43480000
        0x0000207c:    f002f864    ..d.    BL       __aeabi_fadd ; 0x4148
        0x00002080:    f002fafa    ....    BL       __aeabi_f2iz ; 0x4678
        0x00002084:    9b06        ..      LDR      r3,[sp,#0x18]
        0x00002086:    b201        ..      SXTH     r1,r0
        0x00002088:    9702        ..      STR      r7,[sp,#8]
        0x0000208a:    9600        ..      STR      r6,[sp,#0]
        0x0000208c:    462a        *F      MOV      r2,r5
        0x0000208e:    a033        3.      ADR      r0,{pc}+0xce ; 0x215c
        0x00002090:    f002fd52    ..R.    BL       __0printf ; 0x4b38
        0x00002094:    e02e        ..      B        0x20f4 ; sched_50Hzloop + 846
        0x00002096:    4c36        6L      LDR      r4,[pc,#216] ; [0x2170] = 0x200000ec
        0x00002098:    4936        6I      LDR      r1,[pc,#216] ; [0x2174] = 0x43fa0000
        0x0000209a:    6820         h      LDR      r0,[r4,#0]
        0x0000209c:    f002f8ad    ....    BL       __aeabi_fmul ; 0x41fa
        0x000020a0:    4935        5I      LDR      r1,[pc,#212] ; [0x2178] = 0x43960000
        0x000020a2:    f002f8a2    ....    BL       __aeabi_fsub ; 0x41ea
        0x000020a6:    f002fae7    ....    BL       __aeabi_f2iz ; 0x4678
        0x000020aa:    b207        ..      SXTH     r7,r0
        0x000020ac:    4931        1I      LDR      r1,[pc,#196] ; [0x2174] = 0x43fa0000
        0x000020ae:    6860        `h      LDR      r0,[r4,#4]
        0x000020b0:    f002f8a3    ....    BL       __aeabi_fmul ; 0x41fa
        0x000020b4:    4930        0I      LDR      r1,[pc,#192] ; [0x2178] = 0x43960000
        0x000020b6:    f002f898    ....    BL       __aeabi_fsub ; 0x41ea
        0x000020ba:    f002fadd    ....    BL       __aeabi_f2iz ; 0x4678
        0x000020be:    b206        ..      SXTH     r6,r0
        0x000020c0:    492c        ,I      LDR      r1,[pc,#176] ; [0x2174] = 0x43fa0000
        0x000020c2:    68a0        .h      LDR      r0,[r4,#8]
        0x000020c4:    f002f899    ....    BL       __aeabi_fmul ; 0x41fa
        0x000020c8:    492b        +I      LDR      r1,[pc,#172] ; [0x2178] = 0x43960000
        0x000020ca:    f002f88e    ....    BL       __aeabi_fsub ; 0x41ea
        0x000020ce:    f002fad3    ....    BL       __aeabi_f2iz ; 0x4678
        0x000020d2:    b205        ..      SXTH     r5,r0
        0x000020d4:    4927        'I      LDR      r1,[pc,#156] ; [0x2174] = 0x43fa0000
        0x000020d6:    68e0        .h      LDR      r0,[r4,#0xc]
        0x000020d8:    f002f88f    ....    BL       __aeabi_fmul ; 0x41fa
        0x000020dc:    4926        &I      LDR      r1,[pc,#152] ; [0x2178] = 0x43960000
        0x000020de:    f002f884    ....    BL       __aeabi_fsub ; 0x41ea
        0x000020e2:    f002fac9    ....    BL       __aeabi_f2iz ; 0x4678
        0x000020e6:    b201        ..      SXTH     r1,r0
        0x000020e8:    4633        3F      MOV      r3,r6
        0x000020ea:    462a        *F      MOV      r2,r5
        0x000020ec:    a023        #.      ADR      r0,{pc}+0x90 ; 0x217c
        0x000020ee:    9700        ..      STR      r7,[sp,#0]
        0x000020f0:    f002fd22    ..".    BL       __0printf ; 0x4b38
        0x000020f4:    4825        %H      LDR      r0,[pc,#148] ; [0x218c] = 0x200002f0
        0x000020f6:    2100        .!      MOVS     r1,#0
        0x000020f8:    7101        .q      STRB     r1,[r0,#4]
        0x000020fa:    b007        ..      ADD      sp,sp,#0x1c
        0x000020fc:    bdf0        ..      POP      {r4-r7,pc}
    sched_100Hzloop
        0x000020fe:    4823        #H      LDR      r0,[pc,#140] ; [0x218c] = 0x200002f0
        0x00002100:    7941        Ay      LDRB     r1,[r0,#5]
        0x00002102:    2900        .)      CMP      r1,#0
        0x00002104:    d001        ..      BEQ      0x210a ; sched_100Hzloop + 12
        0x00002106:    2100        .!      MOVS     r1,#0
        0x00002108:    7141        Aq      STRB     r1,[r0,#5]
        0x0000210a:    4770        pG      BX       lr
    low_priority_loop
        0x0000210c:    b510        ..      PUSH     {r4,lr}
        0x0000210e:    f7fffff6    ....    BL       sched_100Hzloop ; 0x20fe
        0x00002112:    f7fffe48    ..H.    BL       sched_50Hzloop ; 0x1da6
        0x00002116:    f7fffe3f    ..?.    BL       sched_20Hzloop ; 0x1d98
        0x0000211a:    f7fffe33    ..3.    BL       sched_10Hzloop ; 0x1d84
        0x0000211e:    f7fffddb    ....    BL       sched_1Hzloop ; 0x1cd8
        0x00002122:    bd10        ..      POP      {r4,pc}
    fast_loop
        0x00002124:    b510        ..      PUSH     {r4,lr}
        0x00002126:    4c19        .L      LDR      r4,[pc,#100] ; [0x218c] = 0x200002f0
        0x00002128:    7a20         z      LDRB     r0,[r4,#8]
        0x0000212a:    2800        .(      CMP      r0,#0
        0x0000212c:    d00b        ..      BEQ      0x2146 ; fast_loop + 34
        0x0000212e:    f000f9ce    ....    BL       inertial_sensor_read ; 0x24ce
        0x00002132:    f7fffb98    ....    BL       attitude_angle_rate_controller ; 0x1866
        0x00002136:    f7fffcc3    ....    BL       motors_output ; 0x1ac0
        0x0000213a:    f000f914    ....    BL       AHRS_Update ; 0x2366
        0x0000213e:    f7fffca3    ....    BL       update_flight_mode ; 0x1a88
        0x00002142:    2000        .       MOVS     r0,#0
        0x00002144:    7220         r      STRB     r0,[r4,#8]
        0x00002146:    bd10        ..      POP      {r4,pc}
    scheduler_run
        0x00002148:    b510        ..      PUSH     {r4,lr}
        0x0000214a:    f7ffffeb    ....    BL       fast_loop ; 0x2124
        0x0000214e:    f7ffffdd    ....    BL       low_priority_loop ; 0x210c
        0x00002152:    bd10        ..      POP      {r4,pc}
    $d
        0x00002154:    20000004    ...     DCD    536870916
        0x00002158:    43480000    ..HC    DCD    1128792064
        0x0000215c:    252c6425    %d,%    DCD    623666213
        0x00002160:    64252c64    d,%d    DCD    1680157796
        0x00002164:    2c64252c    ,%d,    DCD    744760620
        0x00002168:    252c6425    %d,%    DCD    623666213
        0x0000216c:    000a2c64    d,..    DCD    666724
        0x00002170:    200000ec    ...     DCD    536871148
        0x00002174:    43fa0000    ...C    DCD    1140457472
        0x00002178:    43960000    ...C    DCD    1133903872
        0x0000217c:    202c6425    %d,     DCD    539780133
        0x00002180:    202c6425    %d,     DCD    539780133
        0x00002184:    202c6425    %d,     DCD    539780133
        0x00002188:    000a6425    %d..    DCD    680997
        0x0000218c:    200002f0    ...     DCD    536871664
    $t
    .text
    AHRS_GetQ
        0x00002190:    b5f0        ..      PUSH     {r4-r7,lr}
        0x00002192:    4cb0        .L      LDR      r4,[pc,#704] ; [0x2454] = 0x20000320
        0x00002194:    b087        ..      SUB      sp,sp,#0x1c
        0x00002196:    69e0        .i      LDR      r0,[r4,#0x1c]
        0x00002198:    4601        .F      MOV      r1,r0
        0x0000219a:    f002f82e    ....    BL       __aeabi_fmul ; 0x41fa
        0x0000219e:    4605        .F      MOV      r5,r0
        0x000021a0:    69a0        .i      LDR      r0,[r4,#0x18]
        0x000021a2:    4601        .F      MOV      r1,r0
        0x000021a4:    f002f829    ..).    BL       __aeabi_fmul ; 0x41fa
        0x000021a8:    4606        .F      MOV      r6,r0
        0x000021aa:    6960        `i      LDR      r0,[r4,#0x14]
        0x000021ac:    4601        .F      MOV      r1,r0
        0x000021ae:    f002f824    ..$.    BL       __aeabi_fmul ; 0x41fa
        0x000021b2:    4631        1F      MOV      r1,r6
        0x000021b4:    f001ffc8    ....    BL       __aeabi_fadd ; 0x4148
        0x000021b8:    4629        )F      MOV      r1,r5
        0x000021ba:    f001ffc5    ....    BL       __aeabi_fadd ; 0x4148
        0x000021be:    f7fff897    ....    BL       Q_rsqrt ; 0x12f0
        0x000021c2:    4605        .F      MOV      r5,r0
        0x000021c4:    4629        )F      MOV      r1,r5
        0x000021c6:    6960        `i      LDR      r0,[r4,#0x14]
        0x000021c8:    f002f817    ....    BL       __aeabi_fmul ; 0x41fa
        0x000021cc:    9005        ..      STR      r0,[sp,#0x14]
        0x000021ce:    4629        )F      MOV      r1,r5
        0x000021d0:    69a0        .i      LDR      r0,[r4,#0x18]
        0x000021d2:    f002f812    ....    BL       __aeabi_fmul ; 0x41fa
        0x000021d6:    9004        ..      STR      r0,[sp,#0x10]
        0x000021d8:    4629        )F      MOV      r1,r5
        0x000021da:    69e0        .i      LDR      r0,[r4,#0x1c]
        0x000021dc:    f002f80d    ....    BL       __aeabi_fmul ; 0x41fa
        0x000021e0:    4607        .F      MOV      r7,r0
        0x000021e2:    499d        .I      LDR      r1,[pc,#628] ; [0x2458] = 0x20000058
        0x000021e4:    4668        hF      MOV      r0,sp
        0x000021e6:    f7fff967    ..g.    BL       Quaternion_vectorGravity ; 0x14b8
        0x000021ea:    4c9c        .L      LDR      r4,[pc,#624] ; [0x245c] = 0x20000314
        0x000021ec:    9800        ..      LDR      r0,[sp,#0]
        0x000021ee:    6020         `      STR      r0,[r4,#0]
        0x000021f0:    9801        ..      LDR      r0,[sp,#4]
        0x000021f2:    6060        ``      STR      r0,[r4,#4]
        0x000021f4:    9802        ..      LDR      r0,[sp,#8]
        0x000021f6:    60a0        .`      STR      r0,[r4,#8]
        0x000021f8:    6861        ah      LDR      r1,[r4,#4]
        0x000021fa:    4638        8F      MOV      r0,r7
        0x000021fc:    f001fffd    ....    BL       __aeabi_fmul ; 0x41fa
        0x00002200:    68a1        .h      LDR      r1,[r4,#8]
        0x00002202:    4605        .F      MOV      r5,r0
        0x00002204:    9804        ..      LDR      r0,[sp,#0x10]
        0x00002206:    f001fff8    ....    BL       __aeabi_fmul ; 0x41fa
        0x0000220a:    4629        )F      MOV      r1,r5
        0x0000220c:    f001ffed    ....    BL       __aeabi_fsub ; 0x41ea
        0x00002210:    68a1        .h      LDR      r1,[r4,#8]
        0x00002212:    4605        .F      MOV      r5,r0
        0x00002214:    9805        ..      LDR      r0,[sp,#0x14]
        0x00002216:    f001fff0    ....    BL       __aeabi_fmul ; 0x41fa
        0x0000221a:    6821        !h      LDR      r1,[r4,#0]
        0x0000221c:    4606        .F      MOV      r6,r0
        0x0000221e:    4638        8F      MOV      r0,r7
        0x00002220:    f001ffeb    ....    BL       __aeabi_fmul ; 0x41fa
        0x00002224:    4631        1F      MOV      r1,r6
        0x00002226:    f001ffe0    ....    BL       __aeabi_fsub ; 0x41ea
        0x0000222a:    9003        ..      STR      r0,[sp,#0xc]
        0x0000222c:    6821        !h      LDR      r1,[r4,#0]
        0x0000222e:    9804        ..      LDR      r0,[sp,#0x10]
        0x00002230:    f001ffe3    ....    BL       __aeabi_fmul ; 0x41fa
        0x00002234:    6861        ah      LDR      r1,[r4,#4]
        0x00002236:    4606        .F      MOV      r6,r0
        0x00002238:    9805        ..      LDR      r0,[sp,#0x14]
        0x0000223a:    f001ffde    ....    BL       __aeabi_fmul ; 0x41fa
        0x0000223e:    4631        1F      MOV      r1,r6
        0x00002240:    f001ffd3    ....    BL       __aeabi_fsub ; 0x41ea
        0x00002244:    4c84        .L      LDR      r4,[pc,#528] ; [0x2458] = 0x20000058
        0x00002246:    9004        ..      STR      r0,[sp,#0x10]
        0x00002248:    3c14        .<      SUBS     r4,r4,#0x14
        0x0000224a:    6861        ah      LDR      r1,[r4,#4]
        0x0000224c:    4628        (F      MOV      r0,r5
        0x0000224e:    460e        .F      MOV      r6,r1
        0x00002250:    f001ffd3    ....    BL       __aeabi_fmul ; 0x41fa
        0x00002254:    68a1        .h      LDR      r1,[r4,#8]
        0x00002256:    f001ff77    ..w.    BL       __aeabi_fadd ; 0x4148
        0x0000225a:    4607        .F      MOV      r7,r0
        0x0000225c:    60a0        .`      STR      r0,[r4,#8]
        0x0000225e:    4631        1F      MOV      r1,r6
        0x00002260:    9803        ..      LDR      r0,[sp,#0xc]
        0x00002262:    f001ffca    ....    BL       __aeabi_fmul ; 0x41fa
        0x00002266:    68e1        .h      LDR      r1,[r4,#0xc]
        0x00002268:    f001ff6e    ..n.    BL       __aeabi_fadd ; 0x4148
        0x0000226c:    60e0        .`      STR      r0,[r4,#0xc]
        0x0000226e:    4631        1F      MOV      r1,r6
        0x00002270:    9804        ..      LDR      r0,[sp,#0x10]
        0x00002272:    f001ffc2    ....    BL       __aeabi_fmul ; 0x41fa
        0x00002276:    6921        !i      LDR      r1,[r4,#0x10]
        0x00002278:    f001ff66    ..f.    BL       __aeabi_fadd ; 0x4148
        0x0000227c:    6120         a      STR      r0,[r4,#0x10]
        0x0000227e:    4638        8F      MOV      r0,r7
        0x00002280:    f002fa27    ..'.    BL       __aeabi_f2d ; 0x46d2
        0x00002284:    4606        .F      MOV      r6,r0
        0x00002286:    460f        .F      MOV      r7,r1
        0x00002288:    4628        (F      MOV      r0,r5
        0x0000228a:    f7fff85a    ..Z.    BL       VariableParameter ; 0x1342
        0x0000228e:    6821        !h      LDR      r1,[r4,#0]
        0x00002290:    f001ffb3    ....    BL       __aeabi_fmul ; 0x41fa
        0x00002294:    4629        )F      MOV      r1,r5
        0x00002296:    f001ffb0    ....    BL       __aeabi_fmul ; 0x41fa
        0x0000229a:    f002fa1a    ....    BL       __aeabi_f2d ; 0x46d2
        0x0000229e:    4d6d        mM      LDR      r5,[pc,#436] ; [0x2454] = 0x20000320
        0x000022a0:    9101        ..      STR      r1,[sp,#4]
        0x000022a2:    3580        .5      ADDS     r5,r5,#0x80
        0x000022a4:    9000        ..      STR      r0,[sp,#0]
        0x000022a6:    6aa8        .j      LDR      r0,[r5,#0x28]
        0x000022a8:    f002fa13    ....    BL       __aeabi_f2d ; 0x46d2
        0x000022ac:    f7fff84c    ..L.    BL       Rad ; 0x1348
        0x000022b0:    9b01        ..      LDR      r3,[sp,#4]
        0x000022b2:    9a00        ..      LDR      r2,[sp,#0]
        0x000022b4:    f002f828    ..(.    BL       __aeabi_dadd ; 0x4308
        0x000022b8:    4632        2F      MOV      r2,r6
        0x000022ba:    463b        ;F      MOV      r3,r7
        0x000022bc:    f002f824    ..$.    BL       __aeabi_dadd ; 0x4308
        0x000022c0:    f002fa30    ..0.    BL       __aeabi_d2f ; 0x4724
        0x000022c4:    9002        ..      STR      r0,[sp,#8]
        0x000022c6:    68e0        .h      LDR      r0,[r4,#0xc]
        0x000022c8:    f002fa03    ....    BL       __aeabi_f2d ; 0x46d2
        0x000022cc:    9000        ..      STR      r0,[sp,#0]
        0x000022ce:    9101        ..      STR      r1,[sp,#4]
        0x000022d0:    9803        ..      LDR      r0,[sp,#0xc]
        0x000022d2:    f7fff836    ..6.    BL       VariableParameter ; 0x1342
        0x000022d6:    6821        !h      LDR      r1,[r4,#0]
        0x000022d8:    f001ff8f    ....    BL       __aeabi_fmul ; 0x41fa
        0x000022dc:    9903        ..      LDR      r1,[sp,#0xc]
        0x000022de:    f001ff8c    ....    BL       __aeabi_fmul ; 0x41fa
        0x000022e2:    f002f9f6    ....    BL       __aeabi_f2d ; 0x46d2
        0x000022e6:    4606        .F      MOV      r6,r0
        0x000022e8:    460f        .F      MOV      r7,r1
        0x000022ea:    6ae8        .j      LDR      r0,[r5,#0x2c]
        0x000022ec:    f002f9f1    ....    BL       __aeabi_f2d ; 0x46d2
        0x000022f0:    f7fff82a    ..*.    BL       Rad ; 0x1348
        0x000022f4:    4632        2F      MOV      r2,r6
        0x000022f6:    463b        ;F      MOV      r3,r7
        0x000022f8:    f002f806    ....    BL       __aeabi_dadd ; 0x4308
        0x000022fc:    9b01        ..      LDR      r3,[sp,#4]
        0x000022fe:    9a00        ..      LDR      r2,[sp,#0]
        0x00002300:    f002f802    ....    BL       __aeabi_dadd ; 0x4308
        0x00002304:    f002fa0e    ....    BL       __aeabi_d2f ; 0x4724
        0x00002308:    9001        ..      STR      r0,[sp,#4]
        0x0000230a:    6920         i      LDR      r0,[r4,#0x10]
        0x0000230c:    f002f9e1    ....    BL       __aeabi_f2d ; 0x46d2
        0x00002310:    4606        .F      MOV      r6,r0
        0x00002312:    9100        ..      STR      r1,[sp,#0]
        0x00002314:    9804        ..      LDR      r0,[sp,#0x10]
        0x00002316:    f7fff814    ....    BL       VariableParameter ; 0x1342
        0x0000231a:    6821        !h      LDR      r1,[r4,#0]
        0x0000231c:    f001ff6d    ..m.    BL       __aeabi_fmul ; 0x41fa
        0x00002320:    9904        ..      LDR      r1,[sp,#0x10]
        0x00002322:    f001ff6a    ..j.    BL       __aeabi_fmul ; 0x41fa
        0x00002326:    f002f9d4    ....    BL       __aeabi_f2d ; 0x46d2
        0x0000232a:    4604        .F      MOV      r4,r0
        0x0000232c:    460f        .F      MOV      r7,r1
        0x0000232e:    6b28        (k      LDR      r0,[r5,#0x30]
        0x00002330:    f002f9cf    ....    BL       __aeabi_f2d ; 0x46d2
        0x00002334:    f7fff808    ....    BL       Rad ; 0x1348
        0x00002338:    4622        "F      MOV      r2,r4
        0x0000233a:    463b        ;F      MOV      r3,r7
        0x0000233c:    f001ffe4    ....    BL       __aeabi_dadd ; 0x4308
        0x00002340:    4632        2F      MOV      r2,r6
        0x00002342:    9b00        ..      LDR      r3,[sp,#0]
        0x00002344:    f001ffe0    ....    BL       __aeabi_dadd ; 0x4308
        0x00002348:    f002f9ec    ....    BL       __aeabi_d2f ; 0x4724
        0x0000234c:    4603        .F      MOV      r3,r0
        0x0000234e:    4844        DH      LDR      r0,[pc,#272] ; [0x2460] = 0x3ba3d70a
        0x00002350:    9000        ..      STR      r0,[sp,#0]
        0x00002352:    4841        AH      LDR      r0,[pc,#260] ; [0x2458] = 0x20000058
        0x00002354:    9a01        ..      LDR      r2,[sp,#4]
        0x00002356:    9902        ..      LDR      r1,[sp,#8]
        0x00002358:    f7fff9f7    ....    BL       Quaternion_RungeKutta ; 0x174a
        0x0000235c:    483e        >H      LDR      r0,[pc,#248] ; [0x2458] = 0x20000058
        0x0000235e:    f7fff9be    ....    BL       Quaternion_Normalize ; 0x16de
        0x00002362:    b007        ..      ADD      sp,sp,#0x1c
        0x00002364:    bdf0        ..      POP      {r4-r7,pc}
    AHRS_Update
        0x00002366:    b570        p.      PUSH     {r4-r6,lr}
        0x00002368:    f7ffff12    ....    BL       AHRS_GetQ ; 0x2190
        0x0000236c:    4a3a        :J      LDR      r2,[pc,#232] ; [0x2458] = 0x20000058
        0x0000236e:    493b        ;I      LDR      r1,[pc,#236] ; [0x245c] = 0x20000314
        0x00002370:    3210        .2      ADDS     r2,r2,#0x10
        0x00002372:    3918        .9      SUBS     r1,r1,#0x18
        0x00002374:    4838        8H      LDR      r0,[pc,#224] ; [0x2458] = 0x20000058
        0x00002376:    f7fff998    ....    BL       Quaternion_ToAngE ; 0x16aa
        0x0000237a:    4c38        8L      LDR      r4,[pc,#224] ; [0x245c] = 0x20000314
        0x0000237c:    3c18        .<      SUBS     r4,r4,#0x18
        0x0000237e:    68a0        .h      LDR      r0,[r4,#8]
        0x00002380:    f002f9a7    ....    BL       __aeabi_f2d ; 0x46d2
        0x00002384:    f7feffeb    ....    BL       Degree ; 0x135e
        0x00002388:    f002f9cc    ....    BL       __aeabi_d2f ; 0x4724
        0x0000238c:    4625        %F      MOV      r5,r4
        0x0000238e:    350c        .5      ADDS     r5,r5,#0xc
        0x00002390:    60a8        .`      STR      r0,[r5,#8]
        0x00002392:    6860        `h      LDR      r0,[r4,#4]
        0x00002394:    f002f99d    ....    BL       __aeabi_f2d ; 0x46d2
        0x00002398:    f7feffe1    ....    BL       Degree ; 0x135e
        0x0000239c:    f002f9c2    ....    BL       __aeabi_d2f ; 0x4724
        0x000023a0:    6068        h`      STR      r0,[r5,#4]
        0x000023a2:    6820         h      LDR      r0,[r4,#0]
        0x000023a4:    f002f995    ....    BL       __aeabi_f2d ; 0x46d2
        0x000023a8:    f7feffd9    ....    BL       Degree ; 0x135e
        0x000023ac:    f002f9ba    ....    BL       __aeabi_d2f ; 0x4724
        0x000023b0:    6028        (`      STR      r0,[r5,#0]
        0x000023b2:    bd70        p.      POP      {r4-r6,pc}
    AHRS_set_complementary_filter_kp
        0x000023b4:    b570        p.      PUSH     {r4-r6,lr}
        0x000023b6:    4d2b        +M      LDR      r5,[pc,#172] ; [0x2464] = 0x40010020
        0x000023b8:    6829        )h      LDR      r1,[r5,#0]
        0x000023ba:    066e        n.      LSLS     r6,r5,#25
        0x000023bc:    43b1        .C      BICS     r1,r1,r6
        0x000023be:    6029        )`      STR      r1,[r5,#0]
        0x000023c0:    4c25        %L      LDR      r4,[pc,#148] ; [0x2458] = 0x20000058
        0x000023c2:    3c14        .<      SUBS     r4,r4,#0x14
        0x000023c4:    6020         `      STR      r0,[r4,#0]
        0x000023c6:    f002f984    ....    BL       __aeabi_f2d ; 0x46d2
        0x000023ca:    4602        .F      MOV      r2,r0
        0x000023cc:    460b        .F      MOV      r3,r1
        0x000023ce:    a026        &.      ADR      r0,{pc}+0x9a ; 0x2468
        0x000023d0:    f002fbb2    ....    BL       __0printf ; 0x4b38
        0x000023d4:    2000        .       MOVS     r0,#0
        0x000023d6:    6160        `a      STR      r0,[r4,#0x14]
        0x000023d8:    61a0        .a      STR      r0,[r4,#0x18]
        0x000023da:    61e0        .a      STR      r0,[r4,#0x1c]
        0x000023dc:    6220         b      STR      r0,[r4,#0x20]
        0x000023de:    217f        .!      MOVS     r1,#0x7f
        0x000023e0:    4a1d        .J      LDR      r2,[pc,#116] ; [0x2458] = 0x20000058
        0x000023e2:    05c9        ..      LSLS     r1,r1,#23
        0x000023e4:    6011        .`      STR      r1,[r2,#0]
        0x000023e6:    491d        .I      LDR      r1,[pc,#116] ; [0x245c] = 0x20000314
        0x000023e8:    3918        .9      SUBS     r1,r1,#0x18
        0x000023ea:    6008        .`      STR      r0,[r1,#0]
        0x000023ec:    6048        H`      STR      r0,[r1,#4]
        0x000023ee:    6088        .`      STR      r0,[r1,#8]
        0x000023f0:    60c8        .`      STR      r0,[r1,#0xc]
        0x000023f2:    6108        .a      STR      r0,[r1,#0x10]
        0x000023f4:    6148        Ha      STR      r0,[r1,#0x14]
        0x000023f6:    60a0        .`      STR      r0,[r4,#8]
        0x000023f8:    f000f980    ....    BL       accel_offset ; 0x26fc
        0x000023fc:    6828        (h      LDR      r0,[r5,#0]
        0x000023fe:    4330        0C      ORRS     r0,r0,r6
        0x00002400:    6028        (`      STR      r0,[r5,#0]
        0x00002402:    bd70        p.      POP      {r4-r6,pc}
    AHRS_set_complementary_filter_ki
        0x00002404:    b570        p.      PUSH     {r4-r6,lr}
        0x00002406:    4d17        .M      LDR      r5,[pc,#92] ; [0x2464] = 0x40010020
        0x00002408:    6829        )h      LDR      r1,[r5,#0]
        0x0000240a:    066e        n.      LSLS     r6,r5,#25
        0x0000240c:    43b1        .C      BICS     r1,r1,r6
        0x0000240e:    6029        )`      STR      r1,[r5,#0]
        0x00002410:    4c11        .L      LDR      r4,[pc,#68] ; [0x2458] = 0x20000058
        0x00002412:    3c14        .<      SUBS     r4,r4,#0x14
        0x00002414:    6060        ``      STR      r0,[r4,#4]
        0x00002416:    f002f95c    ..\.    BL       __aeabi_f2d ; 0x46d2
        0x0000241a:    4602        .F      MOV      r2,r0
        0x0000241c:    460b        .F      MOV      r3,r1
        0x0000241e:    a015        ..      ADR      r0,{pc}+0x56 ; 0x2474
        0x00002420:    f002fb8a    ....    BL       __0printf ; 0x4b38
        0x00002424:    2000        .       MOVS     r0,#0
        0x00002426:    6160        `a      STR      r0,[r4,#0x14]
        0x00002428:    61a0        .a      STR      r0,[r4,#0x18]
        0x0000242a:    61e0        .a      STR      r0,[r4,#0x1c]
        0x0000242c:    6220         b      STR      r0,[r4,#0x20]
        0x0000242e:    217f        .!      MOVS     r1,#0x7f
        0x00002430:    4a09        .J      LDR      r2,[pc,#36] ; [0x2458] = 0x20000058
        0x00002432:    05c9        ..      LSLS     r1,r1,#23
        0x00002434:    6011        .`      STR      r1,[r2,#0]
        0x00002436:    4909        .I      LDR      r1,[pc,#36] ; [0x245c] = 0x20000314
        0x00002438:    3918        .9      SUBS     r1,r1,#0x18
        0x0000243a:    6008        .`      STR      r0,[r1,#0]
        0x0000243c:    6048        H`      STR      r0,[r1,#4]
        0x0000243e:    6088        .`      STR      r0,[r1,#8]
        0x00002440:    60c8        .`      STR      r0,[r1,#0xc]
        0x00002442:    6108        .a      STR      r0,[r1,#0x10]
        0x00002444:    6148        Ha      STR      r0,[r1,#0x14]
        0x00002446:    60a0        .`      STR      r0,[r4,#8]
        0x00002448:    f000f958    ..X.    BL       accel_offset ; 0x26fc
        0x0000244c:    6828        (h      LDR      r0,[r5,#0]
        0x0000244e:    4330        0C      ORRS     r0,r0,r6
        0x00002450:    6028        (`      STR      r0,[r5,#0]
        0x00002452:    bd70        p.      POP      {r4-r6,pc}
    $d
        0x00002454:    20000320     ..     DCD    536871712
        0x00002458:    20000058    X..     DCD    536871000
        0x0000245c:    20000314    ...     DCD    536871700
        0x00002460:    3ba3d70a    ...;    DCD    1000593162
        0x00002464:    40010020     ..@    DCD    1073807392
        0x00002468:    203a706b    kp:     DCD    540700779
        0x0000246c:    66362e25    %.6f    DCD    1714826789
        0x00002470:    0000000a    ....    DCD    10
        0x00002474:    203a696b    ki:     DCD    540698987
        0x00002478:    66362e25    %.6f    DCD    1714826789
        0x0000247c:    0000000a    ....    DCD    10
    $t
    .text
    inertial_sensor_init
        0x00002480:    b570        p.      PUSH     {r4-r6,lr}
        0x00002482:    4cc0        .L      LDR      r4,[pc,#768] ; [0x2784] = 0x41f00000
        0x00002484:    4dc0        .M      LDR      r5,[pc,#768] ; [0x2788] = 0x42c80000
        0x00002486:    4622        "F      MOV      r2,r4
        0x00002488:    4629        )F      MOV      r1,r5
        0x0000248a:    48c0        .H      LDR      r0,[pc,#768] ; [0x278c] = 0x20000354
        0x0000248c:    f7fefe7a    ..z.    BL       LPF2pSetCutoffFreq ; 0x1184
        0x00002490:    48be        .H      LDR      r0,[pc,#760] ; [0x278c] = 0x20000354
        0x00002492:    4622        "F      MOV      r2,r4
        0x00002494:    4629        )F      MOV      r1,r5
        0x00002496:    3020         0      ADDS     r0,r0,#0x20
        0x00002498:    f7fefe74    ..t.    BL       LPF2pSetCutoffFreq ; 0x1184
        0x0000249c:    48bb        .H      LDR      r0,[pc,#748] ; [0x278c] = 0x20000354
        0x0000249e:    4622        "F      MOV      r2,r4
        0x000024a0:    4629        )F      MOV      r1,r5
        0x000024a2:    3040        @0      ADDS     r0,r0,#0x40
        0x000024a4:    f7fefe6e    ..n.    BL       LPF2pSetCutoffFreq ; 0x1184
        0x000024a8:    48b8        .H      LDR      r0,[pc,#736] ; [0x278c] = 0x20000354
        0x000024aa:    4622        "F      MOV      r2,r4
        0x000024ac:    4629        )F      MOV      r1,r5
        0x000024ae:    3094        .0      ADDS     r0,r0,#0x94
        0x000024b0:    f7fefe68    ..h.    BL       LPF2pSetCutoffFreq ; 0x1184
        0x000024b4:    48b5        .H      LDR      r0,[pc,#724] ; [0x278c] = 0x20000354
        0x000024b6:    4622        "F      MOV      r2,r4
        0x000024b8:    4629        )F      MOV      r1,r5
        0x000024ba:    30b4        .0      ADDS     r0,r0,#0xb4
        0x000024bc:    f7fefe62    ..b.    BL       LPF2pSetCutoffFreq ; 0x1184
        0x000024c0:    48b2        .H      LDR      r0,[pc,#712] ; [0x278c] = 0x20000354
        0x000024c2:    4622        "F      MOV      r2,r4
        0x000024c4:    4629        )F      MOV      r1,r5
        0x000024c6:    30d4        .0      ADDS     r0,r0,#0xd4
        0x000024c8:    f7fefe5c    ..\.    BL       LPF2pSetCutoffFreq ; 0x1184
        0x000024cc:    bd70        p.      POP      {r4-r6,pc}
    inertial_sensor_read
        0x000024ce:    b570        p.      PUSH     {r4-r6,lr}
        0x000024d0:    48ae        .H      LDR      r0,[pc,#696] ; [0x278c] = 0x20000354
        0x000024d2:    3834        48      SUBS     r0,r0,#0x34
        0x000024d4:    f7fef889    ....    BL       bmi160_read_raw ; 0x5ea
        0x000024d8:    4dac        .M      LDR      r5,[pc,#688] ; [0x278c] = 0x20000354
        0x000024da:    3d34        4=      SUBS     r5,r5,#0x34
        0x000024dc:    88e8        ..      LDRH     r0,[r5,#6]
        0x000024de:    8da9        ..      LDRH     r1,[r5,#0x2c]
        0x000024e0:    462c        ,F      MOV      r4,r5
        0x000024e2:    1a40        @.      SUBS     r0,r0,r1
        0x000024e4:    b200        ..      SXTH     r0,r0
        0x000024e6:    81a8        ..      STRH     r0,[r5,#0xc]
        0x000024e8:    8929        ).      LDRH     r1,[r5,#8]
        0x000024ea:    8dea        ..      LDRH     r2,[r5,#0x2e]
        0x000024ec:    3480        .4      ADDS     r4,r4,#0x80
        0x000024ee:    1a89        ..      SUBS     r1,r1,r2
        0x000024f0:    81e9        ..      STRH     r1,[r5,#0xe]
        0x000024f2:    8969        i.      LDRH     r1,[r5,#0xa]
        0x000024f4:    8e2a        *.      LDRH     r2,[r5,#0x30]
        0x000024f6:    1a89        ..      SUBS     r1,r1,r2
        0x000024f8:    8229        ).      STRH     r1,[r5,#0x10]
        0x000024fa:    4621        !F      MOV      r1,r4
        0x000024fc:    3140        @1      ADDS     r1,r1,#0x40
        0x000024fe:    8b62        b.      LDRH     r2,[r4,#0x1a]
        0x00002500:    880b        ..      LDRH     r3,[r1,#0]
        0x00002502:    1ad2        ..      SUBS     r2,r2,r3
        0x00002504:    8422        ".      STRH     r2,[r4,#0x20]
        0x00002506:    8ba2        ..      LDRH     r2,[r4,#0x1c]
        0x00002508:    884b        K.      LDRH     r3,[r1,#2]
        0x0000250a:    1ad2        ..      SUBS     r2,r2,r3
        0x0000250c:    8462        b.      STRH     r2,[r4,#0x22]
        0x0000250e:    8be2        ..      LDRH     r2,[r4,#0x1e]
        0x00002510:    8889        ..      LDRH     r1,[r1,#4]
        0x00002512:    1a51        Q.      SUBS     r1,r2,r1
        0x00002514:    84a1        ..      STRH     r1,[r4,#0x24]
        0x00002516:    f002f889    ....    BL       __aeabi_i2f ; 0x462c
        0x0000251a:    4e9d        .N      LDR      r6,[pc,#628] ; [0x2790] = 0x20000000
        0x0000251c:    6831        1h      LDR      r1,[r6,#0]
        0x0000251e:    f001fe6c    ..l.    BL       __aeabi_fmul ; 0x41fa
        0x00002522:    4601        .F      MOV      r1,r0
        0x00002524:    4899        .H      LDR      r0,[pc,#612] ; [0x278c] = 0x20000354
        0x00002526:    f7fefe86    ....    BL       LPF2pApply ; 0x1236
        0x0000252a:    6168        ha      STR      r0,[r5,#0x14]
        0x0000252c:    200e        .       MOVS     r0,#0xe
        0x0000252e:    5e28        (^      LDRSH    r0,[r5,r0]
        0x00002530:    f002f87c    ..|.    BL       __aeabi_i2f ; 0x462c
        0x00002534:    6831        1h      LDR      r1,[r6,#0]
        0x00002536:    f001fe60    ..`.    BL       __aeabi_fmul ; 0x41fa
        0x0000253a:    4601        .F      MOV      r1,r0
        0x0000253c:    4620         F      MOV      r0,r4
        0x0000253e:    382c        ,8      SUBS     r0,r0,#0x2c
        0x00002540:    f7fefe79    ..y.    BL       LPF2pApply ; 0x1236
        0x00002544:    61a8        .a      STR      r0,[r5,#0x18]
        0x00002546:    2010        .       MOVS     r0,#0x10
        0x00002548:    5e28        (^      LDRSH    r0,[r5,r0]
        0x0000254a:    f002f86f    ..o.    BL       __aeabi_i2f ; 0x462c
        0x0000254e:    6831        1h      LDR      r1,[r6,#0]
        0x00002550:    f001fe53    ..S.    BL       __aeabi_fmul ; 0x41fa
        0x00002554:    4601        .F      MOV      r1,r0
        0x00002556:    4620         F      MOV      r0,r4
        0x00002558:    380c        .8      SUBS     r0,r0,#0xc
        0x0000255a:    f7fefe6c    ..l.    BL       LPF2pApply ; 0x1236
        0x0000255e:    61e8        .a      STR      r0,[r5,#0x1c]
        0x00002560:    2020                MOVS     r0,#0x20
        0x00002562:    5e20         ^      LDRSH    r0,[r4,r0]
        0x00002564:    f002f862    ..b.    BL       __aeabi_i2f ; 0x462c
        0x00002568:    4d8a        .M      LDR      r5,[pc,#552] ; [0x2794] = 0x20000004
        0x0000256a:    6829        )h      LDR      r1,[r5,#0]
        0x0000256c:    f001fe45    ..E.    BL       __aeabi_fmul ; 0x41fa
        0x00002570:    4601        .F      MOV      r1,r0
        0x00002572:    4620         F      MOV      r0,r4
        0x00002574:    3048        H0      ADDS     r0,r0,#0x48
        0x00002576:    f7fefe5e    ..^.    BL       LPF2pApply ; 0x1236
        0x0000257a:    62a0        .b      STR      r0,[r4,#0x28]
        0x0000257c:    2022        "       MOVS     r0,#0x22
        0x0000257e:    5e20         ^      LDRSH    r0,[r4,r0]
        0x00002580:    f002f854    ..T.    BL       __aeabi_i2f ; 0x462c
        0x00002584:    6829        )h      LDR      r1,[r5,#0]
        0x00002586:    f001fe38    ..8.    BL       __aeabi_fmul ; 0x41fa
        0x0000258a:    4601        .F      MOV      r1,r0
        0x0000258c:    4620         F      MOV      r0,r4
        0x0000258e:    3068        h0      ADDS     r0,r0,#0x68
        0x00002590:    f7fefe51    ..Q.    BL       LPF2pApply ; 0x1236
        0x00002594:    62e0        .b      STR      r0,[r4,#0x2c]
        0x00002596:    2024        $       MOVS     r0,#0x24
        0x00002598:    5e20         ^      LDRSH    r0,[r4,r0]
        0x0000259a:    f002f847    ..G.    BL       __aeabi_i2f ; 0x462c
        0x0000259e:    6829        )h      LDR      r1,[r5,#0]
        0x000025a0:    f001fe2b    ..+.    BL       __aeabi_fmul ; 0x41fa
        0x000025a4:    4601        .F      MOV      r1,r0
        0x000025a6:    4620         F      MOV      r0,r4
        0x000025a8:    3088        .0      ADDS     r0,r0,#0x88
        0x000025aa:    f7fefe44    ..D.    BL       LPF2pApply ; 0x1236
        0x000025ae:    6320         c      STR      r0,[r4,#0x30]
        0x000025b0:    bd70        p.      POP      {r4-r6,pc}
    gyro_caloffest
        0x000025b2:    b5f8        ..      PUSH     {r3-r7,lr}
        0x000025b4:    4604        .F      MOV      r4,r0
        0x000025b6:    4616        .F      MOV      r6,r2
        0x000025b8:    460f        .F      MOV      r7,r1
        0x000025ba:    4618        .F      MOV      r0,r3
        0x000025bc:    f002f841    ..A.    BL       __aeabi_ui2f ; 0x4642
        0x000025c0:    4605        .F      MOV      r5,r0
        0x000025c2:    4629        )F      MOV      r1,r5
        0x000025c4:    4620         F      MOV      r0,r4
        0x000025c6:    f001fe55    ..U.    BL       __aeabi_fdiv ; 0x4274
        0x000025ca:    f002f855    ..U.    BL       __aeabi_f2iz ; 0x4678
        0x000025ce:    4c6f        oL      LDR      r4,[pc,#444] ; [0x278c] = 0x20000354
        0x000025d0:    4629        )F      MOV      r1,r5
        0x000025d2:    348c        .4      ADDS     r4,r4,#0x8c
        0x000025d4:    8020         .      STRH     r0,[r4,#0]
        0x000025d6:    4638        8F      MOV      r0,r7
        0x000025d8:    f001fe4c    ..L.    BL       __aeabi_fdiv ; 0x4274
        0x000025dc:    f002f84c    ..L.    BL       __aeabi_f2iz ; 0x4678
        0x000025e0:    8060        `.      STRH     r0,[r4,#2]
        0x000025e2:    4629        )F      MOV      r1,r5
        0x000025e4:    4630        0F      MOV      r0,r6
        0x000025e6:    f001fe45    ..E.    BL       __aeabi_fdiv ; 0x4274
        0x000025ea:    f002f845    ..E.    BL       __aeabi_f2iz ; 0x4678
        0x000025ee:    80a0        ..      STRH     r0,[r4,#4]
        0x000025f0:    bdf8        ..      POP      {r3-r7,pc}
    gyro_offset
        0x000025f2:    b5f0        ..      PUSH     {r4-r7,lr}
        0x000025f4:    2400        .$      MOVS     r4,#0
        0x000025f6:    b089        ..      SUB      sp,sp,#0x24
        0x000025f8:    9406        ..      STR      r4,[sp,#0x18]
        0x000025fa:    4967        gI      LDR      r1,[pc,#412] ; [0x2798] = 0x2000008c
        0x000025fc:    9400        ..      STR      r4,[sp,#0]
        0x000025fe:    9401        ..      STR      r4,[sp,#4]
        0x00002600:    9402        ..      STR      r4,[sp,#8]
        0x00002602:    9403        ..      STR      r4,[sp,#0xc]
        0x00002604:    9404        ..      STR      r4,[sp,#0x10]
        0x00002606:    4f65        eO      LDR      r7,[pc,#404] ; [0x279c] = 0x16e360
        0x00002608:    700c        .p      STRB     r4,[r1,#0]
        0x0000260a:    4625        %F      MOV      r5,r4
        0x0000260c:    4626        &F      MOV      r6,r4
        0x0000260e:    4639        9F      MOV      r1,r7
        0x00002610:    4863        cH      LDR      r0,[pc,#396] ; [0x27a0] = 0x40010000
        0x00002612:    f001f927    ..'.    BL       TIMER_Delay ; 0x3864
        0x00002616:    4639        9F      MOV      r1,r7
        0x00002618:    4861        aH      LDR      r0,[pc,#388] ; [0x27a0] = 0x40010000
        0x0000261a:    f001f923    ..#.    BL       TIMER_Delay ; 0x3864
        0x0000261e:    4f5b        [O      LDR      r7,[pc,#364] ; [0x278c] = 0x20000354
        0x00002620:    374c        L7      ADDS     r7,r7,#0x4c
        0x00002622:    e065        e.      B        0x26f0 ; gyro_offset + 254
        0x00002624:    2c64        d,      CMP      r4,#0x64
        0x00002626:    d233        3.      BCS      0x2690 ; gyro_offset + 158
        0x00002628:    4858        XH      LDR      r0,[pc,#352] ; [0x278c] = 0x20000354
        0x0000262a:    3834        48      SUBS     r0,r0,#0x34
        0x0000262c:    f7fdffdd    ....    BL       bmi160_read_raw ; 0x5ea
        0x00002630:    221a        ."      MOVS     r2,#0x1a
        0x00002632:    5eba        .^      LDRSH    r2,[r7,r2]
        0x00002634:    9802        ..      LDR      r0,[sp,#8]
        0x00002636:    4694        .F      MOV      r12,r2
        0x00002638:    4460        `D      ADD      r0,r0,r12
        0x0000263a:    9002        ..      STR      r0,[sp,#8]
        0x0000263c:    211c        .!      MOVS     r1,#0x1c
        0x0000263e:    5e79        y^      LDRSH    r1,[r7,r1]
        0x00002640:    9803        ..      LDR      r0,[sp,#0xc]
        0x00002642:    9b04        ..      LDR      r3,[sp,#0x10]
        0x00002644:    1840        @.      ADDS     r0,r0,r1
        0x00002646:    9003        ..      STR      r0,[sp,#0xc]
        0x00002648:    201e        .       MOVS     r0,#0x1e
        0x0000264a:    5e38        8^      LDRSH    r0,[r7,r0]
        0x0000264c:    466a        jF      MOV      r2,sp
        0x0000264e:    181b        ..      ADDS     r3,r3,r0
        0x00002650:    9304        ..      STR      r3,[sp,#0x10]
        0x00002652:    2300        .#      MOVS     r3,#0
        0x00002654:    5ed3        .^      LDRSH    r3,[r2,r3]
        0x00002656:    4662        bF      MOV      r2,r12
        0x00002658:    1aaa        ..      SUBS     r2,r5,r2
        0x0000265a:    d501        ..      BPL      0x2660 ; gyro_offset + 110
        0x0000265c:    4662        bF      MOV      r2,r12
        0x0000265e:    1b52        R.      SUBS     r2,r2,r5
        0x00002660:    189b        ..      ADDS     r3,r3,r2
        0x00002662:    466a        jF      MOV      r2,sp
        0x00002664:    8013        ..      STRH     r3,[r2,#0]
        0x00002666:    2302        .#      MOVS     r3,#2
        0x00002668:    5ed3        .^      LDRSH    r3,[r2,r3]
        0x0000266a:    1a72        r.      SUBS     r2,r6,r1
        0x0000266c:    d500        ..      BPL      0x2670 ; gyro_offset + 126
        0x0000266e:    1b8a        ..      SUBS     r2,r1,r6
        0x00002670:    189a        ..      ADDS     r2,r3,r2
        0x00002672:    466d        mF      MOV      r5,sp
        0x00002674:    806a        j.      STRH     r2,[r5,#2]
        0x00002676:    2304        .#      MOVS     r3,#4
        0x00002678:    9a06        ..      LDR      r2,[sp,#0x18]
        0x0000267a:    5eeb        .^      LDRSH    r3,[r5,r3]
        0x0000267c:    1a12        ..      SUBS     r2,r2,r0
        0x0000267e:    d501        ..      BPL      0x2684 ; gyro_offset + 146
        0x00002680:    9a06        ..      LDR      r2,[sp,#0x18]
        0x00002682:    1a82        ..      SUBS     r2,r0,r2
        0x00002684:    189a        ..      ADDS     r2,r3,r2
        0x00002686:    80aa        ..      STRH     r2,[r5,#4]
        0x00002688:    4665        eF      MOV      r5,r12
        0x0000268a:    460e        .F      MOV      r6,r1
        0x0000268c:    9006        ..      STR      r0,[sp,#0x18]
        0x0000268e:    e02d        -.      B        0x26ec ; gyro_offset + 250
        0x00002690:    4669        iF      MOV      r1,sp
        0x00002692:    2000        .       MOVS     r0,#0
        0x00002694:    5e08        .^      LDRSH    r0,[r1,r0]
        0x00002696:    2864        d(      CMP      r0,#0x64
        0x00002698:    da07        ..      BGE      0x26aa ; gyro_offset + 184
        0x0000269a:    2002        .       MOVS     r0,#2
        0x0000269c:    5e08        .^      LDRSH    r0,[r1,r0]
        0x0000269e:    2864        d(      CMP      r0,#0x64
        0x000026a0:    da03        ..      BGE      0x26aa ; gyro_offset + 184
        0x000026a2:    2004        .       MOVS     r0,#4
        0x000026a4:    5e08        .^      LDRSH    r0,[r1,r0]
        0x000026a6:    2864        d(      CMP      r0,#0x64
        0x000026a8:    db0d        ..      BLT      0x26c6 ; gyro_offset + 212
        0x000026aa:    2400        .$      MOVS     r4,#0
        0x000026ac:    4620         F      MOV      r0,r4
        0x000026ae:    4621        !F      MOV      r1,r4
        0x000026b0:    0043        C.      LSLS     r3,r0,#1
        0x000026b2:    466a        jF      MOV      r2,sp
        0x000026b4:    52d1        .R      STRH     r1,[r2,r3]
        0x000026b6:    0083        ..      LSLS     r3,r0,#2
        0x000026b8:    1c40        @.      ADDS     r0,r0,#1
        0x000026ba:    aa02        ..      ADD      r2,sp,#8
        0x000026bc:    b2c0        ..      UXTB     r0,r0
        0x000026be:    50d1        .P      STR      r1,[r2,r3]
        0x000026c0:    2803        .(      CMP      r0,#3
        0x000026c2:    d3f5        ..      BCC      0x26b0 ; gyro_offset + 190
        0x000026c4:    e012        ..      B        0x26ec ; gyro_offset + 250
        0x000026c6:    9804        ..      LDR      r0,[sp,#0x10]
        0x000026c8:    f001ffb0    ....    BL       __aeabi_i2f ; 0x462c
        0x000026cc:    9007        ..      STR      r0,[sp,#0x1c]
        0x000026ce:    9803        ..      LDR      r0,[sp,#0xc]
        0x000026d0:    f001ffac    ....    BL       __aeabi_i2f ; 0x462c
        0x000026d4:    9008        ..      STR      r0,[sp,#0x20]
        0x000026d6:    9802        ..      LDR      r0,[sp,#8]
        0x000026d8:    f001ffa8    ....    BL       __aeabi_i2f ; 0x462c
        0x000026dc:    23c8        .#      MOVS     r3,#0xc8
        0x000026de:    9a07        ..      LDR      r2,[sp,#0x1c]
        0x000026e0:    9908        ..      LDR      r1,[sp,#0x20]
        0x000026e2:    f7ffff66    ..f.    BL       gyro_caloffest ; 0x25b2
        0x000026e6:    482c        ,H      LDR      r0,[pc,#176] ; [0x2798] = 0x2000008c
        0x000026e8:    2101        .!      MOVS     r1,#1
        0x000026ea:    7001        .p      STRB     r1,[r0,#0]
        0x000026ec:    1c64        d.      ADDS     r4,r4,#1
        0x000026ee:    b2e4        ..      UXTB     r4,r4
        0x000026f0:    4829        )H      LDR      r0,[pc,#164] ; [0x2798] = 0x2000008c
        0x000026f2:    7800        .x      LDRB     r0,[r0,#0]
        0x000026f4:    2800        .(      CMP      r0,#0
        0x000026f6:    d095        ..      BEQ      0x2624 ; gyro_offset + 50
        0x000026f8:    b009        ..      ADD      sp,sp,#0x24
        0x000026fa:    bdf0        ..      POP      {r4-r7,pc}
    accel_offset
        0x000026fc:    b5f8        ..      PUSH     {r3-r7,lr}
        0x000026fe:    2700        .'      MOVS     r7,#0
        0x00002700:    4822        "H      LDR      r0,[pc,#136] ; [0x278c] = 0x20000354
        0x00002702:    463e        >F      MOV      r6,r7
        0x00002704:    3834        48      SUBS     r0,r0,#0x34
        0x00002706:    8587        ..      STRH     r7,[r0,#0x2c]
        0x00002708:    85c7        ..      STRH     r7,[r0,#0x2e]
        0x0000270a:    463d        =F      MOV      r5,r7
        0x0000270c:    463c        <F      MOV      r4,r7
        0x0000270e:    8607        ..      STRH     r7,[r0,#0x30]
        0x00002710:    481e        .H      LDR      r0,[pc,#120] ; [0x278c] = 0x20000354
        0x00002712:    3834        48      SUBS     r0,r0,#0x34
        0x00002714:    f7fdff69    ..i.    BL       bmi160_read_raw ; 0x5ea
        0x00002718:    4922        "I      LDR      r1,[pc,#136] ; [0x27a4] = 0x2710
        0x0000271a:    4821        !H      LDR      r0,[pc,#132] ; [0x27a0] = 0x40010000
        0x0000271c:    f001f8a2    ....    BL       TIMER_Delay ; 0x3864
        0x00002720:    481a        .H      LDR      r0,[pc,#104] ; [0x278c] = 0x20000354
        0x00002722:    2106        .!      MOVS     r1,#6
        0x00002724:    3834        48      SUBS     r0,r0,#0x34
        0x00002726:    5e41        A^      LDRSH    r1,[r0,r1]
        0x00002728:    1c64        d.      ADDS     r4,r4,#1
        0x0000272a:    19cf        ..      ADDS     r7,r1,r7
        0x0000272c:    2108        .!      MOVS     r1,#8
        0x0000272e:    5e41        A^      LDRSH    r1,[r0,r1]
        0x00002730:    b2e4        ..      UXTB     r4,r4
        0x00002732:    198e        ..      ADDS     r6,r1,r6
        0x00002734:    210a        .!      MOVS     r1,#0xa
        0x00002736:    5e41        A^      LDRSH    r1,[r0,r1]
        0x00002738:    194d        M.      ADDS     r5,r1,r5
        0x0000273a:    2c32        2,      CMP      r4,#0x32
        0x0000273c:    d3e8        ..      BCC      0x2710 ; accel_offset + 20
        0x0000273e:    4621        !F      MOV      r1,r4
        0x00002740:    4638        8F      MOV      r0,r7
        0x00002742:    f001fcd1    ....    BL       __aeabi_idiv ; 0x40e8
        0x00002746:    4f11        .O      LDR      r7,[pc,#68] ; [0x278c] = 0x20000354
        0x00002748:    4621        !F      MOV      r1,r4
        0x0000274a:    3f34        4?      SUBS     r7,r7,#0x34
        0x0000274c:    85b8        ..      STRH     r0,[r7,#0x2c]
        0x0000274e:    4630        0F      MOV      r0,r6
        0x00002750:    f001fcca    ....    BL       __aeabi_idiv ; 0x40e8
        0x00002754:    85f8        ..      STRH     r0,[r7,#0x2e]
        0x00002756:    4621        !F      MOV      r1,r4
        0x00002758:    4628        (F      MOV      r0,r5
        0x0000275a:    f001fcc5    ....    BL       __aeabi_idiv ; 0x40e8
        0x0000275e:    2101        .!      MOVS     r1,#1
        0x00002760:    0349        I.      LSLS     r1,r1,#13
        0x00002762:    1a08        ..      SUBS     r0,r1,r0
        0x00002764:    8638        8.      STRH     r0,[r7,#0x30]
        0x00002766:    bdf8        ..      POP      {r3-r7,pc}
    get_inertial_vel
        0x00002768:    b510        ..      PUSH     {r4,lr}
        0x0000276a:    4908        .I      LDR      r1,[pc,#32] ; [0x278c] = 0x20000354
        0x0000276c:    2401        .$      MOVS     r4,#1
        0x0000276e:    314c        L1      ADDS     r1,r1,#0x4c
        0x00002770:    6a8a        .j      LDR      r2,[r1,#0x28]
        0x00002772:    6acb        .j      LDR      r3,[r1,#0x2c]
        0x00002774:    07e4        ..      LSLS     r4,r4,#31
        0x00002776:    6b09        .k      LDR      r1,[r1,#0x30]
        0x00002778:    4062        b@      EORS     r2,r2,r4
        0x0000277a:    4061        a@      EORS     r1,r1,r4
        0x0000277c:    6081        .`      STR      r1,[r0,#8]
        0x0000277e:    c00c        ..      STM      r0!,{r2,r3}
        0x00002780:    bd10        ..      POP      {r4,pc}
    $d
        0x00002782:    0000        ..      DCW    0
        0x00002784:    41f00000    ...A    DCD    1106247680
        0x00002788:    42c80000    ...B    DCD    1120403456
        0x0000278c:    20000354    T..     DCD    536871764
        0x00002790:    20000000    ...     DCD    536870912
        0x00002794:    20000004    ...     DCD    536870916
        0x00002798:    2000008c    ...     DCD    536871052
        0x0000279c:    0016e360    `...    DCD    1500000
        0x000027a0:    40010000    ...@    DCD    1073807360
        0x000027a4:    00002710    .'..    DCD    10000
    $t
    .text
    I2C_Init
        0x000027a8:    b510        ..      PUSH     {r4,lr}
        0x000027aa:    f000fead    ....    BL       I2C_Open ; 0x3508
        0x000027ae:    bd10        ..      POP      {r4,pc}
    I2C_WriteByte
        0x000027b0:    b5f7        ..      PUSH     {r0-r2,r4-r7,lr}
        0x000027b2:    4d95        .M      LDR      r5,[pc,#596] ; [0x2a08] = 0x40020000
        0x000027b4:    4617        .F      MOV      r7,r2
        0x000027b6:    263c        <&      MOVS     r6,#0x3c
        0x000027b8:    6828        (h      LDR      r0,[r5,#0]
        0x000027ba:    2400        .$      MOVS     r4,#0
        0x000027bc:    43b0        .C      BICS     r0,r0,r6
        0x000027be:    3028        (0      ADDS     r0,r0,#0x28
        0x000027c0:    6028        (`      STR      r0,[r5,#0]
        0x000027c2:    6828        (h      LDR      r0,[r5,#0]
        0x000027c4:    0700        ..      LSLS     r0,r0,#28
        0x000027c6:    d5fc        ..      BPL      0x27c2 ; I2C_WriteByte + 18
        0x000027c8:    9800        ..      LDR      r0,[sp,#0]
        0x000027ca:    60a8        .`      STR      r0,[r5,#8]
        0x000027cc:    6828        (h      LDR      r0,[r5,#0]
        0x000027ce:    43b0        .C      BICS     r0,r0,r6
        0x000027d0:    3008        .0      ADDS     r0,r0,#8
        0x000027d2:    6028        (`      STR      r0,[r5,#0]
        0x000027d4:    6828        (h      LDR      r0,[r5,#0]
        0x000027d6:    0700        ..      LSLS     r0,r0,#28
        0x000027d8:    d5fc        ..      BPL      0x27d4 ; I2C_WriteByte + 36
        0x000027da:    68e8        .h      LDR      r0,[r5,#0xc]
        0x000027dc:    2818        .(      CMP      r0,#0x18
        0x000027de:    d00f        ..      BEQ      0x2800 ; I2C_WriteByte + 80
        0x000027e0:    2401        .$      MOVS     r4,#1
        0x000027e2:    68ea        .h      LDR      r2,[r5,#0xc]
        0x000027e4:    4621        !F      MOV      r1,r4
        0x000027e6:    a089        ..      ADR      r0,{pc}+0x226 ; 0x2a0c
        0x000027e8:    f002f9a6    ....    BL       __0printf ; 0x4b38
        0x000027ec:    6828        (h      LDR      r0,[r5,#0]
        0x000027ee:    43b0        .C      BICS     r0,r0,r6
        0x000027f0:    3018        .0      ADDS     r0,r0,#0x18
        0x000027f2:    6028        (`      STR      r0,[r5,#0]
        0x000027f4:    2064        d       MOVS     r0,#0x64
        0x000027f6:    f000fe3b    ..;.    BL       CLK_SysTickDelay ; 0x3470
        0x000027fa:    2c00        .,      CMP      r4,#0
        0x000027fc:    d1dc        ..      BNE      0x27b8 ; I2C_WriteByte + 8
        0x000027fe:    bdfe        ..      POP      {r1-r7,pc}
        0x00002800:    9801        ..      LDR      r0,[sp,#4]
        0x00002802:    b2c0        ..      UXTB     r0,r0
        0x00002804:    60a8        .`      STR      r0,[r5,#8]
        0x00002806:    6828        (h      LDR      r0,[r5,#0]
        0x00002808:    43b0        .C      BICS     r0,r0,r6
        0x0000280a:    3008        .0      ADDS     r0,r0,#8
        0x0000280c:    6028        (`      STR      r0,[r5,#0]
        0x0000280e:    6828        (h      LDR      r0,[r5,#0]
        0x00002810:    0700        ..      LSLS     r0,r0,#28
        0x00002812:    d5fc        ..      BPL      0x280e ; I2C_WriteByte + 94
        0x00002814:    68e8        .h      LDR      r0,[r5,#0xc]
        0x00002816:    2828        ((      CMP      r0,#0x28
        0x00002818:    d001        ..      BEQ      0x281e ; I2C_WriteByte + 110
        0x0000281a:    2402        .$      MOVS     r4,#2
        0x0000281c:    e7e1        ..      B        0x27e2 ; I2C_WriteByte + 50
        0x0000281e:    60af        .`      STR      r7,[r5,#8]
        0x00002820:    6828        (h      LDR      r0,[r5,#0]
        0x00002822:    43b0        .C      BICS     r0,r0,r6
        0x00002824:    3008        .0      ADDS     r0,r0,#8
        0x00002826:    6028        (`      STR      r0,[r5,#0]
        0x00002828:    6828        (h      LDR      r0,[r5,#0]
        0x0000282a:    0700        ..      LSLS     r0,r0,#28
        0x0000282c:    d5fc        ..      BPL      0x2828 ; I2C_WriteByte + 120
        0x0000282e:    68e8        .h      LDR      r0,[r5,#0xc]
        0x00002830:    2828        ((      CMP      r0,#0x28
        0x00002832:    d001        ..      BEQ      0x2838 ; I2C_WriteByte + 136
        0x00002834:    2404        .$      MOVS     r4,#4
        0x00002836:    e7d4        ..      B        0x27e2 ; I2C_WriteByte + 50
        0x00002838:    6828        (h      LDR      r0,[r5,#0]
        0x0000283a:    43b0        .C      BICS     r0,r0,r6
        0x0000283c:    3018        .0      ADDS     r0,r0,#0x18
        0x0000283e:    6028        (`      STR      r0,[r5,#0]
        0x00002840:    2c00        .,      CMP      r4,#0
        0x00002842:    d1ce        ..      BNE      0x27e2 ; I2C_WriteByte + 50
        0x00002844:    bdfe        ..      POP      {r1-r7,pc}
    I2C_ReadByte
        0x00002846:    b5f3        ..      PUSH     {r0,r1,r4-r7,lr}
        0x00002848:    4607        .F      MOV      r7,r0
        0x0000284a:    2000        .       MOVS     r0,#0
        0x0000284c:    b081        ..      SUB      sp,sp,#4
        0x0000284e:    4d6e        nM      LDR      r5,[pc,#440] ; [0x2a08] = 0x40020000
        0x00002850:    263c        <&      MOVS     r6,#0x3c
        0x00002852:    9000        ..      STR      r0,[sp,#0]
        0x00002854:    2400        .$      MOVS     r4,#0
        0x00002856:    2164        d!      MOVS     r1,#0x64
        0x00002858:    4873        sH      LDR      r0,[pc,#460] ; [0x2a28] = 0x40010000
        0x0000285a:    f001f803    ....    BL       TIMER_Delay ; 0x3864
        0x0000285e:    6828        (h      LDR      r0,[r5,#0]
        0x00002860:    43b0        .C      BICS     r0,r0,r6
        0x00002862:    3028        (0      ADDS     r0,r0,#0x28
        0x00002864:    6028        (`      STR      r0,[r5,#0]
        0x00002866:    6828        (h      LDR      r0,[r5,#0]
        0x00002868:    0700        ..      LSLS     r0,r0,#28
        0x0000286a:    d5fc        ..      BPL      0x2866 ; I2C_ReadByte + 32
        0x0000286c:    60af        .`      STR      r7,[r5,#8]
        0x0000286e:    6828        (h      LDR      r0,[r5,#0]
        0x00002870:    43b0        .C      BICS     r0,r0,r6
        0x00002872:    3008        .0      ADDS     r0,r0,#8
        0x00002874:    6028        (`      STR      r0,[r5,#0]
        0x00002876:    6828        (h      LDR      r0,[r5,#0]
        0x00002878:    0700        ..      LSLS     r0,r0,#28
        0x0000287a:    d5fc        ..      BPL      0x2876 ; I2C_ReadByte + 48
        0x0000287c:    68e8        .h      LDR      r0,[r5,#0xc]
        0x0000287e:    2818        .(      CMP      r0,#0x18
        0x00002880:    d010        ..      BEQ      0x28a4 ; I2C_ReadByte + 94
        0x00002882:    2401        .$      MOVS     r4,#1
        0x00002884:    68ea        .h      LDR      r2,[r5,#0xc]
        0x00002886:    4621        !F      MOV      r1,r4
        0x00002888:    a060        `.      ADR      r0,{pc}+0x184 ; 0x2a0c
        0x0000288a:    f002f955    ..U.    BL       __0printf ; 0x4b38
        0x0000288e:    6828        (h      LDR      r0,[r5,#0]
        0x00002890:    43b0        .C      BICS     r0,r0,r6
        0x00002892:    3018        .0      ADDS     r0,r0,#0x18
        0x00002894:    6028        (`      STR      r0,[r5,#0]
        0x00002896:    200a        .       MOVS     r0,#0xa
        0x00002898:    f000fdea    ....    BL       CLK_SysTickDelay ; 0x3470
        0x0000289c:    2c00        .,      CMP      r4,#0
        0x0000289e:    d1d9        ..      BNE      0x2854 ; I2C_ReadByte + 14
        0x000028a0:    9800        ..      LDR      r0,[sp,#0]
        0x000028a2:    bdfe        ..      POP      {r1-r7,pc}
        0x000028a4:    9802        ..      LDR      r0,[sp,#8]
        0x000028a6:    b2c0        ..      UXTB     r0,r0
        0x000028a8:    60a8        .`      STR      r0,[r5,#8]
        0x000028aa:    6828        (h      LDR      r0,[r5,#0]
        0x000028ac:    43b0        .C      BICS     r0,r0,r6
        0x000028ae:    3008        .0      ADDS     r0,r0,#8
        0x000028b0:    6028        (`      STR      r0,[r5,#0]
        0x000028b2:    6828        (h      LDR      r0,[r5,#0]
        0x000028b4:    0700        ..      LSLS     r0,r0,#28
        0x000028b6:    d5fc        ..      BPL      0x28b2 ; I2C_ReadByte + 108
        0x000028b8:    68e8        .h      LDR      r0,[r5,#0xc]
        0x000028ba:    2828        ((      CMP      r0,#0x28
        0x000028bc:    d001        ..      BEQ      0x28c2 ; I2C_ReadByte + 124
        0x000028be:    2403        .$      MOVS     r4,#3
        0x000028c0:    e7e0        ..      B        0x2884 ; I2C_ReadByte + 62
        0x000028c2:    6828        (h      LDR      r0,[r5,#0]
        0x000028c4:    43b0        .C      BICS     r0,r0,r6
        0x000028c6:    3028        (0      ADDS     r0,r0,#0x28
        0x000028c8:    6028        (`      STR      r0,[r5,#0]
        0x000028ca:    6828        (h      LDR      r0,[r5,#0]
        0x000028cc:    0700        ..      LSLS     r0,r0,#28
        0x000028ce:    d5fc        ..      BPL      0x28ca ; I2C_ReadByte + 132
        0x000028d0:    68e8        .h      LDR      r0,[r5,#0xc]
        0x000028d2:    2810        .(      CMP      r0,#0x10
        0x000028d4:    d001        ..      BEQ      0x28da ; I2C_ReadByte + 148
        0x000028d6:    2404        .$      MOVS     r4,#4
        0x000028d8:    e7d4        ..      B        0x2884 ; I2C_ReadByte + 62
        0x000028da:    4638        8F      MOV      r0,r7
        0x000028dc:    2101        .!      MOVS     r1,#1
        0x000028de:    4308        .C      ORRS     r0,r0,r1
        0x000028e0:    60a8        .`      STR      r0,[r5,#8]
        0x000028e2:    6828        (h      LDR      r0,[r5,#0]
        0x000028e4:    43b0        .C      BICS     r0,r0,r6
        0x000028e6:    3008        .0      ADDS     r0,r0,#8
        0x000028e8:    6028        (`      STR      r0,[r5,#0]
        0x000028ea:    6828        (h      LDR      r0,[r5,#0]
        0x000028ec:    0700        ..      LSLS     r0,r0,#28
        0x000028ee:    d5fc        ..      BPL      0x28ea ; I2C_ReadByte + 164
        0x000028f0:    68e8        .h      LDR      r0,[r5,#0xc]
        0x000028f2:    2840        @(      CMP      r0,#0x40
        0x000028f4:    d001        ..      BEQ      0x28fa ; I2C_ReadByte + 180
        0x000028f6:    2405        .$      MOVS     r4,#5
        0x000028f8:    e7c4        ..      B        0x2884 ; I2C_ReadByte + 62
        0x000028fa:    6828        (h      LDR      r0,[r5,#0]
        0x000028fc:    43b0        .C      BICS     r0,r0,r6
        0x000028fe:    3008        .0      ADDS     r0,r0,#8
        0x00002900:    6028        (`      STR      r0,[r5,#0]
        0x00002902:    6828        (h      LDR      r0,[r5,#0]
        0x00002904:    0700        ..      LSLS     r0,r0,#28
        0x00002906:    d5fc        ..      BPL      0x2902 ; I2C_ReadByte + 188
        0x00002908:    68a8        .h      LDR      r0,[r5,#8]
        0x0000290a:    b2c0        ..      UXTB     r0,r0
        0x0000290c:    9000        ..      STR      r0,[sp,#0]
        0x0000290e:    68e8        .h      LDR      r0,[r5,#0xc]
        0x00002910:    2858        X(      CMP      r0,#0x58
        0x00002912:    d001        ..      BEQ      0x2918 ; I2C_ReadByte + 210
        0x00002914:    2406        .$      MOVS     r4,#6
        0x00002916:    e7b5        ..      B        0x2884 ; I2C_ReadByte + 62
        0x00002918:    6828        (h      LDR      r0,[r5,#0]
        0x0000291a:    43b0        .C      BICS     r0,r0,r6
        0x0000291c:    3018        .0      ADDS     r0,r0,#0x18
        0x0000291e:    6028        (`      STR      r0,[r5,#0]
        0x00002920:    2c00        .,      CMP      r4,#0
        0x00002922:    d1af        ..      BNE      0x2884 ; I2C_ReadByte + 62
        0x00002924:    e7bc        ..      B        0x28a0 ; I2C_ReadByte + 90
    I2C_SequentialRead
        0x00002926:    b5ff        ..      PUSH     {r0-r7,lr}
        0x00002928:    4f37        7O      LDR      r7,[pc,#220] ; [0x2a08] = 0x40020000
        0x0000292a:    b081        ..      SUB      sp,sp,#4
        0x0000292c:    4616        .F      MOV      r6,r2
        0x0000292e:    253c        <%      MOVS     r5,#0x3c
        0x00002930:    6838        8h      LDR      r0,[r7,#0]
        0x00002932:    2400        .$      MOVS     r4,#0
        0x00002934:    43a8        .C      BICS     r0,r0,r5
        0x00002936:    3028        (0      ADDS     r0,r0,#0x28
        0x00002938:    6038        8`      STR      r0,[r7,#0]
        0x0000293a:    6838        8h      LDR      r0,[r7,#0]
        0x0000293c:    0700        ..      LSLS     r0,r0,#28
        0x0000293e:    d5fc        ..      BPL      0x293a ; I2C_SequentialRead + 20
        0x00002940:    9801        ..      LDR      r0,[sp,#4]
        0x00002942:    60b8        .`      STR      r0,[r7,#8]
        0x00002944:    6838        8h      LDR      r0,[r7,#0]
        0x00002946:    43a8        .C      BICS     r0,r0,r5
        0x00002948:    3008        .0      ADDS     r0,r0,#8
        0x0000294a:    6038        8`      STR      r0,[r7,#0]
        0x0000294c:    6838        8h      LDR      r0,[r7,#0]
        0x0000294e:    0700        ..      LSLS     r0,r0,#28
        0x00002950:    d5fc        ..      BPL      0x294c ; I2C_SequentialRead + 38
        0x00002952:    68f8        .h      LDR      r0,[r7,#0xc]
        0x00002954:    2818        .(      CMP      r0,#0x18
        0x00002956:    d00c        ..      BEQ      0x2972 ; I2C_SequentialRead + 76
        0x00002958:    2401        .$      MOVS     r4,#1
        0x0000295a:    6838        8h      LDR      r0,[r7,#0]
        0x0000295c:    43a8        .C      BICS     r0,r0,r5
        0x0000295e:    3018        .0      ADDS     r0,r0,#0x18
        0x00002960:    6038        8`      STR      r0,[r7,#0]
        0x00002962:    2064        d       MOVS     r0,#0x64
        0x00002964:    f000fd84    ....    BL       CLK_SysTickDelay ; 0x3470
        0x00002968:    2c00        .,      CMP      r4,#0
        0x0000296a:    d1e1        ..      BNE      0x2930 ; I2C_SequentialRead + 10
        0x0000296c:    9804        ..      LDR      r0,[sp,#0x10]
        0x0000296e:    b005        ..      ADD      sp,sp,#0x14
        0x00002970:    bdf0        ..      POP      {r4-r7,pc}
        0x00002972:    9802        ..      LDR      r0,[sp,#8]
        0x00002974:    b2c0        ..      UXTB     r0,r0
        0x00002976:    60b8        .`      STR      r0,[r7,#8]
        0x00002978:    6838        8h      LDR      r0,[r7,#0]
        0x0000297a:    43a8        .C      BICS     r0,r0,r5
        0x0000297c:    3008        .0      ADDS     r0,r0,#8
        0x0000297e:    6038        8`      STR      r0,[r7,#0]
        0x00002980:    6838        8h      LDR      r0,[r7,#0]
        0x00002982:    0700        ..      LSLS     r0,r0,#28
        0x00002984:    d5fc        ..      BPL      0x2980 ; I2C_SequentialRead + 90
        0x00002986:    68f8        .h      LDR      r0,[r7,#0xc]
        0x00002988:    2828        ((      CMP      r0,#0x28
        0x0000298a:    d001        ..      BEQ      0x2990 ; I2C_SequentialRead + 106
        0x0000298c:    2403        .$      MOVS     r4,#3
        0x0000298e:    e7e4        ..      B        0x295a ; I2C_SequentialRead + 52
        0x00002990:    6838        8h      LDR      r0,[r7,#0]
        0x00002992:    43a8        .C      BICS     r0,r0,r5
        0x00002994:    3028        (0      ADDS     r0,r0,#0x28
        0x00002996:    6038        8`      STR      r0,[r7,#0]
        0x00002998:    6838        8h      LDR      r0,[r7,#0]
        0x0000299a:    0700        ..      LSLS     r0,r0,#28
        0x0000299c:    d5fc        ..      BPL      0x2998 ; I2C_SequentialRead + 114
        0x0000299e:    68f8        .h      LDR      r0,[r7,#0xc]
        0x000029a0:    2810        .(      CMP      r0,#0x10
        0x000029a2:    d001        ..      BEQ      0x29a8 ; I2C_SequentialRead + 130
        0x000029a4:    2404        .$      MOVS     r4,#4
        0x000029a6:    e7d8        ..      B        0x295a ; I2C_SequentialRead + 52
        0x000029a8:    9801        ..      LDR      r0,[sp,#4]
        0x000029aa:    2101        .!      MOVS     r1,#1
        0x000029ac:    4308        .C      ORRS     r0,r0,r1
        0x000029ae:    60b8        .`      STR      r0,[r7,#8]
        0x000029b0:    6838        8h      LDR      r0,[r7,#0]
        0x000029b2:    43a8        .C      BICS     r0,r0,r5
        0x000029b4:    3008        .0      ADDS     r0,r0,#8
        0x000029b6:    6038        8`      STR      r0,[r7,#0]
        0x000029b8:    6838        8h      LDR      r0,[r7,#0]
        0x000029ba:    0700        ..      LSLS     r0,r0,#28
        0x000029bc:    d5fc        ..      BPL      0x29b8 ; I2C_SequentialRead + 146
        0x000029be:    68f8        .h      LDR      r0,[r7,#0xc]
        0x000029c0:    2840        @(      CMP      r0,#0x40
        0x000029c2:    d001        ..      BEQ      0x29c8 ; I2C_SequentialRead + 162
        0x000029c4:    2405        .$      MOVS     r4,#5
        0x000029c6:    e7c8        ..      B        0x295a ; I2C_SequentialRead + 52
        0x000029c8:    9a04        ..      LDR      r2,[sp,#0x10]
        0x000029ca:    2000        .       MOVS     r0,#0
        0x000029cc:    1e52        R.      SUBS     r2,r2,#1
        0x000029ce:    e008        ..      B        0x29e2 ; I2C_SequentialRead + 188
        0x000029d0:    43a9        .C      BICS     r1,r1,r5
        0x000029d2:    310c        .1      ADDS     r1,r1,#0xc
        0x000029d4:    6039        9`      STR      r1,[r7,#0]
        0x000029d6:    6839        9h      LDR      r1,[r7,#0]
        0x000029d8:    0709        ..      LSLS     r1,r1,#28
        0x000029da:    d5fc        ..      BPL      0x29d6 ; I2C_SequentialRead + 176
        0x000029dc:    68b9        .h      LDR      r1,[r7,#8]
        0x000029de:    5431        1T      STRB     r1,[r6,r0]
        0x000029e0:    1c40        @.      ADDS     r0,r0,#1
        0x000029e2:    6839        9h      LDR      r1,[r7,#0]
        0x000029e4:    4290        .B      CMP      r0,r2
        0x000029e6:    d3f3        ..      BCC      0x29d0 ; I2C_SequentialRead + 170
        0x000029e8:    43a9        .C      BICS     r1,r1,r5
        0x000029ea:    3108        .1      ADDS     r1,r1,#8
        0x000029ec:    6039        9`      STR      r1,[r7,#0]
        0x000029ee:    6839        9h      LDR      r1,[r7,#0]
        0x000029f0:    0709        ..      LSLS     r1,r1,#28
        0x000029f2:    d5fc        ..      BPL      0x29ee ; I2C_SequentialRead + 200
        0x000029f4:    68b9        .h      LDR      r1,[r7,#8]
        0x000029f6:    5431        1T      STRB     r1,[r6,r0]
        0x000029f8:    6838        8h      LDR      r0,[r7,#0]
        0x000029fa:    43a8        .C      BICS     r0,r0,r5
        0x000029fc:    3018        .0      ADDS     r0,r0,#0x18
        0x000029fe:    6038        8`      STR      r0,[r7,#0]
        0x00002a00:    2c00        .,      CMP      r4,#0
        0x00002a02:    d1aa        ..      BNE      0x295a ; I2C_SequentialRead + 52
        0x00002a04:    e7b2        ..      B        0x296c ; I2C_SequentialRead + 70
    $d
        0x00002a06:    0000        ..      DCW    0
        0x00002a08:    40020000    ...@    DCD    1073872896
        0x00002a0c:    6f727245    Erro    DCD    1869771333
        0x00002a10:    25203a72    r: %    DCD    622869106
        0x00002a14:    20aca364    d..     DCD    548184932
        0x00002a18:    20433249    I2C     DCD    541274697
        0x00002a1c:    74617473    stat    DCD    1952543859
        0x00002a20:    203a7375    us:     DCD    540701557
        0x00002a24:    000a5825    %X..    DCD    677925
        0x00002a28:    40010000    ...@    DCD    1073807360
    $t
    .text
    uart_console_init
        0x00002a2c:    b510        ..      PUSH     {r4,lr}
        0x00002a2e:    4604        .F      MOV      r4,r0
        0x00002a30:    f000ff78    ..x.    BL       UART_Open ; 0x3924
        0x00002a34:    6860        `h      LDR      r0,[r4,#4]
        0x00002a36:    2111        .!      MOVS     r1,#0x11
        0x00002a38:    4308        .C      ORRS     r0,r0,r1
        0x00002a3a:    6060        ``      STR      r0,[r4,#4]
        0x00002a3c:    49fb        .I      LDR      r1,[pc,#1004] ; [0x2e2c] = 0x40050000
        0x00002a3e:    48fc        .H      LDR      r0,[pc,#1008] ; [0x2e30] = 0xe000e100
        0x00002a40:    428c        .B      CMP      r4,r1
        0x00002a42:    d102        ..      BNE      0x2a4a ; uart_console_init + 30
        0x00002a44:    2101        .!      MOVS     r1,#1
        0x00002a46:    0309        ..      LSLS     r1,r1,#12
        0x00002a48:    e001        ..      B        0x2a4e ; uart_console_init + 34
        0x00002a4a:    2101        .!      MOVS     r1,#1
        0x00002a4c:    0349        I.      LSLS     r1,r1,#13
        0x00002a4e:    6001        .`      STR      r1,[r0,#0]
        0x00002a50:    bd10        ..      POP      {r4,pc}
    get_float
        0x00002a52:    b5f8        ..      PUSH     {r3-r7,lr}
        0x00002a54:    2500        .%      MOVS     r5,#0
        0x00002a56:    4604        .F      MOV      r4,r0
        0x00002a58:    4ef6        .N      LDR      r6,[pc,#984] ; [0x2e34] = 0x3dcccccd
        0x00002a5a:    9500        ..      STR      r5,[sp,#0]
        0x00002a5c:    e02e        ..      B        0x2abc ; get_float + 106
        0x00002a5e:    282e        .(      CMP      r0,#0x2e
        0x00002a60:    d104        ..      BNE      0x2a6c ; get_float + 26
        0x00002a62:    2001        .       MOVS     r0,#1
        0x00002a64:    1c64        d.      ADDS     r4,r4,#1
        0x00002a66:    b2a4        ..      UXTH     r4,r4
        0x00002a68:    9000        ..      STR      r0,[sp,#0]
        0x00002a6a:    5d08        .]      LDRB     r0,[r1,r4]
        0x00002a6c:    3830        08      SUBS     r0,r0,#0x30
        0x00002a6e:    b2c7        ..      UXTB     r7,r0
        0x00002a70:    9800        ..      LDR      r0,[sp,#0]
        0x00002a72:    2800        .(      CMP      r0,#0
        0x00002a74:    d014        ..      BEQ      0x2aa0 ; get_float + 78
        0x00002a76:    4638        8F      MOV      r0,r7
        0x00002a78:    f001fde3    ....    BL       __aeabi_ui2f ; 0x4642
        0x00002a7c:    4631        1F      MOV      r1,r6
        0x00002a7e:    f001fbbc    ....    BL       __aeabi_fmul ; 0x41fa
        0x00002a82:    4629        )F      MOV      r1,r5
        0x00002a84:    f001fb60    ..`.    BL       __aeabi_fadd ; 0x4148
        0x00002a88:    4605        .F      MOV      r5,r0
        0x00002a8a:    4630        0F      MOV      r0,r6
        0x00002a8c:    f001fe21    ..!.    BL       __aeabi_f2d ; 0x46d2
        0x00002a90:    4ae9        .J      LDR      r2,[pc,#932] ; [0x2e38] = 0x9999999a
        0x00002a92:    4bea        .K      LDR      r3,[pc,#936] ; [0x2e3c] = 0x3fb99999
        0x00002a94:    f001fcea    ....    BL       __aeabi_dmul ; 0x446c
        0x00002a98:    f001fe44    ..D.    BL       __aeabi_d2f ; 0x4724
        0x00002a9c:    4606        .F      MOV      r6,r0
        0x00002a9e:    e00b        ..      B        0x2ab8 ; get_float + 102
        0x00002aa0:    49e7        .I      LDR      r1,[pc,#924] ; [0x2e40] = 0x41200000
        0x00002aa2:    4628        (F      MOV      r0,r5
        0x00002aa4:    f001fba9    ....    BL       __aeabi_fmul ; 0x41fa
        0x00002aa8:    4605        .F      MOV      r5,r0
        0x00002aaa:    4638        8F      MOV      r0,r7
        0x00002aac:    f001fdc9    ....    BL       __aeabi_ui2f ; 0x4642
        0x00002ab0:    4629        )F      MOV      r1,r5
        0x00002ab2:    f001fb49    ..I.    BL       __aeabi_fadd ; 0x4148
        0x00002ab6:    4605        .F      MOV      r5,r0
        0x00002ab8:    1c64        d.      ADDS     r4,r4,#1
        0x00002aba:    b2a4        ..      UXTH     r4,r4
        0x00002abc:    49e1        .I      LDR      r1,[pc,#900] ; [0x2e44] = 0x20000448
        0x00002abe:    5d08        .]      LDRB     r0,[r1,r4]
        0x00002ac0:    4602        .F      MOV      r2,r0
        0x00002ac2:    3a30        0:      SUBS     r2,r2,#0x30
        0x00002ac4:    2a09        .*      CMP      r2,#9
        0x00002ac6:    d9ca        ..      BLS      0x2a5e ; get_float + 12
        0x00002ac8:    282e        .(      CMP      r0,#0x2e
        0x00002aca:    d0c8        ..      BEQ      0x2a5e ; get_float + 12
        0x00002acc:    4628        (F      MOV      r0,r5
        0x00002ace:    bdf8        ..      POP      {r3-r7,pc}
    console_input_handle
        0x00002ad0:    b5f8        ..      PUSH     {r3-r7,lr}
        0x00002ad2:    4cdc        .L      LDR      r4,[pc,#880] ; [0x2e44] = 0x20000448
        0x00002ad4:    7820         x      LDRB     r0,[r4,#0]
        0x00002ad6:    7861        ax      LDRB     r1,[r4,#1]
        0x00002ad8:    0400        ..      LSLS     r0,r0,#16
        0x00002ada:    0209        ..      LSLS     r1,r1,#8
        0x00002adc:    4308        .C      ORRS     r0,r0,r1
        0x00002ade:    78a1        .x      LDRB     r1,[r4,#2]
        0x00002ae0:    4308        .C      ORRS     r0,r0,r1
        0x00002ae2:    49d9        .I      LDR      r1,[pc,#868] ; [0x2e48] = 0x736574
        0x00002ae4:    4288        .B      CMP      r0,r1
        0x00002ae6:    d112        ..      BNE      0x2b0e ; console_input_handle + 62
        0x00002ae8:    1d20         .      ADDS     r0,r4,#4
        0x00002aea:    f001fb23    ..#.    BL       __aeabi_uread4 ; 0x4134
        0x00002aee:    ba00        ..      REV      r0,r0
        0x00002af0:    4621        !F      MOV      r1,r4
        0x00002af2:    0a00        ..      LSRS     r0,r0,#8
        0x00002af4:    79c9        .y      LDRB     r1,[r1,#7]
        0x00002af6:    0200        ..      LSLS     r0,r0,#8
        0x00002af8:    4308        .C      ORRS     r0,r0,r1
        0x00002afa:    4ad4        .J      LDR      r2,[pc,#848] ; [0x2e4c] = 0x61687273
        0x00002afc:    4621        !F      MOV      r1,r4
        0x00002afe:    7a49        Iz      LDRB     r1,[r1,#9]
        0x00002b00:    4290        .B      CMP      r0,r2
        0x00002b02:    d121        !.      BNE      0x2b48 ; console_input_handle + 120
        0x00002b04:    200b        .       MOVS     r0,#0xb
        0x00002b06:    2970        p)      CMP      r1,#0x70
        0x00002b08:    d002        ..      BEQ      0x2b10 ; console_input_handle + 64
        0x00002b0a:    2969        i)      CMP      r1,#0x69
        0x00002b0c:    d00e        ..      BEQ      0x2b2c ; console_input_handle + 92
        0x00002b0e:    e341        A.      B        0x3194 ; console_input_handle + 1732
        0x00002b10:    f7ffff9f    ....    BL       get_float ; 0x2a52
        0x00002b14:    4604        .F      MOV      r4,r0
        0x00002b16:    f001fddc    ....    BL       __aeabi_f2d ; 0x46d2
        0x00002b1a:    4602        .F      MOV      r2,r0
        0x00002b1c:    460b        .F      MOV      r3,r1
        0x00002b1e:    a0cc        ..      ADR      r0,{pc}+0x332 ; 0x2e50
        0x00002b20:    f002f80a    ....    BL       __0printf ; 0x4b38
        0x00002b24:    4620         F      MOV      r0,r4
        0x00002b26:    f7fffc45    ..E.    BL       AHRS_set_complementary_filter_kp ; 0x23b4
        0x00002b2a:    e343        C.      B        0x31b4 ; console_input_handle + 1764
        0x00002b2c:    f7ffff91    ....    BL       get_float ; 0x2a52
        0x00002b30:    4604        .F      MOV      r4,r0
        0x00002b32:    f001fdce    ....    BL       __aeabi_f2d ; 0x46d2
        0x00002b36:    4602        .F      MOV      r2,r0
        0x00002b38:    460b        .F      MOV      r3,r1
        0x00002b3a:    a0ce        ..      ADR      r0,{pc}+0x33a ; 0x2e74
        0x00002b3c:    f001fffc    ....    BL       __0printf ; 0x4b38
        0x00002b40:    4620         F      MOV      r0,r4
        0x00002b42:    f7fffc5f    .._.    BL       AHRS_set_complementary_filter_ki ; 0x2404
        0x00002b46:    e335        5.      B        0x31b4 ; console_input_handle + 1764
        0x00002b48:    49be        .I      LDR      r1,[pc,#760] ; [0x2e44] = 0x20000448
        0x00002b4a:    4bd3        .K      LDR      r3,[pc,#844] ; [0x2e98] = 0xff9e9199
        0x00002b4c:    7a08        .z      LDRB     r0,[r1,#8]
        0x00002b4e:    7a4a        Jz      LDRB     r2,[r1,#9]
        0x00002b50:    0400        ..      LSLS     r0,r0,#16
        0x00002b52:    0212        ..      LSLS     r2,r2,#8
        0x00002b54:    4310        .C      ORRS     r0,r0,r2
        0x00002b56:    7a8a        .z      LDRB     r2,[r1,#0xa]
        0x00002b58:    7927        'y      LDRB     r7,[r4,#4]
        0x00002b5a:    4310        .C      ORRS     r0,r0,r2
        0x00002b5c:    18c0        ..      ADDS     r0,r0,r3
        0x00002b5e:    7b0a        .{      LDRB     r2,[r1,#0xc]
        0x00002b60:    7b4b        K{      LDRB     r3,[r1,#0xd]
        0x00002b62:    794d        My      LDRB     r5,[r1,#5]
        0x00002b64:    798c        .y      LDRB     r4,[r1,#6]
        0x00002b66:    0412        ..      LSLS     r2,r2,#16
        0x00002b68:    021b        ..      LSLS     r3,r3,#8
        0x00002b6a:    7b89        .{      LDRB     r1,[r1,#0xe]
        0x00002b6c:    431a        .C      ORRS     r2,r2,r3
        0x00002b6e:    430a        .C      ORRS     r2,r2,r1
        0x00002b70:    49cb        .I      LDR      r1,[pc,#812] ; [0x2ea0] = 0xff8f8b98
        0x00002b72:    4eca        .N      LDR      r6,[pc,#808] ; [0x2e9c] = 0xffef0cf3
        0x00002b74:    1852        R.      ADDS     r2,r2,r1
        0x00002b76:    49cb        .I      LDR      r1,[pc,#812] ; [0x2ea4] = 0xfffe07fc
        0x00002b78:    4bcb        .K      LDR      r3,[pc,#812] ; [0x2ea8] = 0xfff90af5
        0x00002b7a:    1851        Q.      ADDS     r1,r2,r1
        0x00002b7c:    1986        ..      ADDS     r6,r0,r6
        0x00002b7e:    18cb        ..      ADDS     r3,r1,r3
        0x00002b80:    2f70        p/      CMP      r7,#0x70
        0x00002b82:    d004        ..      BEQ      0x2b8e ; console_input_handle + 190
        0x00002b84:    2f61        a/      CMP      r7,#0x61
        0x00002b86:    d06e        n.      BEQ      0x2c66 ; console_input_handle + 406
        0x00002b88:    2f74        t/      CMP      r7,#0x74
        0x00002b8a:    d06d        m.      BEQ      0x2c68 ; console_input_handle + 408
        0x00002b8c:    e302        ..      B        0x3194 ; console_input_handle + 1732
        0x00002b8e:    2d69        i-      CMP      r5,#0x69
        0x00002b90:    d1bd        ..      BNE      0x2b0e ; console_input_handle + 62
        0x00002b92:    2c64        d,      CMP      r4,#0x64
        0x00002b94:    d1bb        ..      BNE      0x2b0e ; console_input_handle + 62
        0x00002b96:    4cab        .L      LDR      r4,[pc,#684] ; [0x2e44] = 0x20000448
        0x00002b98:    2712        .'      MOVS     r7,#0x12
        0x00002b9a:    7c25        %|      LDRB     r5,[r4,#0x10]
        0x00002b9c:    2800        .(      CMP      r0,#0
        0x00002b9e:    d002        ..      BEQ      0x2ba6 ; console_input_handle + 214
        0x00002ba0:    2e00        ..      CMP      r6,#0
        0x00002ba2:    d1b4        ..      BNE      0x2b0e ; console_input_handle + 62
        0x00002ba4:    e0b5        ..      B        0x2d12 ; console_input_handle + 578
        0x00002ba6:    4cc1        .L      LDR      r4,[pc,#772] ; [0x2eac] = 0x200001bc
        0x00002ba8:    2a00        .*      CMP      r2,#0
        0x00002baa:    d046        F.      BEQ      0x2c3a ; console_input_handle + 362
        0x00002bac:    2900        .)      CMP      r1,#0
        0x00002bae:    d002        ..      BEQ      0x2bb6 ; console_input_handle + 230
        0x00002bb0:    2b00        .+      CMP      r3,#0
        0x00002bb2:    d1ac        ..      BNE      0x2b0e ; console_input_handle + 62
        0x00002bb4:    e077        w.      B        0x2ca6 ; console_input_handle + 470
        0x00002bb6:    4ebd        .N      LDR      r6,[pc,#756] ; [0x2eac] = 0x200001bc
        0x00002bb8:    3e30        0>      SUBS     r6,r6,#0x30
        0x00002bba:    2d70        p-      CMP      r5,#0x70
        0x00002bbc:    d004        ..      BEQ      0x2bc8 ; console_input_handle + 248
        0x00002bbe:    2d69        i-      CMP      r5,#0x69
        0x00002bc0:    d015        ..      BEQ      0x2bee ; console_input_handle + 286
        0x00002bc2:    2d64        d-      CMP      r5,#0x64
        0x00002bc4:    d026        &.      BEQ      0x2c14 ; console_input_handle + 324
        0x00002bc6:    e2e5        ..      B        0x3194 ; console_input_handle + 1732
        0x00002bc8:    4638        8F      MOV      r0,r7
        0x00002bca:    f7ffff42    ..B.    BL       get_float ; 0x2a52
        0x00002bce:    4605        .F      MOV      r5,r0
        0x00002bd0:    4601        .F      MOV      r1,r0
        0x00002bd2:    4630        0F      MOV      r0,r6
        0x00002bd4:    f7fefbe9    ....    BL       set_pid_param_p ; 0x13aa
        0x00002bd8:    4629        )F      MOV      r1,r5
        0x00002bda:    4620         F      MOV      r0,r4
        0x00002bdc:    f7fefbe5    ....    BL       set_pid_param_p ; 0x13aa
        0x00002be0:    4628        (F      MOV      r0,r5
        0x00002be2:    f001fd76    ..v.    BL       __aeabi_f2d ; 0x46d2
        0x00002be6:    4602        .F      MOV      r2,r0
        0x00002be8:    460b        .F      MOV      r3,r1
        0x00002bea:    a0b1        ..      ADR      r0,{pc}+0x2c6 ; 0x2eb0
        0x00002bec:    e2e0        ..      B        0x31b0 ; console_input_handle + 1760
        0x00002bee:    4638        8F      MOV      r0,r7
        0x00002bf0:    f7ffff2f    ../.    BL       get_float ; 0x2a52
        0x00002bf4:    4605        .F      MOV      r5,r0
        0x00002bf6:    4601        .F      MOV      r1,r0
        0x00002bf8:    4630        0F      MOV      r0,r6
        0x00002bfa:    f7fefbd8    ....    BL       set_pid_param_i ; 0x13ae
        0x00002bfe:    4629        )F      MOV      r1,r5
        0x00002c00:    4620         F      MOV      r0,r4
        0x00002c02:    f7fefbd4    ....    BL       set_pid_param_i ; 0x13ae
        0x00002c06:    4628        (F      MOV      r0,r5
        0x00002c08:    f001fd63    ..c.    BL       __aeabi_f2d ; 0x46d2
        0x00002c0c:    4602        .F      MOV      r2,r0
        0x00002c0e:    460b        .F      MOV      r3,r1
        0x00002c10:    a0af        ..      ADR      r0,{pc}+0x2c0 ; 0x2ed0
        0x00002c12:    e2cd        ..      B        0x31b0 ; console_input_handle + 1760
        0x00002c14:    4638        8F      MOV      r0,r7
        0x00002c16:    f7ffff1c    ....    BL       get_float ; 0x2a52
        0x00002c1a:    4605        .F      MOV      r5,r0
        0x00002c1c:    4601        .F      MOV      r1,r0
        0x00002c1e:    4630        0F      MOV      r0,r6
        0x00002c20:    f7fefbc9    ....    BL       set_pid_param_d ; 0x13b6
        0x00002c24:    4629        )F      MOV      r1,r5
        0x00002c26:    4620         F      MOV      r0,r4
        0x00002c28:    f7fefbc5    ....    BL       set_pid_param_d ; 0x13b6
        0x00002c2c:    4628        (F      MOV      r0,r5
        0x00002c2e:    f001fd50    ..P.    BL       __aeabi_f2d ; 0x46d2
        0x00002c32:    4602        .F      MOV      r2,r0
        0x00002c34:    460b        .F      MOV      r3,r1
        0x00002c36:    a0ae        ..      ADR      r0,{pc}+0x2ba ; 0x2ef0
        0x00002c38:    e2ba        ..      B        0x31b0 ; console_input_handle + 1760
        0x00002c3a:    2d70        p-      CMP      r5,#0x70
        0x00002c3c:    d004        ..      BEQ      0x2c48 ; console_input_handle + 376
        0x00002c3e:    2d69        i-      CMP      r5,#0x69
        0x00002c40:    d013        ..      BEQ      0x2c6a ; console_input_handle + 410
        0x00002c42:    2d64        d-      CMP      r5,#0x64
        0x00002c44:    d020         .      BEQ      0x2c88 ; console_input_handle + 440
        0x00002c46:    e2a5        ..      B        0x3194 ; console_input_handle + 1732
        0x00002c48:    4638        8F      MOV      r0,r7
        0x00002c4a:    f7ffff02    ....    BL       get_float ; 0x2a52
        0x00002c4e:    4605        .F      MOV      r5,r0
        0x00002c50:    4601        .F      MOV      r1,r0
        0x00002c52:    4620         F      MOV      r0,r4
        0x00002c54:    f7fefba9    ....    BL       set_pid_param_p ; 0x13aa
        0x00002c58:    4628        (F      MOV      r0,r5
        0x00002c5a:    f001fd3a    ..:.    BL       __aeabi_f2d ; 0x46d2
        0x00002c5e:    4602        .F      MOV      r2,r0
        0x00002c60:    460b        .F      MOV      r3,r1
        0x00002c62:    a0ab        ..      ADR      r0,{pc}+0x2ae ; 0x2f10
        0x00002c64:    e2a4        ..      B        0x31b0 ; console_input_handle + 1760
        0x00002c66:    e240        @.      B        0x30ea ; console_input_handle + 1562
        0x00002c68:    e290        ..      B        0x318c ; console_input_handle + 1724
        0x00002c6a:    4638        8F      MOV      r0,r7
        0x00002c6c:    f7fffef1    ....    BL       get_float ; 0x2a52
        0x00002c70:    4605        .F      MOV      r5,r0
        0x00002c72:    4601        .F      MOV      r1,r0
        0x00002c74:    4620         F      MOV      r0,r4
        0x00002c76:    f7fefb9a    ....    BL       set_pid_param_i ; 0x13ae
        0x00002c7a:    4628        (F      MOV      r0,r5
        0x00002c7c:    f001fd29    ..).    BL       __aeabi_f2d ; 0x46d2
        0x00002c80:    4602        .F      MOV      r2,r0
        0x00002c82:    460b        .F      MOV      r3,r1
        0x00002c84:    a0aa        ..      ADR      r0,{pc}+0x2ac ; 0x2f30
        0x00002c86:    e293        ..      B        0x31b0 ; console_input_handle + 1760
        0x00002c88:    4638        8F      MOV      r0,r7
        0x00002c8a:    f7fffee2    ....    BL       get_float ; 0x2a52
        0x00002c8e:    4605        .F      MOV      r5,r0
        0x00002c90:    4601        .F      MOV      r1,r0
        0x00002c92:    4620         F      MOV      r0,r4
        0x00002c94:    f7fefb8f    ....    BL       set_pid_param_d ; 0x13b6
        0x00002c98:    4628        (F      MOV      r0,r5
        0x00002c9a:    f001fd1a    ....    BL       __aeabi_f2d ; 0x46d2
        0x00002c9e:    4602        .F      MOV      r2,r0
        0x00002ca0:    460b        .F      MOV      r3,r1
        0x00002ca2:    a0ab        ..      ADR      r0,{pc}+0x2ae ; 0x2f50
        0x00002ca4:    e284        ..      B        0x31b0 ; console_input_handle + 1760
        0x00002ca6:    4c81        .L      LDR      r4,[pc,#516] ; [0x2eac] = 0x200001bc
        0x00002ca8:    3430        04      ADDS     r4,r4,#0x30
        0x00002caa:    2d70        p-      CMP      r5,#0x70
        0x00002cac:    d004        ..      BEQ      0x2cb8 ; console_input_handle + 488
        0x00002cae:    2d69        i-      CMP      r5,#0x69
        0x00002cb0:    d011        ..      BEQ      0x2cd6 ; console_input_handle + 518
        0x00002cb2:    2d64        d-      CMP      r5,#0x64
        0x00002cb4:    d01e        ..      BEQ      0x2cf4 ; console_input_handle + 548
        0x00002cb6:    e26d        m.      B        0x3194 ; console_input_handle + 1732
        0x00002cb8:    4638        8F      MOV      r0,r7
        0x00002cba:    f7fffeca    ....    BL       get_float ; 0x2a52
        0x00002cbe:    4605        .F      MOV      r5,r0
        0x00002cc0:    4601        .F      MOV      r1,r0
        0x00002cc2:    4620         F      MOV      r0,r4
        0x00002cc4:    f7fefb71    ..q.    BL       set_pid_param_p ; 0x13aa
        0x00002cc8:    4628        (F      MOV      r0,r5
        0x00002cca:    f001fd02    ....    BL       __aeabi_f2d ; 0x46d2
        0x00002cce:    4602        .F      MOV      r2,r0
        0x00002cd0:    460b        .F      MOV      r3,r1
        0x00002cd2:    a0a7        ..      ADR      r0,{pc}+0x29e ; 0x2f70
        0x00002cd4:    e26c        l.      B        0x31b0 ; console_input_handle + 1760
        0x00002cd6:    4638        8F      MOV      r0,r7
        0x00002cd8:    f7fffebb    ....    BL       get_float ; 0x2a52
        0x00002cdc:    4605        .F      MOV      r5,r0
        0x00002cde:    4601        .F      MOV      r1,r0
        0x00002ce0:    4620         F      MOV      r0,r4
        0x00002ce2:    f7fefb64    ..d.    BL       set_pid_param_i ; 0x13ae
        0x00002ce6:    4628        (F      MOV      r0,r5
        0x00002ce8:    f001fcf3    ....    BL       __aeabi_f2d ; 0x46d2
        0x00002cec:    4602        .F      MOV      r2,r0
        0x00002cee:    460b        .F      MOV      r3,r1
        0x00002cf0:    a0a7        ..      ADR      r0,{pc}+0x2a0 ; 0x2f90
        0x00002cf2:    e25d        ].      B        0x31b0 ; console_input_handle + 1760
        0x00002cf4:    4638        8F      MOV      r0,r7
        0x00002cf6:    f7fffeac    ....    BL       get_float ; 0x2a52
        0x00002cfa:    4605        .F      MOV      r5,r0
        0x00002cfc:    4601        .F      MOV      r1,r0
        0x00002cfe:    4620         F      MOV      r0,r4
        0x00002d00:    f7fefb59    ..Y.    BL       set_pid_param_d ; 0x13b6
        0x00002d04:    4628        (F      MOV      r0,r5
        0x00002d06:    f001fce4    ....    BL       __aeabi_f2d ; 0x46d2
        0x00002d0a:    4602        .F      MOV      r2,r0
        0x00002d0c:    460b        .F      MOV      r3,r1
        0x00002d0e:    a0a8        ..      ADR      r0,{pc}+0x2a2 ; 0x2fb0
        0x00002d10:    e24e        N.      B        0x31b0 ; console_input_handle + 1760
        0x00002d12:    4c66        fL      LDR      r4,[pc,#408] ; [0x2eac] = 0x200001bc
        0x00002d14:    3c90        .<      SUBS     r4,r4,#0x90
        0x00002d16:    2a00        .*      CMP      r2,#0
        0x00002d18:    d047        G.      BEQ      0x2daa ; console_input_handle + 730
        0x00002d1a:    2900        .)      CMP      r1,#0
        0x00002d1c:    d002        ..      BEQ      0x2d24 ; console_input_handle + 596
        0x00002d1e:    2b00        .+      CMP      r3,#0
        0x00002d20:    d191        ..      BNE      0x2c46 ; console_input_handle + 374
        0x00002d22:    e076        v.      B        0x2e12 ; console_input_handle + 834
        0x00002d24:    2d70        p-      CMP      r5,#0x70
        0x00002d26:    d004        ..      BEQ      0x2d32 ; console_input_handle + 610
        0x00002d28:    2d69        i-      CMP      r5,#0x69
        0x00002d2a:    d016        ..      BEQ      0x2d5a ; console_input_handle + 650
        0x00002d2c:    2d64        d-      CMP      r5,#0x64
        0x00002d2e:    d028        (.      BEQ      0x2d82 ; console_input_handle + 690
        0x00002d30:    e230        0.      B        0x3194 ; console_input_handle + 1732
        0x00002d32:    4638        8F      MOV      r0,r7
        0x00002d34:    f7fffe8d    ....    BL       get_float ; 0x2a52
        0x00002d38:    4605        .F      MOV      r5,r0
        0x00002d3a:    4601        .F      MOV      r1,r0
        0x00002d3c:    485b        [H      LDR      r0,[pc,#364] ; [0x2eac] = 0x200001bc
        0x00002d3e:    38c0        .8      SUBS     r0,r0,#0xc0
        0x00002d40:    f7fefb33    ..3.    BL       set_pid_param_p ; 0x13aa
        0x00002d44:    4629        )F      MOV      r1,r5
        0x00002d46:    4620         F      MOV      r0,r4
        0x00002d48:    f7fefb2f    ../.    BL       set_pid_param_p ; 0x13aa
        0x00002d4c:    4628        (F      MOV      r0,r5
        0x00002d4e:    f001fcc0    ....    BL       __aeabi_f2d ; 0x46d2
        0x00002d52:    4602        .F      MOV      r2,r0
        0x00002d54:    460b        .F      MOV      r3,r1
        0x00002d56:    a09e        ..      ADR      r0,{pc}+0x27a ; 0x2fd0
        0x00002d58:    e22a        *.      B        0x31b0 ; console_input_handle + 1760
        0x00002d5a:    4638        8F      MOV      r0,r7
        0x00002d5c:    f7fffe79    ..y.    BL       get_float ; 0x2a52
        0x00002d60:    4605        .F      MOV      r5,r0
        0x00002d62:    4601        .F      MOV      r1,r0
        0x00002d64:    4851        QH      LDR      r0,[pc,#324] ; [0x2eac] = 0x200001bc
        0x00002d66:    38c0        .8      SUBS     r0,r0,#0xc0
        0x00002d68:    f7fefb21    ..!.    BL       set_pid_param_i ; 0x13ae
        0x00002d6c:    4629        )F      MOV      r1,r5
        0x00002d6e:    4620         F      MOV      r0,r4
        0x00002d70:    f7fefb1d    ....    BL       set_pid_param_i ; 0x13ae
        0x00002d74:    4628        (F      MOV      r0,r5
        0x00002d76:    f001fcac    ....    BL       __aeabi_f2d ; 0x46d2
        0x00002d7a:    4602        .F      MOV      r2,r0
        0x00002d7c:    460b        .F      MOV      r3,r1
        0x00002d7e:    a09c        ..      ADR      r0,{pc}+0x272 ; 0x2ff0
        0x00002d80:    e216        ..      B        0x31b0 ; console_input_handle + 1760
        0x00002d82:    4638        8F      MOV      r0,r7
        0x00002d84:    f7fffe65    ..e.    BL       get_float ; 0x2a52
        0x00002d88:    4605        .F      MOV      r5,r0
        0x00002d8a:    4601        .F      MOV      r1,r0
        0x00002d8c:    4847        GH      LDR      r0,[pc,#284] ; [0x2eac] = 0x200001bc
        0x00002d8e:    38c0        .8      SUBS     r0,r0,#0xc0
        0x00002d90:    f7fefb11    ....    BL       set_pid_param_d ; 0x13b6
        0x00002d94:    4629        )F      MOV      r1,r5
        0x00002d96:    4620         F      MOV      r0,r4
        0x00002d98:    f7fefb0d    ....    BL       set_pid_param_d ; 0x13b6
        0x00002d9c:    4628        (F      MOV      r0,r5
        0x00002d9e:    f001fc98    ....    BL       __aeabi_f2d ; 0x46d2
        0x00002da2:    4602        .F      MOV      r2,r0
        0x00002da4:    460b        .F      MOV      r3,r1
        0x00002da6:    a09a        ..      ADR      r0,{pc}+0x26a ; 0x3010
        0x00002da8:    e202        ..      B        0x31b0 ; console_input_handle + 1760
        0x00002daa:    2d70        p-      CMP      r5,#0x70
        0x00002dac:    d004        ..      BEQ      0x2db8 ; console_input_handle + 744
        0x00002dae:    2d69        i-      CMP      r5,#0x69
        0x00002db0:    d011        ..      BEQ      0x2dd6 ; console_input_handle + 774
        0x00002db2:    2d64        d-      CMP      r5,#0x64
        0x00002db4:    d01e        ..      BEQ      0x2df4 ; console_input_handle + 804
        0x00002db6:    e1ed        ..      B        0x3194 ; console_input_handle + 1732
        0x00002db8:    4638        8F      MOV      r0,r7
        0x00002dba:    f7fffe4a    ..J.    BL       get_float ; 0x2a52
        0x00002dbe:    4605        .F      MOV      r5,r0
        0x00002dc0:    4601        .F      MOV      r1,r0
        0x00002dc2:    4620         F      MOV      r0,r4
        0x00002dc4:    f7fefaf1    ....    BL       set_pid_param_p ; 0x13aa
        0x00002dc8:    4628        (F      MOV      r0,r5
        0x00002dca:    f001fc82    ....    BL       __aeabi_f2d ; 0x46d2
        0x00002dce:    4602        .F      MOV      r2,r0
        0x00002dd0:    460b        .F      MOV      r3,r1
        0x00002dd2:    a097        ..      ADR      r0,{pc}+0x25e ; 0x3030
        0x00002dd4:    e1ec        ..      B        0x31b0 ; console_input_handle + 1760
        0x00002dd6:    4638        8F      MOV      r0,r7
        0x00002dd8:    f7fffe3b    ..;.    BL       get_float ; 0x2a52
        0x00002ddc:    4605        .F      MOV      r5,r0
        0x00002dde:    4601        .F      MOV      r1,r0
        0x00002de0:    4620         F      MOV      r0,r4
        0x00002de2:    f7fefae4    ....    BL       set_pid_param_i ; 0x13ae
        0x00002de6:    4628        (F      MOV      r0,r5
        0x00002de8:    f001fc73    ..s.    BL       __aeabi_f2d ; 0x46d2
        0x00002dec:    4602        .F      MOV      r2,r0
        0x00002dee:    460b        .F      MOV      r3,r1
        0x00002df0:    a097        ..      ADR      r0,{pc}+0x260 ; 0x3050
        0x00002df2:    e1dd        ..      B        0x31b0 ; console_input_handle + 1760
        0x00002df4:    4638        8F      MOV      r0,r7
        0x00002df6:    f7fffe2c    ..,.    BL       get_float ; 0x2a52
        0x00002dfa:    4605        .F      MOV      r5,r0
        0x00002dfc:    4601        .F      MOV      r1,r0
        0x00002dfe:    4620         F      MOV      r0,r4
        0x00002e00:    f7fefad9    ....    BL       set_pid_param_d ; 0x13b6
        0x00002e04:    4628        (F      MOV      r0,r5
        0x00002e06:    f001fc64    ..d.    BL       __aeabi_f2d ; 0x46d2
        0x00002e0a:    4602        .F      MOV      r2,r0
        0x00002e0c:    460b        .F      MOV      r3,r1
        0x00002e0e:    a098        ..      ADR      r0,{pc}+0x262 ; 0x3070
        0x00002e10:    e1ce        ..      B        0x31b0 ; console_input_handle + 1760
        0x00002e12:    4c26        &L      LDR      r4,[pc,#152] ; [0x2eac] = 0x200001bc
        0x00002e14:    3c60        `<      SUBS     r4,r4,#0x60
        0x00002e16:    2d70        p-      CMP      r5,#0x70
        0x00002e18:    d004        ..      BEQ      0x2e24 ; console_input_handle + 852
        0x00002e1a:    2d69        i-      CMP      r5,#0x69
        0x00002e1c:    d003        ..      BEQ      0x2e26 ; console_input_handle + 854
        0x00002e1e:    2d64        d-      CMP      r5,#0x64
        0x00002e20:    d002        ..      BEQ      0x2e28 ; console_input_handle + 856
        0x00002e22:    e1b7        ..      B        0x3194 ; console_input_handle + 1732
        0x00002e24:    e134        4.      B        0x3090 ; console_input_handle + 1472
        0x00002e26:    e142        B.      B        0x30ae ; console_input_handle + 1502
        0x00002e28:    e150        P.      B        0x30cc ; console_input_handle + 1532
    $d
        0x00002e2a:    0000        ..      DCW    0
        0x00002e2c:    40050000    ...@    DCD    1074069504
        0x00002e30:    e000e100    ....    DCD    3758153984
        0x00002e34:    3dcccccd    ...=    DCD    1036831949
        0x00002e38:    9999999a    ....    DCD    2576980378
        0x00002e3c:    3fb99999    ...?    DCD    1069128089
        0x00002e40:    41200000    .. A    DCD    1092616192
        0x00002e44:    20000448    H..     DCD    536872008
        0x00002e48:    00736574    tes.    DCD    7562612
        0x00002e4c:    61687273    srha    DCD    1634234995
        0x00002e50:    20746573    set     DCD    544499059
        0x00002e54:    73726861    ahrs    DCD    1936877665
        0x00002e58:    63757320     suc    DCD    1668641568
        0x00002e5c:    73736563    cess    DCD    1936942435
        0x00002e60:    20200a2e    ..      DCD    538970670
        0x00002e64:    20202020            DCD    538976288
        0x00002e68:    706b2020      kp    DCD    1886068768
        0x00002e6c:    2e25203a    : %.    DCD    774185018
        0x00002e70:    000a6636    6f..    DCD    681526
        0x00002e74:    20746573    set     DCD    544499059
        0x00002e78:    73726861    ahrs    DCD    1936877665
        0x00002e7c:    63757320     suc    DCD    1668641568
        0x00002e80:    73736563    cess    DCD    1936942435
        0x00002e84:    20200a2e    ..      DCD    538970670
        0x00002e88:    20202020            DCD    538976288
        0x00002e8c:    696b2020      ki    DCD    1768628256
        0x00002e90:    2e25203a    : %.    DCD    774185018
        0x00002e94:    000a6636    6f..    DCD    681526
        0x00002e98:    ff9e9199    ....    DCD    4288582041
        0x00002e9c:    ffef0cf3    ....    DCD    4293856499
        0x00002ea0:    ff8f8b98    ....    DCD    4287597464
        0x00002ea4:    fffe07fc    ....    DCD    4294838268
        0x00002ea8:    fff90af5    ....    DCD    4294511349
        0x00002eac:    200001bc    ...     DCD    536871356
        0x00002eb0:    20746573    set     DCD    544499059
        0x00002eb4:    676c6e61    anlg    DCD    1735159393
        0x00002eb8:    6f6c2065    e lo    DCD    1869357157
        0x00002ebc:    7220706f    op r    DCD    1914728559
        0x00002ec0:    206c6c6f    oll     DCD    543976559
        0x00002ec4:    203a706b    kp:     DCD    540700779
        0x00002ec8:    66362e25    %.6f    DCD    1714826789
        0x00002ecc:    0000000a    ....    DCD    10
        0x00002ed0:    20746573    set     DCD    544499059
        0x00002ed4:    676c6e61    anlg    DCD    1735159393
        0x00002ed8:    6f6c2065    e lo    DCD    1869357157
        0x00002edc:    7220706f    op r    DCD    1914728559
        0x00002ee0:    206c6c6f    oll     DCD    543976559
        0x00002ee4:    203a696b    ki:     DCD    540698987
        0x00002ee8:    66362e25    %.6f    DCD    1714826789
        0x00002eec:    0000000a    ....    DCD    10
        0x00002ef0:    20746573    set     DCD    544499059
        0x00002ef4:    676c6e61    anlg    DCD    1735159393
        0x00002ef8:    6f6c2065    e lo    DCD    1869357157
        0x00002efc:    7220706f    op r    DCD    1914728559
        0x00002f00:    206c6c6f    oll     DCD    543976559
        0x00002f04:    203a646b    kd:     DCD    540697707
        0x00002f08:    66362e25    %.6f    DCD    1714826789
        0x00002f0c:    0000000a    ....    DCD    10
        0x00002f10:    20746573    set     DCD    544499059
        0x00002f14:    676c6e61    anlg    DCD    1735159393
        0x00002f18:    6f6c2065    e lo    DCD    1869357157
        0x00002f1c:    7020706f    op p    DCD    1881174127
        0x00002f20:    68637469    itch    DCD    1751348329
        0x00002f24:    3a706b20     kp:    DCD    980445984
        0x00002f28:    362e2520     %.6    DCD    908993824
        0x00002f2c:    00000a66    f...    DCD    2662
        0x00002f30:    20746573    set     DCD    544499059
        0x00002f34:    676c6e61    anlg    DCD    1735159393
        0x00002f38:    6f6c2065    e lo    DCD    1869357157
        0x00002f3c:    7020706f    op p    DCD    1881174127
        0x00002f40:    68637469    itch    DCD    1751348329
        0x00002f44:    3a696b20     ki:    DCD    979987232
        0x00002f48:    362e2520     %.6    DCD    908993824
        0x00002f4c:    00000a66    f...    DCD    2662
        0x00002f50:    20746573    set     DCD    544499059
        0x00002f54:    676c6e61    anlg    DCD    1735159393
        0x00002f58:    6f6c2065    e lo    DCD    1869357157
        0x00002f5c:    7020706f    op p    DCD    1881174127
        0x00002f60:    68637469    itch    DCD    1751348329
        0x00002f64:    3a646b20     kd:    DCD    979659552
        0x00002f68:    362e2520     %.6    DCD    908993824
        0x00002f6c:    00000a66    f...    DCD    2662
        0x00002f70:    20746573    set     DCD    544499059
        0x00002f74:    676c6e61    anlg    DCD    1735159393
        0x00002f78:    6f6c2065    e lo    DCD    1869357157
        0x00002f7c:    7920706f    op y    DCD    2032169071
        0x00002f80:    6b207761    aw k    DCD    1797289825
        0x00002f84:    25203a70    p: %    DCD    622869104
        0x00002f88:    0a66362e    .6f.    DCD    174470702
        0x00002f8c:    00000000    ....    DCD    0
        0x00002f90:    20746573    set     DCD    544499059
        0x00002f94:    676c6e61    anlg    DCD    1735159393
        0x00002f98:    6f6c2065    e lo    DCD    1869357157
        0x00002f9c:    7920706f    op y    DCD    2032169071
        0x00002fa0:    6b207761    aw k    DCD    1797289825
        0x00002fa4:    25203a69    i: %    DCD    622869097
        0x00002fa8:    0a66362e    .6f.    DCD    174470702
        0x00002fac:    00000000    ....    DCD    0
        0x00002fb0:    20746573    set     DCD    544499059
        0x00002fb4:    676c6e61    anlg    DCD    1735159393
        0x00002fb8:    6f6c2065    e lo    DCD    1869357157
        0x00002fbc:    7920706f    op y    DCD    2032169071
        0x00002fc0:    6b207761    aw k    DCD    1797289825
        0x00002fc4:    25203a64    d: %    DCD    622869092
        0x00002fc8:    0a66362e    .6f.    DCD    174470702
        0x00002fcc:    00000000    ....    DCD    0
        0x00002fd0:    20746573    set     DCD    544499059
        0x00002fd4:    65746172    rate    DCD    1702125938
        0x00002fd8:    6f6f6c20     loo    DCD    1869573152
        0x00002fdc:    6f722070    p ro    DCD    1869750384
        0x00002fe0:    6b206c6c    ll k    DCD    1797287020
        0x00002fe4:    25203a70    p: %    DCD    622869104
        0x00002fe8:    0a66362e    .6f.    DCD    174470702
        0x00002fec:    00000000    ....    DCD    0
        0x00002ff0:    20746573    set     DCD    544499059
        0x00002ff4:    65746172    rate    DCD    1702125938
        0x00002ff8:    6f6f6c20     loo    DCD    1869573152
        0x00002ffc:    6f722070    p ro    DCD    1869750384
        0x00003000:    6b206c6c    ll k    DCD    1797287020
        0x00003004:    25203a69    i: %    DCD    622869097
        0x00003008:    0a66362e    .6f.    DCD    174470702
        0x0000300c:    00000000    ....    DCD    0
        0x00003010:    20746573    set     DCD    544499059
        0x00003014:    65746172    rate    DCD    1702125938
        0x00003018:    6f6f6c20     loo    DCD    1869573152
        0x0000301c:    6f722070    p ro    DCD    1869750384
        0x00003020:    6b206c6c    ll k    DCD    1797287020
        0x00003024:    25203a64    d: %    DCD    622869092
        0x00003028:    0a66362e    .6f.    DCD    174470702
        0x0000302c:    00000000    ....    DCD    0
        0x00003030:    20746573    set     DCD    544499059
        0x00003034:    65746172    rate    DCD    1702125938
        0x00003038:    6f6f6c20     loo    DCD    1869573152
        0x0000303c:    69702070    p pi    DCD    1768956016
        0x00003040:    20686374    tch     DCD    543712116
        0x00003044:    203a706b    kp:     DCD    540700779
        0x00003048:    66362e25    %.6f    DCD    1714826789
        0x0000304c:    0000000a    ....    DCD    10
        0x00003050:    20746573    set     DCD    544499059
        0x00003054:    65746172    rate    DCD    1702125938
        0x00003058:    6f6f6c20     loo    DCD    1869573152
        0x0000305c:    69702070    p pi    DCD    1768956016
        0x00003060:    20686374    tch     DCD    543712116
        0x00003064:    203a696b    ki:     DCD    540698987
        0x00003068:    66362e25    %.6f    DCD    1714826789
        0x0000306c:    0000000a    ....    DCD    10
        0x00003070:    20746573    set     DCD    544499059
        0x00003074:    65746172    rate    DCD    1702125938
        0x00003078:    6f6f6c20     loo    DCD    1869573152
        0x0000307c:    69702070    p pi    DCD    1768956016
        0x00003080:    20686374    tch     DCD    543712116
        0x00003084:    203a646b    kd:     DCD    540697707
        0x00003088:    66362e25    %.6f    DCD    1714826789
        0x0000308c:    0000000a    ....    DCD    10
    $t
        0x00003090:    4638        8F      MOV      r0,r7
        0x00003092:    f7fffcde    ....    BL       get_float ; 0x2a52
        0x00003096:    4605        .F      MOV      r5,r0
        0x00003098:    4601        .F      MOV      r1,r0
        0x0000309a:    4620         F      MOV      r0,r4
        0x0000309c:    f7fef985    ....    BL       set_pid_param_p ; 0x13aa
        0x000030a0:    4628        (F      MOV      r0,r5
        0x000030a2:    f001fb16    ....    BL       __aeabi_f2d ; 0x46d2
        0x000030a6:    4602        .F      MOV      r2,r0
        0x000030a8:    460b        .F      MOV      r3,r1
        0x000030aa:    a067        g.      ADR      r0,{pc}+0x19e ; 0x3248
        0x000030ac:    e080        ..      B        0x31b0 ; console_input_handle + 1760
        0x000030ae:    4638        8F      MOV      r0,r7
        0x000030b0:    f7fffccf    ....    BL       get_float ; 0x2a52
        0x000030b4:    4605        .F      MOV      r5,r0
        0x000030b6:    4601        .F      MOV      r1,r0
        0x000030b8:    4620         F      MOV      r0,r4
        0x000030ba:    f7fef978    ..x.    BL       set_pid_param_i ; 0x13ae
        0x000030be:    4628        (F      MOV      r0,r5
        0x000030c0:    f001fb07    ....    BL       __aeabi_f2d ; 0x46d2
        0x000030c4:    4602        .F      MOV      r2,r0
        0x000030c6:    460b        .F      MOV      r3,r1
        0x000030c8:    a066        f.      ADR      r0,{pc}+0x19c ; 0x3264
        0x000030ca:    e071        q.      B        0x31b0 ; console_input_handle + 1760
        0x000030cc:    4638        8F      MOV      r0,r7
        0x000030ce:    f7fffcc0    ....    BL       get_float ; 0x2a52
        0x000030d2:    4605        .F      MOV      r5,r0
        0x000030d4:    4601        .F      MOV      r1,r0
        0x000030d6:    4620         F      MOV      r0,r4
        0x000030d8:    f7fef96d    ..m.    BL       set_pid_param_d ; 0x13b6
        0x000030dc:    4628        (F      MOV      r0,r5
        0x000030de:    f001faf8    ....    BL       __aeabi_f2d ; 0x46d2
        0x000030e2:    4602        .F      MOV      r2,r0
        0x000030e4:    460b        .F      MOV      r3,r1
        0x000030e6:    a066        f.      ADR      r0,{pc}+0x19a ; 0x3280
        0x000030e8:    e062        b.      B        0x31b0 ; console_input_handle + 1760
        0x000030ea:    2d74        t-      CMP      r5,#0x74
        0x000030ec:    d152        R.      BNE      0x3194 ; console_input_handle + 1732
        0x000030ee:    2c74        t,      CMP      r4,#0x74
        0x000030f0:    d150        P.      BNE      0x3194 ; console_input_handle + 1732
        0x000030f2:    2800        .(      CMP      r0,#0
        0x000030f4:    d002        ..      BEQ      0x30fc ; console_input_handle + 1580
        0x000030f6:    2e00        ..      CMP      r6,#0
        0x000030f8:    d14c        L.      BNE      0x3194 ; console_input_handle + 1732
        0x000030fa:    e023        #.      B        0x3144 ; console_input_handle + 1652
        0x000030fc:    2010        .       MOVS     r0,#0x10
        0x000030fe:    4c67        gL      LDR      r4,[pc,#412] ; [0x329c] = 0x200002b8
        0x00003100:    2a00        .*      CMP      r2,#0
        0x00003102:    d00d        ..      BEQ      0x3120 ; console_input_handle + 1616
        0x00003104:    2900        .)      CMP      r1,#0
        0x00003106:    d002        ..      BEQ      0x310e ; console_input_handle + 1598
        0x00003108:    2b00        .+      CMP      r3,#0
        0x0000310a:    d143        C.      BNE      0x3194 ; console_input_handle + 1732
        0x0000310c:    e011        ..      B        0x3132 ; console_input_handle + 1634
        0x0000310e:    f7fffca0    ....    BL       get_float ; 0x2a52
        0x00003112:    6020         `      STR      r0,[r4,#0]
        0x00003114:    f001fadd    ....    BL       __aeabi_f2d ; 0x46d2
        0x00003118:    4602        .F      MOV      r2,r0
        0x0000311a:    460b        .F      MOV      r3,r1
        0x0000311c:    a060        `.      ADR      r0,{pc}+0x184 ; 0x32a0
        0x0000311e:    e047        G.      B        0x31b0 ; console_input_handle + 1760
        0x00003120:    f7fffc97    ....    BL       get_float ; 0x2a52
        0x00003124:    6060        ``      STR      r0,[r4,#4]
        0x00003126:    f001fad4    ....    BL       __aeabi_f2d ; 0x46d2
        0x0000312a:    4602        .F      MOV      r2,r0
        0x0000312c:    460b        .F      MOV      r3,r1
        0x0000312e:    a062        b.      ADR      r0,{pc}+0x18a ; 0x32b8
        0x00003130:    e03e        >.      B        0x31b0 ; console_input_handle + 1760
        0x00003132:    f7fffc8e    ....    BL       get_float ; 0x2a52
        0x00003136:    60a0        .`      STR      r0,[r4,#8]
        0x00003138:    f001facb    ....    BL       __aeabi_f2d ; 0x46d2
        0x0000313c:    4602        .F      MOV      r2,r0
        0x0000313e:    460b        .F      MOV      r3,r1
        0x00003140:    a063        c.      ADR      r0,{pc}+0x190 ; 0x32d0
        0x00003142:    e035        5.      B        0x31b0 ; console_input_handle + 1760
        0x00003144:    2010        .       MOVS     r0,#0x10
        0x00003146:    4c68        hL      LDR      r4,[pc,#416] ; [0x32e8] = 0x200002c4
        0x00003148:    2a00        .*      CMP      r2,#0
        0x0000314a:    d00d        ..      BEQ      0x3168 ; console_input_handle + 1688
        0x0000314c:    2900        .)      CMP      r1,#0
        0x0000314e:    d002        ..      BEQ      0x3156 ; console_input_handle + 1670
        0x00003150:    2b00        .+      CMP      r3,#0
        0x00003152:    d11f        ..      BNE      0x3194 ; console_input_handle + 1732
        0x00003154:    e011        ..      B        0x317a ; console_input_handle + 1706
        0x00003156:    f7fffc7c    ..|.    BL       get_float ; 0x2a52
        0x0000315a:    6020         `      STR      r0,[r4,#0]
        0x0000315c:    f001fab9    ....    BL       __aeabi_f2d ; 0x46d2
        0x00003160:    4602        .F      MOV      r2,r0
        0x00003162:    460b        .F      MOV      r3,r1
        0x00003164:    a061        a.      ADR      r0,{pc}+0x188 ; 0x32ec
        0x00003166:    e023        #.      B        0x31b0 ; console_input_handle + 1760
        0x00003168:    f7fffc73    ..s.    BL       get_float ; 0x2a52
        0x0000316c:    6060        ``      STR      r0,[r4,#4]
        0x0000316e:    f001fab0    ....    BL       __aeabi_f2d ; 0x46d2
        0x00003172:    4602        .F      MOV      r2,r0
        0x00003174:    460b        .F      MOV      r3,r1
        0x00003176:    a063        c.      ADR      r0,{pc}+0x18e ; 0x3304
        0x00003178:    e01a        ..      B        0x31b0 ; console_input_handle + 1760
        0x0000317a:    f7fffc6a    ..j.    BL       get_float ; 0x2a52
        0x0000317e:    60a0        .`      STR      r0,[r4,#8]
        0x00003180:    f001faa7    ....    BL       __aeabi_f2d ; 0x46d2
        0x00003184:    4602        .F      MOV      r2,r0
        0x00003186:    460b        .F      MOV      r3,r1
        0x00003188:    a064        d.      ADR      r0,{pc}+0x194 ; 0x331c
        0x0000318a:    e011        ..      B        0x31b0 ; console_input_handle + 1760
        0x0000318c:    2d68        h-      CMP      r5,#0x68
        0x0000318e:    d101        ..      BNE      0x3194 ; console_input_handle + 1732
        0x00003190:    2c72        r,      CMP      r4,#0x72
        0x00003192:    d001        ..      BEQ      0x3198 ; console_input_handle + 1736
        0x00003194:    2000        .       MOVS     r0,#0
        0x00003196:    bdf8        ..      POP      {r3-r7,pc}
        0x00003198:    2008        .       MOVS     r0,#8
        0x0000319a:    f7fffc5a    ..Z.    BL       get_float ; 0x2a52
        0x0000319e:    4604        .F      MOV      r4,r0
        0x000031a0:    f7fefcef    ....    BL       set_trace_throttle ; 0x1b82
        0x000031a4:    4620         F      MOV      r0,r4
        0x000031a6:    f001fa94    ....    BL       __aeabi_f2d ; 0x46d2
        0x000031aa:    4602        .F      MOV      r2,r0
        0x000031ac:    460b        .F      MOV      r3,r1
        0x000031ae:    a061        a.      ADR      r0,{pc}+0x186 ; 0x3334
        0x000031b0:    f001fcc2    ....    BL       __0printf ; 0x4b38
        0x000031b4:    2001        .       MOVS     r0,#1
        0x000031b6:    bdf8        ..      POP      {r3-r7,pc}
    UART0_IRQHandler
        0x000031b8:    b5f8        ..      PUSH     {r3-r7,lr}
        0x000031ba:    20ff        .       MOVS     r0,#0xff
        0x000031bc:    4669        iF      MOV      r1,sp
        0x000031be:    4f64        dO      LDR      r7,[pc,#400] ; [0x3350] = 0x40050000
        0x000031c0:    7008        .p      STRB     r0,[r1,#0]
        0x000031c2:    69f8        .i      LDR      r0,[r7,#0x1c]
        0x000031c4:    2601        .&      MOVS     r6,#1
        0x000031c6:    05c0        ..      LSLS     r0,r0,#23
        0x000031c8:    2500        .%      MOVS     r5,#0
        0x000031ca:    4c62        bL      LDR      r4,[pc,#392] ; [0x3354] = 0x2000008e
        0x000031cc:    2800        .(      CMP      r0,#0
        0x000031ce:    db23        #.      BLT      0x3218 ; UART0_IRQHandler + 96
        0x000031d0:    e026        &.      B        0x3220 ; UART0_IRQHandler + 104
        0x000031d2:    2201        ."      MOVS     r2,#1
        0x000031d4:    4669        iF      MOV      r1,sp
        0x000031d6:    f000fbba    ....    BL       UART_Read ; 0x394e
        0x000031da:    2800        .(      CMP      r0,#0
        0x000031dc:    d01c        ..      BEQ      0x3218 ; UART0_IRQHandler + 96
        0x000031de:    7860        `x      LDRB     r0,[r4,#1]
        0x000031e0:    2800        .(      CMP      r0,#0
        0x000031e2:    4668        hF      MOV      r0,sp
        0x000031e4:    d009        ..      BEQ      0x31fa ; UART0_IRQHandler + 66
        0x000031e6:    7801        .x      LDRB     r1,[r0,#0]
        0x000031e8:    2923        #)      CMP      r1,#0x23
        0x000031ea:    d100        ..      BNE      0x31ee ; UART0_IRQHandler + 54
        0x000031ec:    7026        &p      STRB     r6,[r4,#0]
        0x000031ee:    4a5a        ZJ      LDR      r2,[pc,#360] ; [0x3358] = 0x20000448
        0x000031f0:    8860        `.      LDRH     r0,[r4,#2]
        0x000031f2:    5411        .T      STRB     r1,[r2,r0]
        0x000031f4:    1c40        @.      ADDS     r0,r0,#1
        0x000031f6:    8060        `.      STRH     r0,[r4,#2]
        0x000031f8:    e003        ..      B        0x3202 ; UART0_IRQHandler + 74
        0x000031fa:    7800        .x      LDRB     r0,[r0,#0]
        0x000031fc:    2824        $(      CMP      r0,#0x24
        0x000031fe:    d100        ..      BNE      0x3202 ; UART0_IRQHandler + 74
        0x00003200:    7066        fp      STRB     r6,[r4,#1]
        0x00003202:    8860        `.      LDRH     r0,[r4,#2]
        0x00003204:    2101        .!      MOVS     r1,#1
        0x00003206:    0289        ..      LSLS     r1,r1,#10
        0x00003208:    4288        .B      CMP      r0,r1
        0x0000320a:    d305        ..      BCC      0x3218 ; UART0_IRQHandler + 96
        0x0000320c:    8065        e.      STRH     r5,[r4,#2]
        0x0000320e:    4852        RH      LDR      r0,[pc,#328] ; [0x3358] = 0x20000448
        0x00003210:    f000ff85    ....    BL       __aeabi_memclr ; 0x411e
        0x00003214:    7065        ep      STRB     r5,[r4,#1]
        0x00003216:    7025        %p      STRB     r5,[r4,#0]
        0x00003218:    69f9        .i      LDR      r1,[r7,#0x1c]
        0x0000321a:    4638        8F      MOV      r0,r7
        0x0000321c:    07c9        ..      LSLS     r1,r1,#31
        0x0000321e:    d1d8        ..      BNE      0x31d2 ; UART0_IRQHandler + 26
        0x00003220:    7820         x      LDRB     r0,[r4,#0]
        0x00003222:    2800        .(      CMP      r0,#0
        0x00003224:    d00e        ..      BEQ      0x3244 ; UART0_IRQHandler + 140
        0x00003226:    f7fffc53    ..S.    BL       console_input_handle ; 0x2ad0
        0x0000322a:    2800        .(      CMP      r0,#0
        0x0000322c:    d102        ..      BNE      0x3234 ; UART0_IRQHandler + 124
        0x0000322e:    a04b        K.      ADR      r0,{pc}+0x12e ; 0x335c
        0x00003230:    f001fc82    ....    BL       __0printf ; 0x4b38
        0x00003234:    2101        .!      MOVS     r1,#1
        0x00003236:    8065        e.      STRH     r5,[r4,#2]
        0x00003238:    0289        ..      LSLS     r1,r1,#10
        0x0000323a:    4847        GH      LDR      r0,[pc,#284] ; [0x3358] = 0x20000448
        0x0000323c:    f000ff6f    ..o.    BL       __aeabi_memclr ; 0x411e
        0x00003240:    7065        ep      STRB     r5,[r4,#1]
        0x00003242:    7025        %p      STRB     r5,[r4,#0]
        0x00003244:    bdf8        ..      POP      {r3-r7,pc}
    $d
        0x00003246:    0000        ..      DCW    0
        0x00003248:    20746573    set     DCD    544499059
        0x0000324c:    65746172    rate    DCD    1702125938
        0x00003250:    6f6f6c20     loo    DCD    1869573152
        0x00003254:    61792070    p ya    DCD    1635328112
        0x00003258:    706b2077    w kp    DCD    1886068855
        0x0000325c:    2e25203a    : %.    DCD    774185018
        0x00003260:    000a6636    6f..    DCD    681526
        0x00003264:    20746573    set     DCD    544499059
        0x00003268:    65746172    rate    DCD    1702125938
        0x0000326c:    6f6f6c20     loo    DCD    1869573152
        0x00003270:    61792070    p ya    DCD    1635328112
        0x00003274:    696b2077    w ki    DCD    1768628343
        0x00003278:    2e25203a    : %.    DCD    774185018
        0x0000327c:    000a6636    6f..    DCD    681526
        0x00003280:    20746573    set     DCD    544499059
        0x00003284:    65746172    rate    DCD    1702125938
        0x00003288:    6f6f6c20     loo    DCD    1869573152
        0x0000328c:    61792070    p ya    DCD    1635328112
        0x00003290:    646b2077    w kd    DCD    1684742263
        0x00003294:    2e25203a    : %.    DCD    774185018
        0x00003298:    000a6636    6f..    DCD    681526
        0x0000329c:    200002b8    ...     DCD    536871608
        0x000032a0:    20746573    set     DCD    544499059
        0x000032a4:    6c6c6f72    roll    DCD    1819045746
        0x000032a8:    676e6120     ang    DCD    1735287072
        0x000032ac:    3a20656c    le :    DCD    975201644
        0x000032b0:    362e2520     %.6    DCD    908993824
        0x000032b4:    00000a66    f...    DCD    2662
        0x000032b8:    20746573    set     DCD    544499059
        0x000032bc:    63746970    pitc    DCD    1668573552
        0x000032c0:    6e612068    h an    DCD    1851859048
        0x000032c4:    20656c67    gle     DCD    543517799
        0x000032c8:    2e25203a    : %.    DCD    774185018
        0x000032cc:    000a6636    6f..    DCD    681526
        0x000032d0:    20746573    set     DCD    544499059
        0x000032d4:    20776179    yaw     DCD    544694649
        0x000032d8:    6c676e61    angl    DCD    1818717793
        0x000032dc:    203a2065    e :     DCD    540680293
        0x000032e0:    66362e25    %.6f    DCD    1714826789
        0x000032e4:    0000000a    ....    DCD    10
        0x000032e8:    200002c4    ...     DCD    536871620
        0x000032ec:    20746573    set     DCD    544499059
        0x000032f0:    6c6c6f72    roll    DCD    1819045746
        0x000032f4:    74617220     rat    DCD    1952543264
        0x000032f8:    203a2065    e :     DCD    540680293
        0x000032fc:    66362e25    %.6f    DCD    1714826789
        0x00003300:    0000000a    ....    DCD    10
        0x00003304:    20746573    set     DCD    544499059
        0x00003308:    63746970    pitc    DCD    1668573552
        0x0000330c:    61722068    h ra    DCD    1634869352
        0x00003310:    3a206574    te :    DCD    975201652
        0x00003314:    362e2520     %.6    DCD    908993824
        0x00003318:    00000a66    f...    DCD    2662
        0x0000331c:    20746573    set     DCD    544499059
        0x00003320:    20776179    yaw     DCD    544694649
        0x00003324:    65746172    rate    DCD    1702125938
        0x00003328:    25203a20     : %    DCD    622869024
        0x0000332c:    0a66362e    .6f.    DCD    174470702
        0x00003330:    00000000    ....    DCD    0
        0x00003334:    20746573    set     DCD    544499059
        0x00003338:    6f726874    thro    DCD    1869768820
        0x0000333c:    656c7474    ttle    DCD    1701606516
        0x00003340:    72687420     thr    DCD    1919448096
        0x00003344:    3a747375    ust:    DCD    980710261
        0x00003348:    362e2520     %.6    DCD    908993824
        0x0000334c:    00000a66    f...    DCD    2662
        0x00003350:    40050000    ...@    DCD    1074069504
        0x00003354:    2000008e    ...     DCD    536871054
        0x00003358:    20000448    H..     DCD    536872008
        0x0000335c:    6e6b6e75    unkn    DCD    1852534389
        0x00003360:    6320776f    ow c    DCD    1663072111
        0x00003364:    616d6d6f    omma    DCD    1634561391
        0x00003368:    0a21646e    nd!.    DCD    169960558
        0x0000336c:    00000000    ....    DCD    0
    $t
    .text
    SPI1_Init
        0x00003370:    b508        ..      PUSH     {r3,lr}
        0x00003372:    4828        (H      LDR      r0,[pc,#160] ; [0x3414] = 0x186a0
        0x00003374:    9000        ..      STR      r0,[sp,#0]
        0x00003376:    2308        .#      MOVS     r3,#8
        0x00003378:    2204        ."      MOVS     r2,#4
        0x0000337a:    2100        .!      MOVS     r1,#0
        0x0000337c:    4826        &H      LDR      r0,[pc,#152] ; [0x3418] = 0x40030100
        0x0000337e:    f000fa0f    ....    BL       SPI_Open ; 0x37a0
        0x00003382:    4926        &I      LDR      r1,[pc,#152] ; [0x341c] = 0xc350
        0x00003384:    4826        &H      LDR      r0,[pc,#152] ; [0x3420] = 0x40010000
        0x00003386:    f000fa6d    ..m.    BL       TIMER_Delay ; 0x3864
        0x0000338a:    bd08        ..      POP      {r3,pc}
    SPI_WriteReg
        0x0000338c:    b570        p.      PUSH     {r4-r6,lr}
        0x0000338e:    4c22        "L      LDR      r4,[pc,#136] ; [0x3418] = 0x40030100
        0x00003390:    2201        ."      MOVS     r2,#1
        0x00003392:    460d        .F      MOV      r5,r1
        0x00003394:    60a2        .`      STR      r2,[r4,#8]
        0x00003396:    f001fbbf    ....    BL       SPI_RW ; 0x4b18
        0x0000339a:    4628        (F      MOV      r0,r5
        0x0000339c:    f001fbbc    ....    BL       SPI_RW ; 0x4b18
        0x000033a0:    2000        .       MOVS     r0,#0
        0x000033a2:    60a0        .`      STR      r0,[r4,#8]
        0x000033a4:    bd70        p.      POP      {r4-r6,pc}
    SPI_WriteBuf
        0x000033a6:    b5f8        ..      PUSH     {r3-r7,lr}
        0x000033a8:    460d        .F      MOV      r5,r1
        0x000033aa:    4f1b        .O      LDR      r7,[pc,#108] ; [0x3418] = 0x40030100
        0x000033ac:    2101        .!      MOVS     r1,#1
        0x000033ae:    4616        .F      MOV      r6,r2
        0x000033b0:    60b9        .`      STR      r1,[r7,#8]
        0x000033b2:    f001fbb1    ....    BL       SPI_RW ; 0x4b18
        0x000033b6:    2400        .$      MOVS     r4,#0
        0x000033b8:    e005        ..      B        0x33c6 ; SPI_WriteBuf + 32
        0x000033ba:    7828        (x      LDRB     r0,[r5,#0]
        0x000033bc:    1c6d        m.      ADDS     r5,r5,#1
        0x000033be:    f001fbab    ....    BL       SPI_RW ; 0x4b18
        0x000033c2:    1c64        d.      ADDS     r4,r4,#1
        0x000033c4:    b2e4        ..      UXTB     r4,r4
        0x000033c6:    42b4        .B      CMP      r4,r6
        0x000033c8:    d3f7        ..      BCC      0x33ba ; SPI_WriteBuf + 20
        0x000033ca:    2000        .       MOVS     r0,#0
        0x000033cc:    60b8        .`      STR      r0,[r7,#8]
        0x000033ce:    bdf8        ..      POP      {r3-r7,pc}
    SPI_ReadReg
        0x000033d0:    b510        ..      PUSH     {r4,lr}
        0x000033d2:    4c11        .L      LDR      r4,[pc,#68] ; [0x3418] = 0x40030100
        0x000033d4:    2101        .!      MOVS     r1,#1
        0x000033d6:    60a1        .`      STR      r1,[r4,#8]
        0x000033d8:    f001fb9e    ....    BL       SPI_RW ; 0x4b18
        0x000033dc:    2000        .       MOVS     r0,#0
        0x000033de:    f001fb9b    ....    BL       SPI_RW ; 0x4b18
        0x000033e2:    2100        .!      MOVS     r1,#0
        0x000033e4:    60a1        .`      STR      r1,[r4,#8]
        0x000033e6:    bd10        ..      POP      {r4,pc}
    SPI_ReadBuf
        0x000033e8:    b5f8        ..      PUSH     {r3-r7,lr}
        0x000033ea:    460e        .F      MOV      r6,r1
        0x000033ec:    4f0a        .O      LDR      r7,[pc,#40] ; [0x3418] = 0x40030100
        0x000033ee:    2101        .!      MOVS     r1,#1
        0x000033f0:    4615        .F      MOV      r5,r2
        0x000033f2:    60b9        .`      STR      r1,[r7,#8]
        0x000033f4:    f001fb90    ....    BL       SPI_RW ; 0x4b18
        0x000033f8:    2400        .$      MOVS     r4,#0
        0x000033fa:    e005        ..      B        0x3408 ; SPI_ReadBuf + 32
        0x000033fc:    2000        .       MOVS     r0,#0
        0x000033fe:    f001fb8b    ....    BL       SPI_RW ; 0x4b18
        0x00003402:    5530        0U      STRB     r0,[r6,r4]
        0x00003404:    1c64        d.      ADDS     r4,r4,#1
        0x00003406:    b2e4        ..      UXTB     r4,r4
        0x00003408:    42ac        .B      CMP      r4,r5
        0x0000340a:    d3f7        ..      BCC      0x33fc ; SPI_ReadBuf + 20
        0x0000340c:    2000        .       MOVS     r0,#0
        0x0000340e:    60b8        .`      STR      r0,[r7,#8]
        0x00003410:    bdf8        ..      POP      {r3-r7,pc}
    $d
        0x00003412:    0000        ..      DCW    0
        0x00003414:    000186a0    ....    DCD    100000
        0x00003418:    40030100    ...@    DCD    1073938688
        0x0000341c:    0000c350    P...    DCD    50000
        0x00003420:    40010000    ...@    DCD    1073807360
    $t
    .text
    CLK_GetHCLKFreq
        0x00003424:    b510        ..      PUSH     {r4,lr}
        0x00003426:    f7fdfe6f    ..o.    BL       SystemCoreClockUpdate ; 0x1108
        0x0000342a:    4831        1H      LDR      r0,[pc,#196] ; [0x34f0] = 0x2000001c
        0x0000342c:    6800        .h      LDR      r0,[r0,#0]
        0x0000342e:    bd10        ..      POP      {r4,pc}
    CLK_SetModuleClock
        0x00003430:    b510        ..      PUSH     {r4,lr}
        0x00003432:    0e42        B.      LSRS     r2,r0,#25
        0x00003434:    0712        ..      LSLS     r2,r2,#28
        0x00003436:    d00d        ..      BEQ      0x3454 ; CLK_SetModuleClock + 36
        0x00003438:    0042        B.      LSLS     r2,r0,#1
        0x0000343a:    0f92        ..      LSRS     r2,r2,#30
        0x0000343c:    4b2d        -K      LDR      r3,[pc,#180] ; [0x34f4] = 0x50000210
        0x0000343e:    0092        ..      LSLS     r2,r2,#2
        0x00003440:    18d2        ..      ADDS     r2,r2,r3
        0x00003442:    6813        .h      LDR      r3,[r2,#0]
        0x00003444:    00c4        ..      LSLS     r4,r0,#3
        0x00003446:    0f24        $.      LSRS     r4,r4,#28
        0x00003448:    01c0        ..      LSLS     r0,r0,#7
        0x0000344a:    0ec0        ..      LSRS     r0,r0,#27
        0x0000344c:    4084        .@      LSLS     r4,r4,r0
        0x0000344e:    43a3        .C      BICS     r3,r3,r4
        0x00003450:    430b        .C      ORRS     r3,r3,r1
        0x00003452:    6013        .`      STR      r3,[r2,#0]
        0x00003454:    bd10        ..      POP      {r4,pc}
    CLK_EnableModuleClock
        0x00003456:    0fc1        ..      LSRS     r1,r0,#31
        0x00003458:    008a        ..      LSLS     r2,r1,#2
        0x0000345a:    4926        &I      LDR      r1,[pc,#152] ; [0x34f4] = 0x50000210
        0x0000345c:    3910        .9      SUBS     r1,r1,#0x10
        0x0000345e:    1851        Q.      ADDS     r1,r2,r1
        0x00003460:    684a        Jh      LDR      r2,[r1,#4]
        0x00003462:    06c3        ..      LSLS     r3,r0,#27
        0x00003464:    0edb        ..      LSRS     r3,r3,#27
        0x00003466:    2001        .       MOVS     r0,#1
        0x00003468:    4098        .@      LSLS     r0,r0,r3
        0x0000346a:    4302        .C      ORRS     r2,r2,r0
        0x0000346c:    604a        J`      STR      r2,[r1,#4]
        0x0000346e:    4770        pG      BX       lr
    CLK_SysTickDelay
        0x00003470:    4921        !I      LDR      r1,[pc,#132] ; [0x34f8] = 0x20000020
        0x00003472:    6809        .h      LDR      r1,[r1,#0]
        0x00003474:    4348        HC      MULS     r0,r1,r0
        0x00003476:    4921        !I      LDR      r1,[pc,#132] ; [0x34fc] = 0xe000e000
        0x00003478:    6148        Ha      STR      r0,[r1,#0x14]
        0x0000347a:    2200        ."      MOVS     r2,#0
        0x0000347c:    618a        .a      STR      r2,[r1,#0x18]
        0x0000347e:    2005        .       MOVS     r0,#5
        0x00003480:    6108        .a      STR      r0,[r1,#0x10]
        0x00003482:    6908        .i      LDR      r0,[r1,#0x10]
        0x00003484:    03c0        ..      LSLS     r0,r0,#15
        0x00003486:    d5fc        ..      BPL      0x3482 ; CLK_SysTickDelay + 18
        0x00003488:    610a        .a      STR      r2,[r1,#0x10]
        0x0000348a:    4770        pG      BX       lr
    CLK_InitHIRC
        0x0000348c:    4819        .H      LDR      r0,[pc,#100] ; [0x34f4] = 0x50000210
        0x0000348e:    b510        ..      PUSH     {r4,lr}
        0x00003490:    3810        .8      SUBS     r0,r0,#0x10
        0x00003492:    6801        .h      LDR      r1,[r0,#0]
        0x00003494:    220f        ."      MOVS     r2,#0xf
        0x00003496:    0312        ..      LSLS     r2,r2,#12
        0x00003498:    4391        .C      BICS     r1,r1,r2
        0x0000349a:    6001        .`      STR      r1,[r0,#0]
        0x0000349c:    6801        .h      LDR      r1,[r0,#0]
        0x0000349e:    2203        ."      MOVS     r2,#3
        0x000034a0:    0392        ..      LSLS     r2,r2,#14
        0x000034a2:    4311        .C      ORRS     r1,r1,r2
        0x000034a4:    6001        .`      STR      r1,[r0,#0]
        0x000034a6:    1191        ..      ASRS     r1,r2,#6
        0x000034a8:    4a15        .J      LDR      r2,[pc,#84] ; [0x3500] = 0x50000040
        0x000034aa:    6091        .`      STR      r1,[r2,#8]
        0x000034ac:    4915        .I      LDR      r1,[pc,#84] ; [0x3504] = 0x5000c000
        0x000034ae:    680a        .h      LDR      r2,[r1,#0]
        0x000034b0:    2401        .$      MOVS     r4,#1
        0x000034b2:    4322        "C      ORRS     r2,r2,r4
        0x000034b4:    600a        .`      STR      r2,[r1,#0]
        0x000034b6:    2204        ."      MOVS     r2,#4
        0x000034b8:    60ca        .`      STR      r2,[r1,#0xc]
        0x000034ba:    2300        .#      MOVS     r3,#0
        0x000034bc:    604b        K`      STR      r3,[r1,#4]
        0x000034be:    610c        .a      STR      r4,[r1,#0x10]
        0x000034c0:    690a        .i      LDR      r2,[r1,#0x10]
        0x000034c2:    07d2        ..      LSLS     r2,r2,#31
        0x000034c4:    d1fc        ..      BNE      0x34c0 ; CLK_InitHIRC + 52
        0x000034c6:    688c        .h      LDR      r4,[r1,#8]
        0x000034c8:    22ff        ."      MOVS     r2,#0xff
        0x000034ca:    0412        ..      LSLS     r2,r2,#16
        0x000034cc:    4611        .F      MOV      r1,r2
        0x000034ce:    43a1        .C      BICS     r1,r1,r4
        0x000034d0:    6804        .h      LDR      r4,[r0,#0]
        0x000034d2:    4394        .C      BICS     r4,r4,r2
        0x000034d4:    6004        .`      STR      r4,[r0,#0]
        0x000034d6:    6802        .h      LDR      r2,[r0,#0]
        0x000034d8:    430a        .C      ORRS     r2,r2,r1
        0x000034da:    6002        .`      STR      r2,[r0,#0]
        0x000034dc:    6801        .h      LDR      r1,[r0,#0]
        0x000034de:    22ff        ."      MOVS     r2,#0xff
        0x000034e0:    0092        ..      LSLS     r2,r2,#2
        0x000034e2:    4391        .C      BICS     r1,r1,r2
        0x000034e4:    6001        .`      STR      r1,[r0,#0]
        0x000034e6:    68c1        .h      LDR      r1,[r0,#0xc]
        0x000034e8:    06c9        ..      LSLS     r1,r1,#27
        0x000034ea:    d5fc        ..      BPL      0x34e6 ; CLK_InitHIRC + 90
        0x000034ec:    6103        .a      STR      r3,[r0,#0x10]
        0x000034ee:    bd10        ..      POP      {r4,pc}
    $d
        0x000034f0:    2000001c    ...     DCD    536870940
        0x000034f4:    50000210    ...P    DCD    1342177808
        0x000034f8:    20000020     ..     DCD    536870944
        0x000034fc:    e000e000    ....    DCD    3758153728
        0x00003500:    50000040    @..P    DCD    1342177344
        0x00003504:    5000c000    ...P    DCD    1342226432
    $t
    .text
    I2C_Open
        0x00003508:    b570        p.      PUSH     {r4-r6,lr}
        0x0000350a:    4d0b        .M      LDR      r5,[pc,#44] ; [0x3538] = 0x2000001c
        0x0000350c:    4604        .F      MOV      r4,r0
        0x0000350e:    6828        (h      LDR      r0,[r5,#0]
        0x00003510:    008a        ..      LSLS     r2,r1,#2
        0x00003512:    1840        @.      ADDS     r0,r0,r1
        0x00003514:    4611        .F      MOV      r1,r2
        0x00003516:    f000fdd1    ....    BL       __aeabi_uidiv ; 0x40bc
        0x0000351a:    1e40        @.      SUBS     r0,r0,#1
        0x0000351c:    28ff        .(      CMP      r0,#0xff
        0x0000351e:    d900        ..      BLS      0x3522 ; I2C_Open + 26
        0x00003520:    20ff        .       MOVS     r0,#0xff
        0x00003522:    6120         a      STR      r0,[r4,#0x10]
        0x00003524:    6821        !h      LDR      r1,[r4,#0]
        0x00003526:    2240        @"      MOVS     r2,#0x40
        0x00003528:    4311        .C      ORRS     r1,r1,r2
        0x0000352a:    6021        !`      STR      r1,[r4,#0]
        0x0000352c:    0081        ..      LSLS     r1,r0,#2
        0x0000352e:    1d09        ..      ADDS     r1,r1,#4
        0x00003530:    6828        (h      LDR      r0,[r5,#0]
        0x00003532:    f000fdc3    ....    BL       __aeabi_uidiv ; 0x40bc
        0x00003536:    bd70        p.      POP      {r4-r6,pc}
    $d
        0x00003538:    2000001c    ...     DCD    536870940
    $t
    .text
    PWM_ConfigOutputChannel
        0x0000353c:    b5ff        ..      PUSH     {r0-r7,lr}
        0x0000353e:    4849        IH      LDR      r0,[pc,#292] ; [0x3664] = 0x2000001c
        0x00003540:    b083        ..      SUB      sp,sp,#0xc
        0x00003542:    460f        .F      MOV      r7,r1
        0x00003544:    6800        .h      LDR      r0,[r0,#0]
        0x00003546:    4611        .F      MOV      r1,r2
        0x00003548:    9001        ..      STR      r0,[sp,#4]
        0x0000354a:    f000fdb7    ....    BL       __aeabi_uidiv ; 0x40bc
        0x0000354e:    2501        .%      MOVS     r5,#1
        0x00003550:    4c45        EL      LDR      r4,[pc,#276] ; [0x3668] = 0xffff
        0x00003552:    26ff        .&      MOVS     r6,#0xff
        0x00003554:    9000        ..      STR      r0,[sp,#0]
        0x00003556:    4629        )F      MOV      r1,r5
        0x00003558:    9800        ..      LDR      r0,[sp,#0]
        0x0000355a:    f000fdaf    ....    BL       __aeabi_uidiv ; 0x40bc
        0x0000355e:    2101        .!      MOVS     r1,#1
        0x00003560:    0609        ..      LSLS     r1,r1,#24
        0x00003562:    4288        .B      CMP      r0,r1
        0x00003564:    d812        ..      BHI      0x358c ; PWM_ConfigOutputChannel + 80
        0x00003566:    1901        ..      ADDS     r1,r0,r4
        0x00003568:    0209        ..      LSLS     r1,r1,#8
        0x0000356a:    0e0e        ..      LSRS     r6,r1,#24
        0x0000356c:    2e03        ..      CMP      r6,#3
        0x0000356e:    d200        ..      BCS      0x3572 ; PWM_ConfigOutputChannel + 54
        0x00003570:    2602        .&      MOVS     r6,#2
        0x00003572:    4631        1F      MOV      r1,r6
        0x00003574:    f000fda2    ....    BL       __aeabi_uidiv ; 0x40bc
        0x00003578:    2101        .!      MOVS     r1,#1
        0x0000357a:    0409        ..      LSLS     r1,r1,#16
        0x0000357c:    4288        .B      CMP      r0,r1
        0x0000357e:    d805        ..      BHI      0x358c ; PWM_ConfigOutputChannel + 80
        0x00003580:    2801        .(      CMP      r0,#1
        0x00003582:    d001        ..      BEQ      0x3588 ; PWM_ConfigOutputChannel + 76
        0x00003584:    b284        ..      UXTH     r4,r0
        0x00003586:    e005        ..      B        0x3594 ; PWM_ConfigOutputChannel + 88
        0x00003588:    2401        .$      MOVS     r4,#1
        0x0000358a:    e003        ..      B        0x3594 ; PWM_ConfigOutputChannel + 88
        0x0000358c:    0668        h.      LSLS     r0,r5,#25
        0x0000358e:    0e05        ..      LSRS     r5,r0,#24
        0x00003590:    2d11        .-      CMP      r5,#0x11
        0x00003592:    d3e0        ..      BCC      0x3556 ; PWM_ConfigOutputChannel + 26
        0x00003594:    4631        1F      MOV      r1,r6
        0x00003596:    4369        iC      MULS     r1,r5,r1
        0x00003598:    4361        aC      MULS     r1,r4,r1
        0x0000359a:    9801        ..      LDR      r0,[sp,#4]
        0x0000359c:    f000fd8e    ....    BL       __aeabi_uidiv ; 0x40bc
        0x000035a0:    1e76        v.      SUBS     r6,r6,#1
        0x000035a2:    1e64        d.      SUBS     r4,r4,#1
        0x000035a4:    b2f3        ..      UXTB     r3,r6
        0x000035a6:    b2a4        ..      UXTH     r4,r4
        0x000035a8:    9000        ..      STR      r0,[sp,#0]
        0x000035aa:    2d01        .-      CMP      r5,#1
        0x000035ac:    d033        3.      BEQ      0x3616 ; PWM_ConfigOutputChannel + 218
        0x000035ae:    2d02        .-      CMP      r5,#2
        0x000035b0:    d033        3.      BEQ      0x361a ; PWM_ConfigOutputChannel + 222
        0x000035b2:    2d04        .-      CMP      r5,#4
        0x000035b4:    d033        3.      BEQ      0x361e ; PWM_ConfigOutputChannel + 226
        0x000035b6:    2d08        .-      CMP      r5,#8
        0x000035b8:    d033        3.      BEQ      0x3622 ; PWM_ConfigOutputChannel + 230
        0x000035ba:    2003        .       MOVS     r0,#3
        0x000035bc:    492b        +I      LDR      r1,[pc,#172] ; [0x366c] = 0x40040000
        0x000035be:    680d        .h      LDR      r5,[r1,#0]
        0x000035c0:    087a        z.      LSRS     r2,r7,#1
        0x000035c2:    00d2        ..      LSLS     r2,r2,#3
        0x000035c4:    26ff        .&      MOVS     r6,#0xff
        0x000035c6:    4096        .@      LSLS     r6,r6,r2
        0x000035c8:    43b5        .C      BICS     r5,r5,r6
        0x000035ca:    4093        .@      LSLS     r3,r3,r2
        0x000035cc:    431d        .C      ORRS     r5,r5,r3
        0x000035ce:    600d        .`      STR      r5,[r1,#0]
        0x000035d0:    684b        Kh      LDR      r3,[r1,#4]
        0x000035d2:    00ba        ..      LSLS     r2,r7,#2
        0x000035d4:    2507        .%      MOVS     r5,#7
        0x000035d6:    4095        .@      LSLS     r5,r5,r2
        0x000035d8:    43ab        .C      BICS     r3,r3,r5
        0x000035da:    4090        .@      LSLS     r0,r0,r2
        0x000035dc:    4303        .C      ORRS     r3,r3,r0
        0x000035de:    604b        K`      STR      r3,[r1,#4]
        0x000035e0:    688b        .h      LDR      r3,[r1,#8]
        0x000035e2:    2008        .       MOVS     r0,#8
        0x000035e4:    4090        .@      LSLS     r0,r0,r2
        0x000035e6:    4303        .C      ORRS     r3,r3,r0
        0x000035e8:    608b        .`      STR      r3,[r1,#8]
        0x000035ea:    4820         H      LDR      r0,[pc,#128] ; [0x366c] = 0x40040000
        0x000035ec:    3040        @0      ADDS     r0,r0,#0x40
        0x000035ee:    68c1        .h      LDR      r1,[r0,#0xc]
        0x000035f0:    0049        I.      LSLS     r1,r1,#1
        0x000035f2:    0849        I.      LSRS     r1,r1,#1
        0x000035f4:    60c1        .`      STR      r1,[r0,#0xc]
        0x000035f6:    9903        ..      LDR      r1,[sp,#0xc]
        0x000035f8:    9806        ..      LDR      r0,[sp,#0x18]
        0x000035fa:    1855        U.      ADDS     r5,r2,r1
        0x000035fc:    2800        .(      CMP      r0,#0
        0x000035fe:    d012        ..      BEQ      0x3626 ; PWM_ConfigOutputChannel + 234
        0x00003600:    1c61        a.      ADDS     r1,r4,#1
        0x00003602:    4348        HC      MULS     r0,r1,r0
        0x00003604:    2164        d!      MOVS     r1,#0x64
        0x00003606:    f000fd59    ..Y.    BL       __aeabi_uidiv ; 0x40bc
        0x0000360a:    1e40        @.      SUBS     r0,r0,#1
        0x0000360c:    62e8        .b      STR      r0,[r5,#0x2c]
        0x0000360e:    60ec        .`      STR      r4,[r5,#0xc]
        0x00003610:    9800        ..      LDR      r0,[sp,#0]
        0x00003612:    b007        ..      ADD      sp,sp,#0x1c
        0x00003614:    bdf0        ..      POP      {r4-r7,pc}
        0x00003616:    2004        .       MOVS     r0,#4
        0x00003618:    e7d0        ..      B        0x35bc ; PWM_ConfigOutputChannel + 128
        0x0000361a:    2000        .       MOVS     r0,#0
        0x0000361c:    e7ce        ..      B        0x35bc ; PWM_ConfigOutputChannel + 128
        0x0000361e:    2001        .       MOVS     r0,#1
        0x00003620:    e7cc        ..      B        0x35bc ; PWM_ConfigOutputChannel + 128
        0x00003622:    2002        .       MOVS     r0,#2
        0x00003624:    e7ca        ..      B        0x35bc ; PWM_ConfigOutputChannel + 128
        0x00003626:    2000        .       MOVS     r0,#0
        0x00003628:    62e8        .b      STR      r0,[r5,#0x2c]
        0x0000362a:    60e8        .`      STR      r0,[r5,#0xc]
        0x0000362c:    e7f0        ..      B        0x3610 ; PWM_ConfigOutputChannel + 212
    PWM_Start
        0x0000362e:    b530        0.      PUSH     {r4,r5,lr}
        0x00003630:    2200        ."      MOVS     r2,#0
        0x00003632:    4610        .F      MOV      r0,r2
        0x00003634:    2401        .$      MOVS     r4,#1
        0x00003636:    4623        #F      MOV      r3,r4
        0x00003638:    4083        .@      LSLS     r3,r3,r0
        0x0000363a:    420b        .B      TST      r3,r1
        0x0000363c:    d003        ..      BEQ      0x3646 ; PWM_Start + 24
        0x0000363e:    0085        ..      LSLS     r5,r0,#2
        0x00003640:    4623        #F      MOV      r3,r4
        0x00003642:    40ab        .@      LSLS     r3,r3,r5
        0x00003644:    431a        .C      ORRS     r2,r2,r3
        0x00003646:    1c40        @.      ADDS     r0,r0,#1
        0x00003648:    2808        .(      CMP      r0,#8
        0x0000364a:    d3f4        ..      BCC      0x3636 ; PWM_Start + 8
        0x0000364c:    4907        .I      LDR      r1,[pc,#28] ; [0x366c] = 0x40040000
        0x0000364e:    6888        .h      LDR      r0,[r1,#8]
        0x00003650:    4310        .C      ORRS     r0,r0,r2
        0x00003652:    6088        .`      STR      r0,[r1,#8]
        0x00003654:    bd30        0.      POP      {r4,r5,pc}
    PWM_EnableOutput
        0x00003656:    4805        .H      LDR      r0,[pc,#20] ; [0x366c] = 0x40040000
        0x00003658:    3040        @0      ADDS     r0,r0,#0x40
        0x0000365a:    69c2        .i      LDR      r2,[r0,#0x1c]
        0x0000365c:    430a        .C      ORRS     r2,r2,r1
        0x0000365e:    61c2        .a      STR      r2,[r0,#0x1c]
        0x00003660:    4770        pG      BX       lr
    $d
        0x00003662:    0000        ..      DCW    0
        0x00003664:    2000001c    ...     DCD    536870940
        0x00003668:    0000ffff    ....    DCD    65535
        0x0000366c:    40040000    ...@    DCD    1074003968
    $t
    .text
    stackDump
        0x00003670:    b510        ..      PUSH     {r4,lr}
        0x00003672:    4604        .F      MOV      r4,r0
        0x00003674:    6801        .h      LDR      r1,[r0,#0]
        0x00003676:    a01a        ..      ADR      r0,{pc}+0x6a ; 0x36e0
        0x00003678:    f001fa5e    ..^.    BL       __0printf ; 0x4b38
        0x0000367c:    a01b        ..      ADR      r0,{pc}+0x70 ; 0x36ec
        0x0000367e:    6861        ah      LDR      r1,[r4,#4]
        0x00003680:    f001fa5a    ..Z.    BL       __0printf ; 0x4b38
        0x00003684:    a01c        ..      ADR      r0,{pc}+0x74 ; 0x36f8
        0x00003686:    68a1        .h      LDR      r1,[r4,#8]
        0x00003688:    f001fa56    ..V.    BL       __0printf ; 0x4b38
        0x0000368c:    a01d        ..      ADR      r0,{pc}+0x78 ; 0x3704
        0x0000368e:    68e1        .h      LDR      r1,[r4,#0xc]
        0x00003690:    f001fa52    ..R.    BL       __0printf ; 0x4b38
        0x00003694:    a01e        ..      ADR      r0,{pc}+0x7c ; 0x3710
        0x00003696:    6921        !i      LDR      r1,[r4,#0x10]
        0x00003698:    f001fa4e    ..N.    BL       __0printf ; 0x4b38
        0x0000369c:    a01f        ..      ADR      r0,{pc}+0x80 ; 0x371c
        0x0000369e:    6961        ai      LDR      r1,[r4,#0x14]
        0x000036a0:    f001fa4a    ..J.    BL       __0printf ; 0x4b38
        0x000036a4:    a020         .      ADR      r0,{pc}+0x84 ; 0x3728
        0x000036a6:    69a1        .i      LDR      r1,[r4,#0x18]
        0x000036a8:    f001fa46    ..F.    BL       __0printf ; 0x4b38
        0x000036ac:    a021        !.      ADR      r0,{pc}+0x88 ; 0x3734
        0x000036ae:    69e1        .i      LDR      r1,[r4,#0x1c]
        0x000036b0:    f001fa42    ..B.    BL       __0printf ; 0x4b38
        0x000036b4:    bd10        ..      POP      {r4,pc}
    Hard_Fault_Handler
    __tagsym$$used
        0x000036b6:    4604        .F      MOV      r4,r0
        0x000036b8:    a021        !.      ADR      r0,{pc}+0x88 ; 0x3740
        0x000036ba:    f001fa3d    ..=.    BL       __0printf ; 0x4b38
        0x000036be:    4620         F      MOV      r0,r4
        0x000036c0:    f7ffffd6    ....    BL       stackDump ; 0x3670
        0x000036c4:    e7fe        ..      B        0x36c4 ; Hard_Fault_Handler + 14
    SendChar_ToUART
        0x000036c6:    4924        $I      LDR      r1,[pc,#144] ; [0x3758] = 0x40050000
        0x000036c8:    6008        .`      STR      r0,[r1,#0]
        0x000036ca:    6988        .i      LDR      r0,[r1,#0x18]
        0x000036cc:    00c0        ..      LSLS     r0,r0,#3
        0x000036ce:    d5fc        ..      BPL      0x36ca ; SendChar_ToUART + 4
        0x000036d0:    4770        pG      BX       lr
    fputc
        0x000036d2:    b500        ..      PUSH     {lr}
        0x000036d4:    4602        .F      MOV      r2,r0
        0x000036d6:    f7fffff6    ....    BL       SendChar_ToUART ; 0x36c6
        0x000036da:    4610        .F      MOV      r0,r2
        0x000036dc:    bd00        ..      POP      {pc}
    $d
        0x000036de:    0000        ..      DCW    0
        0x000036e0:    20203072    r0      DCD    538980466
        0x000036e4:    7830203d    = 0x    DCD    2016419901
        0x000036e8:    000a7825    %x..    DCD    686117
        0x000036ec:    20203172    r1      DCD    538980722
        0x000036f0:    7830203d    = 0x    DCD    2016419901
        0x000036f4:    000a7825    %x..    DCD    686117
        0x000036f8:    20203272    r2      DCD    538980978
        0x000036fc:    7830203d    = 0x    DCD    2016419901
        0x00003700:    000a7825    %x..    DCD    686117
        0x00003704:    20203372    r3      DCD    538981234
        0x00003708:    7830203d    = 0x    DCD    2016419901
        0x0000370c:    000a7825    %x..    DCD    686117
        0x00003710:    20323172    r12     DCD    540160370
        0x00003714:    7830203d    = 0x    DCD    2016419901
        0x00003718:    000a7825    %x..    DCD    686117
        0x0000371c:    2020726c    lr      DCD    538997356
        0x00003720:    7830203d    = 0x    DCD    2016419901
        0x00003724:    000a7825    %x..    DCD    686117
        0x00003728:    20206370    pc      DCD    538993520
        0x0000372c:    7830203d    = 0x    DCD    2016419901
        0x00003730:    000a7825    %x..    DCD    686117
        0x00003734:    20727370    psr     DCD    544371568
        0x00003738:    7830203d    = 0x    DCD    2016419901
        0x0000373c:    000a7825    %x..    DCD    686117
        0x00003740:    48206e49    In H    DCD    1210084937
        0x00003744:    20647261    ard     DCD    543453793
        0x00003748:    6c756146    Faul    DCD    1819631942
        0x0000374c:    61482074    t Ha    DCD    1632116852
        0x00003750:    656c646e    ndle    DCD    1701602414
        0x00003754:    00000a72    r...    DCD    2674
        0x00003758:    40050000    ...@    DCD    1074069504
    $t
    .text
    SPI_SetBusClock
        0x0000375c:    b570        p.      PUSH     {r4-r6,lr}
        0x0000375e:    460c        .F      MOV      r4,r1
        0x00003760:    4606        .F      MOV      r6,r0
        0x00003762:    f7fffe5f    .._.    BL       CLK_GetHCLKFreq ; 0x3424
        0x00003766:    4605        .F      MOV      r5,r0
        0x00003768:    42ac        .B      CMP      r4,r5
        0x0000376a:    d900        ..      BLS      0x376e ; SPI_SetBusClock + 18
        0x0000376c:    4604        .F      MOV      r4,r0
        0x0000376e:    2c00        .,      CMP      r4,#0
        0x00003770:    d014        ..      BEQ      0x379c ; SPI_SetBusClock + 64
        0x00003772:    4811        .H      LDR      r0,[pc,#68] ; [0x37b8] = 0x2000001c
        0x00003774:    0061        a.      LSLS     r1,r4,#1
        0x00003776:    6800        .h      LDR      r0,[r0,#0]
        0x00003778:    1900        ..      ADDS     r0,r0,r4
        0x0000377a:    f000fc9f    ....    BL       __aeabi_uidiv ; 0x40bc
        0x0000377e:    1e40        @.      SUBS     r0,r0,#1
        0x00003780:    28ff        .(      CMP      r0,#0xff
        0x00003782:    d900        ..      BLS      0x3786 ; SPI_SetBusClock + 42
        0x00003784:    20ff        .       MOVS     r0,#0xff
        0x00003786:    6871        qh      LDR      r1,[r6,#4]
        0x00003788:    0a09        ..      LSRS     r1,r1,#8
        0x0000378a:    0209        ..      LSLS     r1,r1,#8
        0x0000378c:    4301        .C      ORRS     r1,r1,r0
        0x0000378e:    6071        q`      STR      r1,[r6,#4]
        0x00003790:    0041        A.      LSLS     r1,r0,#1
        0x00003792:    4628        (F      MOV      r0,r5
        0x00003794:    1c89        ..      ADDS     r1,r1,#2
        0x00003796:    f000fc91    ....    BL       __aeabi_uidiv ; 0x40bc
        0x0000379a:    bd70        p.      POP      {r4-r6,pc}
        0x0000379c:    2000        .       MOVS     r0,#0
        0x0000379e:    bd70        p.      POP      {r4-r6,pc}
    SPI_Open
        0x000037a0:    b430        0.      PUSH     {r4,r5}
        0x000037a2:    9c02        ..      LDR      r4,[sp,#8]
        0x000037a4:    2b20         +      CMP      r3,#0x20
        0x000037a6:    d100        ..      BNE      0x37aa ; SPI_Open + 10
        0x000037a8:    2300        .#      MOVS     r3,#0
        0x000037aa:    00db        ..      LSLS     r3,r3,#3
        0x000037ac:    430b        .C      ORRS     r3,r3,r1
        0x000037ae:    4313        .C      ORRS     r3,r3,r2
        0x000037b0:    6003        .`      STR      r3,[r0,#0]
        0x000037b2:    4621        !F      MOV      r1,r4
        0x000037b4:    bc30        0.      POP      {r4,r5}
        0x000037b6:    e7d1        ..      B        SPI_SetBusClock ; 0x375c
    $d
        0x000037b8:    2000001c    ...     DCD    536870940
    $t
    .text
    TIMER_GetModuleClock
        0x000037bc:    4a53        SJ      LDR      r2,[pc,#332] ; [0x390c] = 0x40010000
        0x000037be:    4954        TI      LDR      r1,[pc,#336] ; [0x3910] = 0x50000200
        0x000037c0:    4290        .B      CMP      r0,r2
        0x000037c2:    d102        ..      BNE      0x37ca ; TIMER_GetModuleClock + 14
        0x000037c4:    6948        Hi      LDR      r0,[r1,#0x14]
        0x000037c6:    0a00        ..      LSRS     r0,r0,#8
        0x000037c8:    e007        ..      B        0x37da ; TIMER_GetModuleClock + 30
        0x000037ca:    4a50        PJ      LDR      r2,[pc,#320] ; [0x390c] = 0x40010000
        0x000037cc:    3220         2      ADDS     r2,r2,#0x20
        0x000037ce:    4290        .B      CMP      r0,r2
        0x000037d0:    6948        Hi      LDR      r0,[r1,#0x14]
        0x000037d2:    d101        ..      BNE      0x37d8 ; TIMER_GetModuleClock + 28
        0x000037d4:    0b00        ..      LSRS     r0,r0,#12
        0x000037d6:    e000        ..      B        0x37da ; TIMER_GetModuleClock + 30
        0x000037d8:    0c00        ..      LSRS     r0,r0,#16
        0x000037da:    0780        ..      LSLS     r0,r0,#30
        0x000037dc:    0f80        ..      LSRS     r0,r0,#30
        0x000037de:    d003        ..      BEQ      0x37e8 ; TIMER_GetModuleClock + 44
        0x000037e0:    2100        .!      MOVS     r1,#0
        0x000037e2:    2802        .(      CMP      r0,#2
        0x000037e4:    d007        ..      BEQ      0x37f6 ; TIMER_GetModuleClock + 58
        0x000037e6:    e000        ..      B        0x37ea ; TIMER_GetModuleClock + 46
        0x000037e8:    2101        .!      MOVS     r1,#1
        0x000037ea:    2200        ."      MOVS     r2,#0
        0x000037ec:    4311        .C      ORRS     r1,r1,r2
        0x000037ee:    d004        ..      BEQ      0x37fa ; TIMER_GetModuleClock + 62
        0x000037f0:    4848        HH      LDR      r0,[pc,#288] ; [0x3914] = 0x2000001c
        0x000037f2:    6800        .h      LDR      r0,[r0,#0]
        0x000037f4:    4770        pG      BX       lr
        0x000037f6:    2201        ."      MOVS     r2,#1
        0x000037f8:    e7f8        ..      B        0x37ec ; TIMER_GetModuleClock + 48
        0x000037fa:    2801        .(      CMP      r0,#1
        0x000037fc:    d001        ..      BEQ      0x3802 ; TIMER_GetModuleClock + 70
        0x000037fe:    4846        FH      LDR      r0,[pc,#280] ; [0x3918] = 0x3d0900
        0x00003800:    4770        pG      BX       lr
        0x00003802:    4846        FH      LDR      r0,[pc,#280] ; [0x391c] = 0x2710
        0x00003804:    4770        pG      BX       lr
    TIMER_Open
        0x00003806:    b5f8        ..      PUSH     {r3-r7,lr}
        0x00003808:    4613        .F      MOV      r3,r2
        0x0000380a:    460f        .F      MOV      r7,r1
        0x0000380c:    4605        .F      MOV      r5,r0
        0x0000380e:    f7ffffd5    ....    BL       TIMER_GetModuleClock ; 0x37bc
        0x00003812:    4604        .F      MOV      r4,r0
        0x00003814:    2600        .&      MOVS     r6,#0
        0x00003816:    0840        @.      LSRS     r0,r0,#1
        0x00003818:    4298        .B      CMP      r0,r3
        0x0000381a:    d201        ..      BCS      0x3820 ; TIMER_Open + 26
        0x0000381c:    2102        .!      MOVS     r1,#2
        0x0000381e:    e011        ..      B        0x3844 ; TIMER_Open + 62
        0x00003820:    2101        .!      MOVS     r1,#1
        0x00003822:    0649        I.      LSLS     r1,r1,#25
        0x00003824:    428c        .B      CMP      r4,r1
        0x00003826:    d302        ..      BCC      0x382e ; TIMER_Open + 40
        0x00003828:    2603        .&      MOVS     r6,#3
        0x0000382a:    08a4        ..      LSRS     r4,r4,#2
        0x0000382c:    e005        ..      B        0x383a ; TIMER_Open + 52
        0x0000382e:    2101        .!      MOVS     r1,#1
        0x00003830:    0609        ..      LSLS     r1,r1,#24
        0x00003832:    428c        .B      CMP      r4,r1
        0x00003834:    d301        ..      BCC      0x383a ; TIMER_Open + 52
        0x00003836:    2601        .&      MOVS     r6,#1
        0x00003838:    4604        .F      MOV      r4,r0
        0x0000383a:    4619        .F      MOV      r1,r3
        0x0000383c:    4620         F      MOV      r0,r4
        0x0000383e:    f000fc3d    ..=.    BL       __aeabi_uidiv ; 0x40bc
        0x00003842:    4601        .F      MOV      r1,r0
        0x00003844:    6828        (h      LDR      r0,[r5,#0]
        0x00003846:    0a00        ..      LSRS     r0,r0,#8
        0x00003848:    0200        ..      LSLS     r0,r0,#8
        0x0000384a:    4330        0C      ORRS     r0,r0,r6
        0x0000384c:    6028        (`      STR      r0,[r5,#0]
        0x0000384e:    6828        (h      LDR      r0,[r5,#0]
        0x00003850:    2203        ."      MOVS     r2,#3
        0x00003852:    06d2        ..      LSLS     r2,r2,#27
        0x00003854:    4390        .C      BICS     r0,r0,r2
        0x00003856:    4338        8C      ORRS     r0,r0,r7
        0x00003858:    6028        (`      STR      r0,[r5,#0]
        0x0000385a:    6069        i`      STR      r1,[r5,#4]
        0x0000385c:    4620         F      MOV      r0,r4
        0x0000385e:    f000fc2d    ..-.    BL       __aeabi_uidiv ; 0x40bc
        0x00003862:    bdf8        ..      POP      {r3-r7,pc}
    TIMER_Delay
        0x00003864:    b5f8        ..      PUSH     {r3-r7,lr}
        0x00003866:    460f        .F      MOV      r7,r1
        0x00003868:    4606        .F      MOV      r6,r0
        0x0000386a:    f7ffffa7    ....    BL       TIMER_GetModuleClock ; 0x37bc
        0x0000386e:    4605        .F      MOV      r5,r0
        0x00003870:    2000        .       MOVS     r0,#0
        0x00003872:    9000        ..      STR      r0,[sp,#0]
        0x00003874:    4827        'H      LDR      r0,[pc,#156] ; [0x3914] = 0x2000001c
        0x00003876:    4629        )F      MOV      r1,r5
        0x00003878:    6800        .h      LDR      r0,[r0,#0]
        0x0000387a:    f000fc1f    ....    BL       __aeabi_uidiv ; 0x40bc
        0x0000387e:    4604        .F      MOV      r4,r0
        0x00003880:    2000        .       MOVS     r0,#0
        0x00003882:    6030        0`      STR      r0,[r6,#0]
        0x00003884:    6170        pa      STR      r0,[r6,#0x14]
        0x00003886:    2f32        2/      CMP      r7,#0x32
        0x00003888:    d200        ..      BCS      0x388c ; TIMER_Delay + 40
        0x0000388a:    2732        2'      MOVS     r7,#0x32
        0x0000388c:    4823        #H      LDR      r0,[pc,#140] ; [0x391c] = 0x2710
        0x0000388e:    4285        .B      CMP      r5,r0
        0x00003890:    d106        ..      BNE      0x38a0 ; TIMER_Delay + 60
        0x00003892:    4638        8F      MOV      r0,r7
        0x00003894:    2164        d!      MOVS     r1,#0x64
        0x00003896:    3063        c0      ADDS     r0,r0,#0x63
        0x00003898:    f000fc10    ....    BL       __aeabi_uidiv ; 0x40bc
        0x0000389c:    2164        d!      MOVS     r1,#0x64
        0x0000389e:    e005        ..      B        0x38ac ; TIMER_Delay + 72
        0x000038a0:    4638        8F      MOV      r0,r7
        0x000038a2:    210a        .!      MOVS     r1,#0xa
        0x000038a4:    3009        .0      ADDS     r0,r0,#9
        0x000038a6:    f000fc09    ....    BL       __aeabi_uidiv ; 0x40bc
        0x000038aa:    210a        .!      MOVS     r1,#0xa
        0x000038ac:    4348        HC      MULS     r0,r1,r0
        0x000038ae:    4607        .F      MOV      r7,r0
        0x000038b0:    2001        .       MOVS     r0,#1
        0x000038b2:    0640        @.      LSLS     r0,r0,#25
        0x000038b4:    4285        .B      CMP      r5,r0
        0x000038b6:    d303        ..      BCC      0x38c0 ; TIMER_Delay + 92
        0x000038b8:    2003        .       MOVS     r0,#3
        0x000038ba:    08ad        ..      LSRS     r5,r5,#2
        0x000038bc:    9000        ..      STR      r0,[sp,#0]
        0x000038be:    e006        ..      B        0x38ce ; TIMER_Delay + 106
        0x000038c0:    2001        .       MOVS     r0,#1
        0x000038c2:    0600        ..      LSLS     r0,r0,#24
        0x000038c4:    4285        .B      CMP      r5,r0
        0x000038c6:    d302        ..      BCC      0x38ce ; TIMER_Delay + 106
        0x000038c8:    2001        .       MOVS     r0,#1
        0x000038ca:    086d        m.      LSRS     r5,r5,#1
        0x000038cc:    9000        ..      STR      r0,[sp,#0]
        0x000038ce:    4628        (F      MOV      r0,r5
        0x000038d0:    f000feb7    ....    BL       __aeabi_ui2f ; 0x4642
        0x000038d4:    4605        .F      MOV      r5,r0
        0x000038d6:    4638        8F      MOV      r0,r7
        0x000038d8:    f000feb3    ....    BL       __aeabi_ui2f ; 0x4642
        0x000038dc:    4629        )F      MOV      r1,r5
        0x000038de:    f000fc8c    ....    BL       __aeabi_fmul ; 0x41fa
        0x000038e2:    490f        .I      LDR      r1,[pc,#60] ; [0x3920] = 0x49742400
        0x000038e4:    f000fcc6    ....    BL       __aeabi_fdiv ; 0x4274
        0x000038e8:    f000fedf    ....    BL       __aeabi_f2uiz ; 0x46aa
        0x000038ec:    6070        p`      STR      r0,[r6,#4]
        0x000038ee:    2101        .!      MOVS     r1,#1
        0x000038f0:    9800        ..      LDR      r0,[sp,#0]
        0x000038f2:    0789        ..      LSLS     r1,r1,#30
        0x000038f4:    4308        .C      ORRS     r0,r0,r1
        0x000038f6:    6030        0`      STR      r0,[r6,#0]
        0x000038f8:    2c00        .,      CMP      r4,#0
        0x000038fa:    d002        ..      BEQ      0x3902 ; TIMER_Delay + 158
        0x000038fc:    bf00        ..      NOP      
        0x000038fe:    1e64        d.      SUBS     r4,r4,#1
        0x00003900:    d1fc        ..      BNE      0x38fc ; TIMER_Delay + 152
        0x00003902:    6830        0h      LDR      r0,[r6,#0]
        0x00003904:    0180        ..      LSLS     r0,r0,#6
        0x00003906:    d4fc        ..      BMI      0x3902 ; TIMER_Delay + 158
        0x00003908:    bdf8        ..      POP      {r3-r7,pc}
    $d
        0x0000390a:    0000        ..      DCW    0
        0x0000390c:    40010000    ...@    DCD    1073807360
        0x00003910:    50000200    ...P    DCD    1342177792
        0x00003914:    2000001c    ...     DCD    536870940
        0x00003918:    003d0900    ..=.    DCD    4000000
        0x0000391c:    00002710    .'..    DCD    10000
        0x00003920:    49742400    .$tI    DCD    1232348160
    $t
    .text
    UART_Open
        0x00003924:    b570        p.      PUSH     {r4-r6,lr}
        0x00003926:    4604        .F      MOV      r4,r0
        0x00003928:    2003        .       MOVS     r0,#3
        0x0000392a:    460d        .F      MOV      r5,r1
        0x0000392c:    60e0        .`      STR      r0,[r4,#0xc]
        0x0000392e:    2000        .       MOVS     r0,#0
        0x00003930:    60a0        .`      STR      r0,[r4,#8]
        0x00003932:    f7fffd77    ..w.    BL       CLK_GetHCLKFreq ; 0x3424
        0x00003936:    2d00        .-      CMP      r5,#0
        0x00003938:    d008        ..      BEQ      0x394c ; UART_Open + 40
        0x0000393a:    0069        i.      LSLS     r1,r5,#1
        0x0000393c:    1b40        @.      SUBS     r0,r0,r5
        0x0000393e:    f000fbbd    ....    BL       __aeabi_uidiv ; 0x40bc
        0x00003942:    490e        .I      LDR      r1,[pc,#56] ; [0x397c] = 0xffff
        0x00003944:    4288        .B      CMP      r0,r1
        0x00003946:    d900        ..      BLS      0x394a ; UART_Open + 38
        0x00003948:    4608        .F      MOV      r0,r1
        0x0000394a:    6260        `b      STR      r0,[r4,#0x24]
        0x0000394c:    bd70        p.      POP      {r4-r6,pc}
    UART_Read
        0x0000394e:    b570        p.      PUSH     {r4-r6,lr}
        0x00003950:    4604        .F      MOV      r4,r0
        0x00003952:    2000        .       MOVS     r0,#0
        0x00003954:    2501        .%      MOVS     r5,#1
        0x00003956:    07ad        ..      LSLS     r5,r5,#30
        0x00003958:    e00c        ..      B        0x3974 ; UART_Read + 38
        0x0000395a:    2300        .#      MOVS     r3,#0
        0x0000395c:    e004        ..      B        0x3968 ; UART_Read + 26
        0x0000395e:    1c5b        [.      ADDS     r3,r3,#1
        0x00003960:    42ab        .B      CMP      r3,r5
        0x00003962:    d301        ..      BCC      0x3968 ; UART_Read + 26
        0x00003964:    2000        .       MOVS     r0,#0
        0x00003966:    bd70        p.      POP      {r4-r6,pc}
        0x00003968:    69a6        .i      LDR      r6,[r4,#0x18]
        0x0000396a:    0476        v.      LSLS     r6,r6,#17
        0x0000396c:    d4f7        ..      BMI      0x395e ; UART_Read + 16
        0x0000396e:    6823        #h      LDR      r3,[r4,#0]
        0x00003970:    540b        .T      STRB     r3,[r1,r0]
        0x00003972:    1c40        @.      ADDS     r0,r0,#1
        0x00003974:    4290        .B      CMP      r0,r2
        0x00003976:    d3f0        ..      BCC      0x395a ; UART_Read + 12
        0x00003978:    bd70        p.      POP      {r4-r6,pc}
    $d
        0x0000397a:    0000        ..      DCW    0
        0x0000397c:    0000ffff    ....    DCD    65535
    $t
    .text
    setting_rc_channel_all
        0x00003980:    b530        0.      PUSH     {r4,r5,lr}
        0x00003982:    2301        .#      MOVS     r3,#1
        0x00003984:    2000        .       MOVS     r0,#0
        0x00003986:    4afe        .J      LDR      r2,[pc,#1016] ; [0x3d80] = 0x20000848
        0x00003988:    031b        ..      LSLS     r3,r3,#12
        0x0000398a:    105c        \.      ASRS     r4,r3,#1
        0x0000398c:    210c        .!      MOVS     r1,#0xc
        0x0000398e:    4341        AC      MULS     r1,r0,r1
        0x00003990:    1889        ..      ADDS     r1,r1,r2
        0x00003992:    804b        K.      STRH     r3,[r1,#2]
        0x00003994:    2500        .%      MOVS     r5,#0
        0x00003996:    808d        ..      STRH     r5,[r1,#4]
        0x00003998:    2532        2%      MOVS     r5,#0x32
        0x0000399a:    1c40        @.      ADDS     r0,r0,#1
        0x0000399c:    80cc        ..      STRH     r4,[r1,#6]
        0x0000399e:    b2c0        ..      UXTB     r0,r0
        0x000039a0:    814d        M.      STRH     r5,[r1,#0xa]
        0x000039a2:    2804        .(      CMP      r0,#4
        0x000039a4:    d3f2        ..      BCC      0x398c ; setting_rc_channel_all + 12
        0x000039a6:    49f6        .I      LDR      r1,[pc,#984] ; [0x3d80] = 0x20000848
        0x000039a8:    2000        .       MOVS     r0,#0
        0x000039aa:    7508        .u      STRB     r0,[r1,#0x14]
        0x000039ac:    4608        .F      MOV      r0,r1
        0x000039ae:    3024        $0      ADDS     r0,r0,#0x24
        0x000039b0:    2100        .!      MOVS     r1,#0
        0x000039b2:    7201        .r      STRB     r1,[r0,#8]
        0x000039b4:    49f2        .I      LDR      r1,[pc,#968] ; [0x3d80] = 0x20000848
        0x000039b6:    2000        .       MOVS     r0,#0
        0x000039b8:    7208        .r      STRB     r0,[r1,#8]
        0x000039ba:    4608        .F      MOV      r0,r1
        0x000039bc:    3018        .0      ADDS     r0,r0,#0x18
        0x000039be:    2101        .!      MOVS     r1,#1
        0x000039c0:    7201        .r      STRB     r1,[r0,#8]
        0x000039c2:    bd30        0.      POP      {r4,r5,pc}
    set_roll_code
        0x000039c4:    b510        ..      PUSH     {r4,lr}
        0x000039c6:    4cef        .L      LDR      r4,[pc,#956] ; [0x3d84] = 0x2000009b
        0x000039c8:    2100        .!      MOVS     r1,#0
        0x000039ca:    5c42        B\      LDRB     r2,[r0,r1]
        0x000039cc:    5462        bT      STRB     r2,[r4,r1]
        0x000039ce:    1c49        I.      ADDS     r1,r1,#1
        0x000039d0:    b2c9        ..      UXTB     r1,r1
        0x000039d2:    2903        .)      CMP      r1,#3
        0x000039d4:    d3f9        ..      BCC      0x39ca ; set_roll_code + 6
        0x000039d6:    78a3        .x      LDRB     r3,[r4,#2]
        0x000039d8:    7862        bx      LDRB     r2,[r4,#1]
        0x000039da:    7821        !x      LDRB     r1,[r4,#0]
        0x000039dc:    a0ea        ..      ADR      r0,{pc}+0x3ac ; 0x3d88
        0x000039de:    f001f8ab    ....    BL       __0printf ; 0x4b38
        0x000039e2:    bd10        ..      POP      {r4,pc}
    auto_code_matching
        0x000039e4:    48e6        .H      LDR      r0,[pc,#920] ; [0x3d80] = 0x20000848
        0x000039e6:    b510        ..      PUSH     {r4,lr}
        0x000039e8:    2111        .!      MOVS     r1,#0x11
        0x000039ea:    3030        00      ADDS     r0,r0,#0x30
        0x000039ec:    f000fad2    ....    BL       ucRF_DumpRxData ; 0x3f94
        0x000039f0:    48e3        .H      LDR      r0,[pc,#908] ; [0x3d80] = 0x20000848
        0x000039f2:    3030        00      ADDS     r0,r0,#0x30
        0x000039f4:    7801        .x      LDRB     r1,[r0,#0]
        0x000039f6:    29aa        .)      CMP      r1,#0xaa
        0x000039f8:    d108        ..      BNE      0x3a0c ; auto_code_matching + 40
        0x000039fa:    7841        Ax      LDRB     r1,[r0,#1]
        0x000039fc:    29aa        .)      CMP      r1,#0xaa
        0x000039fe:    d105        ..      BNE      0x3a0c ; auto_code_matching + 40
        0x00003a00:    7bc1        .{      LDRB     r1,[r0,#0xf]
        0x00003a02:    29ce        .)      CMP      r1,#0xce
        0x00003a04:    d102        ..      BNE      0x3a0c ; auto_code_matching + 40
        0x00003a06:    7c01        .|      LDRB     r1,[r0,#0x10]
        0x00003a08:    29ed        .)      CMP      r1,#0xed
        0x00003a0a:    d001        ..      BEQ      0x3a10 ; auto_code_matching + 44
        0x00003a0c:    2000        .       MOVS     r0,#0
        0x00003a0e:    bd10        ..      POP      {r4,pc}
        0x00003a10:    1c80        ..      ADDS     r0,r0,#2
        0x00003a12:    f7ffffd7    ....    BL       set_roll_code ; 0x39c4
        0x00003a16:    49e3        .I      LDR      r1,[pc,#908] ; [0x3da4] = 0x20000010
        0x00003a18:    2001        .       MOVS     r0,#1
        0x00003a1a:    7088        .p      STRB     r0,[r1,#2]
        0x00003a1c:    bd10        ..      POP      {r4,pc}
    rc_channel_init
        0x00003a1e:    b510        ..      PUSH     {r4,lr}
        0x00003a20:    2405        .$      MOVS     r4,#5
        0x00003a22:    f7fffca5    ....    BL       SPI1_Init ; 0x3370
        0x00003a26:    f000fad1    ....    BL       RF_Init ; 0x3fcc
        0x00003a2a:    f000fa89    ....    BL       RF_RxMode ; 0x3f40
        0x00003a2e:    a0de        ..      ADR      r0,{pc}+0x37a ; 0x3da8
        0x00003a30:    f001f882    ....    BL       __0printf ; 0x4b38
        0x00003a34:    f7ffffd6    ....    BL       auto_code_matching ; 0x39e4
        0x00003a38:    2800        .(      CMP      r0,#0
        0x00003a3a:    d103        ..      BNE      0x3a44 ; rc_channel_init + 38
        0x00003a3c:    1e64        d.      SUBS     r4,r4,#1
        0x00003a3e:    0624        $.      LSLS     r4,r4,#24
        0x00003a40:    0e24        $.      LSRS     r4,r4,#24
        0x00003a42:    d1f7        ..      BNE      0x3a34 ; rc_channel_init + 22
        0x00003a44:    f7ffff9c    ....    BL       setting_rc_channel_all ; 0x3980
        0x00003a48:    bd10        ..      POP      {r4,pc}
    switch_event_trigger
        0x00003a4a:    b5f8        ..      PUSH     {r3-r7,lr}
        0x00003a4c:    4607        .F      MOV      r7,r0
        0x00003a4e:    4cdc        .L      LDR      r4,[pc,#880] ; [0x3dc0] = 0x200000fc
        0x00003a50:    49d4        .I      LDR      r1,[pc,#848] ; [0x3da4] = 0x20000010
        0x00003a52:    4620         F      MOV      r0,r4
        0x00003a54:    3030        00      ADDS     r0,r0,#0x30
        0x00003a56:    9000        ..      STR      r0,[sp,#0]
        0x00003a58:    2600        .&      MOVS     r6,#0
        0x00003a5a:    7908        .y      LDRB     r0,[r1,#4]
        0x00003a5c:    68a5        .h      LDR      r5,[r4,#8]
        0x00003a5e:    6862        bh      LDR      r2,[r4,#4]
        0x00003a60:    003b        ;.      MOVS     r3,r7
        0x00003a62:    f001f8a9    ....    BL       __ARM_common_switch8 ; 0x4bb8
    $d
        0x00003a66:    0508        ..      DCW    1288
        0x00003a68:    35332d13    .-35    DCD    892546323
        0x00003a6c:    31634739    9Gc1    DCD    828589881
    $t
        0x00003a70:    4dd4        .M      LDR      r5,[pc,#848] ; [0x3dc4] = 0x3c23d70a
        0x00003a72:    4610        .F      MOV      r0,r2
        0x00003a74:    4629        )F      MOV      r1,r5
        0x00003a76:    f000fb67    ..g.    BL       __aeabi_fadd ; 0x4148
        0x00003a7a:    4601        .F      MOV      r1,r0
        0x00003a7c:    48d0        .H      LDR      r0,[pc,#832] ; [0x3dc0] = 0x200000fc
        0x00003a7e:    f7fdfc96    ....    BL       set_pid_param_i ; 0x13ae
        0x00003a82:    4629        )F      MOV      r1,r5
        0x00003a84:    6b60        `k      LDR      r0,[r4,#0x34]
        0x00003a86:    f000fb5f    .._.    BL       __aeabi_fadd ; 0x4148
        0x00003a8a:    e00c        ..      B        0x3aa6 ; switch_event_trigger + 92
        0x00003a8c:    4dcd        .M      LDR      r5,[pc,#820] ; [0x3dc4] = 0x3c23d70a
        0x00003a8e:    4610        .F      MOV      r0,r2
        0x00003a90:    4629        )F      MOV      r1,r5
        0x00003a92:    f000fbaa    ....    BL       __aeabi_fsub ; 0x41ea
        0x00003a96:    4601        .F      MOV      r1,r0
        0x00003a98:    48c9        .H      LDR      r0,[pc,#804] ; [0x3dc0] = 0x200000fc
        0x00003a9a:    f7fdfc88    ....    BL       set_pid_param_i ; 0x13ae
        0x00003a9e:    4629        )F      MOV      r1,r5
        0x00003aa0:    6b60        `k      LDR      r0,[r4,#0x34]
        0x00003aa2:    f000fba2    ....    BL       __aeabi_fsub ; 0x41ea
        0x00003aa6:    4601        .F      MOV      r1,r0
        0x00003aa8:    9800        ..      LDR      r0,[sp,#0]
        0x00003aaa:    f7fdfc80    ....    BL       set_pid_param_i ; 0x13ae
        0x00003aae:    49c6        .I      LDR      r1,[pc,#792] ; [0x3dc8] = 0x42c80000
        0x00003ab0:    6b60        `k      LDR      r0,[r4,#0x34]
        0x00003ab2:    f000fba2    ....    BL       __aeabi_fmul ; 0x41fa
        0x00003ab6:    f000fddf    ....    BL       __aeabi_f2iz ; 0x4678
        0x00003aba:    b201        ..      SXTH     r1,r0
        0x00003abc:    a0c3        ..      ADR      r0,{pc}+0x310 ; 0x3dcc
        0x00003abe:    e032        2.      B        0x3b26 ; switch_event_trigger + 220
        0x00003ac0:    28ff        .(      CMP      r0,#0xff
        0x00003ac2:    d002        ..      BEQ      0x3aca ; switch_event_trigger + 128
        0x00003ac4:    20ff        .       MOVS     r0,#0xff
        0x00003ac6:    7108        .q      STRB     r0,[r1,#4]
        0x00003ac8:    bdf8        ..      POP      {r3-r7,pc}
        0x00003aca:    710e        .q      STRB     r6,[r1,#4]
        0x00003acc:    700e        .p      STRB     r6,[r1,#0]
        0x00003ace:    bdf8        ..      POP      {r3-r7,pc}
        0x00003ad0:    2003        .       MOVS     r0,#3
        0x00003ad2:    f7fdff83    ....    BL       set_flight_mode ; 0x19dc
        0x00003ad6:    bdf8        ..      POP      {r3-r7,pc}
        0x00003ad8:    4ec1        .N      LDR      r6,[pc,#772] ; [0x3de0] = 0x3a03126f
        0x00003ada:    4628        (F      MOV      r0,r5
        0x00003adc:    4631        1F      MOV      r1,r6
        0x00003ade:    f000fb33    ..3.    BL       __aeabi_fadd ; 0x4148
        0x00003ae2:    4601        .F      MOV      r1,r0
        0x00003ae4:    48b6        .H      LDR      r0,[pc,#728] ; [0x3dc0] = 0x200000fc
        0x00003ae6:    f7fdfc66    ..f.    BL       set_pid_param_d ; 0x13b6
        0x00003aea:    4631        1F      MOV      r1,r6
        0x00003aec:    6ba0        .k      LDR      r0,[r4,#0x38]
        0x00003aee:    f000fb2b    ..+.    BL       __aeabi_fadd ; 0x4148
        0x00003af2:    e00c        ..      B        0x3b0e ; switch_event_trigger + 196
        0x00003af4:    4eba        .N      LDR      r6,[pc,#744] ; [0x3de0] = 0x3a03126f
        0x00003af6:    4628        (F      MOV      r0,r5
        0x00003af8:    4631        1F      MOV      r1,r6
        0x00003afa:    f000fb76    ..v.    BL       __aeabi_fsub ; 0x41ea
        0x00003afe:    4601        .F      MOV      r1,r0
        0x00003b00:    48af        .H      LDR      r0,[pc,#700] ; [0x3dc0] = 0x200000fc
        0x00003b02:    f7fdfc58    ..X.    BL       set_pid_param_d ; 0x13b6
        0x00003b06:    4631        1F      MOV      r1,r6
        0x00003b08:    6ba0        .k      LDR      r0,[r4,#0x38]
        0x00003b0a:    f000fb6e    ..n.    BL       __aeabi_fsub ; 0x41ea
        0x00003b0e:    4601        .F      MOV      r1,r0
        0x00003b10:    9800        ..      LDR      r0,[sp,#0]
        0x00003b12:    f7fdfc50    ..P.    BL       set_pid_param_d ; 0x13b6
        0x00003b16:    49b3        .I      LDR      r1,[pc,#716] ; [0x3de4] = 0x461c4000
        0x00003b18:    6ba0        .k      LDR      r0,[r4,#0x38]
        0x00003b1a:    f000fb6e    ..n.    BL       __aeabi_fmul ; 0x41fa
        0x00003b1e:    f000fdab    ....    BL       __aeabi_f2iz ; 0x4678
        0x00003b22:    b201        ..      SXTH     r1,r0
        0x00003b24:    a0b0        ..      ADR      r0,{pc}+0x2c4 ; 0x3de8
        0x00003b26:    f001f807    ....    BL       __0printf ; 0x4b38
        0x00003b2a:    bdf8        ..      POP      {r3-r7,pc}
        0x00003b2c:    1c40        @.      ADDS     r0,r0,#1
        0x00003b2e:    b2c0        ..      UXTB     r0,r0
        0x00003b30:    7108        .q      STRB     r0,[r1,#4]
        0x00003b32:    2805        .(      CMP      r0,#5
        0x00003b34:    d3f9        ..      BCC      0x3b2a ; switch_event_trigger + 224
        0x00003b36:    710e        .q      STRB     r6,[r1,#4]
        0x00003b38:    bdf8        ..      POP      {r3-r7,pc}
    rc_channel_read
        0x00003b3a:    b5f8        ..      PUSH     {r3-r7,lr}
        0x00003b3c:    4891        .H      LDR      r0,[pc,#580] ; [0x3d84] = 0x2000009b
        0x00003b3e:    4a99        .J      LDR      r2,[pc,#612] ; [0x3da4] = 0x20000010
        0x00003b40:    1ec0        ..      SUBS     r0,r0,#3
        0x00003b42:    7800        .x      LDRB     r0,[r0,#0]
        0x00003b44:    2111        .!      MOVS     r1,#0x11
        0x00003b46:    1a09        ..      SUBS     r1,r1,r0
        0x00003b48:    7892        .x      LDRB     r2,[r2,#2]
        0x00003b4a:    b2c9        ..      UXTB     r1,r1
        0x00003b4c:    2a00        .*      CMP      r2,#0
        0x00003b4e:    d00b        ..      BEQ      0x3b68 ; rc_channel_read + 46
        0x00003b50:    4c8b        .L      LDR      r4,[pc,#556] ; [0x3d80] = 0x20000848
        0x00003b52:    3430        04      ADDS     r4,r4,#0x30
        0x00003b54:    1820         .      ADDS     r0,r4,r0
        0x00003b56:    f000fa1d    ....    BL       ucRF_DumpRxData ; 0x3f94
        0x00003b5a:    7821        !x      LDRB     r1,[r4,#0]
        0x00003b5c:    29aa        .)      CMP      r1,#0xaa
        0x00003b5e:    d006        ..      BEQ      0x3b6e ; rc_channel_read + 52
        0x00003b60:    4620         F      MOV      r0,r4
        0x00003b62:    29ac        .)      CMP      r1,#0xac
        0x00003b64:    d059        Y.      BEQ      0x3c1a ; rc_channel_read + 224
        0x00003b66:    e061        a.      B        0x3c2c ; rc_channel_read + 242
        0x00003b68:    f7ffff3c    ..<.    BL       auto_code_matching ; 0x39e4
        0x00003b6c:    e05e        ^.      B        0x3c2c ; rc_channel_read + 242
        0x00003b6e:    7860        `x      LDRB     r0,[r4,#1]
        0x00003b70:    28aa        .(      CMP      r0,#0xaa
        0x00003b72:    d15b        [.      BNE      0x3c2c ; rc_channel_read + 242
        0x00003b74:    7be0        .{      LDRB     r0,[r4,#0xf]
        0x00003b76:    28ce        .(      CMP      r0,#0xce
        0x00003b78:    d158        X.      BNE      0x3c2c ; rc_channel_read + 242
        0x00003b7a:    7c20         |      LDRB     r0,[r4,#0x10]
        0x00003b7c:    28ed        .(      CMP      r0,#0xed
        0x00003b7e:    d155        U.      BNE      0x3c2c ; rc_channel_read + 242
        0x00003b80:    4a80        .J      LDR      r2,[pc,#512] ; [0x3d84] = 0x2000009b
        0x00003b82:    2100        .!      MOVS     r1,#0
        0x00003b84:    1860        `.      ADDS     r0,r4,r1
        0x00003b86:    7880        .x      LDRB     r0,[r0,#2]
        0x00003b88:    5c53        S\      LDRB     r3,[r2,r1]
        0x00003b8a:    4298        .B      CMP      r0,r3
        0x00003b8c:    d14e        N.      BNE      0x3c2c ; rc_channel_read + 242
        0x00003b8e:    1c49        I.      ADDS     r1,r1,#1
        0x00003b90:    b2c9        ..      UXTB     r1,r1
        0x00003b92:    2903        .)      CMP      r1,#3
        0x00003b94:    d3f6        ..      BCC      0x3b84 ; rc_channel_read + 74
        0x00003b96:    88e0        ..      LDRH     r0,[r4,#6]
        0x00003b98:    4e7a        zN      LDR      r6,[pc,#488] ; [0x3d84] = 0x2000009b
        0x00003b9a:    ba41        A.      REV16    r1,r0
        0x00003b9c:    4878        xH      LDR      r0,[pc,#480] ; [0x3d80] = 0x20000848
        0x00003b9e:    1cf6        ..      ADDS     r6,r6,#3
        0x00003ba0:    8001        ..      STRH     r1,[r0,#0]
        0x00003ba2:    8921        !.      LDRH     r1,[r4,#8]
        0x00003ba4:    4635        5F      MOV      r5,r6
        0x00003ba6:    ba49        I.      REV16    r1,r1
        0x00003ba8:    8181        ..      STRH     r1,[r0,#0xc]
        0x00003baa:    8961        a.      LDRH     r1,[r4,#0xa]
        0x00003bac:    ba49        I.      REV16    r1,r1
        0x00003bae:    8301        ..      STRH     r1,[r0,#0x18]
        0x00003bb0:    89a1        ..      LDRH     r1,[r4,#0xc]
        0x00003bb2:    ba49        I.      REV16    r1,r1
        0x00003bb4:    8481        ..      STRH     r1,[r0,#0x24]
        0x00003bb6:    7ba0        .{      LDRB     r0,[r4,#0xe]
        0x00003bb8:    2400        .$      MOVS     r4,#0
        0x00003bba:    07c1        ..      LSLS     r1,r0,#31
        0x00003bbc:    0fc9        ..      LSRS     r1,r1,#31
        0x00003bbe:    7031        1p      STRB     r1,[r6,#0]
        0x00003bc0:    0781        ..      LSLS     r1,r0,#30
        0x00003bc2:    0fc9        ..      LSRS     r1,r1,#31
        0x00003bc4:    7071        qp      STRB     r1,[r6,#1]
        0x00003bc6:    0741        A.      LSLS     r1,r0,#29
        0x00003bc8:    0fc9        ..      LSRS     r1,r1,#31
        0x00003bca:    70b1        .p      STRB     r1,[r6,#2]
        0x00003bcc:    0701        ..      LSLS     r1,r0,#28
        0x00003bce:    0fc9        ..      LSRS     r1,r1,#31
        0x00003bd0:    70f1        .p      STRB     r1,[r6,#3]
        0x00003bd2:    06c1        ..      LSLS     r1,r0,#27
        0x00003bd4:    0fc9        ..      LSRS     r1,r1,#31
        0x00003bd6:    7131        1q      STRB     r1,[r6,#4]
        0x00003bd8:    0681        ..      LSLS     r1,r0,#26
        0x00003bda:    0fc9        ..      LSRS     r1,r1,#31
        0x00003bdc:    7171        qq      STRB     r1,[r6,#5]
        0x00003bde:    0641        A.      LSLS     r1,r0,#25
        0x00003be0:    0fc9        ..      LSRS     r1,r1,#31
        0x00003be2:    09c0        ..      LSRS     r0,r0,#7
        0x00003be4:    71b1        .q      STRB     r1,[r6,#6]
        0x00003be6:    71f0        .q      STRB     r0,[r6,#7]
        0x00003be8:    4627        'F      MOV      r7,r4
        0x00003bea:    3508        .5      ADDS     r5,r5,#8
        0x00003bec:    5d30        0]      LDRB     r0,[r6,r4]
        0x00003bee:    0780        ..      LSLS     r0,r0,#30
        0x00003bf0:    5d28        (]      LDRB     r0,[r5,r4]
        0x00003bf2:    d002        ..      BEQ      0x3bfa ; rc_channel_read + 192
        0x00003bf4:    1c40        @.      ADDS     r0,r0,#1
        0x00003bf6:    5528        (U      STRB     r0,[r5,r4]
        0x00003bf8:    e00a        ..      B        0x3c10 ; rc_channel_read + 214
        0x00003bfa:    2800        .(      CMP      r0,#0
        0x00003bfc:    d008        ..      BEQ      0x3c10 ; rc_channel_read + 214
        0x00003bfe:    28fa        .(      CMP      r0,#0xfa
        0x00003c00:    d301        ..      BCC      0x3c06 ; rc_channel_read + 204
        0x00003c02:    2101        .!      MOVS     r1,#1
        0x00003c04:    e000        ..      B        0x3c08 ; rc_channel_read + 206
        0x00003c06:    2100        .!      MOVS     r1,#0
        0x00003c08:    4620         F      MOV      r0,r4
        0x00003c0a:    f7ffff1e    ....    BL       switch_event_trigger ; 0x3a4a
        0x00003c0e:    552f        /U      STRB     r7,[r5,r4]
        0x00003c10:    1c64        d.      ADDS     r4,r4,#1
        0x00003c12:    b2e4        ..      UXTB     r4,r4
        0x00003c14:    2c08        .,      CMP      r4,#8
        0x00003c16:    d3e9        ..      BCC      0x3bec ; rc_channel_read + 178
        0x00003c18:    e00d        ..      B        0x3c36 ; rc_channel_read + 252
        0x00003c1a:    7841        Ax      LDRB     r1,[r0,#1]
        0x00003c1c:    29ce        .)      CMP      r1,#0xce
        0x00003c1e:    d105        ..      BNE      0x3c2c ; rc_channel_read + 242
        0x00003c20:    7bc1        .{      LDRB     r1,[r0,#0xf]
        0x00003c22:    29ce        .)      CMP      r1,#0xce
        0x00003c24:    d102        ..      BNE      0x3c2c ; rc_channel_read + 242
        0x00003c26:    7c01        .|      LDRB     r1,[r0,#0x10]
        0x00003c28:    29ed        .)      CMP      r1,#0xed
        0x00003c2a:    d001        ..      BEQ      0x3c30 ; rc_channel_read + 246
        0x00003c2c:    2000        .       MOVS     r0,#0
        0x00003c2e:    bdf8        ..      POP      {r3-r7,pc}
        0x00003c30:    1ca0        ..      ADDS     r0,r4,#2
        0x00003c32:    f7fffec7    ....    BL       set_roll_code ; 0x39c4
        0x00003c36:    2001        .       MOVS     r0,#1
        0x00003c38:    bdf8        ..      POP      {r3-r7,pc}
    norm_input_dz
        0x00003c3a:    b5f8        ..      PUSH     {r3-r7,lr}
        0x00003c3c:    7a01        .z      LDRB     r1,[r0,#8]
        0x00003c3e:    2900        .)      CMP      r1,#0
        0x00003c40:    d002        ..      BEQ      0x3c48 ; norm_input_dz + 14
        0x00003c42:    2700        .'      MOVS     r7,#0
        0x00003c44:    43ff        .C      MVNS     r7,r7
        0x00003c46:    e000        ..      B        0x3c4a ; norm_input_dz + 16
        0x00003c48:    2701        .'      MOVS     r7,#1
        0x00003c4a:    88c1        ..      LDRH     r1,[r0,#6]
        0x00003c4c:    8942        B.      LDRH     r2,[r0,#0xa]
        0x00003c4e:    8806        ..      LDRH     r6,[r0,#0]
        0x00003c50:    1a8b        ..      SUBS     r3,r1,r2
        0x00003c52:    1889        ..      ADDS     r1,r1,r2
        0x00003c54:    b21d        ..      SXTH     r5,r3
        0x00003c56:    b20c        ..      SXTH     r4,r1
        0x00003c58:    42ae        .B      CMP      r6,r5
        0x00003c5a:    da12        ..      BGE      0x3c82 ; norm_input_dz + 72
        0x00003c5c:    8881        ..      LDRH     r1,[r0,#4]
        0x00003c5e:    42a9        .B      CMP      r1,r5
        0x00003c60:    da0f        ..      BGE      0x3c82 ; norm_input_dz + 72
        0x00003c62:    1a68        h.      SUBS     r0,r5,r1
        0x00003c64:    f000fce2    ....    BL       __aeabi_i2f ; 0x462c
        0x00003c68:    4604        .F      MOV      r4,r0
        0x00003c6a:    1b70        p.      SUBS     r0,r6,r5
        0x00003c6c:    f000fcde    ....    BL       __aeabi_i2f ; 0x462c
        0x00003c70:    4605        .F      MOV      r5,r0
        0x00003c72:    4638        8F      MOV      r0,r7
        0x00003c74:    f000fcda    ....    BL       __aeabi_i2f ; 0x462c
        0x00003c78:    4629        )F      MOV      r1,r5
        0x00003c7a:    f000fabe    ....    BL       __aeabi_fmul ; 0x41fa
        0x00003c7e:    4621        !F      MOV      r1,r4
        0x00003c80:    e013        ..      B        0x3caa ; norm_input_dz + 112
        0x00003c82:    42a6        .B      CMP      r6,r4
        0x00003c84:    dd14        ..      BLE      0x3cb0 ; norm_input_dz + 118
        0x00003c86:    8840        @.      LDRH     r0,[r0,#2]
        0x00003c88:    42a0        .B      CMP      r0,r4
        0x00003c8a:    dd11        ..      BLE      0x3cb0 ; norm_input_dz + 118
        0x00003c8c:    1b00        ..      SUBS     r0,r0,r4
        0x00003c8e:    f000fccd    ....    BL       __aeabi_i2f ; 0x462c
        0x00003c92:    4605        .F      MOV      r5,r0
        0x00003c94:    1b30        0.      SUBS     r0,r6,r4
        0x00003c96:    f000fcc9    ....    BL       __aeabi_i2f ; 0x462c
        0x00003c9a:    4604        .F      MOV      r4,r0
        0x00003c9c:    4638        8F      MOV      r0,r7
        0x00003c9e:    f000fcc5    ....    BL       __aeabi_i2f ; 0x462c
        0x00003ca2:    4621        !F      MOV      r1,r4
        0x00003ca4:    f000faa9    ....    BL       __aeabi_fmul ; 0x41fa
        0x00003ca8:    4629        )F      MOV      r1,r5
        0x00003caa:    f000fae3    ....    BL       __aeabi_fdiv ; 0x4274
        0x00003cae:    e000        ..      B        0x3cb2 ; norm_input_dz + 120
        0x00003cb0:    2000        .       MOVS     r0,#0
        0x00003cb2:    217f        .!      MOVS     r1,#0x7f
        0x00003cb4:    4a51        QJ      LDR      r2,[pc,#324] ; [0x3dfc] = 0xbf800000
        0x00003cb6:    05c9        ..      LSLS     r1,r1,#23
        0x00003cb8:    f7fdfb32    ..2.    BL       data_limit ; 0x1320
        0x00003cbc:    bdf8        ..      POP      {r3-r7,pc}
    channel_input_to_target
        0x00003cbe:    b510        ..      PUSH     {r4,lr}
        0x00003cc0:    460c        .F      MOV      r4,r1
        0x00003cc2:    f7ffffba    ....    BL       norm_input_dz ; 0x3c3a
        0x00003cc6:    4621        !F      MOV      r1,r4
        0x00003cc8:    f000fa97    ....    BL       __aeabi_fmul ; 0x41fa
        0x00003ccc:    bd10        ..      POP      {r4,pc}
    get_desired_leans_angles
        0x00003cce:    b5f8        ..      PUSH     {r3-r7,lr}
        0x00003cd0:    4604        .F      MOV      r4,r0
        0x00003cd2:    484b        KH      LDR      r0,[pc,#300] ; [0x3e00] = 0x42340000
        0x00003cd4:    460d        .F      MOV      r5,r1
        0x00003cd6:    4281        .B      CMP      r1,r0
        0x00003cd8:    dd00        ..      BLE      0x3cdc ; get_desired_leans_angles + 14
        0x00003cda:    4605        .F      MOV      r5,r0
        0x00003cdc:    4828        (H      LDR      r0,[pc,#160] ; [0x3d80] = 0x20000848
        0x00003cde:    4629        )F      MOV      r1,r5
        0x00003ce0:    300c        .0      ADDS     r0,r0,#0xc
        0x00003ce2:    f7ffffec    ....    BL       channel_input_to_target ; 0x3cbe
        0x00003ce6:    4607        .F      MOV      r7,r0
        0x00003ce8:    4629        )F      MOV      r1,r5
        0x00003cea:    4825        %H      LDR      r0,[pc,#148] ; [0x3d80] = 0x20000848
        0x00003cec:    f7ffffe7    ....    BL       channel_input_to_target ; 0x3cbe
        0x00003cf0:    4606        .F      MOV      r6,r0
        0x00003cf2:    4601        .F      MOV      r1,r0
        0x00003cf4:    f000fa81    ....    BL       __aeabi_fmul ; 0x41fa
        0x00003cf8:    4639        9F      MOV      r1,r7
        0x00003cfa:    9000        ..      STR      r0,[sp,#0]
        0x00003cfc:    4608        .F      MOV      r0,r1
        0x00003cfe:    f000fa7c    ..|.    BL       __aeabi_fmul ; 0x41fa
        0x00003d02:    9900        ..      LDR      r1,[sp,#0]
        0x00003d04:    f000fa20    .. .    BL       __aeabi_fadd ; 0x4148
        0x00003d08:    4629        )F      MOV      r1,r5
        0x00003d0a:    9000        ..      STR      r0,[sp,#0]
        0x00003d0c:    4608        .F      MOV      r0,r1
        0x00003d0e:    f000fa74    ..t.    BL       __aeabi_fmul ; 0x41fa
        0x00003d12:    9900        ..      LDR      r1,[sp,#0]
        0x00003d14:    f000fd22    ..".    BL       __aeabi_cfcmpeq ; 0x475c
        0x00003d18:    d211        ..      BCS      0x3d3e ; get_desired_leans_angles + 112
        0x00003d1a:    9800        ..      LDR      r0,[sp,#0]
        0x00003d1c:    f7fdfae8    ....    BL       Q_rsqrt ; 0x12f0
        0x00003d20:    4601        .F      MOV      r1,r0
        0x00003d22:    4628        (F      MOV      r0,r5
        0x00003d24:    f000fa69    ..i.    BL       __aeabi_fmul ; 0x41fa
        0x00003d28:    4601        .F      MOV      r1,r0
        0x00003d2a:    9000        ..      STR      r0,[sp,#0]
        0x00003d2c:    4638        8F      MOV      r0,r7
        0x00003d2e:    f000fa64    ..d.    BL       __aeabi_fmul ; 0x41fa
        0x00003d32:    4607        .F      MOV      r7,r0
        0x00003d34:    4630        0F      MOV      r0,r6
        0x00003d36:    9900        ..      LDR      r1,[sp,#0]
        0x00003d38:    f000fa5f    .._.    BL       __aeabi_fmul ; 0x41fa
        0x00003d3c:    4606        .F      MOV      r6,r0
        0x00003d3e:    4810        .H      LDR      r0,[pc,#64] ; [0x3d80] = 0x20000848
        0x00003d40:    6027        '`      STR      r7,[r4,#0]
        0x00003d42:    4629        )F      MOV      r1,r5
        0x00003d44:    3024        $0      ADDS     r0,r0,#0x24
        0x00003d46:    6066        f`      STR      r6,[r4,#4]
        0x00003d48:    f7ffffb9    ....    BL       channel_input_to_target ; 0x3cbe
        0x00003d4c:    492d        -I      LDR      r1,[pc,#180] ; [0x3e04] = 0x2000027c
        0x00003d4e:    6809        .h      LDR      r1,[r1,#0]
        0x00003d50:    f000fa53    ..S.    BL       __aeabi_fmul ; 0x41fa
        0x00003d54:    60a0        .`      STR      r0,[r4,#8]
        0x00003d56:    bdf8        ..      POP      {r3-r7,pc}
    get_desired_throttle_expo
        0x00003d58:    b5f8        ..      PUSH     {r3-r7,lr}
        0x00003d5a:    4809        .H      LDR      r0,[pc,#36] ; [0x3d80] = 0x20000848
        0x00003d5c:    3018        .0      ADDS     r0,r0,#0x18
        0x00003d5e:    f7ffff6c    ..l.    BL       norm_input_dz ; 0x3c3a
        0x00003d62:    217f        .!      MOVS     r1,#0x7f
        0x00003d64:    05c9        ..      LSLS     r1,r1,#23
        0x00003d66:    f000f9ef    ....    BL       __aeabi_fadd ; 0x4148
        0x00003d6a:    2100        .!      MOVS     r1,#0
        0x00003d6c:    43c9        .C      MVNS     r1,r1
        0x00003d6e:    f000fabf    ....    BL       __ARM_scalbnf ; 0x42f0
        0x00003d72:    f000fcae    ....    BL       __aeabi_f2d ; 0x46d2
        0x00003d76:    4605        .F      MOV      r5,r0
        0x00003d78:    460c        .F      MOV      r4,r1
        0x00003d7a:    4a23        #J      LDR      r2,[pc,#140] ; [0x3e08] = 0x9999999a
        0x00003d7c:    4b23        #K      LDR      r3,[pc,#140] ; [0x3e0c] = 0x3fd99999
        0x00003d7e:    e047        G.      B        0x3e10 ; get_desired_throttle_expo + 184
    $d
        0x00003d80:    20000848    H..     DCD    536873032
        0x00003d84:    2000009b    ...     DCD    536871067
        0x00003d88:    6c6c6f72    roll    DCD    1819045746
        0x00003d8c:    646f6320     cod    DCD    1685021472
        0x00003d90:    30203a65    e: 0    DCD    807418469
        0x00003d94:    20582578    x%X     DCD    542647672
        0x00003d98:    58257830    0x%X    DCD    1478850608
        0x00003d9c:    25783020     0x%    DCD    628633632
        0x00003da0:    00000a58    X...    DCD    2648
        0x00003da4:    20000010    ...     DCD    536870928
        0x00003da8:    78206672    rf x    DCD    2015389298
        0x00003dac:    3031736e    ns10    DCD    808547182
        0x00003db0:    6e692034    4 in    DCD    1852383284
        0x00003db4:    73207469    it s    DCD    1931506793
        0x00003db8:    65636375    ucce    DCD    1701012341
        0x00003dbc:    000a7373    ss..    DCD    684915
        0x00003dc0:    200000fc    ...     DCD    536871164
        0x00003dc4:    3c23d70a    ..#<    DCD    1008981770
        0x00003dc8:    42c80000    ...B    DCD    1120403456
        0x00003dcc:    5f746573    set_    DCD    1601463667
        0x00003dd0:    5f646970    pid_    DCD    1600416112
        0x00003dd4:    61726170    para    DCD    1634886000
        0x00003dd8:    3a705f6d    m_p:    DCD    980442989
        0x00003ddc:    00006925    %i..    DCD    26917
        0x00003de0:    3a03126f    o..:    DCD    973279855
        0x00003de4:    461c4000    .@.F    DCD    1176256512
        0x00003de8:    5f746573    set_    DCD    1601463667
        0x00003dec:    5f646970    pid_    DCD    1600416112
        0x00003df0:    61726170    para    DCD    1634886000
        0x00003df4:    3a645f6d    m_d:    DCD    979656557
        0x00003df8:    00006425    %d..    DCD    25637
        0x00003dfc:    bf800000    ....    DCD    3212836864
        0x00003e00:    42340000    ..4B    DCD    1110704128
        0x00003e04:    2000027c    |..     DCD    536871548
        0x00003e08:    9999999a    ....    DCD    2576980378
        0x00003e0c:    3fd99999    ...?    DCD    1071225241
    $t
        0x00003e10:    f000fb2c    ..,.    BL       __aeabi_dmul ; 0x446c
        0x00003e14:    462a        *F      MOV      r2,r5
        0x00003e16:    4623        #F      MOV      r3,r4
        0x00003e18:    f000fb28    ..(.    BL       __aeabi_dmul ; 0x446c
        0x00003e1c:    462a        *F      MOV      r2,r5
        0x00003e1e:    4623        #F      MOV      r3,r4
        0x00003e20:    f000fb24    ..$.    BL       __aeabi_dmul ; 0x446c
        0x00003e24:    4606        .F      MOV      r6,r0
        0x00003e26:    460f        .F      MOV      r7,r1
        0x00003e28:    4628        (F      MOV      r0,r5
        0x00003e2a:    4621        !F      MOV      r1,r4
        0x00003e2c:    4a3c        <J      LDR      r2,[pc,#240] ; [0x3f20] = 0x33333333
        0x00003e2e:    4b3d        =K      LDR      r3,[pc,#244] ; [0x3f24] = 0x3fe33333
        0x00003e30:    f000fb1c    ....    BL       __aeabi_dmul ; 0x446c
        0x00003e34:    4632        2F      MOV      r2,r6
        0x00003e36:    463b        ;F      MOV      r3,r7
        0x00003e38:    f000fa66    ..f.    BL       __aeabi_dadd ; 0x4308
        0x00003e3c:    f000fc72    ..r.    BL       __aeabi_d2f ; 0x4724
        0x00003e40:    2200        ."      MOVS     r2,#0
        0x00003e42:    4939        9I      LDR      r1,[pc,#228] ; [0x3f28] = 0x3f733333
        0x00003e44:    f7fdfa6c    ..l.    BL       data_limit ; 0x1320
        0x00003e48:    bdf8        ..      POP      {r3-r7,pc}
    check_motor_armed
        0x00003e4a:    b5f8        ..      PUSH     {r3-r7,lr}
        0x00003e4c:    4c38        8L      LDR      r4,[pc,#224] ; [0x3f30] = 0x20000848
        0x00003e4e:    4b37        7K      LDR      r3,[pc,#220] ; [0x3f2c] = 0x20000010
        0x00003e50:    8820         .      LDRH     r0,[r4,#0]
        0x00003e52:    781a        .x      LDRB     r2,[r3,#0]
        0x00003e54:    4686        .F      MOV      lr,r0
        0x00003e56:    89a0        ..      LDRH     r0,[r4,#0xc]
        0x00003e58:    9000        ..      STR      r0,[sp,#0]
        0x00003e5a:    8ca0        ..      LDRH     r0,[r4,#0x24]
        0x00003e5c:    2100        .!      MOVS     r1,#0
        0x00003e5e:    4684        .F      MOV      r12,r0
        0x00003e60:    8b20         .      LDRH     r0,[r4,#0x18]
        0x00003e62:    4d34        4M      LDR      r5,[pc,#208] ; [0x3f34] = 0x20000098
        0x00003e64:    2a00        .*      CMP      r2,#0
        0x00003e66:    d010        ..      BEQ      0x3e8a ; check_motor_armed + 64
        0x00003e68:    4626        &F      MOV      r6,r4
        0x00003e6a:    2720         '      MOVS     r7,#0x20
        0x00003e6c:    5dbf        .]      LDRB     r7,[r7,r6]
        0x00003e6e:    8c76        v.      LDRH     r6,[r6,#0x22]
        0x00003e70:    2a01        .*      CMP      r2,#1
        0x00003e72:    d021        !.      BEQ      0x3eb8 ; check_motor_armed + 110
        0x00003e74:    2a02        .*      CMP      r2,#2
        0x00003e76:    d11e        ..      BNE      0x3eb6 ; check_motor_armed + 108
        0x00003e78:    2f00        ./      CMP      r7,#0
        0x00003e7a:    d01b        ..      BEQ      0x3eb4 ; check_motor_armed + 106
        0x00003e7c:    8b62        b.      LDRH     r2,[r4,#0x1a]
        0x00003e7e:    240a        .$      MOVS     r4,#0xa
        0x00003e80:    4366        fC      MULS     r6,r4,r6
        0x00003e82:    1b92        ..      SUBS     r2,r2,r6
        0x00003e84:    4282        .B      CMP      r2,r0
        0x00003e86:    db41        A.      BLT      0x3f0c ; check_motor_armed + 194
        0x00003e88:    e014        ..      B        0x3eb4 ; check_motor_armed + 106
        0x00003e8a:    4a2b        +J      LDR      r2,[pc,#172] ; [0x3f38] = 0xb33
        0x00003e8c:    4596        .E      CMP      lr,r2
        0x00003e8e:    d911        ..      BLS      0x3eb4 ; check_motor_armed + 106
        0x00003e90:    4e2a        *N      LDR      r6,[pc,#168] ; [0x3f3c] = 0x4cd
        0x00003e92:    9c00        ..      LDR      r4,[sp,#0]
        0x00003e94:    42b4        .B      CMP      r4,r6
        0x00003e96:    d20d        ..      BCS      0x3eb4 ; check_motor_armed + 106
        0x00003e98:    4290        .B      CMP      r0,r2
        0x00003e9a:    d90b        ..      BLS      0x3eb4 ; check_motor_armed + 106
        0x00003e9c:    4594        .E      CMP      r12,r2
        0x00003e9e:    d909        ..      BLS      0x3eb4 ; check_motor_armed + 106
        0x00003ea0:    7868        hx      LDRB     r0,[r5,#1]
        0x00003ea2:    1c40        @.      ADDS     r0,r0,#1
        0x00003ea4:    b2c0        ..      UXTB     r0,r0
        0x00003ea6:    7068        hp      STRB     r0,[r5,#1]
        0x00003ea8:    2814        .(      CMP      r0,#0x14
        0x00003eaa:    d904        ..      BLS      0x3eb6 ; check_motor_armed + 108
        0x00003eac:    2001        .       MOVS     r0,#1
        0x00003eae:    7018        .p      STRB     r0,[r3,#0]
        0x00003eb0:    7069        ip      STRB     r1,[r5,#1]
        0x00003eb2:    e033        3.      B        0x3f1c ; check_motor_armed + 210
        0x00003eb4:    7069        ip      STRB     r1,[r5,#1]
        0x00003eb6:    bdf8        ..      POP      {r3-r7,pc}
        0x00003eb8:    78aa        .x      LDRB     r2,[r5,#2]
        0x00003eba:    1c52        R.      ADDS     r2,r2,#1
        0x00003ebc:    b2d2        ..      UXTB     r2,r2
        0x00003ebe:    70aa        .p      STRB     r2,[r5,#2]
        0x00003ec0:    2a64        d*      CMP      r2,#0x64
        0x00003ec2:    d901        ..      BLS      0x3ec8 ; check_motor_armed + 126
        0x00003ec4:    7019        .p      STRB     r1,[r3,#0]
        0x00003ec6:    70a9        .p      STRB     r1,[r5,#2]
        0x00003ec8:    2f00        ./      CMP      r7,#0
        0x00003eca:    d009        ..      BEQ      0x3ee0 ; check_motor_armed + 150
        0x00003ecc:    8be2        ..      LDRH     r2,[r4,#0x1e]
        0x00003ece:    0074        t.      LSLS     r4,r6,#1
        0x00003ed0:    1b12        ..      SUBS     r2,r2,r4
        0x00003ed2:    4282        .B      CMP      r2,r0
        0x00003ed4:    dd04        ..      BLE      0x3ee0 ; check_motor_armed + 150
        0x00003ed6:    2002        .       MOVS     r0,#2
        0x00003ed8:    7018        .p      STRB     r0,[r3,#0]
        0x00003eda:    f7fdfd57    ..W.    BL       reset_pid_param ; 0x198c
        0x00003ede:    bdf8        ..      POP      {r3-r7,pc}
        0x00003ee0:    785a        Zx      LDRB     r2,[r3,#1]
        0x00003ee2:    2a00        .*      CMP      r2,#0
        0x00003ee4:    d0e6        ..      BEQ      0x3eb4 ; check_motor_armed + 106
        0x00003ee6:    4a14        .J      LDR      r2,[pc,#80] ; [0x3f38] = 0xb33
        0x00003ee8:    4596        .E      CMP      lr,r2
        0x00003eea:    d9e3        ..      BLS      0x3eb4 ; check_motor_armed + 106
        0x00003eec:    9c00        ..      LDR      r4,[sp,#0]
        0x00003eee:    4294        .B      CMP      r4,r2
        0x00003ef0:    d9e0        ..      BLS      0x3eb4 ; check_motor_armed + 106
        0x00003ef2:    4290        .B      CMP      r0,r2
        0x00003ef4:    d9de        ..      BLS      0x3eb4 ; check_motor_armed + 106
        0x00003ef6:    4a11        .J      LDR      r2,[pc,#68] ; [0x3f3c] = 0x4cd
        0x00003ef8:    4594        .E      CMP      r12,r2
        0x00003efa:    d2db        ..      BCS      0x3eb4 ; check_motor_armed + 106
        0x00003efc:    7868        hx      LDRB     r0,[r5,#1]
        0x00003efe:    1c40        @.      ADDS     r0,r0,#1
        0x00003f00:    b2c0        ..      UXTB     r0,r0
        0x00003f02:    7068        hp      STRB     r0,[r5,#1]
        0x00003f04:    2814        .(      CMP      r0,#0x14
        0x00003f06:    d9ea        ..      BLS      0x3ede ; check_motor_armed + 148
        0x00003f08:    7019        .p      STRB     r1,[r3,#0]
        0x00003f0a:    e7d3        ..      B        0x3eb4 ; check_motor_armed + 106
        0x00003f0c:    7868        hx      LDRB     r0,[r5,#1]
        0x00003f0e:    1c40        @.      ADDS     r0,r0,#1
        0x00003f10:    b2c0        ..      UXTB     r0,r0
        0x00003f12:    7068        hp      STRB     r0,[r5,#1]
        0x00003f14:    2832        2(      CMP      r0,#0x32
        0x00003f16:    d9e2        ..      BLS      0x3ede ; check_motor_armed + 148
        0x00003f18:    2001        .       MOVS     r0,#1
        0x00003f1a:    7018        .p      STRB     r0,[r3,#0]
        0x00003f1c:    70a9        .p      STRB     r1,[r5,#2]
        0x00003f1e:    bdf8        ..      POP      {r3-r7,pc}
    $d
        0x00003f20:    33333333    3333    DCD    858993459
        0x00003f24:    3fe33333    33.?    DCD    1071854387
        0x00003f28:    3f733333    33s?    DCD    1064514355
        0x00003f2c:    20000010    ...     DCD    536870928
        0x00003f30:    20000848    H..     DCD    536873032
        0x00003f34:    20000098    ...     DCD    536871064
        0x00003f38:    00000b33    3...    DCD    2867
        0x00003f3c:    000004cd    ....    DCD    1229
    $t
    .text
    RF_RxMode
        0x00003f40:    b510        ..      PUSH     {r4,lr}
        0x00003f42:    2100        .!      MOVS     r1,#0
        0x00003f44:    20fc        .       MOVS     r0,#0xfc
        0x00003f46:    f7fffa21    ..!.    BL       SPI_WriteReg ; 0x338c
        0x00003f4a:    218f        .!      MOVS     r1,#0x8f
        0x00003f4c:    2020                MOVS     r0,#0x20
        0x00003f4e:    f7fffa1d    ....    BL       SPI_WriteReg ; 0x338c
        0x00003f52:    2100        .!      MOVS     r1,#0
        0x00003f54:    20fd        .       MOVS     r0,#0xfd
        0x00003f56:    f7fffa19    ....    BL       SPI_WriteReg ; 0x338c
        0x00003f5a:    217d        }!      MOVS     r1,#0x7d
        0x00003f5c:    0109        ..      LSLS     r1,r1,#4
        0x00003f5e:    484e        NH      LDR      r0,[pc,#312] ; [0x4098] = 0x40010000
        0x00003f60:    f7fffc80    ....    BL       TIMER_Delay ; 0x3864
        0x00003f64:    bd10        ..      POP      {r4,pc}
    ucRF_GetStatus
        0x00003f66:    b510        ..      PUSH     {r4,lr}
        0x00003f68:    2007        .       MOVS     r0,#7
        0x00003f6a:    f7fffa31    ..1.    BL       SPI_ReadReg ; 0x33d0
        0x00003f6e:    2170        p!      MOVS     r1,#0x70
        0x00003f70:    4008        .@      ANDS     r0,r0,r1
        0x00003f72:    bd10        ..      POP      {r4,pc}
    RF_ClearStatus
        0x00003f74:    b510        ..      PUSH     {r4,lr}
        0x00003f76:    2170        p!      MOVS     r1,#0x70
        0x00003f78:    2027        '       MOVS     r0,#0x27
        0x00003f7a:    f7fffa07    ....    BL       SPI_WriteReg ; 0x338c
        0x00003f7e:    bd10        ..      POP      {r4,pc}
    RF_ClearFIFO
        0x00003f80:    b510        ..      PUSH     {r4,lr}
        0x00003f82:    2100        .!      MOVS     r1,#0
        0x00003f84:    20e1        .       MOVS     r0,#0xe1
        0x00003f86:    f7fffa01    ....    BL       SPI_WriteReg ; 0x338c
        0x00003f8a:    2100        .!      MOVS     r1,#0
        0x00003f8c:    20e2        .       MOVS     r0,#0xe2
        0x00003f8e:    f7fff9fd    ....    BL       SPI_WriteReg ; 0x338c
        0x00003f92:    bd10        ..      POP      {r4,pc}
    ucRF_DumpRxData
        0x00003f94:    b570        p.      PUSH     {r4-r6,lr}
        0x00003f96:    460c        .F      MOV      r4,r1
        0x00003f98:    4605        .F      MOV      r5,r0
        0x00003f9a:    f7ffffe4    ....    BL       ucRF_GetStatus ; 0x3f66
        0x00003f9e:    0640        @.      LSLS     r0,r0,#25
        0x00003fa0:    d512        ..      BPL      0x3fc8 ; ucRF_DumpRxData + 52
        0x00003fa2:    2100        .!      MOVS     r1,#0
        0x00003fa4:    20fc        .       MOVS     r0,#0xfc
        0x00003fa6:    f7fff9f1    ....    BL       SPI_WriteReg ; 0x338c
        0x00003faa:    4622        "F      MOV      r2,r4
        0x00003fac:    4629        )F      MOV      r1,r5
        0x00003fae:    2061        a       MOVS     r0,#0x61
        0x00003fb0:    f7fffa1a    ....    BL       SPI_ReadBuf ; 0x33e8
        0x00003fb4:    f7ffffe4    ....    BL       RF_ClearFIFO ; 0x3f80
        0x00003fb8:    f7ffffdc    ....    BL       RF_ClearStatus ; 0x3f74
        0x00003fbc:    2100        .!      MOVS     r1,#0
        0x00003fbe:    20fd        .       MOVS     r0,#0xfd
        0x00003fc0:    f7fff9e4    ....    BL       SPI_WriteReg ; 0x338c
        0x00003fc4:    2001        .       MOVS     r0,#1
        0x00003fc6:    bd70        p.      POP      {r4-r6,pc}
        0x00003fc8:    2000        .       MOVS     r0,#0
        0x00003fca:    bd70        p.      POP      {r4-r6,pc}
    RF_Init
        0x00003fcc:    b510        ..      PUSH     {r4,lr}
        0x00003fce:    a033        3.      ADR      r0,{pc}+0xce ; 0x409c
        0x00003fd0:    c803        ..      LDM      r0,{r0,r1}
        0x00003fd2:    b088        ..      SUB      sp,sp,#0x20
        0x00003fd4:    9000        ..      STR      r0,[sp,#0]
        0x00003fd6:    9101        ..      STR      r1,[sp,#4]
        0x00003fd8:    a032        2.      ADR      r0,{pc}+0xcc ; 0x40a4
        0x00003fda:    6800        .h      LDR      r0,[r0,#0]
        0x00003fdc:    9004        ..      STR      r0,[sp,#0x10]
        0x00003fde:    a032        2.      ADR      r0,{pc}+0xca ; 0x40a8
        0x00003fe0:    c803        ..      LDM      r0,{r0,r1}
        0x00003fe2:    9103        ..      STR      r1,[sp,#0xc]
        0x00003fe4:    9002        ..      STR      r0,[sp,#8]
        0x00003fe6:    a032        2.      ADR      r0,{pc}+0xca ; 0x40b0
        0x00003fe8:    6800        .h      LDR      r0,[r0,#0]
        0x00003fea:    9005        ..      STR      r0,[sp,#0x14]
        0x00003fec:    a031        1.      ADR      r0,{pc}+0xc8 ; 0x40b4
        0x00003fee:    6800        .h      LDR      r0,[r0,#0]
        0x00003ff0:    9006        ..      STR      r0,[sp,#0x18]
        0x00003ff2:    2420         $      MOVS     r4,#0x20
        0x00003ff4:    2100        .!      MOVS     r1,#0
        0x00003ff6:    20e1        .       MOVS     r0,#0xe1
        0x00003ff8:    f7fff9c8    ....    BL       SPI_WriteReg ; 0x338c
        0x00003ffc:    2100        .!      MOVS     r1,#0
        0x00003ffe:    20e2        .       MOVS     r0,#0xe2
        0x00004000:    f7fff9c4    ....    BL       SPI_WriteReg ; 0x338c
        0x00004004:    2170        p!      MOVS     r1,#0x70
        0x00004006:    2027        '       MOVS     r0,#0x27
        0x00004008:    f7fff9c0    ....    BL       SPI_WriteReg ; 0x338c
        0x0000400c:    2101        .!      MOVS     r1,#1
        0x0000400e:    2022        "       MOVS     r0,#0x22
        0x00004010:    f7fff9bc    ....    BL       SPI_WriteReg ; 0x338c
        0x00004014:    214e        N!      MOVS     r1,#0x4e
        0x00004016:    2025        %       MOVS     r0,#0x25
        0x00004018:    f7fff9b8    ....    BL       SPI_WriteReg ; 0x338c
        0x0000401c:    2111        .!      MOVS     r1,#0x11
        0x0000401e:    2031        1       MOVS     r0,#0x31
        0x00004020:    f7fff9b4    ....    BL       SPI_WriteReg ; 0x338c
        0x00004024:    2205        ."      MOVS     r2,#5
        0x00004026:    4924        $I      LDR      r1,[pc,#144] ; [0x40b8] = 0x6442
        0x00004028:    2030        0       MOVS     r0,#0x30
        0x0000402a:    f7fff9bc    ....    BL       SPI_WriteBuf ; 0x33a6
        0x0000402e:    2205        ."      MOVS     r2,#5
        0x00004030:    4921        !I      LDR      r1,[pc,#132] ; [0x40b8] = 0x6442
        0x00004032:    202a        *       MOVS     r0,#0x2a
        0x00004034:    f7fff9b7    ....    BL       SPI_WriteBuf ; 0x33a6
        0x00004038:    2205        ."      MOVS     r2,#5
        0x0000403a:    4669        iF      MOV      r1,sp
        0x0000403c:    203f        ?       MOVS     r0,#0x3f
        0x0000403e:    f7fff9b2    ....    BL       SPI_WriteBuf ; 0x33a6
        0x00004042:    2206        ."      MOVS     r2,#6
        0x00004044:    a902        ..      ADD      r1,sp,#8
        0x00004046:    203a        :       MOVS     r0,#0x3a
        0x00004048:    f7fff9ad    ....    BL       SPI_WriteBuf ; 0x33a6
        0x0000404c:    2201        ."      MOVS     r2,#1
        0x0000404e:    a905        ..      ADD      r1,sp,#0x14
        0x00004050:    2039        9       MOVS     r0,#0x39
        0x00004052:    f7fff9a8    ....    BL       SPI_WriteBuf ; 0x33a6
        0x00004056:    2203        ."      MOVS     r2,#3
        0x00004058:    a904        ..      ADD      r1,sp,#0x10
        0x0000405a:    203e        >       MOVS     r0,#0x3e
        0x0000405c:    f7fff9a3    ....    BL       SPI_WriteBuf ; 0x33a6
        0x00004060:    2203        ."      MOVS     r2,#3
        0x00004062:    a906        ..      ADD      r1,sp,#0x18
        0x00004064:    203b        ;       MOVS     r0,#0x3b
        0x00004066:    f7fff99e    ....    BL       SPI_WriteBuf ; 0x33a6
        0x0000406a:    212c        ,!      MOVS     r1,#0x2c
        0x0000406c:    2026        &       MOVS     r0,#0x26
        0x0000406e:    f7fff98d    ....    BL       SPI_WriteReg ; 0x338c
        0x00004072:    2100        .!      MOVS     r1,#0
        0x00004074:    2024        $       MOVS     r0,#0x24
        0x00004076:    f7fff989    ....    BL       SPI_WriteReg ; 0x338c
        0x0000407a:    2100        .!      MOVS     r1,#0
        0x0000407c:    2021        !       MOVS     r0,#0x21
        0x0000407e:    f7fff985    ....    BL       SPI_WriteReg ; 0x338c
        0x00004082:    4621        !F      MOV      r1,r4
        0x00004084:    203d        =       MOVS     r0,#0x3d
        0x00004086:    f7fff981    ....    BL       SPI_WriteReg ; 0x338c
        0x0000408a:    2100        .!      MOVS     r1,#0
        0x0000408c:    20fc        .       MOVS     r0,#0xfc
        0x0000408e:    f7fff97d    ..}.    BL       SPI_WriteReg ; 0x338c
        0x00004092:    b008        ..      ADD      sp,sp,#0x20
        0x00004094:    bd10        ..      POP      {r4,pc}
    $d
        0x00004096:    0000        ..      DCW    0
        0x00004098:    40010000    ...@    DCD    1073807360
        0x0000409c:    9c676d0a    .mg.    DCD    2624023818
        0x000040a0:    00000046    F...    DCD    70
        0x000040a4:    005d37f6    .7].    DCD    6109174
        0x000040a8:    acef2145    E!..    DCD    2901352773
        0x000040ac:    0000505a    ZP..    DCD    20570
        0x000040b0:    00000001    ....    DCD    1
        0x000040b4:    0002df0b    ....    DCD    188171
        0x000040b8:    00006442    Bd..    DCD    25666
    $t
    .text
    __aeabi_uidiv
    __aeabi_uidivmod
        0x000040bc:    b530        0.      PUSH     {r4,r5,lr}
        0x000040be:    460b        .F      MOV      r3,r1
        0x000040c0:    4601        .F      MOV      r1,r0
        0x000040c2:    2000        .       MOVS     r0,#0
        0x000040c4:    2220         "      MOVS     r2,#0x20
        0x000040c6:    2401        .$      MOVS     r4,#1
        0x000040c8:    e009        ..      B        0x40de ; __aeabi_uidiv + 34
        0x000040ca:    460d        .F      MOV      r5,r1
        0x000040cc:    40d5        .@      LSRS     r5,r5,r2
        0x000040ce:    429d        .B      CMP      r5,r3
        0x000040d0:    d305        ..      BCC      0x40de ; __aeabi_uidiv + 34
        0x000040d2:    461d        .F      MOV      r5,r3
        0x000040d4:    4095        .@      LSLS     r5,r5,r2
        0x000040d6:    1b49        I.      SUBS     r1,r1,r5
        0x000040d8:    4625        %F      MOV      r5,r4
        0x000040da:    4095        .@      LSLS     r5,r5,r2
        0x000040dc:    1940        @.      ADDS     r0,r0,r5
        0x000040de:    4615        .F      MOV      r5,r2
        0x000040e0:    1e52        R.      SUBS     r2,r2,#1
        0x000040e2:    2d00        .-      CMP      r5,#0
        0x000040e4:    dcf1        ..      BGT      0x40ca ; __aeabi_uidiv + 14
        0x000040e6:    bd30        0.      POP      {r4,r5,pc}
    .text
    __aeabi_idiv
    __aeabi_idivmod
        0x000040e8:    b570        p.      PUSH     {r4-r6,lr}
        0x000040ea:    2400        .$      MOVS     r4,#0
        0x000040ec:    4625        %F      MOV      r5,r4
        0x000040ee:    2800        .(      CMP      r0,#0
        0x000040f0:    da01        ..      BGE      0x40f6 ; __aeabi_idiv + 14
        0x000040f2:    2401        .$      MOVS     r4,#1
        0x000040f4:    4240        @B      RSBS     r0,r0,#0
        0x000040f6:    2900        .)      CMP      r1,#0
        0x000040f8:    da01        ..      BGE      0x40fe ; __aeabi_idiv + 22
        0x000040fa:    2501        .%      MOVS     r5,#1
        0x000040fc:    4249        IB      RSBS     r1,r1,#0
        0x000040fe:    f7ffffdd    ....    BL       __aeabi_uidiv ; 0x40bc
        0x00004102:    42ac        .B      CMP      r4,r5
        0x00004104:    d000        ..      BEQ      0x4108 ; __aeabi_idiv + 32
        0x00004106:    4240        @B      RSBS     r0,r0,#0
        0x00004108:    2c00        .,      CMP      r4,#0
        0x0000410a:    d000        ..      BEQ      0x410e ; __aeabi_idiv + 38
        0x0000410c:    4249        IB      RSBS     r1,r1,#0
        0x0000410e:    bd70        p.      POP      {r4-r6,pc}
    .text
    __aeabi_memset
    __aeabi_memset4
    __aeabi_memset8
        0x00004110:    b2d2        ..      UXTB     r2,r2
        0x00004112:    e001        ..      B        0x4118 ; __aeabi_memset + 8
        0x00004114:    7002        .p      STRB     r2,[r0,#0]
        0x00004116:    1c40        @.      ADDS     r0,r0,#1
        0x00004118:    1e49        I.      SUBS     r1,r1,#1
        0x0000411a:    d2fb        ..      BCS      0x4114 ; __aeabi_memset + 4
        0x0000411c:    4770        pG      BX       lr
    __aeabi_memclr
    __aeabi_memclr4
    __aeabi_memclr8
        0x0000411e:    2200        ."      MOVS     r2,#0
        0x00004120:    e7f6        ..      B        __aeabi_memset ; 0x4110
    _memset$wrapper
        0x00004122:    b510        ..      PUSH     {r4,lr}
        0x00004124:    4613        .F      MOV      r3,r2
        0x00004126:    460a        .F      MOV      r2,r1
        0x00004128:    4604        .F      MOV      r4,r0
        0x0000412a:    4619        .F      MOV      r1,r3
        0x0000412c:    f7fffff0    ....    BL       __aeabi_memset ; 0x4110
        0x00004130:    4620         F      MOV      r0,r4
        0x00004132:    bd10        ..      POP      {r4,pc}
    .text
    __aeabi_uread4
    __rt_uread4
    _uread4
        0x00004134:    2103        .!      MOVS     r1,#3
        0x00004136:    1d00        ..      ADDS     r0,r0,#4
        0x00004138:    1e40        @.      SUBS     r0,r0,#1
        0x0000413a:    7803        .x      LDRB     r3,[r0,#0]
        0x0000413c:    0212        ..      LSLS     r2,r2,#8
        0x0000413e:    431a        .C      ORRS     r2,r2,r3
        0x00004140:    1e49        I.      SUBS     r1,r1,#1
        0x00004142:    d5f9        ..      BPL      0x4138 ; __aeabi_uread4 + 4
        0x00004144:    4610        .F      MOV      r0,r2
        0x00004146:    4770        pG      BX       lr
    .text
    __aeabi_fadd
        0x00004148:    b5f8        ..      PUSH     {r3-r7,lr}
        0x0000414a:    4602        .F      MOV      r2,r0
        0x0000414c:    404a        J@      EORS     r2,r2,r1
        0x0000414e:    0fd4        ..      LSRS     r4,r2,#31
        0x00004150:    0042        B.      LSLS     r2,r0,#1
        0x00004152:    004b        K.      LSLS     r3,r1,#1
        0x00004154:    0852        R.      LSRS     r2,r2,#1
        0x00004156:    085b        [.      LSRS     r3,r3,#1
        0x00004158:    429a        .B      CMP      r2,r3
        0x0000415a:    d202        ..      BCS      0x4162 ; __aeabi_fadd + 26
        0x0000415c:    4602        .F      MOV      r2,r0
        0x0000415e:    4608        .F      MOV      r0,r1
        0x00004160:    4611        .F      MOV      r1,r2
        0x00004162:    004a        J.      LSLS     r2,r1,#1
        0x00004164:    d023        #.      BEQ      0x41ae ; __aeabi_fadd + 102
        0x00004166:    0dc3        ..      LSRS     r3,r0,#23
        0x00004168:    004a        J.      LSLS     r2,r1,#1
        0x0000416a:    b2dd        ..      UXTB     r5,r3
        0x0000416c:    0e12        ..      LSRS     r2,r2,#24
        0x0000416e:    1aad        ..      SUBS     r5,r5,r2
        0x00004170:    2d20         -      CMP      r5,#0x20
        0x00004172:    da35        5.      BGE      0x41e0 ; __aeabi_fadd + 152
        0x00004174:    0249        I.      LSLS     r1,r1,#9
        0x00004176:    2601        .&      MOVS     r6,#1
        0x00004178:    0a49        I.      LSRS     r1,r1,#9
        0x0000417a:    05f6        ..      LSLS     r6,r6,#23
        0x0000417c:    198a        ..      ADDS     r2,r1,r6
        0x0000417e:    2c00        .,      CMP      r4,#0
        0x00004180:    d000        ..      BEQ      0x4184 ; __aeabi_fadd + 60
        0x00004182:    4252        RB      RSBS     r2,r2,#0
        0x00004184:    2120         !      MOVS     r1,#0x20
        0x00004186:    1b4f        O.      SUBS     r7,r1,r5
        0x00004188:    4611        .F      MOV      r1,r2
        0x0000418a:    40b9        .@      LSLS     r1,r1,r7
        0x0000418c:    412a        *A      ASRS     r2,r2,r5
        0x0000418e:    1810        ..      ADDS     r0,r2,r0
        0x00004190:    0dc2        ..      LSRS     r2,r0,#23
        0x00004192:    429a        .B      CMP      r2,r3
        0x00004194:    d021        !.      BEQ      0x41da ; __aeabi_fadd + 146
        0x00004196:    2c00        .,      CMP      r4,#0
        0x00004198:    d017        ..      BEQ      0x41ca ; __aeabi_fadd + 130
        0x0000419a:    2d01        .-      CMP      r5,#1
        0x0000419c:    dc08        ..      BGT      0x41b0 ; __aeabi_fadd + 104
        0x0000419e:    05da        ..      LSLS     r2,r3,#23
        0x000041a0:    1a80        ..      SUBS     r0,r0,r2
        0x000041a2:    0fd2        ..      LSRS     r2,r2,#31
        0x000041a4:    1980        ..      ADDS     r0,r0,r6
        0x000041a6:    07d2        ..      LSLS     r2,r2,#31
        0x000041a8:    b2db        ..      UXTB     r3,r3
        0x000041aa:    f000fb46    ..F.    BL       _float_epilogue ; 0x483a
        0x000041ae:    bdf8        ..      POP      {r3-r7,pc}
        0x000041b0:    05da        ..      LSLS     r2,r3,#23
        0x000041b2:    1a80        ..      SUBS     r0,r0,r2
        0x000041b4:    2301        .#      MOVS     r3,#1
        0x000041b6:    0040        @.      LSLS     r0,r0,#1
        0x000041b8:    061b        ..      LSLS     r3,r3,#24
        0x000041ba:    18c0        ..      ADDS     r0,r0,r3
        0x000041bc:    1880        ..      ADDS     r0,r0,r2
        0x000041be:    425a        ZB      RSBS     r2,r3,#0
        0x000041c0:    1880        ..      ADDS     r0,r0,r2
        0x000041c2:    0fca        ..      LSRS     r2,r1,#31
        0x000041c4:    4310        .C      ORRS     r0,r0,r2
        0x000041c6:    0049        I.      LSLS     r1,r1,#1
        0x000041c8:    e007        ..      B        0x41da ; __aeabi_fadd + 146
        0x000041ca:    0849        I.      LSRS     r1,r1,#1
        0x000041cc:    07c2        ..      LSLS     r2,r0,#31
        0x000041ce:    4311        .C      ORRS     r1,r1,r2
        0x000041d0:    05da        ..      LSLS     r2,r3,#23
        0x000041d2:    1a80        ..      SUBS     r0,r0,r2
        0x000041d4:    1980        ..      ADDS     r0,r0,r6
        0x000041d6:    0840        @.      LSRS     r0,r0,#1
        0x000041d8:    1880        ..      ADDS     r0,r0,r2
        0x000041da:    f000fb26    ..&.    BL       __I$use$fp ; 0x482a
        0x000041de:    bdf8        ..      POP      {r3-r7,pc}
        0x000041e0:    0061        a.      LSLS     r1,r4,#1
        0x000041e2:    2201        ."      MOVS     r2,#1
        0x000041e4:    1a51        Q.      SUBS     r1,r2,r1
        0x000041e6:    1b00        ..      SUBS     r0,r0,r4
        0x000041e8:    e7f7        ..      B        0x41da ; __aeabi_fadd + 146
    __aeabi_fsub
        0x000041ea:    2201        ."      MOVS     r2,#1
        0x000041ec:    07d2        ..      LSLS     r2,r2,#31
        0x000041ee:    4051        Q@      EORS     r1,r1,r2
        0x000041f0:    e7aa        ..      B        __aeabi_fadd ; 0x4148
    __aeabi_frsub
        0x000041f2:    2201        ."      MOVS     r2,#1
        0x000041f4:    07d2        ..      LSLS     r2,r2,#31
        0x000041f6:    4050        P@      EORS     r0,r0,r2
        0x000041f8:    e7a6        ..      B        __aeabi_fadd ; 0x4148
    .text
    __aeabi_fmul
        0x000041fa:    4602        .F      MOV      r2,r0
        0x000041fc:    b570        p.      PUSH     {r4-r6,lr}
        0x000041fe:    404a        J@      EORS     r2,r2,r1
        0x00004200:    0fd3        ..      LSRS     r3,r2,#31
        0x00004202:    07db        ..      LSLS     r3,r3,#31
        0x00004204:    0040        @.      LSLS     r0,r0,#1
        0x00004206:    d02d        -.      BEQ      0x4264 ; __aeabi_fmul + 106
        0x00004208:    004a        J.      LSLS     r2,r1,#1
        0x0000420a:    d02a        *.      BEQ      0x4262 ; __aeabi_fmul + 104
        0x0000420c:    0e01        ..      LSRS     r1,r0,#24
        0x0000420e:    0e14        ..      LSRS     r4,r2,#24
        0x00004210:    0200        ..      LSLS     r0,r0,#8
        0x00004212:    0212        ..      LSLS     r2,r2,#8
        0x00004214:    1909        ..      ADDS     r1,r1,r4
        0x00004216:    0a40        @.      LSRS     r0,r0,#9
        0x00004218:    0a52        R.      LSRS     r2,r2,#9
        0x0000421a:    1884        ..      ADDS     r4,r0,r2
        0x0000421c:    01e5        ..      LSLS     r5,r4,#7
        0x0000421e:    4604        .F      MOV      r4,r0
        0x00004220:    4354        TC      MULS     r4,r2,r4
        0x00004222:    0a00        ..      LSRS     r0,r0,#8
        0x00004224:    0a12        ..      LSRS     r2,r2,#8
        0x00004226:    042e        ..      LSLS     r6,r5,#16
        0x00004228:    4350        PC      MULS     r0,r2,r0
        0x0000422a:    19a4        ..      ADDS     r4,r4,r6
        0x0000422c:    1942        B.      ADDS     r2,r0,r5
        0x0000422e:    0c20         .      LSRS     r0,r4,#16
        0x00004230:    43c5        .C      MVNS     r5,r0
        0x00004232:    18aa        ..      ADDS     r2,r5,r2
        0x00004234:    0c12        ..      LSRS     r2,r2,#16
        0x00004236:    2501        .%      MOVS     r5,#1
        0x00004238:    03ad        ..      LSLS     r5,r5,#14
        0x0000423a:    1c52        R.      ADDS     r2,r2,#1
        0x0000423c:    1952        R.      ADDS     r2,r2,r5
        0x0000423e:    0412        ..      LSLS     r2,r2,#16
        0x00004240:    397f        .9      SUBS     r1,r1,#0x7f
        0x00004242:    0424        $.      LSLS     r4,r4,#16
        0x00004244:    d000        ..      BEQ      0x4248 ; __aeabi_fmul + 78
        0x00004246:    1c52        R.      ADDS     r2,r2,#1
        0x00004248:    4310        .C      ORRS     r0,r0,r2
        0x0000424a:    d401        ..      BMI      0x4250 ; __aeabi_fmul + 86
        0x0000424c:    0040        @.      LSLS     r0,r0,#1
        0x0000424e:    1e49        I.      SUBS     r1,r1,#1
        0x00004250:    b2c2        ..      UXTB     r2,r0
        0x00004252:    060c        ..      LSLS     r4,r1,#24
        0x00004254:    09c0        ..      LSRS     r0,r0,#7
        0x00004256:    1820         .      ADDS     r0,r4,r0
        0x00004258:    1c40        @.      ADDS     r0,r0,#1
        0x0000425a:    0840        @.      LSRS     r0,r0,#1
        0x0000425c:    2a80        .*      CMP      r2,#0x80
        0x0000425e:    d002        ..      BEQ      0x4266 ; __aeabi_fmul + 108
        0x00004260:    e003        ..      B        0x426a ; __aeabi_fmul + 112
        0x00004262:    2000        .       MOVS     r0,#0
        0x00004264:    bd70        p.      POP      {r4-r6,pc}
        0x00004266:    0840        @.      LSRS     r0,r0,#1
        0x00004268:    0040        @.      LSLS     r0,r0,#1
        0x0000426a:    2900        .)      CMP      r1,#0
        0x0000426c:    da00        ..      BGE      0x4270 ; __aeabi_fmul + 118
        0x0000426e:    2000        .       MOVS     r0,#0
        0x00004270:    4318        .C      ORRS     r0,r0,r3
        0x00004272:    bd70        p.      POP      {r4-r6,pc}
    .text
    __aeabi_fdiv
        0x00004274:    b570        p.      PUSH     {r4-r6,lr}
        0x00004276:    4602        .F      MOV      r2,r0
        0x00004278:    404a        J@      EORS     r2,r2,r1
        0x0000427a:    0fd5        ..      LSRS     r5,r2,#31
        0x0000427c:    0040        @.      LSLS     r0,r0,#1
        0x0000427e:    004a        J.      LSLS     r2,r1,#1
        0x00004280:    07ed        ..      LSLS     r5,r5,#31
        0x00004282:    0840        @.      LSRS     r0,r0,#1
        0x00004284:    0852        R.      LSRS     r2,r2,#1
        0x00004286:    2800        .(      CMP      r0,#0
        0x00004288:    d014        ..      BEQ      0x42b4 ; __aeabi_fdiv + 64
        0x0000428a:    2a00        .*      CMP      r2,#0
        0x0000428c:    d012        ..      BEQ      0x42b4 ; __aeabi_fdiv + 64
        0x0000428e:    0dc4        ..      LSRS     r4,r0,#23
        0x00004290:    0dd3        ..      LSRS     r3,r2,#23
        0x00004292:    0241        A.      LSLS     r1,r0,#9
        0x00004294:    2001        .       MOVS     r0,#1
        0x00004296:    05c0        ..      LSLS     r0,r0,#23
        0x00004298:    0252        R.      LSLS     r2,r2,#9
        0x0000429a:    0a49        I.      LSRS     r1,r1,#9
        0x0000429c:    0a52        R.      LSRS     r2,r2,#9
        0x0000429e:    1ae4        ..      SUBS     r4,r4,r3
        0x000042a0:    1809        ..      ADDS     r1,r1,r0
        0x000042a2:    1812        ..      ADDS     r2,r2,r0
        0x000042a4:    347d        }4      ADDS     r4,r4,#0x7d
        0x000042a6:    4291        .B      CMP      r1,r2
        0x000042a8:    d301        ..      BCC      0x42ae ; __aeabi_fdiv + 58
        0x000042aa:    1c64        d.      ADDS     r4,r4,#1
        0x000042ac:    e000        ..      B        0x42b0 ; __aeabi_fdiv + 60
        0x000042ae:    0049        I.      LSLS     r1,r1,#1
        0x000042b0:    2c00        .,      CMP      r4,#0
        0x000042b2:    da01        ..      BGE      0x42b8 ; __aeabi_fdiv + 68
        0x000042b4:    2000        .       MOVS     r0,#0
        0x000042b6:    bd70        p.      POP      {r4-r6,pc}
        0x000042b8:    2300        .#      MOVS     r3,#0
        0x000042ba:    4291        .B      CMP      r1,r2
        0x000042bc:    d301        ..      BCC      0x42c2 ; __aeabi_fdiv + 78
        0x000042be:    1a89        ..      SUBS     r1,r1,r2
        0x000042c0:    4303        .C      ORRS     r3,r3,r0
        0x000042c2:    0840        @.      LSRS     r0,r0,#1
        0x000042c4:    0049        I.      LSLS     r1,r1,#1
        0x000042c6:    2800        .(      CMP      r0,#0
        0x000042c8:    d1f7        ..      BNE      0x42ba ; __aeabi_fdiv + 70
        0x000042ca:    2900        .)      CMP      r1,#0
        0x000042cc:    d00a        ..      BEQ      0x42e4 ; __aeabi_fdiv + 112
        0x000042ce:    4291        .B      CMP      r1,r2
        0x000042d0:    d102        ..      BNE      0x42d8 ; __aeabi_fdiv + 100
        0x000042d2:    2101        .!      MOVS     r1,#1
        0x000042d4:    07c9        ..      LSLS     r1,r1,#31
        0x000042d6:    e005        ..      B        0x42e4 ; __aeabi_fdiv + 112
        0x000042d8:    4291        .B      CMP      r1,r2
        0x000042da:    d201        ..      BCS      0x42e0 ; __aeabi_fdiv + 108
        0x000042dc:    2101        .!      MOVS     r1,#1
        0x000042de:    e001        ..      B        0x42e4 ; __aeabi_fdiv + 112
        0x000042e0:    2101        .!      MOVS     r1,#1
        0x000042e2:    43c9        .C      MVNS     r1,r1
        0x000042e4:    05e0        ..      LSLS     r0,r4,#23
        0x000042e6:    18c0        ..      ADDS     r0,r0,r3
        0x000042e8:    1940        @.      ADDS     r0,r0,r5
        0x000042ea:    f000fa9e    ....    BL       __I$use$fp ; 0x482a
        0x000042ee:    bd70        p.      POP      {r4-r6,pc}
    .text
    __ARM_scalbnf
    scalbnf
        0x000042f0:    0042        B.      LSLS     r2,r0,#1
        0x000042f2:    d005        ..      BEQ      0x4300 ; __ARM_scalbnf + 16
        0x000042f4:    0042        B.      LSLS     r2,r0,#1
        0x000042f6:    0e12        ..      LSRS     r2,r2,#24
        0x000042f8:    4252        RB      RSBS     r2,r2,#0
        0x000042fa:    428a        .B      CMP      r2,r1
        0x000042fc:    db01        ..      BLT      0x4302 ; __ARM_scalbnf + 18
        0x000042fe:    2000        .       MOVS     r0,#0
        0x00004300:    4770        pG      BX       lr
        0x00004302:    05c9        ..      LSLS     r1,r1,#23
        0x00004304:    1808        ..      ADDS     r0,r1,r0
        0x00004306:    4770        pG      BX       lr
    .text
    __aeabi_dadd
        0x00004308:    b5f0        ..      PUSH     {r4-r7,lr}
        0x0000430a:    4607        .F      MOV      r7,r0
        0x0000430c:    4608        .F      MOV      r0,r1
        0x0000430e:    4058        X@      EORS     r0,r0,r3
        0x00004310:    b087        ..      SUB      sp,sp,#0x1c
        0x00004312:    0fc0        ..      LSRS     r0,r0,#31
        0x00004314:    9004        ..      STR      r0,[sp,#0x10]
        0x00004316:    0048        H.      LSLS     r0,r1,#1
        0x00004318:    460e        .F      MOV      r6,r1
        0x0000431a:    0059        Y.      LSLS     r1,r3,#1
        0x0000431c:    0840        @.      LSRS     r0,r0,#1
        0x0000431e:    0849        I.      LSRS     r1,r1,#1
        0x00004320:    1abc        ..      SUBS     r4,r7,r2
        0x00004322:    4188        .A      SBCS     r0,r0,r1
        0x00004324:    d205        ..      BCS      0x4332 ; __aeabi_dadd + 42
        0x00004326:    4638        8F      MOV      r0,r7
        0x00004328:    4631        1F      MOV      r1,r6
        0x0000432a:    461e        .F      MOV      r6,r3
        0x0000432c:    4617        .F      MOV      r7,r2
        0x0000432e:    460b        .F      MOV      r3,r1
        0x00004330:    4602        .F      MOV      r2,r0
        0x00004332:    0058        X.      LSLS     r0,r3,#1
        0x00004334:    0840        @.      LSRS     r0,r0,#1
        0x00004336:    4310        .C      ORRS     r0,r0,r2
        0x00004338:    d04c        L.      BEQ      0x43d4 ; __aeabi_dadd + 204
        0x0000433a:    0d30        0.      LSRS     r0,r6,#20
        0x0000433c:    9003        ..      STR      r0,[sp,#0xc]
        0x0000433e:    0540        @.      LSLS     r0,r0,#21
        0x00004340:    0059        Y.      LSLS     r1,r3,#1
        0x00004342:    0d40        @.      LSRS     r0,r0,#21
        0x00004344:    0d49        I.      LSRS     r1,r1,#21
        0x00004346:    9005        ..      STR      r0,[sp,#0x14]
        0x00004348:    1a40        @.      SUBS     r0,r0,r1
        0x0000434a:    9002        ..      STR      r0,[sp,#8]
        0x0000434c:    2840        @(      CMP      r0,#0x40
        0x0000434e:    da72        r.      BGE      0x4436 ; __aeabi_dadd + 302
        0x00004350:    0318        ..      LSLS     r0,r3,#12
        0x00004352:    2101        .!      MOVS     r1,#1
        0x00004354:    0b00        ..      LSRS     r0,r0,#12
        0x00004356:    0509        ..      LSLS     r1,r1,#20
        0x00004358:    4308        .C      ORRS     r0,r0,r1
        0x0000435a:    9001        ..      STR      r0,[sp,#4]
        0x0000435c:    9804        ..      LDR      r0,[sp,#0x10]
        0x0000435e:    9200        ..      STR      r2,[sp,#0]
        0x00004360:    2800        .(      CMP      r0,#0
        0x00004362:    d005        ..      BEQ      0x4370 ; __aeabi_dadd + 104
        0x00004364:    9901        ..      LDR      r1,[sp,#4]
        0x00004366:    4252        RB      RSBS     r2,r2,#0
        0x00004368:    2000        .       MOVS     r0,#0
        0x0000436a:    4188        .A      SBCS     r0,r0,r1
        0x0000436c:    9200        ..      STR      r2,[sp,#0]
        0x0000436e:    9001        ..      STR      r0,[sp,#4]
        0x00004370:    9802        ..      LDR      r0,[sp,#8]
        0x00004372:    2140        @!      MOVS     r1,#0x40
        0x00004374:    1a0a        ..      SUBS     r2,r1,r0
        0x00004376:    9901        ..      LDR      r1,[sp,#4]
        0x00004378:    9800        ..      LDR      r0,[sp,#0]
        0x0000437a:    f000fa33    ..3.    BL       __aeabi_llsl ; 0x47e4
        0x0000437e:    4605        .F      MOV      r5,r0
        0x00004380:    460c        .F      MOV      r4,r1
        0x00004382:    466b        kF      MOV      r3,sp
        0x00004384:    cb07        ..      LDM      r3!,{r0-r2}
        0x00004386:    f000fa3d    ..=.    BL       __aeabi_lasr ; 0x4804
        0x0000438a:    19c0        ..      ADDS     r0,r0,r7
        0x0000438c:    4171        qA      ADCS     r1,r1,r6
        0x0000438e:    9a03        ..      LDR      r2,[sp,#0xc]
        0x00004390:    0d0e        ..      LSRS     r6,r1,#20
        0x00004392:    2300        .#      MOVS     r3,#0
        0x00004394:    17d7        ..      ASRS     r7,r2,#31
        0x00004396:    4056        V@      EORS     r6,r6,r2
        0x00004398:    461a        .F      MOV      r2,r3
        0x0000439a:    407a        z@      EORS     r2,r2,r7
        0x0000439c:    4316        .C      ORRS     r6,r6,r2
        0x0000439e:    d044        D.      BEQ      0x442a ; __aeabi_dadd + 290
        0x000043a0:    9a04        ..      LDR      r2,[sp,#0x10]
        0x000043a2:    2a00        .*      CMP      r2,#0
        0x000043a4:    d02d        -.      BEQ      0x4402 ; __aeabi_dadd + 250
        0x000043a6:    9a02        ..      LDR      r2,[sp,#8]
        0x000043a8:    2a01        .*      CMP      r2,#1
        0x000043aa:    9a03        ..      LDR      r2,[sp,#0xc]
        0x000043ac:    dc15        ..      BGT      0x43da ; __aeabi_dadd + 210
        0x000043ae:    0512        ..      LSLS     r2,r2,#20
        0x000043b0:    1ac0        ..      SUBS     r0,r0,r3
        0x000043b2:    4191        .A      SBCS     r1,r1,r2
        0x000043b4:    2601        .&      MOVS     r6,#1
        0x000043b6:    0536        6.      LSLS     r6,r6,#20
        0x000043b8:    1c00        ..      ADDS     r0,r0,#0
        0x000043ba:    4171        qA      ADCS     r1,r1,r6
        0x000043bc:    0fd2        ..      LSRS     r2,r2,#31
        0x000043be:    9e05        ..      LDR      r6,[sp,#0x14]
        0x000043c0:    07d2        ..      LSLS     r2,r2,#31
        0x000043c2:    9300        ..      STR      r3,[sp,#0]
        0x000043c4:    9201        ..      STR      r2,[sp,#4]
        0x000043c6:    9602        ..      STR      r6,[sp,#8]
        0x000043c8:    462a        *F      MOV      r2,r5
        0x000043ca:    4623        #F      MOV      r3,r4
        0x000043cc:    f000fa9a    ....    BL       _double_epilogue ; 0x4904
        0x000043d0:    b007        ..      ADD      sp,sp,#0x1c
        0x000043d2:    bdf0        ..      POP      {r4-r7,pc}
        0x000043d4:    4638        8F      MOV      r0,r7
        0x000043d6:    4631        1F      MOV      r1,r6
        0x000043d8:    e7fa        ..      B        0x43d0 ; __aeabi_dadd + 200
        0x000043da:    0516        ..      LSLS     r6,r2,#20
        0x000043dc:    4a22        "J      LDR      r2,[pc,#136] ; [0x4468] = 0xffe00000
        0x000043de:    460f        .F      MOV      r7,r1
        0x000043e0:    18b2        ..      ADDS     r2,r6,r2
        0x000043e2:    1ac0        ..      SUBS     r0,r0,r3
        0x000043e4:    41b7        .A      SBCS     r7,r7,r6
        0x000043e6:    2101        .!      MOVS     r1,#1
        0x000043e8:    0509        ..      LSLS     r1,r1,#20
        0x000043ea:    1c00        ..      ADDS     r0,r0,#0
        0x000043ec:    414f        OA      ADCS     r7,r7,r1
        0x000043ee:    1800        ..      ADDS     r0,r0,r0
        0x000043f0:    417f        .A      ADCS     r7,r7,r7
        0x000043f2:    4611        .F      MOV      r1,r2
        0x000043f4:    1818        ..      ADDS     r0,r3,r0
        0x000043f6:    4179        yA      ADCS     r1,r1,r7
        0x000043f8:    0fe2        ..      LSRS     r2,r4,#31
        0x000043fa:    4310        .C      ORRS     r0,r0,r2
        0x000043fc:    196d        m.      ADDS     r5,r5,r5
        0x000043fe:    4164        dA      ADCS     r4,r4,r4
        0x00004400:    e013        ..      B        0x442a ; __aeabi_dadd + 290
        0x00004402:    07e2        ..      LSLS     r2,r4,#31
        0x00004404:    086d        m.      LSRS     r5,r5,#1
        0x00004406:    4315        .C      ORRS     r5,r5,r2
        0x00004408:    0864        d.      LSRS     r4,r4,#1
        0x0000440a:    07c2        ..      LSLS     r2,r0,#31
        0x0000440c:    4314        .C      ORRS     r4,r4,r2
        0x0000440e:    9a03        ..      LDR      r2,[sp,#0xc]
        0x00004410:    2601        .&      MOVS     r6,#1
        0x00004412:    0512        ..      LSLS     r2,r2,#20
        0x00004414:    1ac0        ..      SUBS     r0,r0,r3
        0x00004416:    4191        .A      SBCS     r1,r1,r2
        0x00004418:    0536        6.      LSLS     r6,r6,#20
        0x0000441a:    1c00        ..      ADDS     r0,r0,#0
        0x0000441c:    4171        qA      ADCS     r1,r1,r6
        0x0000441e:    07ce        ..      LSLS     r6,r1,#31
        0x00004420:    0840        @.      LSRS     r0,r0,#1
        0x00004422:    4330        0C      ORRS     r0,r0,r6
        0x00004424:    0849        I.      LSRS     r1,r1,#1
        0x00004426:    18c0        ..      ADDS     r0,r0,r3
        0x00004428:    4151        QA      ADCS     r1,r1,r2
        0x0000442a:    462a        *F      MOV      r2,r5
        0x0000442c:    4623        #F      MOV      r3,r4
        0x0000442e:    f000fa5c    ..\.    BL       _double_round ; 0x48ea
        0x00004432:    e7cd        ..      B        0x43d0 ; __aeabi_dadd + 200
        0x00004434:    e7ff        ..      B        0x4436 ; __aeabi_dadd + 302
        0x00004436:    9804        ..      LDR      r0,[sp,#0x10]
        0x00004438:    2201        ."      MOVS     r2,#1
        0x0000443a:    0040        @.      LSLS     r0,r0,#1
        0x0000443c:    17c1        ..      ASRS     r1,r0,#31
        0x0000443e:    1a12        ..      SUBS     r2,r2,r0
        0x00004440:    2300        .#      MOVS     r3,#0
        0x00004442:    418b        .A      SBCS     r3,r3,r1
        0x00004444:    9804        ..      LDR      r0,[sp,#0x10]
        0x00004446:    4631        1F      MOV      r1,r6
        0x00004448:    17c4        ..      ASRS     r4,r0,#31
        0x0000444a:    1a38        8.      SUBS     r0,r7,r0
        0x0000444c:    41a1        .A      SBCS     r1,r1,r4
        0x0000444e:    e7ee        ..      B        0x442e ; __aeabi_dadd + 294
    __aeabi_dsub
        0x00004450:    b430        0.      PUSH     {r4,r5}
        0x00004452:    2401        .$      MOVS     r4,#1
        0x00004454:    07e4        ..      LSLS     r4,r4,#31
        0x00004456:    4063        c@      EORS     r3,r3,r4
        0x00004458:    bc30        0.      POP      {r4,r5}
        0x0000445a:    e755        U.      B        __aeabi_dadd ; 0x4308
    __aeabi_drsub
        0x0000445c:    b430        0.      PUSH     {r4,r5}
        0x0000445e:    2401        .$      MOVS     r4,#1
        0x00004460:    07e4        ..      LSLS     r4,r4,#31
        0x00004462:    4061        a@      EORS     r1,r1,r4
        0x00004464:    bc30        0.      POP      {r4,r5}
        0x00004466:    e74f        O.      B        __aeabi_dadd ; 0x4308
    $d
        0x00004468:    ffe00000    ....    DCD    4292870144
    $t
    .text
    __aeabi_dmul
        0x0000446c:    b5f0        ..      PUSH     {r4-r7,lr}
        0x0000446e:    b41f        ..      PUSH     {r0-r4}
        0x00004470:    b088        ..      SUB      sp,sp,#0x20
        0x00004472:    990b        ..      LDR      r1,[sp,#0x2c]
        0x00004474:    9809        ..      LDR      r0,[sp,#0x24]
        0x00004476:    2400        .$      MOVS     r4,#0
        0x00004478:    4048        H@      EORS     r0,r0,r1
        0x0000447a:    9909        ..      LDR      r1,[sp,#0x24]
        0x0000447c:    0fc0        ..      LSRS     r0,r0,#31
        0x0000447e:    0049        I.      LSLS     r1,r1,#1
        0x00004480:    0849        I.      LSRS     r1,r1,#1
        0x00004482:    9109        ..      STR      r1,[sp,#0x24]
        0x00004484:    07c0        ..      LSLS     r0,r0,#31
        0x00004486:    990b        ..      LDR      r1,[sp,#0x2c]
        0x00004488:    9000        ..      STR      r0,[sp,#0]
        0x0000448a:    0049        I.      LSLS     r1,r1,#1
        0x0000448c:    0849        I.      LSRS     r1,r1,#1
        0x0000448e:    910b        ..      STR      r1,[sp,#0x2c]
        0x00004490:    9909        ..      LDR      r1,[sp,#0x24]
        0x00004492:    9808        ..      LDR      r0,[sp,#0x20]
        0x00004494:    46a6        .F      MOV      lr,r4
        0x00004496:    4308        .C      ORRS     r0,r0,r1
        0x00004498:    d01c        ..      BEQ      0x44d4 ; __aeabi_dmul + 104
        0x0000449a:    990b        ..      LDR      r1,[sp,#0x2c]
        0x0000449c:    980a        ..      LDR      r0,[sp,#0x28]
        0x0000449e:    4308        .C      ORRS     r0,r0,r1
        0x000044a0:    d018        ..      BEQ      0x44d4 ; __aeabi_dmul + 104
        0x000044a2:    9809        ..      LDR      r0,[sp,#0x24]
        0x000044a4:    2401        .$      MOVS     r4,#1
        0x000044a6:    0040        @.      LSLS     r0,r0,#1
        0x000044a8:    0d42        B.      LSRS     r2,r0,#21
        0x000044aa:    0048        H.      LSLS     r0,r1,#1
        0x000044ac:    0d41        A.      LSRS     r1,r0,#21
        0x000044ae:    9809        ..      LDR      r0,[sp,#0x24]
        0x000044b0:    0524        $.      LSLS     r4,r4,#20
        0x000044b2:    0300        ..      LSLS     r0,r0,#12
        0x000044b4:    0b00        ..      LSRS     r0,r0,#12
        0x000044b6:    4320         C      ORRS     r0,r0,r4
        0x000044b8:    9009        ..      STR      r0,[sp,#0x24]
        0x000044ba:    980b        ..      LDR      r0,[sp,#0x2c]
        0x000044bc:    0300        ..      LSLS     r0,r0,#12
        0x000044be:    0b00        ..      LSRS     r0,r0,#12
        0x000044c0:    4320         C      ORRS     r0,r0,r4
        0x000044c2:    900b        ..      STR      r0,[sp,#0x2c]
        0x000044c4:    1850        P.      ADDS     r0,r2,r1
        0x000044c6:    491c        .I      LDR      r1,[pc,#112] ; [0x4538] = 0xfffffc0d
        0x000044c8:    1840        @.      ADDS     r0,r0,r1
        0x000044ca:    2200        ."      MOVS     r2,#0
        0x000044cc:    9001        ..      STR      r0,[sp,#4]
        0x000044ce:    4614        .F      MOV      r4,r2
        0x000044d0:    4610        .F      MOV      r0,r2
        0x000044d2:    e005        ..      B        0x44e0 ; __aeabi_dmul + 116
        0x000044d4:    2000        .       MOVS     r0,#0
        0x000044d6:    4601        .F      MOV      r1,r0
        0x000044d8:    b00d        ..      ADD      sp,sp,#0x34
        0x000044da:    bdf0        ..      POP      {r4-r7,pc}
        0x000044dc:    2803        .(      CMP      r0,#3
        0x000044de:    da01        ..      BGE      0x44e4 ; __aeabi_dmul + 120
        0x000044e0:    4603        .F      MOV      r3,r0
        0x000044e2:    e000        ..      B        0x44e6 ; __aeabi_dmul + 122
        0x000044e4:    2303        .#      MOVS     r3,#3
        0x000044e6:    469c        .F      MOV      r12,r3
        0x000044e8:    1ac1        ..      SUBS     r1,r0,r3
        0x000044ea:    ae0a        ..      ADD      r6,sp,#0x28
        0x000044ec:    e00a        ..      B        0x4504 ; __aeabi_dmul + 152
        0x000044ee:    005f        _.      LSLS     r7,r3,#1
        0x000044f0:    ad08        ..      ADD      r5,sp,#0x20
        0x000044f2:    5bed        .[      LDRH     r5,[r5,r7]
        0x000044f4:    004f        O.      LSLS     r7,r1,#1
        0x000044f6:    5bf7        .[      LDRH     r7,[r6,r7]
        0x000044f8:    437d        }C      MULS     r5,r7,r5
        0x000044fa:    2700        .'      MOVS     r7,#0
        0x000044fc:    18aa        ..      ADDS     r2,r5,r2
        0x000044fe:    417c        |A      ADCS     r4,r4,r7
        0x00004500:    1c49        I.      ADDS     r1,r1,#1
        0x00004502:    1e5b        [.      SUBS     r3,r3,#1
        0x00004504:    4561        aE      CMP      r1,r12
        0x00004506:    ddf2        ..      BLE      0x44ee ; __aeabi_dmul + 130
        0x00004508:    0041        A.      LSLS     r1,r0,#1
        0x0000450a:    ab04        ..      ADD      r3,sp,#0x10
        0x0000450c:    525a        ZR      STRH     r2,[r3,r1]
        0x0000450e:    0421        !.      LSLS     r1,r4,#16
        0x00004510:    0c12        ..      LSRS     r2,r2,#16
        0x00004512:    430a        .C      ORRS     r2,r2,r1
        0x00004514:    0c24        $.      LSRS     r4,r4,#16
        0x00004516:    1c40        @.      ADDS     r0,r0,#1
        0x00004518:    2808        .(      CMP      r0,#8
        0x0000451a:    dbdf        ..      BLT      0x44dc ; __aeabi_dmul + 112
        0x0000451c:    9801        ..      LDR      r0,[sp,#4]
        0x0000451e:    9002        ..      STR      r0,[sp,#8]
        0x00004520:    9900        ..      LDR      r1,[sp,#0]
        0x00004522:    4670        pF      MOV      r0,lr
        0x00004524:    9101        ..      STR      r1,[sp,#4]
        0x00004526:    9000        ..      STR      r0,[sp,#0]
        0x00004528:    9b05        ..      LDR      r3,[sp,#0x14]
        0x0000452a:    9a04        ..      LDR      r2,[sp,#0x10]
        0x0000452c:    9907        ..      LDR      r1,[sp,#0x1c]
        0x0000452e:    9806        ..      LDR      r0,[sp,#0x18]
        0x00004530:    f000f9e8    ....    BL       _double_epilogue ; 0x4904
        0x00004534:    e7d0        ..      B        0x44d8 ; __aeabi_dmul + 108
    $d
        0x00004536:    0000        ..      DCW    0
        0x00004538:    fffffc0d    ....    DCD    4294966285
    $t
    .text
    __aeabi_ddiv
        0x0000453c:    b5f0        ..      PUSH     {r4-r7,lr}
        0x0000453e:    460c        .F      MOV      r4,r1
        0x00004540:    405c        \@      EORS     r4,r4,r3
        0x00004542:    b085        ..      SUB      sp,sp,#0x14
        0x00004544:    0fe4        ..      LSRS     r4,r4,#31
        0x00004546:    07e4        ..      LSLS     r4,r4,#31
        0x00004548:    9403        ..      STR      r4,[sp,#0xc]
        0x0000454a:    004c        L.      LSLS     r4,r1,#1
        0x0000454c:    2600        .&      MOVS     r6,#0
        0x0000454e:    0864        d.      LSRS     r4,r4,#1
        0x00004550:    0059        Y.      LSLS     r1,r3,#1
        0x00004552:    4694        .F      MOV      r12,r2
        0x00004554:    0849        I.      LSRS     r1,r1,#1
        0x00004556:    4602        .F      MOV      r2,r0
        0x00004558:    9602        ..      STR      r6,[sp,#8]
        0x0000455a:    4322        "C      ORRS     r2,r2,r4
        0x0000455c:    d021        !.      BEQ      0x45a2 ; __aeabi_ddiv + 102
        0x0000455e:    4662        bF      MOV      r2,r12
        0x00004560:    430a        .C      ORRS     r2,r2,r1
        0x00004562:    d01e        ..      BEQ      0x45a2 ; __aeabi_ddiv + 102
        0x00004564:    0062        b.      LSLS     r2,r4,#1
        0x00004566:    0d57        W.      LSRS     r7,r2,#21
        0x00004568:    004a        J.      LSLS     r2,r1,#1
        0x0000456a:    030e        ..      LSLS     r6,r1,#12
        0x0000456c:    0323        #.      LSLS     r3,r4,#12
        0x0000456e:    0d55        U.      LSRS     r5,r2,#21
        0x00004570:    2401        .$      MOVS     r4,#1
        0x00004572:    4602        .F      MOV      r2,r0
        0x00004574:    492c        ,I      LDR      r1,[pc,#176] ; [0x4628] = 0x3fd
        0x00004576:    0524        $.      LSLS     r4,r4,#20
        0x00004578:    1b78        x.      SUBS     r0,r7,r5
        0x0000457a:    0b1b        ..      LSRS     r3,r3,#12
        0x0000457c:    0b36        6.      LSRS     r6,r6,#12
        0x0000457e:    1840        @.      ADDS     r0,r0,r1
        0x00004580:    4323        #C      ORRS     r3,r3,r4
        0x00004582:    4326        &C      ORRS     r6,r6,r4
        0x00004584:    4661        aF      MOV      r1,r12
        0x00004586:    9000        ..      STR      r0,[sp,#0]
        0x00004588:    461c        .F      MOV      r4,r3
        0x0000458a:    1a50        P.      SUBS     r0,r2,r1
        0x0000458c:    41b4        .A      SBCS     r4,r4,r6
        0x0000458e:    d303        ..      BCC      0x4598 ; __aeabi_ddiv + 92
        0x00004590:    9800        ..      LDR      r0,[sp,#0]
        0x00004592:    1c40        @.      ADDS     r0,r0,#1
        0x00004594:    9000        ..      STR      r0,[sp,#0]
        0x00004596:    e002        ..      B        0x459e ; __aeabi_ddiv + 98
        0x00004598:    1892        ..      ADDS     r2,r2,r2
        0x0000459a:    9800        ..      LDR      r0,[sp,#0]
        0x0000459c:    415b        [A      ADCS     r3,r3,r3
        0x0000459e:    2800        .(      CMP      r0,#0
        0x000045a0:    da03        ..      BGE      0x45aa ; __aeabi_ddiv + 110
        0x000045a2:    2000        .       MOVS     r0,#0
        0x000045a4:    4601        .F      MOV      r1,r0
        0x000045a6:    b005        ..      ADD      sp,sp,#0x14
        0x000045a8:    bdf0        ..      POP      {r4-r7,pc}
        0x000045aa:    2000        .       MOVS     r0,#0
        0x000045ac:    2101        .!      MOVS     r1,#1
        0x000045ae:    0509        ..      LSLS     r1,r1,#20
        0x000045b0:    4607        .F      MOV      r7,r0
        0x000045b2:    4686        .F      MOV      lr,r0
        0x000045b4:    e011        ..      B        0x45da ; __aeabi_ddiv + 158
        0x000045b6:    4664        dF      MOV      r4,r12
        0x000045b8:    461d        .F      MOV      r5,r3
        0x000045ba:    1b14        ..      SUBS     r4,r2,r4
        0x000045bc:    41b5        .A      SBCS     r5,r5,r6
        0x000045be:    d306        ..      BCC      0x45ce ; __aeabi_ddiv + 146
        0x000045c0:    4665        eF      MOV      r5,r12
        0x000045c2:    1b52        R.      SUBS     r2,r2,r5
        0x000045c4:    41b3        .A      SBCS     r3,r3,r6
        0x000045c6:    4674        tF      MOV      r4,lr
        0x000045c8:    4307        .C      ORRS     r7,r7,r0
        0x000045ca:    430c        .C      ORRS     r4,r4,r1
        0x000045cc:    46a6        .F      MOV      lr,r4
        0x000045ce:    07cd        ..      LSLS     r5,r1,#31
        0x000045d0:    0840        @.      LSRS     r0,r0,#1
        0x000045d2:    0849        I.      LSRS     r1,r1,#1
        0x000045d4:    4328        (C      ORRS     r0,r0,r5
        0x000045d6:    1892        ..      ADDS     r2,r2,r2
        0x000045d8:    415b        [A      ADCS     r3,r3,r3
        0x000045da:    4605        .F      MOV      r5,r0
        0x000045dc:    430d        .C      ORRS     r5,r5,r1
        0x000045de:    d1ea        ..      BNE      0x45b6 ; __aeabi_ddiv + 122
        0x000045e0:    4610        .F      MOV      r0,r2
        0x000045e2:    4318        .C      ORRS     r0,r0,r3
        0x000045e4:    d013        ..      BEQ      0x460e ; __aeabi_ddiv + 210
        0x000045e6:    4660        `F      MOV      r0,r12
        0x000045e8:    4619        .F      MOV      r1,r3
        0x000045ea:    4050        P@      EORS     r0,r0,r2
        0x000045ec:    4071        q@      EORS     r1,r1,r6
        0x000045ee:    4308        .C      ORRS     r0,r0,r1
        0x000045f0:    d006        ..      BEQ      0x4600 ; __aeabi_ddiv + 196
        0x000045f2:    4660        `F      MOV      r0,r12
        0x000045f4:    1a10        ..      SUBS     r0,r2,r0
        0x000045f6:    41b3        .A      SBCS     r3,r3,r6
        0x000045f8:    d206        ..      BCS      0x4608 ; __aeabi_ddiv + 204
        0x000045fa:    2201        ."      MOVS     r2,#1
        0x000045fc:    2300        .#      MOVS     r3,#0
        0x000045fe:    e006        ..      B        0x460e ; __aeabi_ddiv + 210
        0x00004600:    2200        ."      MOVS     r2,#0
        0x00004602:    2301        .#      MOVS     r3,#1
        0x00004604:    07db        ..      LSLS     r3,r3,#31
        0x00004606:    e002        ..      B        0x460e ; __aeabi_ddiv + 210
        0x00004608:    2201        ."      MOVS     r2,#1
        0x0000460a:    43d2        .C      MVNS     r2,r2
        0x0000460c:    1053        S.      ASRS     r3,r2,#1
        0x0000460e:    9800        ..      LDR      r0,[sp,#0]
        0x00004610:    4674        tF      MOV      r4,lr
        0x00004612:    0501        ..      LSLS     r1,r0,#20
        0x00004614:    1c38        8.      ADDS     r0,r7,#0
        0x00004616:    4161        aA      ADCS     r1,r1,r4
        0x00004618:    9c02        ..      LDR      r4,[sp,#8]
        0x0000461a:    9d03        ..      LDR      r5,[sp,#0xc]
        0x0000461c:    1900        ..      ADDS     r0,r0,r4
        0x0000461e:    4169        iA      ADCS     r1,r1,r5
        0x00004620:    f000f963    ..c.    BL       _double_round ; 0x48ea
        0x00004624:    e7bf        ..      B        0x45a6 ; __aeabi_ddiv + 106
    $d
        0x00004626:    0000        ..      DCW    0
        0x00004628:    000003fd    ....    DCD    1021
    $t
    .text
    __aeabi_i2f
        0x0000462c:    17c2        ..      ASRS     r2,r0,#31
        0x0000462e:    0fc1        ..      LSRS     r1,r0,#31
        0x00004630:    4050        P@      EORS     r0,r0,r2
        0x00004632:    b510        ..      PUSH     {r4,lr}
        0x00004634:    1840        @.      ADDS     r0,r0,r1
        0x00004636:    07ca        ..      LSLS     r2,r1,#31
        0x00004638:    2396        .#      MOVS     r3,#0x96
        0x0000463a:    2100        .!      MOVS     r1,#0
        0x0000463c:    f000f8fd    ....    BL       _float_epilogue ; 0x483a
        0x00004640:    bd10        ..      POP      {r4,pc}
    .text
    __aeabi_ui2f
        0x00004642:    b510        ..      PUSH     {r4,lr}
        0x00004644:    2200        ."      MOVS     r2,#0
        0x00004646:    2396        .#      MOVS     r3,#0x96
        0x00004648:    4611        .F      MOV      r1,r2
        0x0000464a:    f000f8f6    ....    BL       _float_epilogue ; 0x483a
        0x0000464e:    bd10        ..      POP      {r4,pc}
    .text
    __aeabi_i2d
        0x00004650:    b50e        ..      PUSH     {r1-r3,lr}
        0x00004652:    17c2        ..      ASRS     r2,r0,#31
        0x00004654:    0fc1        ..      LSRS     r1,r0,#31
        0x00004656:    4050        P@      EORS     r0,r0,r2
        0x00004658:    07ca        ..      LSLS     r2,r1,#31
        0x0000465a:    1840        @.      ADDS     r0,r0,r1
        0x0000465c:    2100        .!      MOVS     r1,#0
        0x0000465e:    4b05        .K      LDR      r3,[pc,#20] ; [0x4674] = 0x433
        0x00004660:    9302        ..      STR      r3,[sp,#8]
        0x00004662:    9201        ..      STR      r2,[sp,#4]
        0x00004664:    9100        ..      STR      r1,[sp,#0]
        0x00004666:    460a        .F      MOV      r2,r1
        0x00004668:    460b        .F      MOV      r3,r1
        0x0000466a:    f000f94b    ..K.    BL       _double_epilogue ; 0x4904
        0x0000466e:    b003        ..      ADD      sp,sp,#0xc
        0x00004670:    bd00        ..      POP      {pc}
    $d
        0x00004672:    0000        ..      DCW    0
        0x00004674:    00000433    3...    DCD    1075
    $t
    .text
    __aeabi_f2iz
        0x00004678:    0fc2        ..      LSRS     r2,r0,#31
        0x0000467a:    0041        A.      LSLS     r1,r0,#1
        0x0000467c:    0240        @.      LSLS     r0,r0,#9
        0x0000467e:    2301        .#      MOVS     r3,#1
        0x00004680:    0a40        @.      LSRS     r0,r0,#9
        0x00004682:    05db        ..      LSLS     r3,r3,#23
        0x00004684:    07d2        ..      LSLS     r2,r2,#31
        0x00004686:    0e09        ..      LSRS     r1,r1,#24
        0x00004688:    18c0        ..      ADDS     r0,r0,r3
        0x0000468a:    297f        .)      CMP      r1,#0x7f
        0x0000468c:    da01        ..      BGE      0x4692 ; __aeabi_f2iz + 26
        0x0000468e:    2000        .       MOVS     r0,#0
        0x00004690:    4770        pG      BX       lr
        0x00004692:    2996        .)      CMP      r1,#0x96
        0x00004694:    dc03        ..      BGT      0x469e ; __aeabi_f2iz + 38
        0x00004696:    2396        .#      MOVS     r3,#0x96
        0x00004698:    1a59        Y.      SUBS     r1,r3,r1
        0x0000469a:    40c8        .@      LSRS     r0,r0,r1
        0x0000469c:    e001        ..      B        0x46a2 ; __aeabi_f2iz + 42
        0x0000469e:    3996        .9      SUBS     r1,r1,#0x96
        0x000046a0:    4088        .@      LSLS     r0,r0,r1
        0x000046a2:    2a00        .*      CMP      r2,#0
        0x000046a4:    d0f4        ..      BEQ      0x4690 ; __aeabi_f2iz + 24
        0x000046a6:    4240        @B      RSBS     r0,r0,#0
        0x000046a8:    4770        pG      BX       lr
    .text
    __aeabi_f2uiz
        0x000046aa:    0041        A.      LSLS     r1,r0,#1
        0x000046ac:    0240        @.      LSLS     r0,r0,#9
        0x000046ae:    2201        ."      MOVS     r2,#1
        0x000046b0:    0a40        @.      LSRS     r0,r0,#9
        0x000046b2:    05d2        ..      LSLS     r2,r2,#23
        0x000046b4:    0e09        ..      LSRS     r1,r1,#24
        0x000046b6:    1880        ..      ADDS     r0,r0,r2
        0x000046b8:    297f        .)      CMP      r1,#0x7f
        0x000046ba:    da01        ..      BGE      0x46c0 ; __aeabi_f2uiz + 22
        0x000046bc:    2000        .       MOVS     r0,#0
        0x000046be:    4770        pG      BX       lr
        0x000046c0:    2996        .)      CMP      r1,#0x96
        0x000046c2:    dc03        ..      BGT      0x46cc ; __aeabi_f2uiz + 34
        0x000046c4:    2296        ."      MOVS     r2,#0x96
        0x000046c6:    1a51        Q.      SUBS     r1,r2,r1
        0x000046c8:    40c8        .@      LSRS     r0,r0,r1
        0x000046ca:    4770        pG      BX       lr
        0x000046cc:    3996        .9      SUBS     r1,r1,#0x96
        0x000046ce:    4088        .@      LSLS     r0,r0,r1
        0x000046d0:    4770        pG      BX       lr
    .text
    __aeabi_f2d
        0x000046d2:    0fc2        ..      LSRS     r2,r0,#31
        0x000046d4:    07d2        ..      LSLS     r2,r2,#31
        0x000046d6:    0040        @.      LSLS     r0,r0,#1
        0x000046d8:    0840        @.      LSRS     r0,r0,#1
        0x000046da:    d00b        ..      BEQ      0x46f4 ; __aeabi_f2d + 34
        0x000046dc:    0dc1        ..      LSRS     r1,r0,#23
        0x000046de:    2307        .#      MOVS     r3,#7
        0x000046e0:    01db        ..      LSLS     r3,r3,#7
        0x000046e2:    18c9        ..      ADDS     r1,r1,r3
        0x000046e4:    0240        @.      LSLS     r0,r0,#9
        0x000046e6:    0509        ..      LSLS     r1,r1,#20
        0x000046e8:    0a40        @.      LSRS     r0,r0,#9
        0x000046ea:    4311        .C      ORRS     r1,r1,r2
        0x000046ec:    08c2        ..      LSRS     r2,r0,#3
        0x000046ee:    0740        @.      LSLS     r0,r0,#29
        0x000046f0:    4311        .C      ORRS     r1,r1,r2
        0x000046f2:    4770        pG      BX       lr
        0x000046f4:    2000        .       MOVS     r0,#0
        0x000046f6:    4601        .F      MOV      r1,r0
        0x000046f8:    4770        pG      BX       lr
        0x000046fa:    0000        ..      MOVS     r0,r0
    .text
    __aeabi_cdrcmple
        0x000046fc:    b510        ..      PUSH     {r4,lr}
        0x000046fe:    2900        .)      CMP      r1,#0
        0x00004700:    db04        ..      BLT      0x470c ; __aeabi_cdrcmple + 16
        0x00004702:    2401        .$      MOVS     r4,#1
        0x00004704:    07e4        ..      LSLS     r4,r4,#31
        0x00004706:    4240        @B      RSBS     r0,r0,#0
        0x00004708:    418c        .A      SBCS     r4,r4,r1
        0x0000470a:    4621        !F      MOV      r1,r4
        0x0000470c:    2b00        .+      CMP      r3,#0
        0x0000470e:    db04        ..      BLT      0x471a ; __aeabi_cdrcmple + 30
        0x00004710:    461c        .F      MOV      r4,r3
        0x00004712:    2301        .#      MOVS     r3,#1
        0x00004714:    07db        ..      LSLS     r3,r3,#31
        0x00004716:    4252        RB      RSBS     r2,r2,#0
        0x00004718:    41a3        .A      SBCS     r3,r3,r4
        0x0000471a:    4299        .B      CMP      r1,r3
        0x0000471c:    d100        ..      BNE      0x4720 ; __aeabi_cdrcmple + 36
        0x0000471e:    4290        .B      CMP      r0,r2
        0x00004720:    bd10        ..      POP      {r4,pc}
    $d
        0x00004722:    0000        ..      DCW    0
    $t
    .text
    __aeabi_d2f
        0x00004724:    0fcb        ..      LSRS     r3,r1,#31
        0x00004726:    07db        ..      LSLS     r3,r3,#31
        0x00004728:    0049        I.      LSLS     r1,r1,#1
        0x0000472a:    b510        ..      PUSH     {r4,lr}
        0x0000472c:    0849        I.      LSRS     r1,r1,#1
        0x0000472e:    4602        .F      MOV      r2,r0
        0x00004730:    430a        .C      ORRS     r2,r2,r1
        0x00004732:    d007        ..      BEQ      0x4744 ; __aeabi_d2f + 32
        0x00004734:    0d0a        ..      LSRS     r2,r1,#20
        0x00004736:    2407        .$      MOVS     r4,#7
        0x00004738:    0309        ..      LSLS     r1,r1,#12
        0x0000473a:    01e4        ..      LSLS     r4,r4,#7
        0x0000473c:    0b09        ..      LSRS     r1,r1,#12
        0x0000473e:    1b12        ..      SUBS     r2,r2,r4
        0x00004740:    2a00        .*      CMP      r2,#0
        0x00004742:    dc01        ..      BGT      0x4748 ; __aeabi_d2f + 36
        0x00004744:    2000        .       MOVS     r0,#0
        0x00004746:    bd10        ..      POP      {r4,pc}
        0x00004748:    00c9        ..      LSLS     r1,r1,#3
        0x0000474a:    0f44        D.      LSRS     r4,r0,#29
        0x0000474c:    430c        .C      ORRS     r4,r4,r1
        0x0000474e:    00c1        ..      LSLS     r1,r0,#3
        0x00004750:    18e0        ..      ADDS     r0,r4,r3
        0x00004752:    05d2        ..      LSLS     r2,r2,#23
        0x00004754:    1880        ..      ADDS     r0,r0,r2
        0x00004756:    f000f868    ..h.    BL       __I$use$fp ; 0x482a
        0x0000475a:    bd10        ..      POP      {r4,pc}
    .text
    __aeabi_cfcmpeq
    __aeabi_cfcmple
        0x0000475c:    2201        ."      MOVS     r2,#1
        0x0000475e:    07d2        ..      LSLS     r2,r2,#31
        0x00004760:    2800        .(      CMP      r0,#0
        0x00004762:    db00        ..      BLT      0x4766 ; __aeabi_cfcmpeq + 10
        0x00004764:    1a10        ..      SUBS     r0,r2,r0
        0x00004766:    2900        .)      CMP      r1,#0
        0x00004768:    db00        ..      BLT      0x476c ; __aeabi_cfcmpeq + 16
        0x0000476a:    1a51        Q.      SUBS     r1,r2,r1
        0x0000476c:    4281        .B      CMP      r1,r0
        0x0000476e:    4770        pG      BX       lr
    .text
    __aeabi_cfrcmple
        0x00004770:    2201        ."      MOVS     r2,#1
        0x00004772:    07d2        ..      LSLS     r2,r2,#31
        0x00004774:    2800        .(      CMP      r0,#0
        0x00004776:    db00        ..      BLT      0x477a ; __aeabi_cfrcmple + 10
        0x00004778:    1a10        ..      SUBS     r0,r2,r0
        0x0000477a:    2900        .)      CMP      r1,#0
        0x0000477c:    db00        ..      BLT      0x4780 ; __aeabi_cfrcmple + 16
        0x0000477e:    1a51        Q.      SUBS     r1,r2,r1
        0x00004780:    4288        .B      CMP      r0,r1
        0x00004782:    4770        pG      BX       lr
    .text
    __aeabi_uldivmod
        0x00004784:    b5f0        ..      PUSH     {r4-r7,lr}
        0x00004786:    b41f        ..      PUSH     {r0-r4}
        0x00004788:    4606        .F      MOV      r6,r0
        0x0000478a:    2000        .       MOVS     r0,#0
        0x0000478c:    b082        ..      SUB      sp,sp,#8
        0x0000478e:    4605        .F      MOV      r5,r0
        0x00004790:    2440        @$      MOVS     r4,#0x40
        0x00004792:    9101        ..      STR      r1,[sp,#4]
        0x00004794:    9000        ..      STR      r0,[sp,#0]
        0x00004796:    e01b        ..      B        0x47d0 ; __aeabi_uldivmod + 76
        0x00004798:    9901        ..      LDR      r1,[sp,#4]
        0x0000479a:    4622        "F      MOV      r2,r4
        0x0000479c:    460f        .F      MOV      r7,r1
        0x0000479e:    4630        0F      MOV      r0,r6
        0x000047a0:    f000f934    ..4.    BL       __aeabi_llsr ; 0x4a0c
        0x000047a4:    9a04        ..      LDR      r2,[sp,#0x10]
        0x000047a6:    9b05        ..      LDR      r3,[sp,#0x14]
        0x000047a8:    1a80        ..      SUBS     r0,r0,r2
        0x000047aa:    4199        .A      SBCS     r1,r1,r3
        0x000047ac:    d310        ..      BCC      0x47d0 ; __aeabi_uldivmod + 76
        0x000047ae:    4610        .F      MOV      r0,r2
        0x000047b0:    4619        .F      MOV      r1,r3
        0x000047b2:    4622        "F      MOV      r2,r4
        0x000047b4:    f000f816    ....    BL       __aeabi_llsl ; 0x47e4
        0x000047b8:    1a36        6.      SUBS     r6,r6,r0
        0x000047ba:    418f        .A      SBCS     r7,r7,r1
        0x000047bc:    9701        ..      STR      r7,[sp,#4]
        0x000047be:    4622        "F      MOV      r2,r4
        0x000047c0:    2001        .       MOVS     r0,#1
        0x000047c2:    2100        .!      MOVS     r1,#0
        0x000047c4:    9f00        ..      LDR      r7,[sp,#0]
        0x000047c6:    f000f80d    ....    BL       __aeabi_llsl ; 0x47e4
        0x000047ca:    1838        8.      ADDS     r0,r7,r0
        0x000047cc:    414d        MA      ADCS     r5,r5,r1
        0x000047ce:    9000        ..      STR      r0,[sp,#0]
        0x000047d0:    4620         F      MOV      r0,r4
        0x000047d2:    1e64        d.      SUBS     r4,r4,#1
        0x000047d4:    2800        .(      CMP      r0,#0
        0x000047d6:    dcdf        ..      BGT      0x4798 ; __aeabi_uldivmod + 20
        0x000047d8:    9b01        ..      LDR      r3,[sp,#4]
        0x000047da:    9800        ..      LDR      r0,[sp,#0]
        0x000047dc:    4629        )F      MOV      r1,r5
        0x000047de:    4632        2F      MOV      r2,r6
        0x000047e0:    b007        ..      ADD      sp,sp,#0x1c
        0x000047e2:    bdf0        ..      POP      {r4-r7,pc}
    .text
    __aeabi_llsl
    _ll_shift_l
        0x000047e4:    b510        ..      PUSH     {r4,lr}
        0x000047e6:    2a20         *      CMP      r2,#0x20
        0x000047e8:    db04        ..      BLT      0x47f4 ; __aeabi_llsl + 16
        0x000047ea:    4601        .F      MOV      r1,r0
        0x000047ec:    3a20         :      SUBS     r2,r2,#0x20
        0x000047ee:    4091        .@      LSLS     r1,r1,r2
        0x000047f0:    2000        .       MOVS     r0,#0
        0x000047f2:    bd10        ..      POP      {r4,pc}
        0x000047f4:    4091        .@      LSLS     r1,r1,r2
        0x000047f6:    2320         #      MOVS     r3,#0x20
        0x000047f8:    1a9c        ..      SUBS     r4,r3,r2
        0x000047fa:    4603        .F      MOV      r3,r0
        0x000047fc:    40e3        .@      LSRS     r3,r3,r4
        0x000047fe:    4319        .C      ORRS     r1,r1,r3
        0x00004800:    4090        .@      LSLS     r0,r0,r2
        0x00004802:    bd10        ..      POP      {r4,pc}
    .text
    __aeabi_lasr
    _ll_sshift_r
        0x00004804:    b510        ..      PUSH     {r4,lr}
        0x00004806:    2a20         *      CMP      r2,#0x20
        0x00004808:    db06        ..      BLT      0x4818 ; __aeabi_lasr + 20
        0x0000480a:    17cb        ..      ASRS     r3,r1,#31
        0x0000480c:    4608        .F      MOV      r0,r1
        0x0000480e:    3a20         :      SUBS     r2,r2,#0x20
        0x00004810:    4110        .A      ASRS     r0,r0,r2
        0x00004812:    17c1        ..      ASRS     r1,r0,#31
        0x00004814:    430b        .C      ORRS     r3,r3,r1
        0x00004816:    e006        ..      B        0x4826 ; __aeabi_lasr + 34
        0x00004818:    460b        .F      MOV      r3,r1
        0x0000481a:    4113        .A      ASRS     r3,r3,r2
        0x0000481c:    40d0        .@      LSRS     r0,r0,r2
        0x0000481e:    2420         $      MOVS     r4,#0x20
        0x00004820:    1aa2        ..      SUBS     r2,r4,r2
        0x00004822:    4091        .@      LSLS     r1,r1,r2
        0x00004824:    4308        .C      ORRS     r0,r0,r1
        0x00004826:    4619        .F      MOV      r1,r3
        0x00004828:    bd10        ..      POP      {r4,pc}
    .text
    .text
    __I$use$fp
    _float_round
        0x0000482a:    2900        .)      CMP      r1,#0
        0x0000482c:    da04        ..      BGE      0x4838 ; __I$use$fp + 14
        0x0000482e:    1c40        @.      ADDS     r0,r0,#1
        0x00004830:    0049        I.      LSLS     r1,r1,#1
        0x00004832:    d101        ..      BNE      0x4838 ; __I$use$fp + 14
        0x00004834:    0840        @.      LSRS     r0,r0,#1
        0x00004836:    0040        @.      LSLS     r0,r0,#1
        0x00004838:    4770        pG      BX       lr
    _float_epilogue
        0x0000483a:    b470        p.      PUSH     {r4-r6}
        0x0000483c:    2400        .$      MOVS     r4,#0
        0x0000483e:    0c05        ..      LSRS     r5,r0,#16
        0x00004840:    d105        ..      BNE      0x484e ; _float_epilogue + 20
        0x00004842:    2410        .$      MOVS     r4,#0x10
        0x00004844:    0400        ..      LSLS     r0,r0,#16
        0x00004846:    d102        ..      BNE      0x484e ; _float_epilogue + 20
        0x00004848:    2900        .)      CMP      r1,#0
        0x0000484a:    d021        !.      BEQ      0x4890 ; _float_epilogue + 86
        0x0000484c:    2411        .$      MOVS     r4,#0x11
        0x0000484e:    0e05        ..      LSRS     r5,r0,#24
        0x00004850:    d101        ..      BNE      0x4856 ; _float_epilogue + 28
        0x00004852:    0200        ..      LSLS     r0,r0,#8
        0x00004854:    3408        .4      ADDS     r4,r4,#8
        0x00004856:    0f05        ..      LSRS     r5,r0,#28
        0x00004858:    d101        ..      BNE      0x485e ; _float_epilogue + 36
        0x0000485a:    0100        ..      LSLS     r0,r0,#4
        0x0000485c:    1d24        $.      ADDS     r4,r4,#4
        0x0000485e:    0f85        ..      LSRS     r5,r0,#30
        0x00004860:    d101        ..      BNE      0x4866 ; _float_epilogue + 44
        0x00004862:    0080        ..      LSLS     r0,r0,#2
        0x00004864:    1ca4        ..      ADDS     r4,r4,#2
        0x00004866:    2800        .(      CMP      r0,#0
        0x00004868:    db01        ..      BLT      0x486e ; _float_epilogue + 52
        0x0000486a:    0040        @.      LSLS     r0,r0,#1
        0x0000486c:    1c64        d.      ADDS     r4,r4,#1
        0x0000486e:    2900        .)      CMP      r1,#0
        0x00004870:    d008        ..      BEQ      0x4884 ; _float_epilogue + 74
        0x00004872:    2520         %      MOVS     r5,#0x20
        0x00004874:    1b2e        ..      SUBS     r6,r5,r4
        0x00004876:    460d        .F      MOV      r5,r1
        0x00004878:    40f5        .@      LSRS     r5,r5,r6
        0x0000487a:    40a1        .@      LSLS     r1,r1,r4
        0x0000487c:    d000        ..      BEQ      0x4880 ; _float_epilogue + 70
        0x0000487e:    2101        .!      MOVS     r1,#1
        0x00004880:    4329        )C      ORRS     r1,r1,r5
        0x00004882:    4308        .C      ORRS     r0,r0,r1
        0x00004884:    0601        ..      LSLS     r1,r0,#24
        0x00004886:    1b1b        ..      SUBS     r3,r3,r4
        0x00004888:    0a00        ..      LSRS     r0,r0,#8
        0x0000488a:    1ddb        ..      ADDS     r3,r3,#7
        0x0000488c:    d502        ..      BPL      0x4894 ; _float_epilogue + 90
        0x0000488e:    2000        .       MOVS     r0,#0
        0x00004890:    bc70        p.      POP      {r4-r6}
        0x00004892:    4770        pG      BX       lr
        0x00004894:    05db        ..      LSLS     r3,r3,#23
        0x00004896:    1818        ..      ADDS     r0,r3,r0
        0x00004898:    1880        ..      ADDS     r0,r0,r2
        0x0000489a:    2900        .)      CMP      r1,#0
        0x0000489c:    daf8        ..      BGE      0x4890 ; _float_epilogue + 86
        0x0000489e:    1c40        @.      ADDS     r0,r0,#1
        0x000048a0:    0049        I.      LSLS     r1,r1,#1
        0x000048a2:    d1f5        ..      BNE      0x4890 ; _float_epilogue + 86
        0x000048a4:    bc70        p.      POP      {r4-r6}
        0x000048a6:    0840        @.      LSRS     r0,r0,#1
        0x000048a8:    0040        @.      LSLS     r0,r0,#1
        0x000048aa:    4770        pG      BX       lr
    .text
    _frnd
        0x000048ac:    b510        ..      PUSH     {r4,lr}
        0x000048ae:    0041        A.      LSLS     r1,r0,#1
        0x000048b0:    d00d        ..      BEQ      0x48ce ; _frnd + 34
        0x000048b2:    0041        A.      LSLS     r1,r0,#1
        0x000048b4:    0e09        ..      LSRS     r1,r1,#24
        0x000048b6:    2996        .)      CMP      r1,#0x96
        0x000048b8:    dc09        ..      BGT      0x48ce ; _frnd + 34
        0x000048ba:    297e        ~)      CMP      r1,#0x7e
        0x000048bc:    dc0a        ..      BGT      0x48d4 ; _frnd + 40
        0x000048be:    db07        ..      BLT      0x48d0 ; _frnd + 36
        0x000048c0:    0241        A.      LSLS     r1,r0,#9
        0x000048c2:    d005        ..      BEQ      0x48d0 ; _frnd + 36
        0x000048c4:    0fc0        ..      LSRS     r0,r0,#31
        0x000048c6:    217f        .!      MOVS     r1,#0x7f
        0x000048c8:    07c0        ..      LSLS     r0,r0,#31
        0x000048ca:    05c9        ..      LSLS     r1,r1,#23
        0x000048cc:    1840        @.      ADDS     r0,r0,r1
        0x000048ce:    bd10        ..      POP      {r4,pc}
        0x000048d0:    2000        .       MOVS     r0,#0
        0x000048d2:    bd10        ..      POP      {r4,pc}
        0x000048d4:    2296        ."      MOVS     r2,#0x96
        0x000048d6:    1a54        T.      SUBS     r4,r2,r1
        0x000048d8:    2120         !      MOVS     r1,#0x20
        0x000048da:    1b0a        ..      SUBS     r2,r1,r4
        0x000048dc:    4601        .F      MOV      r1,r0
        0x000048de:    4091        .@      LSLS     r1,r1,r2
        0x000048e0:    40e0        .@      LSRS     r0,r0,r4
        0x000048e2:    f7ffffa2    ....    BL       __I$use$fp ; 0x482a
        0x000048e6:    40a0        .@      LSLS     r0,r0,r4
        0x000048e8:    bd10        ..      POP      {r4,pc}
    .text
    _double_round
        0x000048ea:    b510        ..      PUSH     {r4,lr}
        0x000048ec:    2b00        .+      CMP      r3,#0
        0x000048ee:    da08        ..      BGE      0x4902 ; _double_round + 24
        0x000048f0:    2400        .$      MOVS     r4,#0
        0x000048f2:    1c40        @.      ADDS     r0,r0,#1
        0x000048f4:    4161        aA      ADCS     r1,r1,r4
        0x000048f6:    1892        ..      ADDS     r2,r2,r2
        0x000048f8:    415b        [A      ADCS     r3,r3,r3
        0x000048fa:    431a        .C      ORRS     r2,r2,r3
        0x000048fc:    d101        ..      BNE      0x4902 ; _double_round + 24
        0x000048fe:    0840        @.      LSRS     r0,r0,#1
        0x00004900:    0040        @.      LSLS     r0,r0,#1
        0x00004902:    bd10        ..      POP      {r4,pc}
    _double_epilogue
        0x00004904:    b5f0        ..      PUSH     {r4-r7,lr}
        0x00004906:    b41f        ..      PUSH     {r0-r4}
        0x00004908:    b082        ..      SUB      sp,sp,#8
        0x0000490a:    4605        .F      MOV      r5,r0
        0x0000490c:    000c        ..      MOVS     r4,r1
        0x0000490e:    d003        ..      BEQ      0x4918 ; _double_epilogue + 20
        0x00004910:    4608        .F      MOV      r0,r1
        0x00004912:    f000f921    ..!.    BL       __ARM_clz ; 0x4b58
        0x00004916:    e002        ..      B        0x491e ; _double_epilogue + 26
        0x00004918:    f000f91e    ....    BL       __ARM_clz ; 0x4b58
        0x0000491c:    3020         0      ADDS     r0,r0,#0x20
        0x0000491e:    4602        .F      MOV      r2,r0
        0x00004920:    9000        ..      STR      r0,[sp,#0]
        0x00004922:    4621        !F      MOV      r1,r4
        0x00004924:    4628        (F      MOV      r0,r5
        0x00004926:    f7ffff5d    ..].    BL       __aeabi_llsl ; 0x47e4
        0x0000492a:    9b04        ..      LDR      r3,[sp,#0x10]
        0x0000492c:    9a05        ..      LDR      r2,[sp,#0x14]
        0x0000492e:    4604        .F      MOV      r4,r0
        0x00004930:    460f        .F      MOV      r7,r1
        0x00004932:    4318        .C      ORRS     r0,r0,r3
        0x00004934:    4311        .C      ORRS     r1,r1,r2
        0x00004936:    4308        .C      ORRS     r0,r0,r1
        0x00004938:    d014        ..      BEQ      0x4964 ; _double_epilogue + 96
        0x0000493a:    4618        .F      MOV      r0,r3
        0x0000493c:    4310        .C      ORRS     r0,r0,r2
        0x0000493e:    d01b        ..      BEQ      0x4978 ; _double_epilogue + 116
        0x00004940:    9800        ..      LDR      r0,[sp,#0]
        0x00004942:    2140        @!      MOVS     r1,#0x40
        0x00004944:    1a0a        ..      SUBS     r2,r1,r0
        0x00004946:    4618        .F      MOV      r0,r3
        0x00004948:    9905        ..      LDR      r1,[sp,#0x14]
        0x0000494a:    f000f85f    .._.    BL       __aeabi_llsr ; 0x4a0c
        0x0000494e:    4605        .F      MOV      r5,r0
        0x00004950:    460e        .F      MOV      r6,r1
        0x00004952:    9a00        ..      LDR      r2,[sp,#0]
        0x00004954:    9905        ..      LDR      r1,[sp,#0x14]
        0x00004956:    9804        ..      LDR      r0,[sp,#0x10]
        0x00004958:    f7ffff44    ..D.    BL       __aeabi_llsl ; 0x47e4
        0x0000495c:    4308        .C      ORRS     r0,r0,r1
        0x0000495e:    d005        ..      BEQ      0x496c ; _double_epilogue + 104
        0x00004960:    2001        .       MOVS     r0,#1
        0x00004962:    e004        ..      B        0x496e ; _double_epilogue + 106
        0x00004964:    4620         F      MOV      r0,r4
        0x00004966:    4639        9F      MOV      r1,r7
        0x00004968:    b007        ..      ADD      sp,sp,#0x1c
        0x0000496a:    bdf0        ..      POP      {r4-r7,pc}
        0x0000496c:    2000        .       MOVS     r0,#0
        0x0000496e:    17c1        ..      ASRS     r1,r0,#31
        0x00004970:    4305        .C      ORRS     r5,r5,r0
        0x00004972:    430e        .C      ORRS     r6,r6,r1
        0x00004974:    432c        ,C      ORRS     r4,r4,r5
        0x00004976:    4337        7C      ORRS     r7,r7,r6
        0x00004978:    9900        ..      LDR      r1,[sp,#0]
        0x0000497a:    980e        ..      LDR      r0,[sp,#0x38]
        0x0000497c:    0563        c.      LSLS     r3,r4,#21
        0x0000497e:    1a40        @.      SUBS     r0,r0,r1
        0x00004980:    0579        y.      LSLS     r1,r7,#21
        0x00004982:    0ae4        ..      LSRS     r4,r4,#11
        0x00004984:    2200        ."      MOVS     r2,#0
        0x00004986:    430c        .C      ORRS     r4,r4,r1
        0x00004988:    0afd        ..      LSRS     r5,r7,#11
        0x0000498a:    300a        .0      ADDS     r0,r0,#0xa
        0x0000498c:    d502        ..      BPL      0x4994 ; _double_epilogue + 144
        0x0000498e:    2000        .       MOVS     r0,#0
        0x00004990:    4601        .F      MOV      r1,r0
        0x00004992:    e7e9        ..      B        0x4968 ; _double_epilogue + 100
        0x00004994:    0501        ..      LSLS     r1,r0,#20
        0x00004996:    1910        ..      ADDS     r0,r2,r4
        0x00004998:    4169        iA      ADCS     r1,r1,r5
        0x0000499a:    9c0c        ..      LDR      r4,[sp,#0x30]
        0x0000499c:    9d0d        ..      LDR      r5,[sp,#0x34]
        0x0000499e:    1900        ..      ADDS     r0,r0,r4
        0x000049a0:    4169        iA      ADCS     r1,r1,r5
        0x000049a2:    f7ffffa2    ....    BL       _double_round ; 0x48ea
        0x000049a6:    e7df        ..      B        0x4968 ; _double_epilogue + 100
    .text
    __aeabi_d2ulz
        0x000049a8:    004a        J.      LSLS     r2,r1,#1
        0x000049aa:    0309        ..      LSLS     r1,r1,#12
        0x000049ac:    2301        .#      MOVS     r3,#1
        0x000049ae:    0b09        ..      LSRS     r1,r1,#12
        0x000049b0:    051b        ..      LSLS     r3,r3,#20
        0x000049b2:    4319        .C      ORRS     r1,r1,r3
        0x000049b4:    4b0a        .K      LDR      r3,[pc,#40] ; [0x49e0] = 0x3ff
        0x000049b6:    b510        ..      PUSH     {r4,lr}
        0x000049b8:    0d52        R.      LSRS     r2,r2,#21
        0x000049ba:    429a        .B      CMP      r2,r3
        0x000049bc:    da02        ..      BGE      0x49c4 ; __aeabi_d2ulz + 28
        0x000049be:    2000        .       MOVS     r0,#0
        0x000049c0:    4601        .F      MOV      r1,r0
        0x000049c2:    bd10        ..      POP      {r4,pc}
        0x000049c4:    4b06        .K      LDR      r3,[pc,#24] ; [0x49e0] = 0x3ff
        0x000049c6:    3334        43      ADDS     r3,r3,#0x34
        0x000049c8:    429a        .B      CMP      r2,r3
        0x000049ca:    dc03        ..      BGT      0x49d4 ; __aeabi_d2ulz + 44
        0x000049cc:    1a9a        ..      SUBS     r2,r3,r2
        0x000049ce:    f000f81d    ....    BL       __aeabi_llsr ; 0x4a0c
        0x000049d2:    bd10        ..      POP      {r4,pc}
        0x000049d4:    4b03        .K      LDR      r3,[pc,#12] ; [0x49e4] = 0xfffffbcd
        0x000049d6:    18d2        ..      ADDS     r2,r2,r3
        0x000049d8:    f7ffff04    ....    BL       __aeabi_llsl ; 0x47e4
        0x000049dc:    bd10        ..      POP      {r4,pc}
    $d
        0x000049de:    0000        ..      DCW    0
        0x000049e0:    000003ff    ....    DCD    1023
        0x000049e4:    fffffbcd    ....    DCD    4294966221
    $t
    .text
    __scatterload
    __scatterload_rt2
        0x000049e8:    4c06        .L      LDR      r4,[pc,#24] ; [0x4a04] = 0x65d0
        0x000049ea:    2501        .%      MOVS     r5,#1
        0x000049ec:    4e06        .N      LDR      r6,[pc,#24] ; [0x4a08] = 0x65f0
        0x000049ee:    e005        ..      B        0x49fc ; __scatterload + 20
        0x000049f0:    68e3        .h      LDR      r3,[r4,#0xc]
        0x000049f2:    cc07        ..      LDM      r4!,{r0-r2}
        0x000049f4:    432b        +C      ORRS     r3,r3,r5
        0x000049f6:    3c0c        .<      SUBS     r4,r4,#0xc
        0x000049f8:    4798        .G      BLX      r3
        0x000049fa:    3410        .4      ADDS     r4,r4,#0x10
        0x000049fc:    42b4        .B      CMP      r4,r6
        0x000049fe:    d3f7        ..      BCC      0x49f0 ; __scatterload + 8
        0x00004a00:    f7fbfb62    ..b.    BL       __main_after_scatterload ; 0xc8
    $d
        0x00004a04:    000065d0    .e..    DCD    26064
        0x00004a08:    000065f0    .e..    DCD    26096
    $t
    .text
    __aeabi_llsr
    _ll_ushift_r
        0x00004a0c:    b510        ..      PUSH     {r4,lr}
        0x00004a0e:    2a20         *      CMP      r2,#0x20
        0x00004a10:    db04        ..      BLT      0x4a1c ; __aeabi_llsr + 16
        0x00004a12:    4608        .F      MOV      r0,r1
        0x00004a14:    3a20         :      SUBS     r2,r2,#0x20
        0x00004a16:    40d0        .@      LSRS     r0,r0,r2
        0x00004a18:    2100        .!      MOVS     r1,#0
        0x00004a1a:    bd10        ..      POP      {r4,pc}
        0x00004a1c:    460b        .F      MOV      r3,r1
        0x00004a1e:    40d3        .@      LSRS     r3,r3,r2
        0x00004a20:    40d0        .@      LSRS     r0,r0,r2
        0x00004a22:    2420         $      MOVS     r4,#0x20
        0x00004a24:    1aa2        ..      SUBS     r2,r4,r2
        0x00004a26:    4091        .@      LSLS     r1,r1,r2
        0x00004a28:    4308        .C      ORRS     r0,r0,r1
        0x00004a2a:    4619        .F      MOV      r1,r3
        0x00004a2c:    bd10        ..      POP      {r4,pc}
    .text
    _fsqrt
        0x00004a2e:    b570        p.      PUSH     {r4-r6,lr}
        0x00004a30:    2800        .(      CMP      r0,#0
        0x00004a32:    dc01        ..      BGT      0x4a38 ; _fsqrt + 10
        0x00004a34:    2000        .       MOVS     r0,#0
        0x00004a36:    bd70        p.      POP      {r4-r6,pc}
        0x00004a38:    0041        A.      LSLS     r1,r0,#1
        0x00004a3a:    0240        @.      LSLS     r0,r0,#9
        0x00004a3c:    2601        .&      MOVS     r6,#1
        0x00004a3e:    0a40        @.      LSRS     r0,r0,#9
        0x00004a40:    05f6        ..      LSLS     r6,r6,#23
        0x00004a42:    0e09        ..      LSRS     r1,r1,#24
        0x00004a44:    1980        ..      ADDS     r0,r0,r6
        0x00004a46:    07ca        ..      LSLS     r2,r1,#31
        0x00004a48:    d101        ..      BNE      0x4a4e ; _fsqrt + 32
        0x00004a4a:    0040        @.      LSLS     r0,r0,#1
        0x00004a4c:    1e49        I.      SUBS     r1,r1,#1
        0x00004a4e:    104d        M.      ASRS     r5,r1,#1
        0x00004a50:    2200        ."      MOVS     r2,#0
        0x00004a52:    4611        .F      MOV      r1,r2
        0x00004a54:    353f        ?5      ADDS     r5,r5,#0x3f
        0x00004a56:    4633        3F      MOV      r3,r6
        0x00004a58:    40cb        .@      LSRS     r3,r3,r1
        0x00004a5a:    189b        ..      ADDS     r3,r3,r2
        0x00004a5c:    18d4        ..      ADDS     r4,r2,r3
        0x00004a5e:    4284        .B      CMP      r4,r0
        0x00004a60:    d801        ..      BHI      0x4a66 ; _fsqrt + 56
        0x00004a62:    1b00        ..      SUBS     r0,r0,r4
        0x00004a64:    461a        .F      MOV      r2,r3
        0x00004a66:    0040        @.      LSLS     r0,r0,#1
        0x00004a68:    1c49        I.      ADDS     r1,r1,#1
        0x00004a6a:    2917        .)      CMP      r1,#0x17
        0x00004a6c:    ddf3        ..      BLE      0x4a56 ; _fsqrt + 40
        0x00004a6e:    0051        Q.      LSLS     r1,r2,#1
        0x00004a70:    4281        .B      CMP      r1,r0
        0x00004a72:    d202        ..      BCS      0x4a7a ; _fsqrt + 76
        0x00004a74:    2100        .!      MOVS     r1,#0
        0x00004a76:    43c9        .C      MVNS     r1,r1
        0x00004a78:    e000        ..      B        0x4a7c ; _fsqrt + 78
        0x00004a7a:    2100        .!      MOVS     r1,#0
        0x00004a7c:    05e8        ..      LSLS     r0,r5,#23
        0x00004a7e:    1880        ..      ADDS     r0,r0,r2
        0x00004a80:    f7fffed3    ....    BL       __I$use$fp ; 0x482a
        0x00004a84:    bd70        p.      POP      {r4-r6,pc}
    .text
    __ARM_scalbn
    scalbn
        0x00004a86:    b570        p.      PUSH     {r4-r6,lr}
        0x00004a88:    004b        K.      LSLS     r3,r1,#1
        0x00004a8a:    085b        [.      LSRS     r3,r3,#1
        0x00004a8c:    4303        .C      ORRS     r3,r3,r0
        0x00004a8e:    d00b        ..      BEQ      0x4aa8 ; __ARM_scalbn + 34
        0x00004a90:    004b        K.      LSLS     r3,r1,#1
        0x00004a92:    0d5c        \.      LSRS     r4,r3,#21
        0x00004a94:    2600        .&      MOVS     r6,#0
        0x00004a96:    4633        3F      MOV      r3,r6
        0x00004a98:    4265        eB      RSBS     r5,r4,#0
        0x00004a9a:    41b3        .A      SBCS     r3,r3,r6
        0x00004a9c:    17d4        ..      ASRS     r4,r2,#31
        0x00004a9e:    1aad        ..      SUBS     r5,r5,r2
        0x00004aa0:    41a3        .A      SBCS     r3,r3,r4
        0x00004aa2:    db02        ..      BLT      0x4aaa ; __ARM_scalbn + 36
        0x00004aa4:    2000        .       MOVS     r0,#0
        0x00004aa6:    4601        .F      MOV      r1,r0
        0x00004aa8:    bd70        p.      POP      {r4-r6,pc}
        0x00004aaa:    0512        ..      LSLS     r2,r2,#20
        0x00004aac:    1830        0.      ADDS     r0,r6,r0
        0x00004aae:    4151        QA      ADCS     r1,r1,r2
        0x00004ab0:    bd70        p.      POP      {r4-r6,pc}
        0x00004ab2:    0000        ..      MOVS     r0,r0
    .text
    __aeabi_ui2d
        0x00004ab4:    b50e        ..      PUSH     {r1-r3,lr}
        0x00004ab6:    4905        .I      LDR      r1,[pc,#20] ; [0x4acc] = 0x433
        0x00004ab8:    9102        ..      STR      r1,[sp,#8]
        0x00004aba:    2100        .!      MOVS     r1,#0
        0x00004abc:    9100        ..      STR      r1,[sp,#0]
        0x00004abe:    460a        .F      MOV      r2,r1
        0x00004ac0:    460b        .F      MOV      r3,r1
        0x00004ac2:    9101        ..      STR      r1,[sp,#4]
        0x00004ac4:    f7ffff1e    ....    BL       _double_epilogue ; 0x4904
        0x00004ac8:    b003        ..      ADD      sp,sp,#0xc
        0x00004aca:    bd00        ..      POP      {pc}
    $d
        0x00004acc:    00000433    3...    DCD    1075
    $t
    .text
    __aeabi_d2iz
        0x00004ad0:    b570        p.      PUSH     {r4-r6,lr}
        0x00004ad2:    0fcd        ..      LSRS     r5,r1,#31
        0x00004ad4:    004a        J.      LSLS     r2,r1,#1
        0x00004ad6:    0309        ..      LSLS     r1,r1,#12
        0x00004ad8:    2301        .#      MOVS     r3,#1
        0x00004ada:    0b09        ..      LSRS     r1,r1,#12
        0x00004adc:    051b        ..      LSLS     r3,r3,#20
        0x00004ade:    4319        .C      ORRS     r1,r1,r3
        0x00004ae0:    4b0b        .K      LDR      r3,[pc,#44] ; [0x4b10] = 0x3ff
        0x00004ae2:    07ed        ..      LSLS     r5,r5,#31
        0x00004ae4:    2400        .$      MOVS     r4,#0
        0x00004ae6:    0d52        R.      LSRS     r2,r2,#21
        0x00004ae8:    429a        .B      CMP      r2,r3
        0x00004aea:    da01        ..      BGE      0x4af0 ; __aeabi_d2iz + 32
        0x00004aec:    2000        .       MOVS     r0,#0
        0x00004aee:    bd70        p.      POP      {r4-r6,pc}
        0x00004af0:    4b07        .K      LDR      r3,[pc,#28] ; [0x4b10] = 0x3ff
        0x00004af2:    3334        43      ADDS     r3,r3,#0x34
        0x00004af4:    429a        .B      CMP      r2,r3
        0x00004af6:    dc03        ..      BGT      0x4b00 ; __aeabi_d2iz + 48
        0x00004af8:    1a9a        ..      SUBS     r2,r3,r2
        0x00004afa:    f7ffff87    ....    BL       __aeabi_llsr ; 0x4a0c
        0x00004afe:    e002        ..      B        0x4b06 ; __aeabi_d2iz + 54
        0x00004b00:    4904        .I      LDR      r1,[pc,#16] ; [0x4b14] = 0xfffffbcd
        0x00004b02:    1851        Q.      ADDS     r1,r2,r1
        0x00004b04:    4088        .@      LSLS     r0,r0,r1
        0x00004b06:    432c        ,C      ORRS     r4,r4,r5
        0x00004b08:    d0f1        ..      BEQ      0x4aee ; __aeabi_d2iz + 30
        0x00004b0a:    4240        @B      RSBS     r0,r0,#0
        0x00004b0c:    bd70        p.      POP      {r4-r6,pc}
    $d
        0x00004b0e:    0000        ..      DCW    0
        0x00004b10:    000003ff    ....    DCD    1023
        0x00004b14:    fffffbcd    ....    DCD    4294966221
    $t
    i.SPI_RW
    SPI_RW
        0x00004b18:    4906        .I      LDR      r1,[pc,#24] ; [0x4b34] = 0x40030100
        0x00004b1a:    6208        .b      STR      r0,[r1,#0x20]
        0x00004b1c:    6808        .h      LDR      r0,[r1,#0]
        0x00004b1e:    2201        ."      MOVS     r2,#1
        0x00004b20:    4310        .C      ORRS     r0,r0,r2
        0x00004b22:    6008        .`      STR      r0,[r1,#0]
        0x00004b24:    6808        .h      LDR      r0,[r1,#0]
        0x00004b26:    43c0        .C      MVNS     r0,r0
        0x00004b28:    07c0        ..      LSLS     r0,r0,#31
        0x00004b2a:    d0fb        ..      BEQ      0x4b24 ; SPI_RW + 12
        0x00004b2c:    6908        .i      LDR      r0,[r1,#0x10]
        0x00004b2e:    b2c0        ..      UXTB     r0,r0
        0x00004b30:    4770        pG      BX       lr
    $d
        0x00004b32:    0000        ..      DCW    0
        0x00004b34:    40030100    ...@    DCD    1073938688
    $t
    i.__0printf
    __0printf
    __1printf
    __2printf
    __c89printf
    printf
        0x00004b38:    b40f        ..      PUSH     {r0-r3}
        0x00004b3a:    b510        ..      PUSH     {r4,lr}
        0x00004b3c:    a903        ..      ADD      r1,sp,#0xc
        0x00004b3e:    4b04        .K      LDR      r3,[pc,#16] ; [0x4b50] = 0x36d3
        0x00004b40:    4a04        .J      LDR      r2,[pc,#16] ; [0x4b54] = 0x20000094
        0x00004b42:    9802        ..      LDR      r0,[sp,#8]
        0x00004b44:    f000fd32    ..2.    BL       _printf_core ; 0x55ac
        0x00004b48:    bc10        ..      POP      {r4}
        0x00004b4a:    bc08        ..      POP      {r3}
        0x00004b4c:    b004        ..      ADD      sp,sp,#0x10
        0x00004b4e:    4718        .G      BX       r3
    $d
        0x00004b50:    000036d3    .6..    DCD    14035
        0x00004b54:    20000094    ...     DCD    536871060
    $t
    i.__ARM_clz
    __ARM_clz
        0x00004b58:    2120         !      MOVS     r1,#0x20
        0x00004b5a:    0c02        ..      LSRS     r2,r0,#16
        0x00004b5c:    d001        ..      BEQ      0x4b62 ; __ARM_clz + 10
        0x00004b5e:    2110        .!      MOVS     r1,#0x10
        0x00004b60:    4610        .F      MOV      r0,r2
        0x00004b62:    0a02        ..      LSRS     r2,r0,#8
        0x00004b64:    d001        ..      BEQ      0x4b6a ; __ARM_clz + 18
        0x00004b66:    4610        .F      MOV      r0,r2
        0x00004b68:    3908        .9      SUBS     r1,r1,#8
        0x00004b6a:    0902        ..      LSRS     r2,r0,#4
        0x00004b6c:    d001        ..      BEQ      0x4b72 ; __ARM_clz + 26
        0x00004b6e:    4610        .F      MOV      r0,r2
        0x00004b70:    1f09        ..      SUBS     r1,r1,#4
        0x00004b72:    0882        ..      LSRS     r2,r0,#2
        0x00004b74:    d001        ..      BEQ      0x4b7a ; __ARM_clz + 34
        0x00004b76:    4610        .F      MOV      r0,r2
        0x00004b78:    1e89        ..      SUBS     r1,r1,#2
        0x00004b7a:    0842        B.      LSRS     r2,r0,#1
        0x00004b7c:    d001        ..      BEQ      0x4b82 ; __ARM_clz + 42
        0x00004b7e:    1e88        ..      SUBS     r0,r1,#2
        0x00004b80:    4770        pG      BX       lr
        0x00004b82:    1a08        ..      SUBS     r0,r1,r0
        0x00004b84:    4770        pG      BX       lr
    i.__ARM_common_ll_muluu
    __ARM_common_ll_muluu
        0x00004b86:    b4f0        ..      PUSH     {r4-r7}
        0x00004b88:    0c04        ..      LSRS     r4,r0,#16
        0x00004b8a:    b28b        ..      UXTH     r3,r1
        0x00004b8c:    4626        &F      MOV      r6,r4
        0x00004b8e:    b282        ..      UXTH     r2,r0
        0x00004b90:    435e        ^C      MULS     r6,r3,r6
        0x00004b92:    0c0d        ..      LSRS     r5,r1,#16
        0x00004b94:    4610        .F      MOV      r0,r2
        0x00004b96:    0c37        7.      LSRS     r7,r6,#16
        0x00004b98:    4358        XC      MULS     r0,r3,r0
        0x00004b9a:    0436        6.      LSLS     r6,r6,#16
        0x00004b9c:    1980        ..      ADDS     r0,r0,r6
        0x00004b9e:    2100        .!      MOVS     r1,#0
        0x00004ba0:    4179        yA      ADCS     r1,r1,r7
        0x00004ba2:    4616        .F      MOV      r6,r2
        0x00004ba4:    436e        nC      MULS     r6,r5,r6
        0x00004ba6:    0c37        7.      LSRS     r7,r6,#16
        0x00004ba8:    0436        6.      LSLS     r6,r6,#16
        0x00004baa:    1980        ..      ADDS     r0,r0,r6
        0x00004bac:    4179        yA      ADCS     r1,r1,r7
        0x00004bae:    4626        &F      MOV      r6,r4
        0x00004bb0:    436e        nC      MULS     r6,r5,r6
        0x00004bb2:    1989        ..      ADDS     r1,r1,r6
        0x00004bb4:    bcf0        ..      POP      {r4-r7}
        0x00004bb6:    4770        pG      BX       lr
    i.__ARM_common_switch8
    __ARM_common_switch8
        0x00004bb8:    b430        0.      PUSH     {r4,r5}
        0x00004bba:    4674        tF      MOV      r4,lr
        0x00004bbc:    1e64        d.      SUBS     r4,r4,#1
        0x00004bbe:    7825        %x      LDRB     r5,[r4,#0]
        0x00004bc0:    1c64        d.      ADDS     r4,r4,#1
        0x00004bc2:    42ab        .B      CMP      r3,r5
        0x00004bc4:    d200        ..      BCS      0x4bc8 ; __ARM_common_switch8 + 16
        0x00004bc6:    461d        .F      MOV      r5,r3
        0x00004bc8:    5d63        c]      LDRB     r3,[r4,r5]
        0x00004bca:    005b        [.      LSLS     r3,r3,#1
        0x00004bcc:    18e3        ..      ADDS     r3,r4,r3
        0x00004bce:    bc30        0.      POP      {r4,r5}
        0x00004bd0:    4718        .G      BX       r3
        0x00004bd2:    0000        ..      MOVS     r0,r0
    i.__ARM_fpclassify
    __ARM_fpclassify
        0x00004bd4:    0049        I.      LSLS     r1,r1,#1
        0x00004bd6:    02ca        ..      LSLS     r2,r1,#11
        0x00004bd8:    4302        .C      ORRS     r2,r2,r0
        0x00004bda:    0010        ..      MOVS     r0,r2
        0x00004bdc:    d000        ..      BEQ      0x4be0 ; __ARM_fpclassify + 12
        0x00004bde:    2004        .       MOVS     r0,#4
        0x00004be0:    0d4a        J.      LSRS     r2,r1,#21
        0x00004be2:    d001        ..      BEQ      0x4be8 ; __ARM_fpclassify + 20
        0x00004be4:    2201        ."      MOVS     r2,#1
        0x00004be6:    4310        .C      ORRS     r0,r0,r2
        0x00004be8:    4a04        .J      LDR      r2,[pc,#16] ; [0x4bfc] = 0x7ff
        0x00004bea:    0d49        I.      LSRS     r1,r1,#21
        0x00004bec:    4291        .B      CMP      r1,r2
        0x00004bee:    d101        ..      BNE      0x4bf4 ; __ARM_fpclassify + 32
        0x00004bf0:    2102        .!      MOVS     r1,#2
        0x00004bf2:    4308        .C      ORRS     r0,r0,r1
        0x00004bf4:    2801        .(      CMP      r0,#1
        0x00004bf6:    d100        ..      BNE      0x4bfa ; __ARM_fpclassify + 38
        0x00004bf8:    2005        .       MOVS     r0,#5
        0x00004bfa:    4770        pG      BX       lr
    $d
        0x00004bfc:    000007ff    ....    DCD    2047
    $t
    i.__ARM_fpclassifyf
    __ARM_fpclassifyf
        0x00004c00:    0041        A.      LSLS     r1,r0,#1
        0x00004c02:    0208        ..      LSLS     r0,r1,#8
        0x00004c04:    d000        ..      BEQ      0x4c08 ; __ARM_fpclassifyf + 8
        0x00004c06:    2004        .       MOVS     r0,#4
        0x00004c08:    0e0a        ..      LSRS     r2,r1,#24
        0x00004c0a:    d001        ..      BEQ      0x4c10 ; __ARM_fpclassifyf + 16
        0x00004c0c:    2201        ."      MOVS     r2,#1
        0x00004c0e:    4310        .C      ORRS     r0,r0,r2
        0x00004c10:    0e09        ..      LSRS     r1,r1,#24
        0x00004c12:    29ff        .)      CMP      r1,#0xff
        0x00004c14:    d101        ..      BNE      0x4c1a ; __ARM_fpclassifyf + 26
        0x00004c16:    2102        .!      MOVS     r1,#2
        0x00004c18:    4308        .C      ORRS     r0,r0,r1
        0x00004c1a:    2801        .(      CMP      r0,#1
        0x00004c1c:    d100        ..      BNE      0x4c20 ; __ARM_fpclassifyf + 32
        0x00004c1e:    2005        .       MOVS     r0,#5
        0x00004c20:    4770        pG      BX       lr
        0x00004c22:    0000        ..      MOVS     r0,r0
    i.__ieee754_rem_pio2
    __ieee754_rem_pio2
        0x00004c24:    b5f7        ..      PUSH     {r0-r2,r4-r7,lr}
        0x00004c26:    b096        ..      SUB      sp,sp,#0x58
        0x00004c28:    4614        .F      MOV      r4,r2
        0x00004c2a:    2100        .!      MOVS     r1,#0
        0x00004c2c:    60a1        .`      STR      r1,[r4,#8]
        0x00004c2e:    60d1        .`      STR      r1,[r2,#0xc]
        0x00004c30:    9917        ..      LDR      r1,[sp,#0x5c]
        0x00004c32:    9109        ..      STR      r1,[sp,#0x24]
        0x00004c34:    004d        M.      LSLS     r5,r1,#1
        0x00004c36:    49cd        .I      LDR      r1,[pc,#820] ; [0x4f6c] = 0x3fe921fb
        0x00004c38:    086d        m.      LSRS     r5,r5,#1
        0x00004c3a:    428d        .B      CMP      r5,r1
        0x00004c3c:    dc05        ..      BGT      0x4c4a ; __ieee754_rem_pio2 + 38
        0x00004c3e:    9917        ..      LDR      r1,[sp,#0x5c]
        0x00004c40:    6061        a`      STR      r1,[r4,#4]
        0x00004c42:    6020         `      STR      r0,[r4,#0]
        0x00004c44:    2000        .       MOVS     r0,#0
        0x00004c46:    b019        ..      ADD      sp,sp,#0x64
        0x00004c48:    bdf0        ..      POP      {r4-r7,pc}
        0x00004c4a:    49c9        .I      LDR      r1,[pc,#804] ; [0x4f70] = 0x4002d97c
        0x00004c4c:    4ec9        .N      LDR      r6,[pc,#804] ; [0x4f74] = 0x3ff921fb
        0x00004c4e:    428d        .B      CMP      r5,r1
        0x00004c50:    da38        8.      BGE      0x4cc4 ; __ieee754_rem_pio2 + 160
        0x00004c52:    27d3        .'      MOVS     r7,#0xd3
        0x00004c54:    9909        ..      LDR      r1,[sp,#0x24]
        0x00004c56:    057f        ..      LSLS     r7,r7,#21
        0x00004c58:    2900        .)      CMP      r1,#0
        0x00004c5a:    4ac7        .J      LDR      r2,[pc,#796] ; [0x4f78] = 0x54400000
        0x00004c5c:    9917        ..      LDR      r1,[sp,#0x5c]
        0x00004c5e:    4633        3F      MOV      r3,r6
        0x00004c60:    dd17        ..      BLE      0x4c92 ; __ieee754_rem_pio2 + 110
        0x00004c62:    f7fffbf5    ....    BL       __aeabi_dsub ; 0x4450
        0x00004c66:    42b5        .B      CMP      r5,r6
        0x00004c68:    d006        ..      BEQ      0x4c78 ; __ieee754_rem_pio2 + 84
        0x00004c6a:    4ac4        .J      LDR      r2,[pc,#784] ; [0x4f7c] = 0x1a626331
        0x00004c6c:    4bc4        .K      LDR      r3,[pc,#784] ; [0x4f80] = 0x3dd0b461
        0x00004c6e:    f7fffbef    ....    BL       __aeabi_dsub ; 0x4450
        0x00004c72:    6061        a`      STR      r1,[r4,#4]
        0x00004c74:    6020         `      STR      r0,[r4,#0]
        0x00004c76:    e009        ..      B        0x4c8c ; __ieee754_rem_pio2 + 104
        0x00004c78:    463a        :F      MOV      r2,r7
        0x00004c7a:    4bc1        .K      LDR      r3,[pc,#772] ; [0x4f80] = 0x3dd0b461
        0x00004c7c:    f7fffbe8    ....    BL       __aeabi_dsub ; 0x4450
        0x00004c80:    4ac0        .J      LDR      r2,[pc,#768] ; [0x4f84] = 0x2e037073
        0x00004c82:    4bc1        .K      LDR      r3,[pc,#772] ; [0x4f88] = 0x3ba3198a
        0x00004c84:    f7fffbe4    ....    BL       __aeabi_dsub ; 0x4450
        0x00004c88:    6061        a`      STR      r1,[r4,#4]
        0x00004c8a:    6020         `      STR      r0,[r4,#0]
        0x00004c8c:    2001        .       MOVS     r0,#1
        0x00004c8e:    b019        ..      ADD      sp,sp,#0x64
        0x00004c90:    bdf0        ..      POP      {r4-r7,pc}
        0x00004c92:    f7fffb39    ..9.    BL       __aeabi_dadd ; 0x4308
        0x00004c96:    42b5        .B      CMP      r5,r6
        0x00004c98:    d006        ..      BEQ      0x4ca8 ; __ieee754_rem_pio2 + 132
        0x00004c9a:    4ab8        .J      LDR      r2,[pc,#736] ; [0x4f7c] = 0x1a626331
        0x00004c9c:    4bb8        .K      LDR      r3,[pc,#736] ; [0x4f80] = 0x3dd0b461
        0x00004c9e:    f7fffb33    ..3.    BL       __aeabi_dadd ; 0x4308
        0x00004ca2:    6061        a`      STR      r1,[r4,#4]
        0x00004ca4:    6020         `      STR      r0,[r4,#0]
        0x00004ca6:    e009        ..      B        0x4cbc ; __ieee754_rem_pio2 + 152
        0x00004ca8:    463a        :F      MOV      r2,r7
        0x00004caa:    4bb5        .K      LDR      r3,[pc,#724] ; [0x4f80] = 0x3dd0b461
        0x00004cac:    f7fffb2c    ..,.    BL       __aeabi_dadd ; 0x4308
        0x00004cb0:    4ab4        .J      LDR      r2,[pc,#720] ; [0x4f84] = 0x2e037073
        0x00004cb2:    4bb5        .K      LDR      r3,[pc,#724] ; [0x4f88] = 0x3ba3198a
        0x00004cb4:    f7fffb28    ..(.    BL       __aeabi_dadd ; 0x4308
        0x00004cb8:    6061        a`      STR      r1,[r4,#4]
        0x00004cba:    6020         `      STR      r0,[r4,#0]
        0x00004cbc:    2000        .       MOVS     r0,#0
        0x00004cbe:    43c0        .C      MVNS     r0,r0
        0x00004cc0:    b019        ..      ADD      sp,sp,#0x64
        0x00004cc2:    bdf0        ..      POP      {r4-r7,pc}
        0x00004cc4:    49b1        .I      LDR      r1,[pc,#708] ; [0x4f8c] = 0x413921fb
        0x00004cc6:    428d        .B      CMP      r5,r1
        0x00004cc8:    9917        ..      LDR      r1,[sp,#0x5c]
        0x00004cca:    dc77        w.      BGT      0x4dbc ; __ieee754_rem_pio2 + 408
        0x00004ccc:    0049        I.      LSLS     r1,r1,#1
        0x00004cce:    0849        I.      LSRS     r1,r1,#1
        0x00004cd0:    4607        .F      MOV      r7,r0
        0x00004cd2:    4aaf        .J      LDR      r2,[pc,#700] ; [0x4f90] = 0x6dc9c883
        0x00004cd4:    4baf        .K      LDR      r3,[pc,#700] ; [0x4f94] = 0x3fe45f30
        0x00004cd6:    9104        ..      STR      r1,[sp,#0x10]
        0x00004cd8:    f7fffbc8    ....    BL       __aeabi_dmul ; 0x446c
        0x00004cdc:    2200        ."      MOVS     r2,#0
        0x00004cde:    4bae        .K      LDR      r3,[pc,#696] ; [0x4f98] = 0x3fe00000
        0x00004ce0:    f7fffb12    ....    BL       __aeabi_dadd ; 0x4308
        0x00004ce4:    f7fffef4    ....    BL       __aeabi_d2iz ; 0x4ad0
        0x00004ce8:    900a        ..      STR      r0,[sp,#0x28]
        0x00004cea:    f7fffcb1    ....    BL       __aeabi_i2d ; 0x4650
        0x00004cee:    4aa2        .J      LDR      r2,[pc,#648] ; [0x4f78] = 0x54400000
        0x00004cf0:    4633        3F      MOV      r3,r6
        0x00004cf2:    9103        ..      STR      r1,[sp,#0xc]
        0x00004cf4:    9002        ..      STR      r0,[sp,#8]
        0x00004cf6:    f7fffbb9    ....    BL       __aeabi_dmul ; 0x446c
        0x00004cfa:    463a        :F      MOV      r2,r7
        0x00004cfc:    9b04        ..      LDR      r3,[sp,#0x10]
        0x00004cfe:    f7fffbad    ....    BL       __aeabi_drsub ; 0x445c
        0x00004d02:    4606        .F      MOV      r6,r0
        0x00004d04:    460f        .F      MOV      r7,r1
        0x00004d06:    4a9d        .J      LDR      r2,[pc,#628] ; [0x4f7c] = 0x1a626331
        0x00004d08:    4b9d        .K      LDR      r3,[pc,#628] ; [0x4f80] = 0x3dd0b461
        0x00004d0a:    9903        ..      LDR      r1,[sp,#0xc]
        0x00004d0c:    9802        ..      LDR      r0,[sp,#8]
        0x00004d0e:    f7fffbad    ....    BL       __aeabi_dmul ; 0x446c
        0x00004d12:    0d2a        *.      LSRS     r2,r5,#20
        0x00004d14:    2501        .%      MOVS     r5,#1
        0x00004d16:    920c        ..      STR      r2,[sp,#0x30]
        0x00004d18:    4632        2F      MOV      r2,r6
        0x00004d1a:    463b        ;F      MOV      r3,r7
        0x00004d1c:    f7fffb9e    ....    BL       __aeabi_drsub ; 0x445c
        0x00004d20:    6061        a`      STR      r1,[r4,#4]
        0x00004d22:    6020         `      STR      r0,[r4,#0]
        0x00004d24:    2d03        .-      CMP      r5,#3
        0x00004d26:    d039        9.      BEQ      0x4d9c ; __ieee754_rem_pio2 + 376
        0x00004d28:    0048        H.      LSLS     r0,r1,#1
        0x00004d2a:    0d41        A.      LSRS     r1,r0,#21
        0x00004d2c:    980c        ..      LDR      r0,[sp,#0x30]
        0x00004d2e:    1a40        @.      SUBS     r0,r0,r1
        0x00004d30:    0169        i.      LSLS     r1,r5,#5
        0x00004d32:    1869        i.      ADDS     r1,r5,r1
        0x00004d34:    3911        .9      SUBS     r1,r1,#0x11
        0x00004d36:    4281        .B      CMP      r1,r0
        0x00004d38:    da30        0.      BGE      0x4d9c ; __ieee754_rem_pio2 + 376
        0x00004d3a:    4998        .I      LDR      r1,[pc,#608] ; [0x4f9c] = 0x1736
        0x00004d3c:    0128        (.      LSLS     r0,r5,#4
        0x00004d3e:    4479        yD      ADD      r1,r1,pc
        0x00004d40:    9608        ..      STR      r6,[sp,#0x20]
        0x00004d42:    900d        ..      STR      r0,[sp,#0x34]
        0x00004d44:    1808        ..      ADDS     r0,r1,r0
        0x00004d46:    9704        ..      STR      r7,[sp,#0x10]
        0x00004d48:    6843        Ch      LDR      r3,[r0,#4]
        0x00004d4a:    6802        .h      LDR      r2,[r0,#0]
        0x00004d4c:    9903        ..      LDR      r1,[sp,#0xc]
        0x00004d4e:    9802        ..      LDR      r0,[sp,#8]
        0x00004d50:    f7fffb8c    ....    BL       __aeabi_dmul ; 0x446c
        0x00004d54:    4602        .F      MOV      r2,r0
        0x00004d56:    460b        .F      MOV      r3,r1
        0x00004d58:    9107        ..      STR      r1,[sp,#0x1c]
        0x00004d5a:    9006        ..      STR      r0,[sp,#0x18]
        0x00004d5c:    9904        ..      LDR      r1,[sp,#0x10]
        0x00004d5e:    9808        ..      LDR      r0,[sp,#0x20]
        0x00004d60:    f7fffb76    ..v.    BL       __aeabi_dsub ; 0x4450
        0x00004d64:    4606        .F      MOV      r6,r0
        0x00004d66:    460f        .F      MOV      r7,r1
        0x00004d68:    9b04        ..      LDR      r3,[sp,#0x10]
        0x00004d6a:    9a08        ..      LDR      r2,[sp,#0x20]
        0x00004d6c:    f7fffb76    ..v.    BL       __aeabi_drsub ; 0x445c
        0x00004d70:    9b07        ..      LDR      r3,[sp,#0x1c]
        0x00004d72:    9a06        ..      LDR      r2,[sp,#0x18]
        0x00004d74:    f7fffb6c    ..l.    BL       __aeabi_dsub ; 0x4450
        0x00004d78:    9105        ..      STR      r1,[sp,#0x14]
        0x00004d7a:    4989        .I      LDR      r1,[pc,#548] ; [0x4fa0] = 0x16f6
        0x00004d7c:    9004        ..      STR      r0,[sp,#0x10]
        0x00004d7e:    4479        yD      ADD      r1,r1,pc
        0x00004d80:    980d        ..      LDR      r0,[sp,#0x34]
        0x00004d82:    1840        @.      ADDS     r0,r0,r1
        0x00004d84:    68c3        .h      LDR      r3,[r0,#0xc]
        0x00004d86:    6882        .h      LDR      r2,[r0,#8]
        0x00004d88:    9903        ..      LDR      r1,[sp,#0xc]
        0x00004d8a:    9802        ..      LDR      r0,[sp,#8]
        0x00004d8c:    f7fffb6e    ..n.    BL       __aeabi_dmul ; 0x446c
        0x00004d90:    9b05        ..      LDR      r3,[sp,#0x14]
        0x00004d92:    9a04        ..      LDR      r2,[sp,#0x10]
        0x00004d94:    f7fffb5c    ..\.    BL       __aeabi_dsub ; 0x4450
        0x00004d98:    1c6d        m.      ADDS     r5,r5,#1
        0x00004d9a:    e7bd        ..      B        0x4d18 ; __ieee754_rem_pio2 + 244
        0x00004d9c:    9809        ..      LDR      r0,[sp,#0x24]
        0x00004d9e:    2800        .(      CMP      r0,#0
        0x00004da0:    da09        ..      BGE      0x4db6 ; __ieee754_rem_pio2 + 402
        0x00004da2:    2201        ."      MOVS     r2,#1
        0x00004da4:    6860        `h      LDR      r0,[r4,#4]
        0x00004da6:    07d2        ..      LSLS     r2,r2,#31
        0x00004da8:    4050        P@      EORS     r0,r0,r2
        0x00004daa:    6060        ``      STR      r0,[r4,#4]
        0x00004dac:    980a        ..      LDR      r0,[sp,#0x28]
        0x00004dae:    b019        ..      ADD      sp,sp,#0x64
        0x00004db0:    4240        @B      RSBS     r0,r0,#0
        0x00004db2:    bdf0        ..      POP      {r4-r7,pc}
        0x00004db4:    e002        ..      B        0x4dbc ; __ieee754_rem_pio2 + 408
        0x00004db6:    980a        ..      LDR      r0,[sp,#0x28]
        0x00004db8:    b019        ..      ADD      sp,sp,#0x64
        0x00004dba:    bdf0        ..      POP      {r4-r7,pc}
        0x00004dbc:    0309        ..      LSLS     r1,r1,#12
        0x00004dbe:    2201        ."      MOVS     r2,#1
        0x00004dc0:    0b09        ..      LSRS     r1,r1,#12
        0x00004dc2:    0512        ..      LSLS     r2,r2,#20
        0x00004dc4:    900e        ..      STR      r0,[sp,#0x38]
        0x00004dc6:    1889        ..      ADDS     r1,r1,r2
        0x00004dc8:    9817        ..      LDR      r0,[sp,#0x5c]
        0x00004dca:    9110        ..      STR      r1,[sp,#0x40]
        0x00004dcc:    0040        @.      LSLS     r0,r0,#1
        0x00004dce:    4975        uI      LDR      r1,[pc,#468] ; [0x4fa4] = 0xfffffc0b
        0x00004dd0:    0d40        @.      LSRS     r0,r0,#21
        0x00004dd2:    1840        @.      ADDS     r0,r0,r1
        0x00004dd4:    1141        A.      ASRS     r1,r0,#5
        0x00004dd6:    06c0        ..      LSLS     r0,r0,#27
        0x00004dd8:    0ec0        ..      LSRS     r0,r0,#27
        0x00004dda:    910d        ..      STR      r1,[sp,#0x34]
        0x00004ddc:    9013        ..      STR      r0,[sp,#0x4c]
        0x00004dde:    2120         !      MOVS     r1,#0x20
        0x00004de0:    1a08        ..      SUBS     r0,r1,r0
        0x00004de2:    9014        ..      STR      r0,[sp,#0x50]
        0x00004de4:    2000        .       MOVS     r0,#0
        0x00004de6:    9006        ..      STR      r0,[sp,#0x18]
        0x00004de8:    2505        .%      MOVS     r5,#5
        0x00004dea:    9007        ..      STR      r0,[sp,#0x1c]
        0x00004dec:    9813        ..      LDR      r0,[sp,#0x4c]
        0x00004dee:    2800        .(      CMP      r0,#0
        0x00004df0:    980d        ..      LDR      r0,[sp,#0x34]
        0x00004df2:    d00c        ..      BEQ      0x4e0e ; __ieee754_rem_pio2 + 490
        0x00004df4:    1940        @.      ADDS     r0,r0,r5
        0x00004df6:    0082        ..      LSLS     r2,r0,#2
        0x00004df8:    486b        kH      LDR      r0,[pc,#428] ; [0x4fa8] = 0x16aa
        0x00004dfa:    4478        xD      ADD      r0,r0,pc
        0x00004dfc:    5887        .X      LDR      r7,[r0,r2]
        0x00004dfe:    9913        ..      LDR      r1,[sp,#0x4c]
        0x00004e00:    408f        .@      LSLS     r7,r7,r1
        0x00004e02:    1810        ..      ADDS     r0,r2,r0
        0x00004e04:    6841        Ah      LDR      r1,[r0,#4]
        0x00004e06:    9814        ..      LDR      r0,[sp,#0x50]
        0x00004e08:    40c1        .@      LSRS     r1,r1,r0
        0x00004e0a:    430f        .C      ORRS     r7,r7,r1
        0x00004e0c:    e004        ..      B        0x4e18 ; __ieee754_rem_pio2 + 500
        0x00004e0e:    1940        @.      ADDS     r0,r0,r5
        0x00004e10:    0081        ..      LSLS     r1,r0,#2
        0x00004e12:    4866        fH      LDR      r0,[pc,#408] ; [0x4fac] = 0x1690
        0x00004e14:    4478        xD      ADD      r0,r0,pc
        0x00004e16:    5847        GX      LDR      r7,[r0,r1]
        0x00004e18:    9910        ..      LDR      r1,[sp,#0x40]
        0x00004e1a:    4638        8F      MOV      r0,r7
        0x00004e1c:    f7fffeb3    ....    BL       __ARM_common_ll_muluu ; 0x4b86
        0x00004e20:    4606        .F      MOV      r6,r0
        0x00004e22:    910a        ..      STR      r1,[sp,#0x28]
        0x00004e24:    4638        8F      MOV      r0,r7
        0x00004e26:    990e        ..      LDR      r1,[sp,#0x38]
        0x00004e28:    f7fffead    ....    BL       __ARM_common_ll_muluu ; 0x4b86
        0x00004e2c:    198a        ..      ADDS     r2,r1,r6
        0x00004e2e:    9b0a        ..      LDR      r3,[sp,#0x28]
        0x00004e30:    428a        .B      CMP      r2,r1
        0x00004e32:    d201        ..      BCS      0x4e38 ; __ieee754_rem_pio2 + 532
        0x00004e34:    2101        .!      MOVS     r1,#1
        0x00004e36:    e000        ..      B        0x4e3a ; __ieee754_rem_pio2 + 534
        0x00004e38:    2100        .!      MOVS     r1,#0
        0x00004e3a:    18c9        ..      ADDS     r1,r1,r3
        0x00004e3c:    468c        .F      MOV      r12,r1
        0x00004e3e:    00af        ..      LSLS     r7,r5,#2
        0x00004e40:    4669        iF      MOV      r1,sp
        0x00004e42:    1879        y.      ADDS     r1,r7,r1
        0x00004e44:    688b        .h      LDR      r3,[r1,#8]
        0x00004e46:    684e        Nh      LDR      r6,[r1,#4]
        0x00004e48:    18c3        ..      ADDS     r3,r0,r3
        0x00004e4a:    4283        .B      CMP      r3,r0
        0x00004e4c:    d201        ..      BCS      0x4e52 ; __ieee754_rem_pio2 + 558
        0x00004e4e:    2001        .       MOVS     r0,#1
        0x00004e50:    e000        ..      B        0x4e54 ; __ieee754_rem_pio2 + 560
        0x00004e52:    2000        .       MOVS     r0,#0
        0x00004e54:    1996        ..      ADDS     r6,r2,r6
        0x00004e56:    1836        6.      ADDS     r6,r6,r0
        0x00004e58:    2800        .(      CMP      r0,#0
        0x00004e5a:    d002        ..      BEQ      0x4e62 ; __ieee754_rem_pio2 + 574
        0x00004e5c:    4296        .B      CMP      r6,r2
        0x00004e5e:    d902        ..      BLS      0x4e66 ; __ieee754_rem_pio2 + 578
        0x00004e60:    e003        ..      B        0x4e6a ; __ieee754_rem_pio2 + 582
        0x00004e62:    4296        .B      CMP      r6,r2
        0x00004e64:    d201        ..      BCS      0x4e6a ; __ieee754_rem_pio2 + 582
        0x00004e66:    2001        .       MOVS     r0,#1
        0x00004e68:    e000        ..      B        0x4e6c ; __ieee754_rem_pio2 + 584
        0x00004e6a:    2000        .       MOVS     r0,#0
        0x00004e6c:    4662        bF      MOV      r2,r12
        0x00004e6e:    1812        ..      ADDS     r2,r2,r0
        0x00004e70:    604e        N`      STR      r6,[r1,#4]
        0x00004e72:    4668        hF      MOV      r0,sp
        0x00004e74:    608b        .`      STR      r3,[r1,#8]
        0x00004e76:    51c2        .Q      STR      r2,[r0,r7]
        0x00004e78:    4628        (F      MOV      r0,r5
        0x00004e7a:    1e6d        m.      SUBS     r5,r5,#1
        0x00004e7c:    2800        .(      CMP      r0,#0
        0x00004e7e:    dcb5        ..      BGT      0x4dec ; __ieee754_rem_pio2 + 456
        0x00004e80:    2101        .!      MOVS     r1,#1
        0x00004e82:    9802        ..      LDR      r0,[sp,#8]
        0x00004e84:    0749        I.      LSLS     r1,r1,#29
        0x00004e86:    1840        @.      ADDS     r0,r0,r1
        0x00004e88:    0f80        ..      LSRS     r0,r0,#30
        0x00004e8a:    9013        ..      STR      r0,[sp,#0x4c]
        0x00004e8c:    9802        ..      LDR      r0,[sp,#8]
        0x00004e8e:    9905        ..      LDR      r1,[sp,#0x14]
        0x00004e90:    0080        ..      LSLS     r0,r0,#2
        0x00004e92:    9e03        ..      LDR      r6,[sp,#0xc]
        0x00004e94:    9d04        ..      LDR      r5,[sp,#0x10]
        0x00004e96:    910b        ..      STR      r1,[sp,#0x2c]
        0x00004e98:    f7fffbda    ....    BL       __aeabi_i2d ; 0x4650
        0x00004e9c:    4607        .F      MOV      r7,r0
        0x00004e9e:    4630        0F      MOV      r0,r6
        0x00004ea0:    9108        ..      STR      r1,[sp,#0x20]
        0x00004ea2:    f7fffe07    ....    BL       __aeabi_ui2d ; 0x4ab4
        0x00004ea6:    221d        ."      MOVS     r2,#0x1d
        0x00004ea8:    43d2        .C      MVNS     r2,r2
        0x00004eaa:    f7fffdec    ....    BL       __ARM_scalbn ; 0x4a86
        0x00004eae:    9010        ..      STR      r0,[sp,#0x40]
        0x00004eb0:    910f        ..      STR      r1,[sp,#0x3c]
        0x00004eb2:    4628        (F      MOV      r0,r5
        0x00004eb4:    f7fffdfe    ....    BL       __aeabi_ui2d ; 0x4ab4
        0x00004eb8:    223d        ="      MOVS     r2,#0x3d
        0x00004eba:    43d2        .C      MVNS     r2,r2
        0x00004ebc:    f7fffde3    ....    BL       __ARM_scalbn ; 0x4a86
        0x00004ec0:    900e        ..      STR      r0,[sp,#0x38]
        0x00004ec2:    910d        ..      STR      r1,[sp,#0x34]
        0x00004ec4:    980b        ..      LDR      r0,[sp,#0x2c]
        0x00004ec6:    f7fffdf5    ....    BL       __aeabi_ui2d ; 0x4ab4
        0x00004eca:    225d        ]"      MOVS     r2,#0x5d
        0x00004ecc:    43d2        .C      MVNS     r2,r2
        0x00004ece:    f7fffdda    ....    BL       __ARM_scalbn ; 0x4a86
        0x00004ed2:    910b        ..      STR      r1,[sp,#0x2c]
        0x00004ed4:    900c        ..      STR      r0,[sp,#0x30]
        0x00004ed6:    9b0d        ..      LDR      r3,[sp,#0x34]
        0x00004ed8:    9a0e        ..      LDR      r2,[sp,#0x38]
        0x00004eda:    f7fffa15    ....    BL       __aeabi_dadd ; 0x4308
        0x00004ede:    9b0f        ..      LDR      r3,[sp,#0x3c]
        0x00004ee0:    9a10        ..      LDR      r2,[sp,#0x40]
        0x00004ee2:    f7fffa11    ....    BL       __aeabi_dadd ; 0x4308
        0x00004ee6:    463a        :F      MOV      r2,r7
        0x00004ee8:    9b08        ..      LDR      r3,[sp,#0x20]
        0x00004eea:    f7fffa0d    ....    BL       __aeabi_dadd ; 0x4308
        0x00004eee:    2500        .%      MOVS     r5,#0
        0x00004ef0:    460e        .F      MOV      r6,r1
        0x00004ef2:    463a        :F      MOV      r2,r7
        0x00004ef4:    4628        (F      MOV      r0,r5
        0x00004ef6:    9b08        ..      LDR      r3,[sp,#0x20]
        0x00004ef8:    f7fffaaa    ....    BL       __aeabi_dsub ; 0x4450
        0x00004efc:    9b0f        ..      LDR      r3,[sp,#0x3c]
        0x00004efe:    9a10        ..      LDR      r2,[sp,#0x40]
        0x00004f00:    f7fffaa6    ....    BL       __aeabi_dsub ; 0x4450
        0x00004f04:    9b0d        ..      LDR      r3,[sp,#0x34]
        0x00004f06:    9a0e        ..      LDR      r2,[sp,#0x38]
        0x00004f08:    f7fffaa2    ....    BL       __aeabi_dsub ; 0x4450
        0x00004f0c:    9b0b        ..      LDR      r3,[sp,#0x2c]
        0x00004f0e:    9a0c        ..      LDR      r2,[sp,#0x30]
        0x00004f10:    f7fffaa4    ....    BL       __aeabi_drsub ; 0x445c
        0x00004f14:    4a26        &J      LDR      r2,[pc,#152] ; [0x4fb0] = 0x54442d18
        0x00004f16:    4b27        'K      LDR      r3,[pc,#156] ; [0x4fb4] = 0x3df921fb
        0x00004f18:    f7fffaa8    ....    BL       __aeabi_dmul ; 0x446c
        0x00004f1c:    4607        .F      MOV      r7,r0
        0x00004f1e:    910d        ..      STR      r1,[sp,#0x34]
        0x00004f20:    4a25        %J      LDR      r2,[pc,#148] ; [0x4fb8] = 0x11a62633
        0x00004f22:    4b26        &K      LDR      r3,[pc,#152] ; [0x4fbc] = 0x3c110b46
        0x00004f24:    4631        1F      MOV      r1,r6
        0x00004f26:    4628        (F      MOV      r0,r5
        0x00004f28:    f7fffaa0    ....    BL       __aeabi_dmul ; 0x446c
        0x00004f2c:    463a        :F      MOV      r2,r7
        0x00004f2e:    9b0d        ..      LDR      r3,[sp,#0x34]
        0x00004f30:    f7fff9ea    ....    BL       __aeabi_dadd ; 0x4308
        0x00004f34:    460f        .F      MOV      r7,r1
        0x00004f36:    2215        ."      MOVS     r2,#0x15
        0x00004f38:    900c        ..      STR      r0,[sp,#0x30]
        0x00004f3a:    0692        ..      LSLS     r2,r2,#26
        0x00004f3c:    4b1d        .K      LDR      r3,[pc,#116] ; [0x4fb4] = 0x3df921fb
        0x00004f3e:    4631        1F      MOV      r1,r6
        0x00004f40:    4628        (F      MOV      r0,r5
        0x00004f42:    f7fffa93    ....    BL       __aeabi_dmul ; 0x446c
        0x00004f46:    463b        ;F      MOV      r3,r7
        0x00004f48:    9a0c        ..      LDR      r2,[sp,#0x30]
        0x00004f4a:    f7fff9dd    ....    BL       __aeabi_dadd ; 0x4308
        0x00004f4e:    9a17        ..      LDR      r2,[sp,#0x5c]
        0x00004f50:    2a00        .*      CMP      r2,#0
        0x00004f52:    da05        ..      BGE      0x4f60 ; __ieee754_rem_pio2 + 828
        0x00004f54:    9a13        ..      LDR      r2,[sp,#0x4c]
        0x00004f56:    4252        RB      RSBS     r2,r2,#0
        0x00004f58:    9213        ..      STR      r2,[sp,#0x4c]
        0x00004f5a:    2201        ."      MOVS     r2,#1
        0x00004f5c:    07d2        ..      LSLS     r2,r2,#31
        0x00004f5e:    4051        Q@      EORS     r1,r1,r2
        0x00004f60:    6061        a`      STR      r1,[r4,#4]
        0x00004f62:    6020         `      STR      r0,[r4,#0]
        0x00004f64:    9813        ..      LDR      r0,[sp,#0x4c]
        0x00004f66:    b019        ..      ADD      sp,sp,#0x64
        0x00004f68:    bdf0        ..      POP      {r4-r7,pc}
    $d
        0x00004f6a:    0000        ..      DCW    0
        0x00004f6c:    3fe921fb    .!.?    DCD    1072243195
        0x00004f70:    4002d97c    |..@    DCD    1073928572
        0x00004f74:    3ff921fb    .!.?    DCD    1073291771
        0x00004f78:    54400000    ..@T    DCD    1413480448
        0x00004f7c:    1a626331    1cb.    DCD    442655537
        0x00004f80:    3dd0b461    a..=    DCD    1037087841
        0x00004f84:    2e037073    sp..    DCD    771977331
        0x00004f88:    3ba3198a    ...;    DCD    1000544650
        0x00004f8c:    413921fb    .!9A    DCD    1094263291
        0x00004f90:    6dc9c883    ...m    DCD    1841940611
        0x00004f94:    3fe45f30    0_.?    DCD    1071931184
        0x00004f98:    3fe00000    ...?    DCD    1071644672
        0x00004f9c:    00001736    6...    DCD    5942
        0x00004fa0:    000016f6    ....    DCD    5878
        0x00004fa4:    fffffc0b    ....    DCD    4294966283
        0x00004fa8:    000016aa    ....    DCD    5802
        0x00004fac:    00001690    ....    DCD    5776
        0x00004fb0:    54442d18    .-DT    DCD    1413754136
        0x00004fb4:    3df921fb    .!.=    DCD    1039737339
        0x00004fb8:    11a62633    3&..    DCD    296101427
        0x00004fbc:    3c110b46    F..<    DCD    1007749958
    $t
    i.__kernel_cos
    __kernel_cos
        0x00004fc0:    b5f0        ..      PUSH     {r4-r7,lr}
        0x00004fc2:    b41f        ..      PUSH     {r0-r4}
        0x00004fc4:    004e        N.      LSLS     r6,r1,#1
        0x00004fc6:    20f9        .       MOVS     r0,#0xf9
        0x00004fc8:    0876        v.      LSRS     r6,r6,#1
        0x00004fca:    0580        ..      LSLS     r0,r0,#22
        0x00004fcc:    b084        ..      SUB      sp,sp,#0x10
        0x00004fce:    460f        .F      MOV      r7,r1
        0x00004fd0:    4286        .B      CMP      r6,r0
        0x00004fd2:    da04        ..      BGE      0x4fde ; __kernel_cos + 30
        0x00004fd4:    9804        ..      LDR      r0,[sp,#0x10]
        0x00004fd6:    f7fffd7b    ..{.    BL       __aeabi_d2iz ; 0x4ad0
        0x00004fda:    2800        .(      CMP      r0,#0
        0x00004fdc:    d038        8.      BEQ      0x5050 ; __kernel_cos + 144
        0x00004fde:    9a04        ..      LDR      r2,[sp,#0x10]
        0x00004fe0:    463b        ;F      MOV      r3,r7
        0x00004fe2:    4610        .F      MOV      r0,r2
        0x00004fe4:    4619        .F      MOV      r1,r3
        0x00004fe6:    f7fffa41    ..A.    BL       __aeabi_dmul ; 0x446c
        0x00004fea:    4604        .F      MOV      r4,r0
        0x00004fec:    4602        .F      MOV      r2,r0
        0x00004fee:    482c        ,H      LDR      r0,[pc,#176] ; [0x50a0] = 0x144e
        0x00004ff0:    460d        .F      MOV      r5,r1
        0x00004ff2:    460b        .F      MOV      r3,r1
        0x00004ff4:    2106        .!      MOVS     r1,#6
        0x00004ff6:    4478        xD      ADD      r0,r0,pc
        0x00004ff8:    f000f85c    ..\.    BL       __kernel_poly ; 0x50b4
        0x00004ffc:    4622        "F      MOV      r2,r4
        0x00004ffe:    462b        +F      MOV      r3,r5
        0x00005000:    f7fffa34    ..4.    BL       __aeabi_dmul ; 0x446c
        0x00005004:    9101        ..      STR      r1,[sp,#4]
        0x00005006:    9000        ..      STR      r0,[sp,#0]
        0x00005008:    4639        9F      MOV      r1,r7
        0x0000500a:    9b07        ..      LDR      r3,[sp,#0x1c]
        0x0000500c:    9a06        ..      LDR      r2,[sp,#0x18]
        0x0000500e:    9804        ..      LDR      r0,[sp,#0x10]
        0x00005010:    f7fffa2c    ..,.    BL       __aeabi_dmul ; 0x446c
        0x00005014:    4607        .F      MOV      r7,r0
        0x00005016:    9102        ..      STR      r1,[sp,#8]
        0x00005018:    4620         F      MOV      r0,r4
        0x0000501a:    4629        )F      MOV      r1,r5
        0x0000501c:    9b01        ..      LDR      r3,[sp,#4]
        0x0000501e:    9a00        ..      LDR      r2,[sp,#0]
        0x00005020:    f7fffa24    ..$.    BL       __aeabi_dmul ; 0x446c
        0x00005024:    463a        :F      MOV      r2,r7
        0x00005026:    9b02        ..      LDR      r3,[sp,#8]
        0x00005028:    f7fffa12    ....    BL       __aeabi_dsub ; 0x4450
        0x0000502c:    4607        .F      MOV      r7,r0
        0x0000502e:    2200        ."      MOVS     r2,#0
        0x00005030:    9100        ..      STR      r1,[sp,#0]
        0x00005032:    43d2        .C      MVNS     r2,r2
        0x00005034:    4620         F      MOV      r0,r4
        0x00005036:    4629        )F      MOV      r1,r5
        0x00005038:    f7fffd25    ..%.    BL       __ARM_scalbn ; 0x4a86
        0x0000503c:    4a19        .J      LDR      r2,[pc,#100] ; [0x50a4] = 0x3fd33333
        0x0000503e:    4296        .B      CMP      r6,r2
        0x00005040:    da0a        ..      BGE      0x5058 ; __kernel_cos + 152
        0x00005042:    463a        :F      MOV      r2,r7
        0x00005044:    9b00        ..      LDR      r3,[sp,#0]
        0x00005046:    f7fffa03    ....    BL       __aeabi_dsub ; 0x4450
        0x0000504a:    2200        ."      MOVS     r2,#0
        0x0000504c:    4b16        .K      LDR      r3,[pc,#88] ; [0x50a8] = 0x3ff00000
        0x0000504e:    e023        #.      B        0x5098 ; __kernel_cos + 216
        0x00005050:    2000        .       MOVS     r0,#0
        0x00005052:    4915        .I      LDR      r1,[pc,#84] ; [0x50a8] = 0x3ff00000
        0x00005054:    b009        ..      ADD      sp,sp,#0x24
        0x00005056:    bdf0        ..      POP      {r4-r7,pc}
        0x00005058:    4a14        .J      LDR      r2,[pc,#80] ; [0x50ac] = 0x3fe90000
        0x0000505a:    4296        .B      CMP      r6,r2
        0x0000505c:    dd02        ..      BLE      0x5064 ; __kernel_cos + 164
        0x0000505e:    2400        .$      MOVS     r4,#0
        0x00005060:    4d13        .M      LDR      r5,[pc,#76] ; [0x50b0] = 0x3fd20000
        0x00005062:    e003        ..      B        0x506c ; __kernel_cos + 172
        0x00005064:    2201        ."      MOVS     r2,#1
        0x00005066:    0552        R.      LSLS     r2,r2,#21
        0x00005068:    1ab5        ..      SUBS     r5,r6,r2
        0x0000506a:    2400        .$      MOVS     r4,#0
        0x0000506c:    4622        "F      MOV      r2,r4
        0x0000506e:    462b        +F      MOV      r3,r5
        0x00005070:    f7fff9ee    ....    BL       __aeabi_dsub ; 0x4450
        0x00005074:    4606        .F      MOV      r6,r0
        0x00005076:    9101        ..      STR      r1,[sp,#4]
        0x00005078:    4622        "F      MOV      r2,r4
        0x0000507a:    462b        +F      MOV      r3,r5
        0x0000507c:    2000        .       MOVS     r0,#0
        0x0000507e:    490a        .I      LDR      r1,[pc,#40] ; [0x50a8] = 0x3ff00000
        0x00005080:    f7fff9e6    ....    BL       __aeabi_dsub ; 0x4450
        0x00005084:    460d        .F      MOV      r5,r1
        0x00005086:    4604        .F      MOV      r4,r0
        0x00005088:    463a        :F      MOV      r2,r7
        0x0000508a:    4630        0F      MOV      r0,r6
        0x0000508c:    9b00        ..      LDR      r3,[sp,#0]
        0x0000508e:    9901        ..      LDR      r1,[sp,#4]
        0x00005090:    f7fff9de    ....    BL       __aeabi_dsub ; 0x4450
        0x00005094:    4622        "F      MOV      r2,r4
        0x00005096:    462b        +F      MOV      r3,r5
        0x00005098:    f7fff9e0    ....    BL       __aeabi_drsub ; 0x445c
        0x0000509c:    b009        ..      ADD      sp,sp,#0x24
        0x0000509e:    bdf0        ..      POP      {r4-r7,pc}
    $d
        0x000050a0:    0000144e    N...    DCD    5198
        0x000050a4:    3fd33333    33.?    DCD    1070805811
        0x000050a8:    3ff00000    ...?    DCD    1072693248
        0x000050ac:    3fe90000    ...?    DCD    1072234496
        0x000050b0:    3fd20000    ...?    DCD    1070727168
    $t
    i.__kernel_poly
    __kernel_poly
        0x000050b4:    b5f8        ..      PUSH     {r3-r7,lr}
        0x000050b6:    4604        .F      MOV      r4,r0
        0x000050b8:    1e4f        O.      SUBS     r7,r1,#1
        0x000050ba:    00c8        ..      LSLS     r0,r1,#3
        0x000050bc:    3808        .8      SUBS     r0,r0,#8
        0x000050be:    1821        !.      ADDS     r1,r4,r0
        0x000050c0:    4615        .F      MOV      r5,r2
        0x000050c2:    461e        .F      MOV      r6,r3
        0x000050c4:    6808        .h      LDR      r0,[r1,#0]
        0x000050c6:    6849        Ih      LDR      r1,[r1,#4]
        0x000050c8:    463a        :F      MOV      r2,r7
        0x000050ca:    2306        .#      MOVS     r3,#6
        0x000050cc:    439a        .C      BICS     r2,r2,r3
        0x000050ce:    d010        ..      BEQ      0x50f2 ; __kernel_poly + 62
        0x000050d0:    462a        *F      MOV      r2,r5
        0x000050d2:    4633        3F      MOV      r3,r6
        0x000050d4:    f7fff9ca    ....    BL       __aeabi_dmul ; 0x446c
        0x000050d8:    463a        :F      MOV      r2,r7
        0x000050da:    00d2        ..      LSLS     r2,r2,#3
        0x000050dc:    3a08        .:      SUBS     r2,r2,#8
        0x000050de:    18a3        ..      ADDS     r3,r4,r2
        0x000050e0:    681a        .h      LDR      r2,[r3,#0]
        0x000050e2:    1e7f        ..      SUBS     r7,r7,#1
        0x000050e4:    685b        [h      LDR      r3,[r3,#4]
        0x000050e6:    f7fff90f    ....    BL       __aeabi_dadd ; 0x4308
        0x000050ea:    2206        ."      MOVS     r2,#6
        0x000050ec:    463b        ;F      MOV      r3,r7
        0x000050ee:    4393        .C      BICS     r3,r3,r2
        0x000050f0:    d1ee        ..      BNE      0x50d0 ; __kernel_poly + 28
        0x000050f2:    2f02        ./      CMP      r7,#2
        0x000050f4:    d023        #.      BEQ      0x513e ; __kernel_poly + 138
        0x000050f6:    2f04        ./      CMP      r7,#4
        0x000050f8:    d011        ..      BEQ      0x511e ; __kernel_poly + 106
        0x000050fa:    2f06        ./      CMP      r7,#6
        0x000050fc:    d12f        /.      BNE      0x515e ; __kernel_poly + 170
        0x000050fe:    462a        *F      MOV      r2,r5
        0x00005100:    4633        3F      MOV      r3,r6
        0x00005102:    f7fff9b3    ....    BL       __aeabi_dmul ; 0x446c
        0x00005106:    6ae3        .j      LDR      r3,[r4,#0x2c]
        0x00005108:    6aa2        .j      LDR      r2,[r4,#0x28]
        0x0000510a:    f7fff8fd    ....    BL       __aeabi_dadd ; 0x4308
        0x0000510e:    462a        *F      MOV      r2,r5
        0x00005110:    4633        3F      MOV      r3,r6
        0x00005112:    f7fff9ab    ....    BL       __aeabi_dmul ; 0x446c
        0x00005116:    6a63        cj      LDR      r3,[r4,#0x24]
        0x00005118:    6a22        "j      LDR      r2,[r4,#0x20]
        0x0000511a:    f7fff8f5    ....    BL       __aeabi_dadd ; 0x4308
        0x0000511e:    462a        *F      MOV      r2,r5
        0x00005120:    4633        3F      MOV      r3,r6
        0x00005122:    f7fff9a3    ....    BL       __aeabi_dmul ; 0x446c
        0x00005126:    69e3        .i      LDR      r3,[r4,#0x1c]
        0x00005128:    69a2        .i      LDR      r2,[r4,#0x18]
        0x0000512a:    f7fff8ed    ....    BL       __aeabi_dadd ; 0x4308
        0x0000512e:    462a        *F      MOV      r2,r5
        0x00005130:    4633        3F      MOV      r3,r6
        0x00005132:    f7fff99b    ....    BL       __aeabi_dmul ; 0x446c
        0x00005136:    6963        ci      LDR      r3,[r4,#0x14]
        0x00005138:    6922        "i      LDR      r2,[r4,#0x10]
        0x0000513a:    f7fff8e5    ....    BL       __aeabi_dadd ; 0x4308
        0x0000513e:    462a        *F      MOV      r2,r5
        0x00005140:    4633        3F      MOV      r3,r6
        0x00005142:    f7fff993    ....    BL       __aeabi_dmul ; 0x446c
        0x00005146:    68e3        .h      LDR      r3,[r4,#0xc]
        0x00005148:    68a2        .h      LDR      r2,[r4,#8]
        0x0000514a:    f7fff8dd    ....    BL       __aeabi_dadd ; 0x4308
        0x0000514e:    462a        *F      MOV      r2,r5
        0x00005150:    4633        3F      MOV      r3,r6
        0x00005152:    f7fff98b    ....    BL       __aeabi_dmul ; 0x446c
        0x00005156:    6863        ch      LDR      r3,[r4,#4]
        0x00005158:    6822        "h      LDR      r2,[r4,#0]
        0x0000515a:    f7fff8d5    ....    BL       __aeabi_dadd ; 0x4308
        0x0000515e:    bdf8        ..      POP      {r3-r7,pc}
    i.__kernel_sin
    __kernel_sin
        0x00005160:    b5f0        ..      PUSH     {r4-r7,lr}
        0x00005162:    b41f        ..      PUSH     {r0-r4}
        0x00005164:    4605        .F      MOV      r5,r0
        0x00005166:    0048        H.      LSLS     r0,r1,#1
        0x00005168:    460c        .F      MOV      r4,r1
        0x0000516a:    21f9        .!      MOVS     r1,#0xf9
        0x0000516c:    0840        @.      LSRS     r0,r0,#1
        0x0000516e:    0589        ..      LSLS     r1,r1,#22
        0x00005170:    b086        ..      SUB      sp,sp,#0x18
        0x00005172:    4288        .B      CMP      r0,r1
        0x00005174:    da0b        ..      BGE      0x518e ; __kernel_sin + 46
        0x00005176:    4628        (F      MOV      r0,r5
        0x00005178:    4621        !F      MOV      r1,r4
        0x0000517a:    f7fffd2b    ..+.    BL       __ARM_fpclassify ; 0x4bd4
        0x0000517e:    2804        .(      CMP      r0,#4
        0x00005180:    d101        ..      BNE      0x5186 ; __kernel_sin + 38
        0x00005182:    f000f871    ..q.    BL       __mathlib_dbl_underflow ; 0x5268
        0x00005186:    4628        (F      MOV      r0,r5
        0x00005188:    4621        !F      MOV      r1,r4
        0x0000518a:    b00b        ..      ADD      sp,sp,#0x2c
        0x0000518c:    bdf0        ..      POP      {r4-r7,pc}
        0x0000518e:    462a        *F      MOV      r2,r5
        0x00005190:    4623        #F      MOV      r3,r4
        0x00005192:    4610        .F      MOV      r0,r2
        0x00005194:    4619        .F      MOV      r1,r3
        0x00005196:    f7fff969    ..i.    BL       __aeabi_dmul ; 0x446c
        0x0000519a:    4606        .F      MOV      r6,r0
        0x0000519c:    460f        .F      MOV      r7,r1
        0x0000519e:    462a        *F      MOV      r2,r5
        0x000051a0:    4623        #F      MOV      r3,r4
        0x000051a2:    f7fff963    ..c.    BL       __aeabi_dmul ; 0x446c
        0x000051a6:    9000        ..      STR      r0,[sp,#0]
        0x000051a8:    4825        %H      LDR      r0,[pc,#148] ; [0x5240] = 0x13aa
        0x000051aa:    9101        ..      STR      r1,[sp,#4]
        0x000051ac:    4632        2F      MOV      r2,r6
        0x000051ae:    463b        ;F      MOV      r3,r7
        0x000051b0:    2105        .!      MOVS     r1,#5
        0x000051b2:    4478        xD      ADD      r0,r0,pc
        0x000051b4:    f7ffff7e    ..~.    BL       __kernel_poly ; 0x50b4
        0x000051b8:    9002        ..      STR      r0,[sp,#8]
        0x000051ba:    9810        ..      LDR      r0,[sp,#0x40]
        0x000051bc:    9103        ..      STR      r1,[sp,#0xc]
        0x000051be:    2800        .(      CMP      r0,#0
        0x000051c0:    d029        ).      BEQ      0x5216 ; __kernel_sin + 182
        0x000051c2:    4a20         J      LDR      r2,[pc,#128] ; [0x5244] = 0x55555549
        0x000051c4:    4b20         K      LDR      r3,[pc,#128] ; [0x5248] = 0xbfc55555
        0x000051c6:    9901        ..      LDR      r1,[sp,#4]
        0x000051c8:    9800        ..      LDR      r0,[sp,#0]
        0x000051ca:    f7fff94f    ..O.    BL       __aeabi_dmul ; 0x446c
        0x000051ce:    9004        ..      STR      r0,[sp,#0x10]
        0x000051d0:    9105        ..      STR      r1,[sp,#0x14]
        0x000051d2:    4668        hF      MOV      r0,sp
        0x000051d4:    c80f        ..      LDM      r0,{r0-r3}
        0x000051d6:    f7fff949    ..I.    BL       __aeabi_dmul ; 0x446c
        0x000051da:    2200        ."      MOVS     r2,#0
        0x000051dc:    9101        ..      STR      r1,[sp,#4]
        0x000051de:    9000        ..      STR      r0,[sp,#0]
        0x000051e0:    43d2        .C      MVNS     r2,r2
        0x000051e2:    9909        ..      LDR      r1,[sp,#0x24]
        0x000051e4:    9808        ..      LDR      r0,[sp,#0x20]
        0x000051e6:    f7fffc4e    ..N.    BL       __ARM_scalbn ; 0x4a86
        0x000051ea:    9b01        ..      LDR      r3,[sp,#4]
        0x000051ec:    9a00        ..      LDR      r2,[sp,#0]
        0x000051ee:    f7fff92f    ../.    BL       __aeabi_dsub ; 0x4450
        0x000051f2:    4632        2F      MOV      r2,r6
        0x000051f4:    463b        ;F      MOV      r3,r7
        0x000051f6:    f7fff939    ..9.    BL       __aeabi_dmul ; 0x446c
        0x000051fa:    9b09        ..      LDR      r3,[sp,#0x24]
        0x000051fc:    9a08        ..      LDR      r2,[sp,#0x20]
        0x000051fe:    f7fff927    ..'.    BL       __aeabi_dsub ; 0x4450
        0x00005202:    9b05        ..      LDR      r3,[sp,#0x14]
        0x00005204:    9a04        ..      LDR      r2,[sp,#0x10]
        0x00005206:    f7fff923    ..#.    BL       __aeabi_dsub ; 0x4450
        0x0000520a:    462a        *F      MOV      r2,r5
        0x0000520c:    4623        #F      MOV      r3,r4
        0x0000520e:    f7fff925    ..%.    BL       __aeabi_drsub ; 0x445c
        0x00005212:    b00b        ..      ADD      sp,sp,#0x2c
        0x00005214:    bdf0        ..      POP      {r4-r7,pc}
        0x00005216:    460b        .F      MOV      r3,r1
        0x00005218:    4630        0F      MOV      r0,r6
        0x0000521a:    4639        9F      MOV      r1,r7
        0x0000521c:    9a02        ..      LDR      r2,[sp,#8]
        0x0000521e:    f7fff925    ..%.    BL       __aeabi_dmul ; 0x446c
        0x00005222:    4a08        .J      LDR      r2,[pc,#32] ; [0x5244] = 0x55555549
        0x00005224:    4b08        .K      LDR      r3,[pc,#32] ; [0x5248] = 0xbfc55555
        0x00005226:    f7fff86f    ..o.    BL       __aeabi_dadd ; 0x4308
        0x0000522a:    9b01        ..      LDR      r3,[sp,#4]
        0x0000522c:    9a00        ..      LDR      r2,[sp,#0]
        0x0000522e:    f7fff91d    ....    BL       __aeabi_dmul ; 0x446c
        0x00005232:    462a        *F      MOV      r2,r5
        0x00005234:    4623        #F      MOV      r3,r4
        0x00005236:    f7fff867    ..g.    BL       __aeabi_dadd ; 0x4308
        0x0000523a:    b00b        ..      ADD      sp,sp,#0x2c
        0x0000523c:    bdf0        ..      POP      {r4-r7,pc}
    $d
        0x0000523e:    0000        ..      DCW    0
        0x00005240:    000013aa    ....    DCD    5034
        0x00005244:    55555549    IUUU    DCD    1431655753
        0x00005248:    bfc55555    UU..    DCD    3217380693
    $t
    i.__mathlib_dbl_infnan
    __mathlib_dbl_infnan
        0x0000524c:    b510        ..      PUSH     {r4,lr}
        0x0000524e:    2201        ."      MOVS     r2,#1
        0x00005250:    f7fffc19    ....    BL       __ARM_scalbn ; 0x4a86
        0x00005254:    bd10        ..      POP      {r4,pc}
    i.__mathlib_dbl_invalid
    __mathlib_dbl_invalid
        0x00005256:    2200        ."      MOVS     r2,#0
        0x00005258:    b510        ..      PUSH     {r4,lr}
        0x0000525a:    4613        .F      MOV      r3,r2
        0x0000525c:    4610        .F      MOV      r0,r2
        0x0000525e:    4611        .F      MOV      r1,r2
        0x00005260:    f7fff96c    ..l.    BL       __aeabi_ddiv ; 0x453c
        0x00005264:    bd10        ..      POP      {r4,pc}
        0x00005266:    0000        ..      MOVS     r0,r0
    i.__mathlib_dbl_underflow
    __mathlib_dbl_underflow
        0x00005268:    4a03        .J      LDR      r2,[pc,#12] ; [0x5278] = 0xfffffd01
        0x0000526a:    b510        ..      PUSH     {r4,lr}
        0x0000526c:    2000        .       MOVS     r0,#0
        0x0000526e:    0711        ..      LSLS     r1,r2,#28
        0x00005270:    f7fffc09    ....    BL       __ARM_scalbn ; 0x4a86
        0x00005274:    bd10        ..      POP      {r4,pc}
    $d
        0x00005276:    0000        ..      DCW    0
        0x00005278:    fffffd01    ....    DCD    4294966529
    $t
    i.__mathlib_flt_infnan
    __mathlib_flt_infnan
        0x0000527c:    b510        ..      PUSH     {r4,lr}
        0x0000527e:    2101        .!      MOVS     r1,#1
        0x00005280:    f7fff836    ..6.    BL       __ARM_scalbnf ; 0x42f0
        0x00005284:    bd10        ..      POP      {r4,pc}
    i.__mathlib_flt_infnan2
    __mathlib_flt_infnan2
        0x00005286:    b510        ..      PUSH     {r4,lr}
        0x00005288:    f7feff5e    ..^.    BL       __aeabi_fadd ; 0x4148
        0x0000528c:    bd10        ..      POP      {r4,pc}
    i.__mathlib_flt_invalid
    __mathlib_flt_invalid
        0x0000528e:    b510        ..      PUSH     {r4,lr}
        0x00005290:    2100        .!      MOVS     r1,#0
        0x00005292:    4608        .F      MOV      r0,r1
        0x00005294:    f7feffee    ....    BL       __aeabi_fdiv ; 0x4274
        0x00005298:    bd10        ..      POP      {r4,pc}
    i.__mathlib_flt_underflow
    __mathlib_flt_underflow
        0x0000529a:    215e        ^!      MOVS     r1,#0x5e
        0x0000529c:    b510        ..      PUSH     {r4,lr}
        0x0000529e:    43c9        .C      MVNS     r1,r1
        0x000052a0:    0708        ..      LSLS     r0,r1,#28
        0x000052a2:    f7fff825    ..%.    BL       __ARM_scalbnf ; 0x42f0
        0x000052a6:    bd10        ..      POP      {r4,pc}
    i.__mathlib_rredf2
    __mathlib_rredf2
        0x000052a8:    b5f0        ..      PUSH     {r4-r7,lr}
        0x000052aa:    460e        .F      MOV      r6,r1
        0x000052ac:    4614        .F      MOV      r4,r2
        0x000052ae:    0051        Q.      LSLS     r1,r2,#1
        0x000052b0:    22ff        ."      MOVS     r2,#0xff
        0x000052b2:    0612        ..      LSLS     r2,r2,#24
        0x000052b4:    b087        ..      SUB      sp,sp,#0x1c
        0x000052b6:    4291        .B      CMP      r1,r2
        0x000052b8:    d303        ..      BCC      0x52c2 ; __mathlib_rredf2 + 26
        0x000052ba:    1611        ..      ASRS     r1,r2,#24
        0x000052bc:    6031        1`      STR      r1,[r6,#0]
        0x000052be:    b007        ..      ADD      sp,sp,#0x1c
        0x000052c0:    bdf0        ..      POP      {r4-r7,pc}
        0x000052c2:    2001        .       MOVS     r0,#1
        0x000052c4:    0225        %.      LSLS     r5,r4,#8
        0x000052c6:    07c0        ..      LSLS     r0,r0,#31
        0x000052c8:    4305        .C      ORRS     r5,r5,r0
        0x000052ca:    0de0        ..      LSRS     r0,r4,#23
        0x000052cc:    3878        x8      SUBS     r0,r0,#0x78
        0x000052ce:    06c2        ..      LSLS     r2,r0,#27
        0x000052d0:    0ed2        ..      LSRS     r2,r2,#27
        0x000052d2:    2020                MOVS     r0,#0x20
        0x000052d4:    1a87        ..      SUBS     r7,r0,r2
        0x000052d6:    0060        `.      LSLS     r0,r4,#1
        0x000052d8:    0e00        ..      LSRS     r0,r0,#24
        0x000052da:    3878        x8      SUBS     r0,r0,#0x78
        0x000052dc:    1140        @.      ASRS     r0,r0,#5
        0x000052de:    0081        ..      LSLS     r1,r0,#2
        0x000052e0:    484d        MH      LDR      r0,[pc,#308] ; [0x5418] = 0x125a
        0x000052e2:    4478        xD      ADD      r0,r0,pc
        0x000052e4:    180b        ..      ADDS     r3,r1,r0
        0x000052e6:    469c        .F      MOV      r12,r3
        0x000052e8:    5843        CX      LDR      r3,[r0,r1]
        0x000052ea:    2a00        .*      CMP      r2,#0
        0x000052ec:    d014        ..      BEQ      0x5318 ; __mathlib_rredf2 + 112
        0x000052ee:    4660        `F      MOV      r0,r12
        0x000052f0:    6840        @h      LDR      r0,[r0,#4]
        0x000052f2:    4093        .@      LSLS     r3,r3,r2
        0x000052f4:    4601        .F      MOV      r1,r0
        0x000052f6:    40f8        .@      LSRS     r0,r0,r7
        0x000052f8:    4303        .C      ORRS     r3,r3,r0
        0x000052fa:    4660        `F      MOV      r0,r12
        0x000052fc:    6880        .h      LDR      r0,[r0,#8]
        0x000052fe:    4091        .@      LSLS     r1,r1,r2
        0x00005300:    4686        .F      MOV      lr,r0
        0x00005302:    40f8        .@      LSRS     r0,r0,r7
        0x00005304:    4301        .C      ORRS     r1,r1,r0
        0x00005306:    9103        ..      STR      r1,[sp,#0xc]
        0x00005308:    4660        `F      MOV      r0,r12
        0x0000530a:    4671        qF      MOV      r1,lr
        0x0000530c:    68c0        .h      LDR      r0,[r0,#0xc]
        0x0000530e:    4091        .@      LSLS     r1,r1,r2
        0x00005310:    40f8        .@      LSRS     r0,r0,r7
        0x00005312:    4301        .C      ORRS     r1,r1,r0
        0x00005314:    460f        .F      MOV      r7,r1
        0x00005316:    e003        ..      B        0x5320 ; __mathlib_rredf2 + 120
        0x00005318:    4660        `F      MOV      r0,r12
        0x0000531a:    6841        Ah      LDR      r1,[r0,#4]
        0x0000531c:    9103        ..      STR      r1,[sp,#0xc]
        0x0000531e:    6887        .h      LDR      r7,[r0,#8]
        0x00005320:    4618        .F      MOV      r0,r3
        0x00005322:    4629        )F      MOV      r1,r5
        0x00005324:    f7fffc2f    ../.    BL       __ARM_common_ll_muluu ; 0x4b86
        0x00005328:    9102        ..      STR      r1,[sp,#8]
        0x0000532a:    9004        ..      STR      r0,[sp,#0x10]
        0x0000532c:    4629        )F      MOV      r1,r5
        0x0000532e:    9803        ..      LDR      r0,[sp,#0xc]
        0x00005330:    f7fffc29    ..).    BL       __ARM_common_ll_muluu ; 0x4b86
        0x00005334:    9103        ..      STR      r1,[sp,#0xc]
        0x00005336:    9006        ..      STR      r0,[sp,#0x18]
        0x00005338:    4638        8F      MOV      r0,r7
        0x0000533a:    4629        )F      MOV      r1,r5
        0x0000533c:    f7fffc23    ..#.    BL       __ARM_common_ll_muluu ; 0x4b86
        0x00005340:    460f        .F      MOV      r7,r1
        0x00005342:    9806        ..      LDR      r0,[sp,#0x18]
        0x00005344:    9b02        ..      LDR      r3,[sp,#8]
        0x00005346:    183d        =.      ADDS     r5,r7,r0
        0x00005348:    9a04        ..      LDR      r2,[sp,#0x10]
        0x0000534a:    9903        ..      LDR      r1,[sp,#0xc]
        0x0000534c:    42bd        .B      CMP      r5,r7
        0x0000534e:    d201        ..      BCS      0x5354 ; __mathlib_rredf2 + 172
        0x00005350:    2701        .'      MOVS     r7,#1
        0x00005352:    e000        ..      B        0x5356 ; __mathlib_rredf2 + 174
        0x00005354:    2700        .'      MOVS     r7,#0
        0x00005356:    1888        ..      ADDS     r0,r1,r2
        0x00005358:    19c0        ..      ADDS     r0,r0,r7
        0x0000535a:    2f00        ./      CMP      r7,#0
        0x0000535c:    d002        ..      BEQ      0x5364 ; __mathlib_rredf2 + 188
        0x0000535e:    4288        .B      CMP      r0,r1
        0x00005360:    d902        ..      BLS      0x5368 ; __mathlib_rredf2 + 192
        0x00005362:    e003        ..      B        0x536c ; __mathlib_rredf2 + 196
        0x00005364:    4288        .B      CMP      r0,r1
        0x00005366:    d201        ..      BCS      0x536c ; __mathlib_rredf2 + 196
        0x00005368:    2101        .!      MOVS     r1,#1
        0x0000536a:    e000        ..      B        0x536e ; __mathlib_rredf2 + 198
        0x0000536c:    2100        .!      MOVS     r1,#0
        0x0000536e:    1859        Y.      ADDS     r1,r3,r1
        0x00005370:    460a        .F      MOV      r2,r1
        0x00005372:    3220         2      ADDS     r2,r2,#0x20
        0x00005374:    0997        ..      LSRS     r7,r2,#6
        0x00005376:    0cc2        ..      LSRS     r2,r0,#19
        0x00005378:    0689        ..      LSLS     r1,r1,#26
        0x0000537a:    0352        R.      LSLS     r2,r2,#13
        0x0000537c:    0340        @.      LSLS     r0,r0,#13
        0x0000537e:    6037        7`      STR      r7,[r6,#0]
        0x00005380:    4311        .C      ORRS     r1,r1,r2
        0x00005382:    9001        ..      STR      r0,[sp,#4]
        0x00005384:    4608        .F      MOV      r0,r1
        0x00005386:    f7fff951    ..Q.    BL       __aeabi_i2f ; 0x462c
        0x0000538a:    9002        ..      STR      r0,[sp,#8]
        0x0000538c:    9801        ..      LDR      r0,[sp,#4]
        0x0000538e:    f7fff958    ..X.    BL       __aeabi_ui2f ; 0x4642
        0x00005392:    2112        .!      MOVS     r1,#0x12
        0x00005394:    43c9        .C      MVNS     r1,r1
        0x00005396:    f7feffab    ....    BL       __ARM_scalbnf ; 0x42f0
        0x0000539a:    9001        ..      STR      r0,[sp,#4]
        0x0000539c:    4628        (F      MOV      r0,r5
        0x0000539e:    f7fff950    ..P.    BL       __aeabi_ui2f ; 0x4642
        0x000053a2:    2125        %!      MOVS     r1,#0x25
        0x000053a4:    43c9        .C      MVNS     r1,r1
        0x000053a6:    f7feffa3    ....    BL       __ARM_scalbnf ; 0x42f0
        0x000053aa:    9000        ..      STR      r0,[sp,#0]
        0x000053ac:    9901        ..      LDR      r1,[sp,#4]
        0x000053ae:    9802        ..      LDR      r0,[sp,#8]
        0x000053b0:    f7fefeca    ....    BL       __aeabi_fadd ; 0x4148
        0x000053b4:    9900        ..      LDR      r1,[sp,#0]
        0x000053b6:    f7fefec7    ....    BL       __aeabi_fadd ; 0x4148
        0x000053ba:    2101        .!      MOVS     r1,#1
        0x000053bc:    02c9        ..      LSLS     r1,r1,#11
        0x000053be:    1840        @.      ADDS     r0,r0,r1
        0x000053c0:    0b05        ..      LSRS     r5,r0,#12
        0x000053c2:    032d        -.      LSLS     r5,r5,#12
        0x000053c4:    4628        (F      MOV      r0,r5
        0x000053c6:    9902        ..      LDR      r1,[sp,#8]
        0x000053c8:    f7feff0f    ....    BL       __aeabi_fsub ; 0x41ea
        0x000053cc:    9901        ..      LDR      r1,[sp,#4]
        0x000053ce:    f7feff0c    ....    BL       __aeabi_fsub ; 0x41ea
        0x000053d2:    9900        ..      LDR      r1,[sp,#0]
        0x000053d4:    f7feff0d    ....    BL       __aeabi_frsub ; 0x41f2
        0x000053d8:    4910        .I      LDR      r1,[pc,#64] ; [0x541c] = 0x2fc90fdb
        0x000053da:    f7feff0e    ....    BL       __aeabi_fmul ; 0x41fa
        0x000053de:    9000        ..      STR      r0,[sp,#0]
        0x000053e0:    490f        .I      LDR      r1,[pc,#60] ; [0x5420] = 0x29fdaa22
        0x000053e2:    4628        (F      MOV      r0,r5
        0x000053e4:    f7feff09    ....    BL       __aeabi_fmul ; 0x41fa
        0x000053e8:    9900        ..      LDR      r1,[sp,#0]
        0x000053ea:    f7fefead    ....    BL       __aeabi_fadd ; 0x4148
        0x000053ee:    9000        ..      STR      r0,[sp,#0]
        0x000053f0:    490c        .I      LDR      r1,[pc,#48] ; [0x5424] = 0x2fc90000
        0x000053f2:    4628        (F      MOV      r0,r5
        0x000053f4:    f7feff01    ....    BL       __aeabi_fmul ; 0x41fa
        0x000053f8:    9900        ..      LDR      r1,[sp,#0]
        0x000053fa:    f7fefea5    ....    BL       __aeabi_fadd ; 0x4148
        0x000053fe:    2c00        .,      CMP      r4,#0
        0x00005400:    db00        ..      BLT      0x5404 ; __mathlib_rredf2 + 348
        0x00005402:    e75c        \.      B        0x52be ; __mathlib_rredf2 + 22
        0x00005404:    2101        .!      MOVS     r1,#1
        0x00005406:    0709        ..      LSLS     r1,r1,#28
        0x00005408:    1bc9        ..      SUBS     r1,r1,r7
        0x0000540a:    6031        1`      STR      r1,[r6,#0]
        0x0000540c:    2101        .!      MOVS     r1,#1
        0x0000540e:    07c9        ..      LSLS     r1,r1,#31
        0x00005410:    4048        H@      EORS     r0,r0,r1
        0x00005412:    b007        ..      ADD      sp,sp,#0x1c
        0x00005414:    bdf0        ..      POP      {r4-r7,pc}
    $d
        0x00005416:    0000        ..      DCW    0
        0x00005418:    0000125a    Z...    DCD    4698
        0x0000541c:    2fc90fdb    .../    DCD    801705947
        0x00005420:    29fdaa22    "..)    DCD    704490018
        0x00005424:    2fc90000    .../    DCD    801701888
    $t
    i.__scatterload_copy
    __scatterload_copy
        0x00005428:    e002        ..      B        0x5430 ; __scatterload_copy + 8
        0x0000542a:    c808        ..      LDM      r0!,{r3}
        0x0000542c:    1f12        ..      SUBS     r2,r2,#4
        0x0000542e:    c108        ..      STM      r1!,{r3}
        0x00005430:    2a00        .*      CMP      r2,#0
        0x00005432:    d1fa        ..      BNE      0x542a ; __scatterload_copy + 2
        0x00005434:    4770        pG      BX       lr
    i.__scatterload_null
    __scatterload_null
        0x00005436:    4770        pG      BX       lr
    i.__scatterload_zeroinit
    __scatterload_zeroinit
        0x00005438:    2000        .       MOVS     r0,#0
        0x0000543a:    e001        ..      B        0x5440 ; __scatterload_zeroinit + 8
        0x0000543c:    c101        ..      STM      r1!,{r0}
        0x0000543e:    1f12        ..      SUBS     r2,r2,#4
        0x00005440:    2a00        .*      CMP      r2,#0
        0x00005442:    d1fb        ..      BNE      0x543c ; __scatterload_zeroinit + 4
        0x00005444:    4770        pG      BX       lr
        0x00005446:    0000        ..      MOVS     r0,r0
    i.__set_errno
    __set_errno
        0x00005448:    4901        .I      LDR      r1,[pc,#4] ; [0x5450] = 0x200000b0
        0x0000544a:    6008        .`      STR      r0,[r1,#0]
        0x0000544c:    4770        pG      BX       lr
    $d
        0x0000544e:    0000        ..      DCW    0
        0x00005450:    200000b0    ...     DCD    536871088
    $t
    i._fp_digits
    _fp_digits
        0x00005454:    b5f0        ..      PUSH     {r4-r7,lr}
        0x00005456:    b41f        ..      PUSH     {r0-r4}
        0x00005458:    b084        ..      SUB      sp,sp,#0x10
        0x0000545a:    9807        ..      LDR      r0,[sp,#0x1c]
        0x0000545c:    9906        ..      LDR      r1,[sp,#0x18]
        0x0000545e:    0d02        ..      LSRS     r2,r0,#20
        0x00005460:    4301        .C      ORRS     r1,r1,r0
        0x00005462:    d014        ..      BEQ      0x548e ; _fp_digits + 58
        0x00005464:    484a        JH      LDR      r0,[pc,#296] ; [0x5590] = 0xfffffc01
        0x00005466:    494b        KI      LDR      r1,[pc,#300] ; [0x5594] = 0x4d10
        0x00005468:    1810        ..      ADDS     r0,r2,r0
        0x0000546a:    4348        HC      MULS     r0,r1,r0
        0x0000546c:    1405        ..      ASRS     r5,r0,#16
        0x0000546e:    980f        ..      LDR      r0,[sp,#0x3c]
        0x00005470:    2801        .(      CMP      r0,#1
        0x00005472:    980e        ..      LDR      r0,[sp,#0x38]
        0x00005474:    d01c        ..      BEQ      0x54b0 ; _fp_digits + 92
        0x00005476:    1a28        (.      SUBS     r0,r5,r0
        0x00005478:    1c40        @.      ADDS     r0,r0,#1
        0x0000547a:    2400        .$      MOVS     r4,#0
        0x0000547c:    4e46        FN      LDR      r6,[pc,#280] ; [0x5598] = 0x40240000
        0x0000547e:    4947        GI      LDR      r1,[pc,#284] ; [0x559c] = 0x3ff00000
        0x00005480:    9400        ..      STR      r4,[sp,#0]
        0x00005482:    9101        ..      STR      r1,[sp,#4]
        0x00005484:    9002        ..      STR      r0,[sp,#8]
        0x00005486:    2800        .(      CMP      r0,#0
        0x00005488:    da14        ..      BGE      0x54b4 ; _fp_digits + 96
        0x0000548a:    4247        GB      RSBS     r7,r0,#0
        0x0000548c:    e027        '.      B        0x54de ; _fp_digits + 138
        0x0000548e:    980f        ..      LDR      r0,[sp,#0x3c]
        0x00005490:    2401        .$      MOVS     r4,#1
        0x00005492:    a343        C.      ADR      r3,{pc}+0x10e ; 0x55a0
        0x00005494:    2801        .(      CMP      r0,#1
        0x00005496:    d008        ..      BEQ      0x54aa ; _fp_digits + 86
        0x00005498:    2100        .!      MOVS     r1,#0
        0x0000549a:    9804        ..      LDR      r0,[sp,#0x10]
        0x0000549c:    9a0f        ..      LDR      r2,[sp,#0x3c]
        0x0000549e:    6084        .`      STR      r4,[r0,#8]
        0x000054a0:    6003        .`      STR      r3,[r0,#0]
        0x000054a2:    60c2        .`      STR      r2,[r0,#0xc]
        0x000054a4:    6041        A`      STR      r1,[r0,#4]
        0x000054a6:    b009        ..      ADD      sp,sp,#0x24
        0x000054a8:    bdf0        ..      POP      {r4-r7,pc}
        0x000054aa:    980e        ..      LDR      r0,[sp,#0x38]
        0x000054ac:    43c1        .C      MVNS     r1,r0
        0x000054ae:    e7f4        ..      B        0x549a ; _fp_digits + 70
        0x000054b0:    4240        @B      RSBS     r0,r0,#0
        0x000054b2:    e7e2        ..      B        0x547a ; _fp_digits + 38
        0x000054b4:    4607        .F      MOV      r7,r0
        0x000054b6:    e012        ..      B        0x54de ; _fp_digits + 138
        0x000054b8:    07f8        ..      LSLS     r0,r7,#31
        0x000054ba:    d007        ..      BEQ      0x54cc ; _fp_digits + 120
        0x000054bc:    4622        "F      MOV      r2,r4
        0x000054be:    4633        3F      MOV      r3,r6
        0x000054c0:    9901        ..      LDR      r1,[sp,#4]
        0x000054c2:    9800        ..      LDR      r0,[sp,#0]
        0x000054c4:    f7feffd2    ....    BL       __aeabi_dmul ; 0x446c
        0x000054c8:    9101        ..      STR      r1,[sp,#4]
        0x000054ca:    9000        ..      STR      r0,[sp,#0]
        0x000054cc:    4622        "F      MOV      r2,r4
        0x000054ce:    4633        3F      MOV      r3,r6
        0x000054d0:    4610        .F      MOV      r0,r2
        0x000054d2:    4619        .F      MOV      r1,r3
        0x000054d4:    f7feffca    ....    BL       __aeabi_dmul ; 0x446c
        0x000054d8:    4604        .F      MOV      r4,r0
        0x000054da:    460e        .F      MOV      r6,r1
        0x000054dc:    107f        ..      ASRS     r7,r7,#1
        0x000054de:    2f00        ./      CMP      r7,#0
        0x000054e0:    d1ea        ..      BNE      0x54b8 ; _fp_digits + 100
        0x000054e2:    9802        ..      LDR      r0,[sp,#8]
        0x000054e4:    9b01        ..      LDR      r3,[sp,#4]
        0x000054e6:    2800        .(      CMP      r0,#0
        0x000054e8:    9a00        ..      LDR      r2,[sp,#0]
        0x000054ea:    9907        ..      LDR      r1,[sp,#0x1c]
        0x000054ec:    9806        ..      LDR      r0,[sp,#0x18]
        0x000054ee:    da02        ..      BGE      0x54f6 ; _fp_digits + 162
        0x000054f0:    f7feffbc    ....    BL       __aeabi_dmul ; 0x446c
        0x000054f4:    e001        ..      B        0x54fa ; _fp_digits + 166
        0x000054f6:    f7fff821    ..!.    BL       __aeabi_ddiv ; 0x453c
        0x000054fa:    4604        .F      MOV      r4,r0
        0x000054fc:    460e        .F      MOV      r6,r1
        0x000054fe:    2200        ."      MOVS     r2,#0
        0x00005500:    4b28        (K      LDR      r3,[pc,#160] ; [0x55a4] = 0x43f00000
        0x00005502:    f7fff8fb    ....    BL       __aeabi_cdrcmple ; 0x46fc
        0x00005506:    d803        ..      BHI      0x5510 ; _fp_digits + 188
        0x00005508:    2000        .       MOVS     r0,#0
        0x0000550a:    43c0        .C      MVNS     r0,r0
        0x0000550c:    4601        .F      MOV      r1,r0
        0x0000550e:    e007        ..      B        0x5520 ; _fp_digits + 204
        0x00005510:    2200        ."      MOVS     r2,#0
        0x00005512:    4b25        %K      LDR      r3,[pc,#148] ; [0x55a8] = 0x3fe00000
        0x00005514:    4620         F      MOV      r0,r4
        0x00005516:    4631        1F      MOV      r1,r6
        0x00005518:    f7fefef6    ....    BL       __aeabi_dadd ; 0x4308
        0x0000551c:    f7fffa44    ..D.    BL       __aeabi_d2ulz ; 0x49a8
        0x00005520:    2410        .$      MOVS     r4,#0x10
        0x00005522:    e009        ..      B        0x5538 ; _fp_digits + 228
        0x00005524:    2c00        .,      CMP      r4,#0
        0x00005526:    db0a        ..      BLT      0x553e ; _fp_digits + 234
        0x00005528:    220a        ."      MOVS     r2,#0xa
        0x0000552a:    2300        .#      MOVS     r3,#0
        0x0000552c:    f7fff92a    ..*.    BL       __aeabi_uldivmod ; 0x4784
        0x00005530:    9b05        ..      LDR      r3,[sp,#0x14]
        0x00005532:    3230        02      ADDS     r2,r2,#0x30
        0x00005534:    551a        .U      STRB     r2,[r3,r4]
        0x00005536:    1e64        d.      SUBS     r4,r4,#1
        0x00005538:    4602        .F      MOV      r2,r0
        0x0000553a:    430a        .C      ORRS     r2,r2,r1
        0x0000553c:    d1f2        ..      BNE      0x5524 ; _fp_digits + 208
        0x0000553e:    2211        ."      MOVS     r2,#0x11
        0x00005540:    1c64        d.      ADDS     r4,r4,#1
        0x00005542:    9b05        ..      LDR      r3,[sp,#0x14]
        0x00005544:    1b12        ..      SUBS     r2,r2,r4
        0x00005546:    191c        ..      ADDS     r4,r3,r4
        0x00005548:    9b0f        ..      LDR      r3,[sp,#0x3c]
        0x0000554a:    2b01        .+      CMP      r3,#1
        0x0000554c:    d003        ..      BEQ      0x5556 ; _fp_digits + 258
        0x0000554e:    2301        .#      MOVS     r3,#1
        0x00005550:    4308        .C      ORRS     r0,r0,r1
        0x00005552:    d10e        ..      BNE      0x5572 ; _fp_digits + 286
        0x00005554:    e00a        ..      B        0x556c ; _fp_digits + 280
        0x00005556:    4308        .C      ORRS     r0,r0,r1
        0x00005558:    d004        ..      BEQ      0x5564 ; _fp_digits + 272
        0x0000555a:    2011        .       MOVS     r0,#0x11
        0x0000555c:    900e        ..      STR      r0,[sp,#0x38]
        0x0000555e:    2000        .       MOVS     r0,#0
        0x00005560:    900f        ..      STR      r0,[sp,#0x3c]
        0x00005562:    e784        ..      B        0x546e ; _fp_digits + 26
        0x00005564:    980e        ..      LDR      r0,[sp,#0x38]
        0x00005566:    1a15        ..      SUBS     r5,r2,r0
        0x00005568:    1e6d        m.      SUBS     r5,r5,#1
        0x0000556a:    e00b        ..      B        0x5584 ; _fp_digits + 304
        0x0000556c:    980e        ..      LDR      r0,[sp,#0x38]
        0x0000556e:    4282        .B      CMP      r2,r0
        0x00005570:    dd02        ..      BLE      0x5578 ; _fp_digits + 292
        0x00005572:    2300        .#      MOVS     r3,#0
        0x00005574:    1c6d        m.      ADDS     r5,r5,#1
        0x00005576:    e003        ..      B        0x5580 ; _fp_digits + 300
        0x00005578:    4282        .B      CMP      r2,r0
        0x0000557a:    da01        ..      BGE      0x5580 ; _fp_digits + 300
        0x0000557c:    2300        .#      MOVS     r3,#0
        0x0000557e:    1e6d        m.      SUBS     r5,r5,#1
        0x00005580:    2b00        .+      CMP      r3,#0
        0x00005582:    d0ee        ..      BEQ      0x5562 ; _fp_digits + 270
        0x00005584:    9804        ..      LDR      r0,[sp,#0x10]
        0x00005586:    990f        ..      LDR      r1,[sp,#0x3c]
        0x00005588:    6082        .`      STR      r2,[r0,#8]
        0x0000558a:    60c1        .`      STR      r1,[r0,#0xc]
        0x0000558c:    c030        0.      STM      r0!,{r4,r5}
        0x0000558e:    e78a        ..      B        0x54a6 ; _fp_digits + 82
    $d
        0x00005590:    fffffc01    ....    DCD    4294966273
        0x00005594:    00004d10    .M..    DCD    19728
        0x00005598:    40240000    ..$@    DCD    1076101120
        0x0000559c:    3ff00000    ...?    DCD    1072693248
        0x000055a0:    00000030    0...    DCD    48
        0x000055a4:    43f00000    ...C    DCD    1139802112
        0x000055a8:    3fe00000    ...?    DCD    1071644672
    $t
    i._printf_core
    _printf_core
        0x000055ac:    b5ff        ..      PUSH     {r0-r7,lr}
        0x000055ae:    b097        ..      SUB      sp,sp,#0x5c
        0x000055b0:    4606        .F      MOV      r6,r0
        0x000055b2:    2500        .%      MOVS     r5,#0
        0x000055b4:    e218        ..      B        0x59e8 ; _printf_core + 1084
        0x000055b6:    2825        %(      CMP      r0,#0x25
        0x000055b8:    d177        w.      BNE      0x56aa ; _printf_core + 254
        0x000055ba:    2400        .$      MOVS     r4,#0
        0x000055bc:    4627        'F      MOV      r7,r4
        0x000055be:    49fd        .I      LDR      r1,[pc,#1012] ; [0x59b4] = 0x12809
        0x000055c0:    9404        ..      STR      r4,[sp,#0x10]
        0x000055c2:    e000        ..      B        0x55c6 ; _printf_core + 26
        0x000055c4:    4304        .C      ORRS     r4,r4,r0
        0x000055c6:    1c76        v.      ADDS     r6,r6,#1
        0x000055c8:    7832        2x      LDRB     r2,[r6,#0]
        0x000055ca:    2001        .       MOVS     r0,#1
        0x000055cc:    3a20         :      SUBS     r2,r2,#0x20
        0x000055ce:    4090        .@      LSLS     r0,r0,r2
        0x000055d0:    4208        .B      TST      r0,r1
        0x000055d2:    d1f7        ..      BNE      0x55c4 ; _printf_core + 24
        0x000055d4:    7830        0x      LDRB     r0,[r6,#0]
        0x000055d6:    282a        *(      CMP      r0,#0x2a
        0x000055d8:    d00e        ..      BEQ      0x55f8 ; _printf_core + 76
        0x000055da:    2202        ."      MOVS     r2,#2
        0x000055dc:    7830        0x      LDRB     r0,[r6,#0]
        0x000055de:    4601        .F      MOV      r1,r0
        0x000055e0:    3930        09      SUBS     r1,r1,#0x30
        0x000055e2:    2909        .)      CMP      r1,#9
        0x000055e4:    d816        ..      BHI      0x5614 ; _printf_core + 104
        0x000055e6:    9904        ..      LDR      r1,[sp,#0x10]
        0x000055e8:    230a        .#      MOVS     r3,#0xa
        0x000055ea:    4359        YC      MULS     r1,r3,r1
        0x000055ec:    3930        09      SUBS     r1,r1,#0x30
        0x000055ee:    1840        @.      ADDS     r0,r0,r1
        0x000055f0:    4314        .C      ORRS     r4,r4,r2
        0x000055f2:    1c76        v.      ADDS     r6,r6,#1
        0x000055f4:    9004        ..      STR      r0,[sp,#0x10]
        0x000055f6:    e7f1        ..      B        0x55dc ; _printf_core + 48
        0x000055f8:    9818        ..      LDR      r0,[sp,#0x60]
        0x000055fa:    c802        ..      LDM      r0!,{r1}
        0x000055fc:    9104        ..      STR      r1,[sp,#0x10]
        0x000055fe:    9018        ..      STR      r0,[sp,#0x60]
        0x00005600:    2900        .)      CMP      r1,#0
        0x00005602:    da04        ..      BGE      0x560e ; _printf_core + 98
        0x00005604:    2001        .       MOVS     r0,#1
        0x00005606:    0340        @.      LSLS     r0,r0,#13
        0x00005608:    4304        .C      ORRS     r4,r4,r0
        0x0000560a:    4248        HB      RSBS     r0,r1,#0
        0x0000560c:    9004        ..      STR      r0,[sp,#0x10]
        0x0000560e:    2002        .       MOVS     r0,#2
        0x00005610:    4304        .C      ORRS     r4,r4,r0
        0x00005612:    1c76        v.      ADDS     r6,r6,#1
        0x00005614:    7830        0x      LDRB     r0,[r6,#0]
        0x00005616:    282e        .(      CMP      r0,#0x2e
        0x00005618:    d114        ..      BNE      0x5644 ; _printf_core + 152
        0x0000561a:    2004        .       MOVS     r0,#4
        0x0000561c:    4304        .C      ORRS     r4,r4,r0
        0x0000561e:    7870        px      LDRB     r0,[r6,#1]
        0x00005620:    1c76        v.      ADDS     r6,r6,#1
        0x00005622:    282a        *(      CMP      r0,#0x2a
        0x00005624:    d109        ..      BNE      0x563a ; _printf_core + 142
        0x00005626:    9818        ..      LDR      r0,[sp,#0x60]
        0x00005628:    1c76        v.      ADDS     r6,r6,#1
        0x0000562a:    c880        ..      LDM      r0!,{r7}
        0x0000562c:    9018        ..      STR      r0,[sp,#0x60]
        0x0000562e:    e009        ..      B        0x5644 ; _printf_core + 152
        0x00005630:    210a        .!      MOVS     r1,#0xa
        0x00005632:    434f        OC      MULS     r7,r1,r7
        0x00005634:    3f30        0?      SUBS     r7,r7,#0x30
        0x00005636:    19c7        ..      ADDS     r7,r0,r7
        0x00005638:    1c76        v.      ADDS     r6,r6,#1
        0x0000563a:    7830        0x      LDRB     r0,[r6,#0]
        0x0000563c:    4601        .F      MOV      r1,r0
        0x0000563e:    3930        09      SUBS     r1,r1,#0x30
        0x00005640:    2909        .)      CMP      r1,#9
        0x00005642:    d9f5        ..      BLS      0x5630 ; _printf_core + 132
        0x00005644:    7830        0x      LDRB     r0,[r6,#0]
        0x00005646:    286c        l(      CMP      r0,#0x6c
        0x00005648:    d010        ..      BEQ      0x566c ; _printf_core + 192
        0x0000564a:    dc06        ..      BGT      0x565a ; _printf_core + 174
        0x0000564c:    284c        L(      CMP      r0,#0x4c
        0x0000564e:    d01a        ..      BEQ      0x5686 ; _printf_core + 218
        0x00005650:    2868        h(      CMP      r0,#0x68
        0x00005652:    d00e        ..      BEQ      0x5672 ; _printf_core + 198
        0x00005654:    286a        j(      CMP      r0,#0x6a
        0x00005656:    d117        ..      BNE      0x5688 ; _printf_core + 220
        0x00005658:    e004        ..      B        0x5664 ; _printf_core + 184
        0x0000565a:    2874        t(      CMP      r0,#0x74
        0x0000565c:    d013        ..      BEQ      0x5686 ; _printf_core + 218
        0x0000565e:    287a        z(      CMP      r0,#0x7a
        0x00005660:    d112        ..      BNE      0x5688 ; _printf_core + 220
        0x00005662:    e010        ..      B        0x5686 ; _printf_core + 218
        0x00005664:    2001        .       MOVS     r0,#1
        0x00005666:    0540        @.      LSLS     r0,r0,#21
        0x00005668:    4304        .C      ORRS     r4,r4,r0
        0x0000566a:    e00c        ..      B        0x5686 ; _printf_core + 218
        0x0000566c:    2101        .!      MOVS     r1,#1
        0x0000566e:    0509        ..      LSLS     r1,r1,#20
        0x00005670:    e001        ..      B        0x5676 ; _printf_core + 202
        0x00005672:    2103        .!      MOVS     r1,#3
        0x00005674:    0509        ..      LSLS     r1,r1,#20
        0x00005676:    430c        .C      ORRS     r4,r4,r1
        0x00005678:    7871        qx      LDRB     r1,[r6,#1]
        0x0000567a:    4281        .B      CMP      r1,r0
        0x0000567c:    d103        ..      BNE      0x5686 ; _printf_core + 218
        0x0000567e:    2001        .       MOVS     r0,#1
        0x00005680:    0500        ..      LSLS     r0,r0,#20
        0x00005682:    1824        $.      ADDS     r4,r4,r0
        0x00005684:    1c76        v.      ADDS     r6,r6,#1
        0x00005686:    1c76        v.      ADDS     r6,r6,#1
        0x00005688:    7830        0x      LDRB     r0,[r6,#0]
        0x0000568a:    9011        ..      STR      r0,[sp,#0x44]
        0x0000568c:    2866        f(      CMP      r0,#0x66
        0x0000568e:    d00b        ..      BEQ      0x56a8 ; _printf_core + 252
        0x00005690:    dc13        ..      BGT      0x56ba ; _printf_core + 270
        0x00005692:    2858        X(      CMP      r0,#0x58
        0x00005694:    d07d        }.      BEQ      0x5792 ; _printf_core + 486
        0x00005696:    dc09        ..      BGT      0x56ac ; _printf_core + 256
        0x00005698:    2800        .(      CMP      r0,#0
        0x0000569a:    d07b        {.      BEQ      0x5794 ; _printf_core + 488
        0x0000569c:    2845        E(      CMP      r0,#0x45
        0x0000569e:    d0f6        ..      BEQ      0x568e ; _printf_core + 226
        0x000056a0:    2846        F(      CMP      r0,#0x46
        0x000056a2:    d0f4        ..      BEQ      0x568e ; _printf_core + 226
        0x000056a4:    2847        G(      CMP      r0,#0x47
        0x000056a6:    d11a        ..      BNE      0x56de ; _printf_core + 306
        0x000056a8:    e1a5        ..      B        0x59f6 ; _printf_core + 1098
        0x000056aa:    e018        ..      B        0x56de ; _printf_core + 306
        0x000056ac:    2863        c(      CMP      r0,#0x63
        0x000056ae:    d035        5.      BEQ      0x571c ; _printf_core + 368
        0x000056b0:    2864        d(      CMP      r0,#0x64
        0x000056b2:    d070        p.      BEQ      0x5796 ; _printf_core + 490
        0x000056b4:    2865        e(      CMP      r0,#0x65
        0x000056b6:    d112        ..      BNE      0x56de ; _printf_core + 306
        0x000056b8:    e19d        ..      B        0x59f6 ; _printf_core + 1098
        0x000056ba:    2870        p(      CMP      r0,#0x70
        0x000056bc:    d06c        l.      BEQ      0x5798 ; _printf_core + 492
        0x000056be:    dc08        ..      BGT      0x56d2 ; _printf_core + 294
        0x000056c0:    2867        g(      CMP      r0,#0x67
        0x000056c2:    d0f1        ..      BEQ      0x56a8 ; _printf_core + 252
        0x000056c4:    2869        i(      CMP      r0,#0x69
        0x000056c6:    d07b        {.      BEQ      0x57c0 ; _printf_core + 532
        0x000056c8:    286e        n(      CMP      r0,#0x6e
        0x000056ca:    d00d        ..      BEQ      0x56e8 ; _printf_core + 316
        0x000056cc:    286f        o(      CMP      r0,#0x6f
        0x000056ce:    d106        ..      BNE      0x56de ; _printf_core + 306
        0x000056d0:    e0ba        ..      B        0x5848 ; _printf_core + 668
        0x000056d2:    2873        s(      CMP      r0,#0x73
        0x000056d4:    d02e        ..      BEQ      0x5734 ; _printf_core + 392
        0x000056d6:    2875        u(      CMP      r0,#0x75
        0x000056d8:    d071        q.      BEQ      0x57be ; _printf_core + 530
        0x000056da:    2878        x(      CMP      r0,#0x78
        0x000056dc:    d059        Y.      BEQ      0x5792 ; _printf_core + 486
        0x000056de:    9a1a        ..      LDR      r2,[sp,#0x68]
        0x000056e0:    9919        ..      LDR      r1,[sp,#0x64]
        0x000056e2:    4790        .G      BLX      r2
        0x000056e4:    1c6d        m.      ADDS     r5,r5,#1
        0x000056e6:    e17e        ~.      B        0x59e6 ; _printf_core + 1082
        0x000056e8:    0260        `.      LSLS     r0,r4,#9
        0x000056ea:    0f40        @.      LSRS     r0,r0,#29
        0x000056ec:    2802        .(      CMP      r0,#2
        0x000056ee:    d009        ..      BEQ      0x5704 ; _printf_core + 344
        0x000056f0:    2803        .(      CMP      r0,#3
        0x000056f2:    d00d        ..      BEQ      0x5710 ; _printf_core + 356
        0x000056f4:    2804        .(      CMP      r0,#4
        0x000056f6:    9818        ..      LDR      r0,[sp,#0x60]
        0x000056f8:    6801        .h      LDR      r1,[r0,#0]
        0x000056fa:    d00d        ..      BEQ      0x5718 ; _printf_core + 364
        0x000056fc:    600d        .`      STR      r5,[r1,#0]
        0x000056fe:    1d00        ..      ADDS     r0,r0,#4
        0x00005700:    9018        ..      STR      r0,[sp,#0x60]
        0x00005702:    e170        p.      B        0x59e6 ; _printf_core + 1082
        0x00005704:    9818        ..      LDR      r0,[sp,#0x60]
        0x00005706:    17ea        ..      ASRS     r2,r5,#31
        0x00005708:    6801        .h      LDR      r1,[r0,#0]
        0x0000570a:    600d        .`      STR      r5,[r1,#0]
        0x0000570c:    604a        J`      STR      r2,[r1,#4]
        0x0000570e:    e7f6        ..      B        0x56fe ; _printf_core + 338
        0x00005710:    9818        ..      LDR      r0,[sp,#0x60]
        0x00005712:    6801        .h      LDR      r1,[r0,#0]
        0x00005714:    800d        ..      STRH     r5,[r1,#0]
        0x00005716:    e7f2        ..      B        0x56fe ; _printf_core + 338
        0x00005718:    700d        .p      STRB     r5,[r1,#0]
        0x0000571a:    e7f0        ..      B        0x56fe ; _printf_core + 338
        0x0000571c:    9818        ..      LDR      r0,[sp,#0x60]
        0x0000571e:    466a        jF      MOV      r2,sp
        0x00005720:    7801        .x      LDRB     r1,[r0,#0]
        0x00005722:    7211        .r      STRB     r1,[r2,#8]
        0x00005724:    1d00        ..      ADDS     r0,r0,#4
        0x00005726:    9018        ..      STR      r0,[sp,#0x60]
        0x00005728:    2000        .       MOVS     r0,#0
        0x0000572a:    7250        Pr      STRB     r0,[r2,#9]
        0x0000572c:    a802        ..      ADD      r0,sp,#8
        0x0000572e:    9000        ..      STR      r0,[sp,#0]
        0x00005730:    2001        .       MOVS     r0,#1
        0x00005732:    e005        ..      B        0x5740 ; _printf_core + 404
        0x00005734:    9818        ..      LDR      r0,[sp,#0x60]
        0x00005736:    c802        ..      LDM      r0!,{r1}
        0x00005738:    9018        ..      STR      r0,[sp,#0x60]
        0x0000573a:    2000        .       MOVS     r0,#0
        0x0000573c:    9100        ..      STR      r1,[sp,#0]
        0x0000573e:    43c0        .C      MVNS     r0,r0
        0x00005740:    0761        a.      LSLS     r1,r4,#29
        0x00005742:    d50d        ..      BPL      0x5760 ; _printf_core + 436
        0x00005744:    2100        .!      MOVS     r1,#0
        0x00005746:    e001        ..      B        0x574c ; _printf_core + 416
        0x00005748:    9901        ..      LDR      r1,[sp,#4]
        0x0000574a:    1c49        I.      ADDS     r1,r1,#1
        0x0000574c:    9101        ..      STR      r1,[sp,#4]
        0x0000574e:    42b9        .B      CMP      r1,r7
        0x00005750:    da12        ..      BGE      0x5778 ; _printf_core + 460
        0x00005752:    4281        .B      CMP      r1,r0
        0x00005754:    dbf8        ..      BLT      0x5748 ; _printf_core + 412
        0x00005756:    9a00        ..      LDR      r2,[sp,#0]
        0x00005758:    5c51        Q\      LDRB     r1,[r2,r1]
        0x0000575a:    2900        .)      CMP      r1,#0
        0x0000575c:    d1f4        ..      BNE      0x5748 ; _printf_core + 412
        0x0000575e:    e00b        ..      B        0x5778 ; _printf_core + 460
        0x00005760:    2100        .!      MOVS     r1,#0
        0x00005762:    e001        ..      B        0x5768 ; _printf_core + 444
        0x00005764:    9901        ..      LDR      r1,[sp,#4]
        0x00005766:    1c49        I.      ADDS     r1,r1,#1
        0x00005768:    9101        ..      STR      r1,[sp,#4]
        0x0000576a:    4281        .B      CMP      r1,r0
        0x0000576c:    dbfa        ..      BLT      0x5764 ; _printf_core + 440
        0x0000576e:    9a01        ..      LDR      r2,[sp,#4]
        0x00005770:    9900        ..      LDR      r1,[sp,#0]
        0x00005772:    5c89        .\      LDRB     r1,[r1,r2]
        0x00005774:    2900        .)      CMP      r1,#0
        0x00005776:    d1f5        ..      BNE      0x5764 ; _printf_core + 440
        0x00005778:    9901        ..      LDR      r1,[sp,#4]
        0x0000577a:    9804        ..      LDR      r0,[sp,#0x10]
        0x0000577c:    9b1a        ..      LDR      r3,[sp,#0x68]
        0x0000577e:    1a47        G.      SUBS     r7,r0,r1
        0x00005780:    4621        !F      MOV      r1,r4
        0x00005782:    4638        8F      MOV      r0,r7
        0x00005784:    9a19        ..      LDR      r2,[sp,#0x64]
        0x00005786:    f000fa97    ....    BL       _printf_pre_padding ; 0x5cb8
        0x0000578a:    9901        ..      LDR      r1,[sp,#4]
        0x0000578c:    1940        @.      ADDS     r0,r0,r5
        0x0000578e:    1845        E.      ADDS     r5,r0,r1
        0x00005790:    e00b        ..      B        0x57aa ; _printf_core + 510
        0x00005792:    e04f        O.      B        0x5834 ; _printf_core + 648
        0x00005794:    e12c        ,.      B        0x59f0 ; _printf_core + 1092
        0x00005796:    e013        ..      B        0x57c0 ; _printf_core + 532
        0x00005798:    e04e        N.      B        0x5838 ; _printf_core + 652
        0x0000579a:    9800        ..      LDR      r0,[sp,#0]
        0x0000579c:    9900        ..      LDR      r1,[sp,#0]
        0x0000579e:    7800        .x      LDRB     r0,[r0,#0]
        0x000057a0:    1c49        I.      ADDS     r1,r1,#1
        0x000057a2:    9100        ..      STR      r1,[sp,#0]
        0x000057a4:    9a1a        ..      LDR      r2,[sp,#0x68]
        0x000057a6:    9919        ..      LDR      r1,[sp,#0x64]
        0x000057a8:    4790        .G      BLX      r2
        0x000057aa:    9801        ..      LDR      r0,[sp,#4]
        0x000057ac:    1e40        @.      SUBS     r0,r0,#1
        0x000057ae:    9001        ..      STR      r0,[sp,#4]
        0x000057b0:    1c40        @.      ADDS     r0,r0,#1
        0x000057b2:    d1f2        ..      BNE      0x579a ; _printf_core + 494
        0x000057b4:    4621        !F      MOV      r1,r4
        0x000057b6:    4638        8F      MOV      r0,r7
        0x000057b8:    9b1a        ..      LDR      r3,[sp,#0x68]
        0x000057ba:    9a19        ..      LDR      r2,[sp,#0x64]
        0x000057bc:    e110        ..      B        0x59e0 ; _printf_core + 1076
        0x000057be:    e037        7.      B        0x5830 ; _printf_core + 644
        0x000057c0:    200a        .       MOVS     r0,#0xa
        0x000057c2:    2100        .!      MOVS     r1,#0
        0x000057c4:    9000        ..      STR      r0,[sp,#0]
        0x000057c6:    9101        ..      STR      r1,[sp,#4]
        0x000057c8:    0260        `.      LSLS     r0,r4,#9
        0x000057ca:    0f41        A.      LSRS     r1,r0,#29
        0x000057cc:    2902        .)      CMP      r1,#2
        0x000057ce:    d007        ..      BEQ      0x57e0 ; _printf_core + 564
        0x000057d0:    9a18        ..      LDR      r2,[sp,#0x60]
        0x000057d2:    ca01        ..      LDM      r2!,{r0}
        0x000057d4:    9218        ..      STR      r2,[sp,#0x60]
        0x000057d6:    17c2        ..      ASRS     r2,r0,#31
        0x000057d8:    4694        .F      MOV      r12,r2
        0x000057da:    2903        .)      CMP      r1,#3
        0x000057dc:    d008        ..      BEQ      0x57f0 ; _printf_core + 580
        0x000057de:    e00a        ..      B        0x57f6 ; _printf_core + 586
        0x000057e0:    9818        ..      LDR      r0,[sp,#0x60]
        0x000057e2:    1dc0        ..      ADDS     r0,r0,#7
        0x000057e4:    08c1        ..      LSRS     r1,r0,#3
        0x000057e6:    00c9        ..      LSLS     r1,r1,#3
        0x000057e8:    c905        ..      LDM      r1!,{r0,r2}
        0x000057ea:    9118        ..      STR      r1,[sp,#0x60]
        0x000057ec:    4694        .F      MOV      r12,r2
        0x000057ee:    e007        ..      B        0x5800 ; _printf_core + 596
        0x000057f0:    b200        ..      SXTH     r0,r0
        0x000057f2:    17c2        ..      ASRS     r2,r0,#31
        0x000057f4:    4694        .F      MOV      r12,r2
        0x000057f6:    2904        .)      CMP      r1,#4
        0x000057f8:    d102        ..      BNE      0x5800 ; _printf_core + 596
        0x000057fa:    b240        @.      SXTB     r0,r0
        0x000057fc:    17c1        ..      ASRS     r1,r0,#31
        0x000057fe:    468c        .F      MOV      r12,r1
        0x00005800:    2200        ."      MOVS     r2,#0
        0x00005802:    4661        aF      MOV      r1,r12
        0x00005804:    4594        .E      CMP      r12,r2
        0x00005806:    da06        ..      BGE      0x5816 ; _printf_core + 618
        0x00005808:    460a        .F      MOV      r2,r1
        0x0000580a:    2100        .!      MOVS     r1,#0
        0x0000580c:    4240        @B      RSBS     r0,r0,#0
        0x0000580e:    4191        .A      SBCS     r1,r1,r2
        0x00005810:    468c        .F      MOV      r12,r1
        0x00005812:    212d        -!      MOVS     r1,#0x2d
        0x00005814:    e002        ..      B        0x581c ; _printf_core + 624
        0x00005816:    0521        !.      LSLS     r1,r4,#20
        0x00005818:    d504        ..      BPL      0x5824 ; _printf_core + 632
        0x0000581a:    212b        +!      MOVS     r1,#0x2b
        0x0000581c:    466a        jF      MOV      r2,sp
        0x0000581e:    7311        .s      STRB     r1,[r2,#0xc]
        0x00005820:    2101        .!      MOVS     r1,#1
        0x00005822:    e003        ..      B        0x582c ; _printf_core + 640
        0x00005824:    07e1        ..      LSLS     r1,r4,#31
        0x00005826:    d001        ..      BEQ      0x582c ; _printf_core + 640
        0x00005828:    2120         !      MOVS     r1,#0x20
        0x0000582a:    e7f7        ..      B        0x581c ; _printf_core + 624
        0x0000582c:    9102        ..      STR      r1,[sp,#8]
        0x0000582e:    e055        U.      B        0x58dc ; _printf_core + 816
        0x00005830:    200a        .       MOVS     r0,#0xa
        0x00005832:    e00a        ..      B        0x584a ; _printf_core + 670
        0x00005834:    2010        .       MOVS     r0,#0x10
        0x00005836:    e008        ..      B        0x584a ; _printf_core + 670
        0x00005838:    2010        .       MOVS     r0,#0x10
        0x0000583a:    9000        ..      STR      r0,[sp,#0]
        0x0000583c:    2100        .!      MOVS     r1,#0
        0x0000583e:    2004        .       MOVS     r0,#4
        0x00005840:    4304        .C      ORRS     r4,r4,r0
        0x00005842:    9101        ..      STR      r1,[sp,#4]
        0x00005844:    2708        .'      MOVS     r7,#8
        0x00005846:    e003        ..      B        0x5850 ; _printf_core + 676
        0x00005848:    2008        .       MOVS     r0,#8
        0x0000584a:    2100        .!      MOVS     r1,#0
        0x0000584c:    9101        ..      STR      r1,[sp,#4]
        0x0000584e:    9000        ..      STR      r0,[sp,#0]
        0x00005850:    0260        `.      LSLS     r0,r4,#9
        0x00005852:    0f41        A.      LSRS     r1,r0,#29
        0x00005854:    2902        .)      CMP      r1,#2
        0x00005856:    d007        ..      BEQ      0x5868 ; _printf_core + 700
        0x00005858:    9a18        ..      LDR      r2,[sp,#0x60]
        0x0000585a:    ca01        ..      LDM      r2!,{r0}
        0x0000585c:    9218        ..      STR      r2,[sp,#0x60]
        0x0000585e:    2200        ."      MOVS     r2,#0
        0x00005860:    4694        .F      MOV      r12,r2
        0x00005862:    2903        .)      CMP      r1,#3
        0x00005864:    d008        ..      BEQ      0x5878 ; _printf_core + 716
        0x00005866:    e008        ..      B        0x587a ; _printf_core + 718
        0x00005868:    9818        ..      LDR      r0,[sp,#0x60]
        0x0000586a:    1dc0        ..      ADDS     r0,r0,#7
        0x0000586c:    08c1        ..      LSRS     r1,r0,#3
        0x0000586e:    00c9        ..      LSLS     r1,r1,#3
        0x00005870:    c905        ..      LDM      r1!,{r0,r2}
        0x00005872:    9118        ..      STR      r1,[sp,#0x60]
        0x00005874:    4694        .F      MOV      r12,r2
        0x00005876:    e003        ..      B        0x5880 ; _printf_core + 724
        0x00005878:    b280        ..      UXTH     r0,r0
        0x0000587a:    2904        .)      CMP      r1,#4
        0x0000587c:    d100        ..      BNE      0x5880 ; _printf_core + 724
        0x0000587e:    b2c0        ..      UXTB     r0,r0
        0x00005880:    2100        .!      MOVS     r1,#0
        0x00005882:    9102        ..      STR      r1,[sp,#8]
        0x00005884:    0721        !.      LSLS     r1,r4,#28
        0x00005886:    d529        ).      BPL      0x58dc ; _printf_core + 816
        0x00005888:    9911        ..      LDR      r1,[sp,#0x44]
        0x0000588a:    2970        p)      CMP      r1,#0x70
        0x0000588c:    d006        ..      BEQ      0x589c ; _printf_core + 752
        0x0000588e:    9a00        ..      LDR      r2,[sp,#0]
        0x00005890:    2110        .!      MOVS     r1,#0x10
        0x00005892:    9b01        ..      LDR      r3,[sp,#4]
        0x00005894:    404a        J@      EORS     r2,r2,r1
        0x00005896:    431a        .C      ORRS     r2,r2,r3
        0x00005898:    d005        ..      BEQ      0x58a6 ; _printf_core + 762
        0x0000589a:    e00e        ..      B        0x58ba ; _printf_core + 782
        0x0000589c:    2140        @!      MOVS     r1,#0x40
        0x0000589e:    466a        jF      MOV      r2,sp
        0x000058a0:    7311        .s      STRB     r1,[r2,#0xc]
        0x000058a2:    2101        .!      MOVS     r1,#1
        0x000058a4:    e008        ..      B        0x58b8 ; _printf_core + 780
        0x000058a6:    4661        aF      MOV      r1,r12
        0x000058a8:    4301        .C      ORRS     r1,r1,r0
        0x000058aa:    d006        ..      BEQ      0x58ba ; _printf_core + 782
        0x000058ac:    2130        0!      MOVS     r1,#0x30
        0x000058ae:    466a        jF      MOV      r2,sp
        0x000058b0:    7311        .s      STRB     r1,[r2,#0xc]
        0x000058b2:    9911        ..      LDR      r1,[sp,#0x44]
        0x000058b4:    7351        Qs      STRB     r1,[r2,#0xd]
        0x000058b6:    2102        .!      MOVS     r1,#2
        0x000058b8:    9102        ..      STR      r1,[sp,#8]
        0x000058ba:    9a00        ..      LDR      r2,[sp,#0]
        0x000058bc:    2108        .!      MOVS     r1,#8
        0x000058be:    9b01        ..      LDR      r3,[sp,#4]
        0x000058c0:    404a        J@      EORS     r2,r2,r1
        0x000058c2:    431a        .C      ORRS     r2,r2,r3
        0x000058c4:    d10a        ..      BNE      0x58dc ; _printf_core + 816
        0x000058c6:    4661        aF      MOV      r1,r12
        0x000058c8:    4301        .C      ORRS     r1,r1,r0
        0x000058ca:    d101        ..      BNE      0x58d0 ; _printf_core + 804
        0x000058cc:    0761        a.      LSLS     r1,r4,#29
        0x000058ce:    d505        ..      BPL      0x58dc ; _printf_core + 816
        0x000058d0:    2130        0!      MOVS     r1,#0x30
        0x000058d2:    466a        jF      MOV      r2,sp
        0x000058d4:    7311        .s      STRB     r1,[r2,#0xc]
        0x000058d6:    2101        .!      MOVS     r1,#1
        0x000058d8:    1e7f        ..      SUBS     r7,r7,#1
        0x000058da:    9102        ..      STR      r1,[sp,#8]
        0x000058dc:    9911        ..      LDR      r1,[sp,#0x44]
        0x000058de:    2958        X)      CMP      r1,#0x58
        0x000058e0:    d004        ..      BEQ      0x58ec ; _printf_core + 832
        0x000058e2:    a135        5.      ADR      r1,{pc}+0xd6 ; 0x59b8
        0x000058e4:    910e        ..      STR      r1,[sp,#0x38]
        0x000058e6:    a90d        ..      ADD      r1,sp,#0x34
        0x000058e8:    910d        ..      STR      r1,[sp,#0x34]
        0x000058ea:    e00d        ..      B        0x5908 ; _printf_core + 860
        0x000058ec:    a137        7.      ADR      r1,{pc}+0xe0 ; 0x59cc
        0x000058ee:    e7f9        ..      B        0x58e4 ; _printf_core + 824
        0x000058f0:    4661        aF      MOV      r1,r12
        0x000058f2:    9b01        ..      LDR      r3,[sp,#4]
        0x000058f4:    9a00        ..      LDR      r2,[sp,#0]
        0x000058f6:    f7feff45    ..E.    BL       __aeabi_uldivmod ; 0x4784
        0x000058fa:    9b0e        ..      LDR      r3,[sp,#0x38]
        0x000058fc:    468c        .F      MOV      r12,r1
        0x000058fe:    5c9b        .\      LDRB     r3,[r3,r2]
        0x00005900:    9a0d        ..      LDR      r2,[sp,#0x34]
        0x00005902:    1e52        R.      SUBS     r2,r2,#1
        0x00005904:    920d        ..      STR      r2,[sp,#0x34]
        0x00005906:    7013        .p      STRB     r3,[r2,#0]
        0x00005908:    4661        aF      MOV      r1,r12
        0x0000590a:    4301        .C      ORRS     r1,r1,r0
        0x0000590c:    d1f0        ..      BNE      0x58f0 ; _printf_core + 836
        0x0000590e:    980d        ..      LDR      r0,[sp,#0x34]
        0x00005910:    a905        ..      ADD      r1,sp,#0x14
        0x00005912:    1a08        ..      SUBS     r0,r1,r0
        0x00005914:    3020         0      ADDS     r0,r0,#0x20
        0x00005916:    9001        ..      STR      r0,[sp,#4]
        0x00005918:    0760        `.      LSLS     r0,r4,#29
        0x0000591a:    d503        ..      BPL      0x5924 ; _printf_core + 888
        0x0000591c:    2001        .       MOVS     r0,#1
        0x0000591e:    0400        ..      LSLS     r0,r0,#16
        0x00005920:    4384        .C      BICS     r4,r4,r0
        0x00005922:    e000        ..      B        0x5926 ; _printf_core + 890
        0x00005924:    2701        .'      MOVS     r7,#1
        0x00005926:    9801        ..      LDR      r0,[sp,#4]
        0x00005928:    4287        .B      CMP      r7,r0
        0x0000592a:    dd01        ..      BLE      0x5930 ; _printf_core + 900
        0x0000592c:    1a38        8.      SUBS     r0,r7,r0
        0x0000592e:    e000        ..      B        0x5932 ; _printf_core + 902
        0x00005930:    2000        .       MOVS     r0,#0
        0x00005932:    9901        ..      LDR      r1,[sp,#4]
        0x00005934:    9000        ..      STR      r0,[sp,#0]
        0x00005936:    1841        A.      ADDS     r1,r0,r1
        0x00005938:    9802        ..      LDR      r0,[sp,#8]
        0x0000593a:    1809        ..      ADDS     r1,r1,r0
        0x0000593c:    9804        ..      LDR      r0,[sp,#0x10]
        0x0000593e:    1a40        @.      SUBS     r0,r0,r1
        0x00005940:    9004        ..      STR      r0,[sp,#0x10]
        0x00005942:    03e0        ..      LSLS     r0,r4,#15
        0x00005944:    d406        ..      BMI      0x5954 ; _printf_core + 936
        0x00005946:    4621        !F      MOV      r1,r4
        0x00005948:    9b1a        ..      LDR      r3,[sp,#0x68]
        0x0000594a:    9a19        ..      LDR      r2,[sp,#0x64]
        0x0000594c:    9804        ..      LDR      r0,[sp,#0x10]
        0x0000594e:    f000f9b3    ....    BL       _printf_pre_padding ; 0x5cb8
        0x00005952:    1945        E.      ADDS     r5,r0,r5
        0x00005954:    2700        .'      MOVS     r7,#0
        0x00005956:    e006        ..      B        0x5966 ; _printf_core + 954
        0x00005958:    a803        ..      ADD      r0,sp,#0xc
        0x0000595a:    9a1a        ..      LDR      r2,[sp,#0x68]
        0x0000595c:    5dc0        .]      LDRB     r0,[r0,r7]
        0x0000595e:    9919        ..      LDR      r1,[sp,#0x64]
        0x00005960:    4790        .G      BLX      r2
        0x00005962:    1c6d        m.      ADDS     r5,r5,#1
        0x00005964:    1c7f        ..      ADDS     r7,r7,#1
        0x00005966:    9802        ..      LDR      r0,[sp,#8]
        0x00005968:    4287        .B      CMP      r7,r0
        0x0000596a:    dbf5        ..      BLT      0x5958 ; _printf_core + 940
        0x0000596c:    03e0        ..      LSLS     r0,r4,#15
        0x0000596e:    d50c        ..      BPL      0x598a ; _printf_core + 990
        0x00005970:    4621        !F      MOV      r1,r4
        0x00005972:    9b1a        ..      LDR      r3,[sp,#0x68]
        0x00005974:    9a19        ..      LDR      r2,[sp,#0x64]
        0x00005976:    9804        ..      LDR      r0,[sp,#0x10]
        0x00005978:    f000f99e    ....    BL       _printf_pre_padding ; 0x5cb8
        0x0000597c:    1945        E.      ADDS     r5,r0,r5
        0x0000597e:    e004        ..      B        0x598a ; _printf_core + 990
        0x00005980:    9a1a        ..      LDR      r2,[sp,#0x68]
        0x00005982:    2030        0       MOVS     r0,#0x30
        0x00005984:    9919        ..      LDR      r1,[sp,#0x64]
        0x00005986:    4790        .G      BLX      r2
        0x00005988:    1c6d        m.      ADDS     r5,r5,#1
        0x0000598a:    9900        ..      LDR      r1,[sp,#0]
        0x0000598c:    1e48        H.      SUBS     r0,r1,#1
        0x0000598e:    9000        ..      STR      r0,[sp,#0]
        0x00005990:    2900        .)      CMP      r1,#0
        0x00005992:    dcf5        ..      BGT      0x5980 ; _printf_core + 980
        0x00005994:    e008        ..      B        0x59a8 ; _printf_core + 1020
        0x00005996:    980d        ..      LDR      r0,[sp,#0x34]
        0x00005998:    990d        ..      LDR      r1,[sp,#0x34]
        0x0000599a:    7800        .x      LDRB     r0,[r0,#0]
        0x0000599c:    1c49        I.      ADDS     r1,r1,#1
        0x0000599e:    910d        ..      STR      r1,[sp,#0x34]
        0x000059a0:    9a1a        ..      LDR      r2,[sp,#0x68]
        0x000059a2:    9919        ..      LDR      r1,[sp,#0x64]
        0x000059a4:    4790        .G      BLX      r2
        0x000059a6:    1c6d        m.      ADDS     r5,r5,#1
        0x000059a8:    9901        ..      LDR      r1,[sp,#4]
        0x000059aa:    1e48        H.      SUBS     r0,r1,#1
        0x000059ac:    9001        ..      STR      r0,[sp,#4]
        0x000059ae:    2900        .)      CMP      r1,#0
        0x000059b0:    dcf1        ..      BGT      0x5996 ; _printf_core + 1002
        0x000059b2:    e163        c.      B        0x5c7c ; _printf_core + 1744
    $d
        0x000059b4:    00012809    .(..    DCD    75785
        0x000059b8:    33323130    0123    DCD    858927408
        0x000059bc:    37363534    4567    DCD    926299444
        0x000059c0:    62613938    89ab    DCD    1650538808
        0x000059c4:    66656463    cdef    DCD    1717920867
        0x000059c8:    00000000    ....    DCD    0
        0x000059cc:    33323130    0123    DCD    858927408
        0x000059d0:    37363534    4567    DCD    926299444
        0x000059d4:    42413938    89AB    DCD    1111570744
        0x000059d8:    46454443    CDEF    DCD    1178944579
        0x000059dc:    00000000    ....    DCD    0
    $t
        0x000059e0:    f000f95a    ..Z.    BL       _printf_post_padding ; 0x5c98
        0x000059e4:    1945        E.      ADDS     r5,r0,r5
        0x000059e6:    1c76        v.      ADDS     r6,r6,#1
        0x000059e8:    7830        0x      LDRB     r0,[r6,#0]
        0x000059ea:    2800        .(      CMP      r0,#0
        0x000059ec:    d000        ..      BEQ      0x59f0 ; _printf_core + 1092
        0x000059ee:    e5e2        ..      B        0x55b6 ; _printf_core + 10
        0x000059f0:    4628        (F      MOV      r0,r5
        0x000059f2:    b01b        ..      ADD      sp,sp,#0x6c
        0x000059f4:    bdf0        ..      POP      {r4-r7,pc}
        0x000059f6:    0760        `.      LSLS     r0,r4,#29
        0x000059f8:    d400        ..      BMI      0x59fc ; _printf_core + 1104
        0x000059fa:    2706        .'      MOVS     r7,#6
        0x000059fc:    9818        ..      LDR      r0,[sp,#0x60]
        0x000059fe:    1dc0        ..      ADDS     r0,r0,#7
        0x00005a00:    08c1        ..      LSRS     r1,r0,#3
        0x00005a02:    00c9        ..      LSLS     r1,r1,#3
        0x00005a04:    6848        Hh      LDR      r0,[r1,#4]
        0x00005a06:    680a        .h      LDR      r2,[r1,#0]
        0x00005a08:    3108        .1      ADDS     r1,r1,#8
        0x00005a0a:    0fc3        ..      LSRS     r3,r0,#31
        0x00005a0c:    07db        ..      LSLS     r3,r3,#31
        0x00005a0e:    9118        ..      STR      r1,[sp,#0x60]
        0x00005a10:    0019        ..      MOVS     r1,r3
        0x00005a12:    d001        ..      BEQ      0x5a18 ; _printf_core + 1132
        0x00005a14:    a19c        ..      ADR      r1,{pc}+0x274 ; 0x5c88
        0x00005a16:    e008        ..      B        0x5a2a ; _printf_core + 1150
        0x00005a18:    0521        !.      LSLS     r1,r4,#20
        0x00005a1a:    d501        ..      BPL      0x5a20 ; _printf_core + 1140
        0x00005a1c:    a19b        ..      ADR      r1,{pc}+0x270 ; 0x5c8c
        0x00005a1e:    e004        ..      B        0x5a2a ; _printf_core + 1150
        0x00005a20:    07e1        ..      LSLS     r1,r4,#31
        0x00005a22:    d001        ..      BEQ      0x5a28 ; _printf_core + 1148
        0x00005a24:    a19a        ..      ADR      r1,{pc}+0x26c ; 0x5c90
        0x00005a26:    e000        ..      B        0x5a2a ; _printf_core + 1150
        0x00005a28:    a19a        ..      ADR      r1,{pc}+0x26c ; 0x5c94
        0x00005a2a:    0043        C.      LSLS     r3,r0,#1
        0x00005a2c:    9811        ..      LDR      r0,[sp,#0x44]
        0x00005a2e:    085b        [.      LSRS     r3,r3,#1
        0x00005a30:    9110        ..      STR      r1,[sp,#0x40]
        0x00005a32:    2865        e(      CMP      r0,#0x65
        0x00005a34:    d00c        ..      BEQ      0x5a50 ; _printf_core + 1188
        0x00005a36:    dc06        ..      BGT      0x5a46 ; _printf_core + 1178
        0x00005a38:    2845        E(      CMP      r0,#0x45
        0x00005a3a:    d009        ..      BEQ      0x5a50 ; _printf_core + 1188
        0x00005a3c:    2846        F(      CMP      r0,#0x46
        0x00005a3e:    d01d        ..      BEQ      0x5a7c ; _printf_core + 1232
        0x00005a40:    2847        G(      CMP      r0,#0x47
        0x00005a42:    d141        A.      BNE      0x5ac8 ; _printf_core + 1308
        0x00005a44:    e041        A.      B        0x5aca ; _printf_core + 1310
        0x00005a46:    2866        f(      CMP      r0,#0x66
        0x00005a48:    d018        ..      BEQ      0x5a7c ; _printf_core + 1232
        0x00005a4a:    2867        g(      CMP      r0,#0x67
        0x00005a4c:    d13c        <.      BNE      0x5ac8 ; _printf_core + 1308
        0x00005a4e:    e03c        <.      B        0x5aca ; _printf_core + 1310
        0x00005a50:    2100        .!      MOVS     r1,#0
        0x00005a52:    2f11        ./      CMP      r7,#0x11
        0x00005a54:    db01        ..      BLT      0x5a5a ; _printf_core + 1198
        0x00005a56:    2011        .       MOVS     r0,#0x11
        0x00005a58:    e000        ..      B        0x5a5c ; _printf_core + 1200
        0x00005a5a:    1c78        x.      ADDS     r0,r7,#1
        0x00005a5c:    9101        ..      STR      r1,[sp,#4]
        0x00005a5e:    9000        ..      STR      r0,[sp,#0]
        0x00005a60:    a908        ..      ADD      r1,sp,#0x20
        0x00005a62:    a811        ..      ADD      r0,sp,#0x44
        0x00005a64:    f7fffcf6    ....    BL       _fp_digits ; 0x5454
        0x00005a68:    9913        ..      LDR      r1,[sp,#0x4c]
        0x00005a6a:    9105        ..      STR      r1,[sp,#0x14]
        0x00005a6c:    2100        .!      MOVS     r1,#0
        0x00005a6e:    9a11        ..      LDR      r2,[sp,#0x44]
        0x00005a70:    9215        ..      STR      r2,[sp,#0x54]
        0x00005a72:    1c7f        ..      ADDS     r7,r7,#1
        0x00005a74:    9812        ..      LDR      r0,[sp,#0x48]
        0x00005a76:    9701        ..      STR      r7,[sp,#4]
        0x00005a78:    9100        ..      STR      r1,[sp,#0]
        0x00005a7a:    e050        P.      B        0x5b1e ; _printf_core + 1394
        0x00005a7c:    2001        .       MOVS     r0,#1
        0x00005a7e:    07c0        ..      LSLS     r0,r0,#31
        0x00005a80:    9003        ..      STR      r0,[sp,#0xc]
        0x00005a82:    2001        .       MOVS     r0,#1
        0x00005a84:    9001        ..      STR      r0,[sp,#4]
        0x00005a86:    a908        ..      ADD      r1,sp,#0x20
        0x00005a88:    9700        ..      STR      r7,[sp,#0]
        0x00005a8a:    a811        ..      ADD      r0,sp,#0x44
        0x00005a8c:    f7fffce2    ....    BL       _fp_digits ; 0x5454
        0x00005a90:    9a13        ..      LDR      r2,[sp,#0x4c]
        0x00005a92:    9914        ..      LDR      r1,[sp,#0x50]
        0x00005a94:    9205        ..      STR      r2,[sp,#0x14]
        0x00005a96:    2200        ."      MOVS     r2,#0
        0x00005a98:    9b11        ..      LDR      r3,[sp,#0x44]
        0x00005a9a:    9200        ..      STR      r2,[sp,#0]
        0x00005a9c:    9812        ..      LDR      r0,[sp,#0x48]
        0x00005a9e:    9315        ..      STR      r3,[sp,#0x54]
        0x00005aa0:    9a05        ..      LDR      r2,[sp,#0x14]
        0x00005aa2:    9201        ..      STR      r2,[sp,#4]
        0x00005aa4:    2900        .)      CMP      r1,#0
        0x00005aa6:    d001        ..      BEQ      0x5aac ; _printf_core + 1280
        0x00005aa8:    4610        .F      MOV      r0,r2
        0x00005aaa:    e002        ..      B        0x5ab2 ; _printf_core + 1286
        0x00005aac:    1c79        y.      ADDS     r1,r7,#1
        0x00005aae:    1840        @.      ADDS     r0,r0,r1
        0x00005ab0:    9001        ..      STR      r0,[sp,#4]
        0x00005ab2:    1a38        8.      SUBS     r0,r7,r0
        0x00005ab4:    d501        ..      BPL      0x5aba ; _printf_core + 1294
        0x00005ab6:    9801        ..      LDR      r0,[sp,#4]
        0x00005ab8:    e004        ..      B        0x5ac4 ; _printf_core + 1304
        0x00005aba:    4240        @B      RSBS     r0,r0,#0
        0x00005abc:    1e40        @.      SUBS     r0,r0,#1
        0x00005abe:    9000        ..      STR      r0,[sp,#0]
        0x00005ac0:    1c78        x.      ADDS     r0,r7,#1
        0x00005ac2:    9001        ..      STR      r0,[sp,#4]
        0x00005ac4:    1bc0        ..      SUBS     r0,r0,r7
        0x00005ac6:    9002        ..      STR      r0,[sp,#8]
        0x00005ac8:    e043        C.      B        0x5b52 ; _printf_core + 1446
        0x00005aca:    2f01        ./      CMP      r7,#1
        0x00005acc:    da00        ..      BGE      0x5ad0 ; _printf_core + 1316
        0x00005ace:    2701        .'      MOVS     r7,#1
        0x00005ad0:    2100        .!      MOVS     r1,#0
        0x00005ad2:    2f11        ./      CMP      r7,#0x11
        0x00005ad4:    dd01        ..      BLE      0x5ada ; _printf_core + 1326
        0x00005ad6:    2011        .       MOVS     r0,#0x11
        0x00005ad8:    e000        ..      B        0x5adc ; _printf_core + 1328
        0x00005ada:    4638        8F      MOV      r0,r7
        0x00005adc:    9101        ..      STR      r1,[sp,#4]
        0x00005ade:    9000        ..      STR      r0,[sp,#0]
        0x00005ae0:    a908        ..      ADD      r1,sp,#0x20
        0x00005ae2:    a811        ..      ADD      r0,sp,#0x44
        0x00005ae4:    f7fffcb6    ....    BL       _fp_digits ; 0x5454
        0x00005ae8:    9913        ..      LDR      r1,[sp,#0x4c]
        0x00005aea:    9105        ..      STR      r1,[sp,#0x14]
        0x00005aec:    9a11        ..      LDR      r2,[sp,#0x44]
        0x00005aee:    2100        .!      MOVS     r1,#0
        0x00005af0:    9812        ..      LDR      r0,[sp,#0x48]
        0x00005af2:    9215        ..      STR      r2,[sp,#0x54]
        0x00005af4:    9100        ..      STR      r1,[sp,#0]
        0x00005af6:    9701        ..      STR      r7,[sp,#4]
        0x00005af8:    0721        !.      LSLS     r1,r4,#28
        0x00005afa:    d40c        ..      BMI      0x5b16 ; _printf_core + 1386
        0x00005afc:    9905        ..      LDR      r1,[sp,#0x14]
        0x00005afe:    42b9        .B      CMP      r1,r7
        0x00005b00:    db01        ..      BLT      0x5b06 ; _printf_core + 1370
        0x00005b02:    9901        ..      LDR      r1,[sp,#4]
        0x00005b04:    e000        ..      B        0x5b08 ; _printf_core + 1372
        0x00005b06:    9101        ..      STR      r1,[sp,#4]
        0x00005b08:    2901        .)      CMP      r1,#1
        0x00005b0a:    dd04        ..      BLE      0x5b16 ; _printf_core + 1386
        0x00005b0c:    9a15        ..      LDR      r2,[sp,#0x54]
        0x00005b0e:    1e49        I.      SUBS     r1,r1,#1
        0x00005b10:    5c51        Q\      LDRB     r1,[r2,r1]
        0x00005b12:    2930        0)      CMP      r1,#0x30
        0x00005b14:    d006        ..      BEQ      0x5b24 ; _printf_core + 1400
        0x00005b16:    42b8        .B      CMP      r0,r7
        0x00005b18:    da01        ..      BGE      0x5b1e ; _printf_core + 1394
        0x00005b1a:    1d01        ..      ADDS     r1,r0,#4
        0x00005b1c:    da05        ..      BGE      0x5b2a ; _printf_core + 1406
        0x00005b1e:    2101        .!      MOVS     r1,#1
        0x00005b20:    9102        ..      STR      r1,[sp,#8]
        0x00005b22:    e015        ..      B        0x5b50 ; _printf_core + 1444
        0x00005b24:    9901        ..      LDR      r1,[sp,#4]
        0x00005b26:    1e49        I.      SUBS     r1,r1,#1
        0x00005b28:    e7ed        ..      B        0x5b06 ; _printf_core + 1370
        0x00005b2a:    2800        .(      CMP      r0,#0
        0x00005b2c:    dc05        ..      BGT      0x5b3a ; _printf_core + 1422
        0x00005b2e:    9900        ..      LDR      r1,[sp,#0]
        0x00005b30:    1841        A.      ADDS     r1,r0,r1
        0x00005b32:    9100        ..      STR      r1,[sp,#0]
        0x00005b34:    9901        ..      LDR      r1,[sp,#4]
        0x00005b36:    1a09        ..      SUBS     r1,r1,r0
        0x00005b38:    e003        ..      B        0x5b42 ; _printf_core + 1430
        0x00005b3a:    9a01        ..      LDR      r2,[sp,#4]
        0x00005b3c:    1c41        A.      ADDS     r1,r0,#1
        0x00005b3e:    4291        .B      CMP      r1,r2
        0x00005b40:    dd00        ..      BLE      0x5b44 ; _printf_core + 1432
        0x00005b42:    9101        ..      STR      r1,[sp,#4]
        0x00005b44:    9900        ..      LDR      r1,[sp,#0]
        0x00005b46:    1a40        @.      SUBS     r0,r0,r1
        0x00005b48:    1c40        @.      ADDS     r0,r0,#1
        0x00005b4a:    9002        ..      STR      r0,[sp,#8]
        0x00005b4c:    2001        .       MOVS     r0,#1
        0x00005b4e:    07c0        ..      LSLS     r0,r0,#31
        0x00005b50:    9003        ..      STR      r0,[sp,#0xc]
        0x00005b52:    0720         .      LSLS     r0,r4,#28
        0x00005b54:    d406        ..      BMI      0x5b64 ; _printf_core + 1464
        0x00005b56:    9902        ..      LDR      r1,[sp,#8]
        0x00005b58:    9801        ..      LDR      r0,[sp,#4]
        0x00005b5a:    4281        .B      CMP      r1,r0
        0x00005b5c:    db02        ..      BLT      0x5b64 ; _printf_core + 1464
        0x00005b5e:    2000        .       MOVS     r0,#0
        0x00005b60:    43c0        .C      MVNS     r0,r0
        0x00005b62:    9002        ..      STR      r0,[sp,#8]
        0x00005b64:    2000        .       MOVS     r0,#0
        0x00005b66:    4669        iF      MOV      r1,sp
        0x00005b68:    77c8        .w      STRB     r0,[r1,#0x1f]
        0x00005b6a:    af07        ..      ADD      r7,sp,#0x1c
        0x00005b6c:    2101        .!      MOVS     r1,#1
        0x00005b6e:    9803        ..      LDR      r0,[sp,#0xc]
        0x00005b70:    3703        .7      ADDS     r7,#3
        0x00005b72:    07c9        ..      LSLS     r1,r1,#31
        0x00005b74:    4288        .B      CMP      r0,r1
        0x00005b76:    d024        $.      BEQ      0x5bc2 ; _printf_core + 1558
        0x00005b78:    2002        .       MOVS     r0,#2
        0x00005b7a:    9011        ..      STR      r0,[sp,#0x44]
        0x00005b7c:    202b        +       MOVS     r0,#0x2b
        0x00005b7e:    9012        ..      STR      r0,[sp,#0x48]
        0x00005b80:    9803        ..      LDR      r0,[sp,#0xc]
        0x00005b82:    2800        .(      CMP      r0,#0
        0x00005b84:    da0c        ..      BGE      0x5ba0 ; _printf_core + 1524
        0x00005b86:    4240        @B      RSBS     r0,r0,#0
        0x00005b88:    9003        ..      STR      r0,[sp,#0xc]
        0x00005b8a:    202d        -       MOVS     r0,#0x2d
        0x00005b8c:    9012        ..      STR      r0,[sp,#0x48]
        0x00005b8e:    e007        ..      B        0x5ba0 ; _printf_core + 1524
        0x00005b90:    210a        .!      MOVS     r1,#0xa
        0x00005b92:    9803        ..      LDR      r0,[sp,#0xc]
        0x00005b94:    f7fefa92    ....    BL       __aeabi_uidiv ; 0x40bc
        0x00005b98:    3130        01      ADDS     r1,r1,#0x30
        0x00005b9a:    1e7f        ..      SUBS     r7,r7,#1
        0x00005b9c:    9003        ..      STR      r0,[sp,#0xc]
        0x00005b9e:    7039        9p      STRB     r1,[r7,#0]
        0x00005ba0:    9911        ..      LDR      r1,[sp,#0x44]
        0x00005ba2:    1e48        H.      SUBS     r0,r1,#1
        0x00005ba4:    9011        ..      STR      r0,[sp,#0x44]
        0x00005ba6:    2900        .)      CMP      r1,#0
        0x00005ba8:    dcf2        ..      BGT      0x5b90 ; _printf_core + 1508
        0x00005baa:    9803        ..      LDR      r0,[sp,#0xc]
        0x00005bac:    2800        .(      CMP      r0,#0
        0x00005bae:    d1ef        ..      BNE      0x5b90 ; _printf_core + 1508
        0x00005bb0:    1e79        y.      SUBS     r1,r7,#1
        0x00005bb2:    9812        ..      LDR      r0,[sp,#0x48]
        0x00005bb4:    7008        .p      STRB     r0,[r1,#0]
        0x00005bb6:    7830        0x      LDRB     r0,[r6,#0]
        0x00005bb8:    2120         !      MOVS     r1,#0x20
        0x00005bba:    4008        .@      ANDS     r0,r0,r1
        0x00005bbc:    3045        E0      ADDS     r0,r0,#0x45
        0x00005bbe:    1ebf        ..      SUBS     r7,r7,#2
        0x00005bc0:    7038        8p      STRB     r0,[r7,#0]
        0x00005bc2:    a806        ..      ADD      r0,sp,#0x18
        0x00005bc4:    1bc0        ..      SUBS     r0,r0,r7
        0x00005bc6:    1dc0        ..      ADDS     r0,r0,#7
        0x00005bc8:    9003        ..      STR      r0,[sp,#0xc]
        0x00005bca:    9810        ..      LDR      r0,[sp,#0x40]
        0x00005bcc:    7800        .x      LDRB     r0,[r0,#0]
        0x00005bce:    2800        .(      CMP      r0,#0
        0x00005bd0:    d000        ..      BEQ      0x5bd4 ; _printf_core + 1576
        0x00005bd2:    2001        .       MOVS     r0,#1
        0x00005bd4:    9901        ..      LDR      r1,[sp,#4]
        0x00005bd6:    1841        A.      ADDS     r1,r0,r1
        0x00005bd8:    9802        ..      LDR      r0,[sp,#8]
        0x00005bda:    17c0        ..      ASRS     r0,r0,#31
        0x00005bdc:    1809        ..      ADDS     r1,r1,r0
        0x00005bde:    9803        ..      LDR      r0,[sp,#0xc]
        0x00005be0:    1809        ..      ADDS     r1,r1,r0
        0x00005be2:    9804        ..      LDR      r0,[sp,#0x10]
        0x00005be4:    1a40        @.      SUBS     r0,r0,r1
        0x00005be6:    1e40        @.      SUBS     r0,r0,#1
        0x00005be8:    9004        ..      STR      r0,[sp,#0x10]
        0x00005bea:    03e0        ..      LSLS     r0,r4,#15
        0x00005bec:    d406        ..      BMI      0x5bfc ; _printf_core + 1616
        0x00005bee:    4621        !F      MOV      r1,r4
        0x00005bf0:    9b1a        ..      LDR      r3,[sp,#0x68]
        0x00005bf2:    9a19        ..      LDR      r2,[sp,#0x64]
        0x00005bf4:    9804        ..      LDR      r0,[sp,#0x10]
        0x00005bf6:    f000f85f    .._.    BL       _printf_pre_padding ; 0x5cb8
        0x00005bfa:    1945        E.      ADDS     r5,r0,r5
        0x00005bfc:    9810        ..      LDR      r0,[sp,#0x40]
        0x00005bfe:    7800        .x      LDRB     r0,[r0,#0]
        0x00005c00:    2800        .(      CMP      r0,#0
        0x00005c02:    d003        ..      BEQ      0x5c0c ; _printf_core + 1632
        0x00005c04:    9a1a        ..      LDR      r2,[sp,#0x68]
        0x00005c06:    9919        ..      LDR      r1,[sp,#0x64]
        0x00005c08:    4790        .G      BLX      r2
        0x00005c0a:    1c6d        m.      ADDS     r5,r5,#1
        0x00005c0c:    03e0        ..      LSLS     r0,r4,#15
        0x00005c0e:    d524        $.      BPL      0x5c5a ; _printf_core + 1710
        0x00005c10:    4621        !F      MOV      r1,r4
        0x00005c12:    9b1a        ..      LDR      r3,[sp,#0x68]
        0x00005c14:    9a19        ..      LDR      r2,[sp,#0x64]
        0x00005c16:    9804        ..      LDR      r0,[sp,#0x10]
        0x00005c18:    f000f84e    ..N.    BL       _printf_pre_padding ; 0x5cb8
        0x00005c1c:    1945        E.      ADDS     r5,r0,r5
        0x00005c1e:    e01c        ..      B        0x5c5a ; _printf_core + 1710
        0x00005c20:    9800        ..      LDR      r0,[sp,#0]
        0x00005c22:    2800        .(      CMP      r0,#0
        0x00005c24:    db07        ..      BLT      0x5c36 ; _printf_core + 1674
        0x00005c26:    9900        ..      LDR      r1,[sp,#0]
        0x00005c28:    9805        ..      LDR      r0,[sp,#0x14]
        0x00005c2a:    4288        .B      CMP      r0,r1
        0x00005c2c:    dd03        ..      BLE      0x5c36 ; _printf_core + 1674
        0x00005c2e:    9815        ..      LDR      r0,[sp,#0x54]
        0x00005c30:    5c40        @\      LDRB     r0,[r0,r1]
        0x00005c32:    9919        ..      LDR      r1,[sp,#0x64]
        0x00005c34:    e001        ..      B        0x5c3a ; _printf_core + 1678
        0x00005c36:    9919        ..      LDR      r1,[sp,#0x64]
        0x00005c38:    2030        0       MOVS     r0,#0x30
        0x00005c3a:    9a1a        ..      LDR      r2,[sp,#0x68]
        0x00005c3c:    4790        .G      BLX      r2
        0x00005c3e:    9800        ..      LDR      r0,[sp,#0]
        0x00005c40:    1c6d        m.      ADDS     r5,r5,#1
        0x00005c42:    1c40        @.      ADDS     r0,r0,#1
        0x00005c44:    9000        ..      STR      r0,[sp,#0]
        0x00005c46:    9802        ..      LDR      r0,[sp,#8]
        0x00005c48:    1e40        @.      SUBS     r0,r0,#1
        0x00005c4a:    9002        ..      STR      r0,[sp,#8]
        0x00005c4c:    2800        .(      CMP      r0,#0
        0x00005c4e:    d104        ..      BNE      0x5c5a ; _printf_core + 1710
        0x00005c50:    9a1a        ..      LDR      r2,[sp,#0x68]
        0x00005c52:    202e        .       MOVS     r0,#0x2e
        0x00005c54:    9919        ..      LDR      r1,[sp,#0x64]
        0x00005c56:    4790        .G      BLX      r2
        0x00005c58:    1c6d        m.      ADDS     r5,r5,#1
        0x00005c5a:    9901        ..      LDR      r1,[sp,#4]
        0x00005c5c:    1e48        H.      SUBS     r0,r1,#1
        0x00005c5e:    9001        ..      STR      r0,[sp,#4]
        0x00005c60:    2900        .)      CMP      r1,#0
        0x00005c62:    dcdd        ..      BGT      0x5c20 ; _printf_core + 1652
        0x00005c64:    e005        ..      B        0x5c72 ; _printf_core + 1734
        0x00005c66:    7838        8x      LDRB     r0,[r7,#0]
        0x00005c68:    9a1a        ..      LDR      r2,[sp,#0x68]
        0x00005c6a:    1c7f        ..      ADDS     r7,r7,#1
        0x00005c6c:    9919        ..      LDR      r1,[sp,#0x64]
        0x00005c6e:    4790        .G      BLX      r2
        0x00005c70:    1c6d        m.      ADDS     r5,r5,#1
        0x00005c72:    9903        ..      LDR      r1,[sp,#0xc]
        0x00005c74:    1e48        H.      SUBS     r0,r1,#1
        0x00005c76:    9003        ..      STR      r0,[sp,#0xc]
        0x00005c78:    2900        .)      CMP      r1,#0
        0x00005c7a:    dcf4        ..      BGT      0x5c66 ; _printf_core + 1722
        0x00005c7c:    4621        !F      MOV      r1,r4
        0x00005c7e:    9b1a        ..      LDR      r3,[sp,#0x68]
        0x00005c80:    9a19        ..      LDR      r2,[sp,#0x64]
        0x00005c82:    9804        ..      LDR      r0,[sp,#0x10]
        0x00005c84:    e6ac        ..      B        0x59e0 ; _printf_core + 1076
    $d
        0x00005c86:    0000        ..      DCW    0
        0x00005c88:    0000002d    -...    DCD    45
        0x00005c8c:    0000002b    +...    DCD    43
        0x00005c90:    00000020     ...    DCD    32
        0x00005c94:    00000000    ....    DCD    0
    $t
    i._printf_post_padding
    _printf_post_padding
        0x00005c98:    b5f8        ..      PUSH     {r3-r7,lr}
        0x00005c9a:    4604        .F      MOV      r4,r0
        0x00005c9c:    2500        .%      MOVS     r5,#0
        0x00005c9e:    461e        .F      MOV      r6,r3
        0x00005ca0:    4617        .F      MOV      r7,r2
        0x00005ca2:    0488        ..      LSLS     r0,r1,#18
        0x00005ca4:    d404        ..      BMI      0x5cb0 ; _printf_post_padding + 24
        0x00005ca6:    e005        ..      B        0x5cb4 ; _printf_post_padding + 28
        0x00005ca8:    4639        9F      MOV      r1,r7
        0x00005caa:    2020                MOVS     r0,#0x20
        0x00005cac:    47b0        .G      BLX      r6
        0x00005cae:    1c6d        m.      ADDS     r5,r5,#1
        0x00005cb0:    1e64        d.      SUBS     r4,r4,#1
        0x00005cb2:    d5f9        ..      BPL      0x5ca8 ; _printf_post_padding + 16
        0x00005cb4:    4628        (F      MOV      r0,r5
        0x00005cb6:    bdf8        ..      POP      {r3-r7,pc}
    i._printf_pre_padding
    _printf_pre_padding
        0x00005cb8:    b5ff        ..      PUSH     {r0-r7,lr}
        0x00005cba:    4604        .F      MOV      r4,r0
        0x00005cbc:    2500        .%      MOVS     r5,#0
        0x00005cbe:    b081        ..      SUB      sp,sp,#4
        0x00005cc0:    461e        .F      MOV      r6,r3
        0x00005cc2:    03c8        ..      LSLS     r0,r1,#15
        0x00005cc4:    d501        ..      BPL      0x5cca ; _printf_pre_padding + 18
        0x00005cc6:    2730        0'      MOVS     r7,#0x30
        0x00005cc8:    e000        ..      B        0x5ccc ; _printf_pre_padding + 20
        0x00005cca:    2720         '      MOVS     r7,#0x20
        0x00005ccc:    0488        ..      LSLS     r0,r1,#18
        0x00005cce:    d504        ..      BPL      0x5cda ; _printf_pre_padding + 34
        0x00005cd0:    e005        ..      B        0x5cde ; _printf_pre_padding + 38
        0x00005cd2:    4638        8F      MOV      r0,r7
        0x00005cd4:    9903        ..      LDR      r1,[sp,#0xc]
        0x00005cd6:    47b0        .G      BLX      r6
        0x00005cd8:    1c6d        m.      ADDS     r5,r5,#1
        0x00005cda:    1e64        d.      SUBS     r4,r4,#1
        0x00005cdc:    d5f9        ..      BPL      0x5cd2 ; _printf_pre_padding + 26
        0x00005cde:    4628        (F      MOV      r0,r5
        0x00005ce0:    b005        ..      ADD      sp,sp,#0x14
        0x00005ce2:    bdf0        ..      POP      {r4-r7,pc}
    i.asinf
    asinf
        0x00005ce4:    b5f8        ..      PUSH     {r3-r7,lr}
        0x00005ce6:    4604        .F      MOV      r4,r0
        0x00005ce8:    2147        G!      MOVS     r1,#0x47
        0x00005cea:    0040        @.      LSLS     r0,r0,#1
        0x00005cec:    0649        I.      LSLS     r1,r1,#25
        0x00005cee:    220d        ."      MOVS     r2,#0xd
        0x00005cf0:    1841        A.      ADDS     r1,r0,r1
        0x00005cf2:    0612        ..      LSLS     r2,r2,#24
        0x00005cf4:    4291        .B      CMP      r1,r2
        0x00005cf6:    d853        S.      BHI      0x5da0 ; asinf + 188
        0x00005cf8:    213f        ?!      MOVS     r1,#0x3f
        0x00005cfa:    0649        I.      LSLS     r1,r1,#25
        0x00005cfc:    4288        .B      CMP      r0,r1
        0x00005cfe:    d91b        ..      BLS      0x5d38 ; asinf + 84
        0x00005d00:    0060        `.      LSLS     r0,r4,#1
        0x00005d02:    217f        .!      MOVS     r1,#0x7f
        0x00005d04:    0840        @.      LSRS     r0,r0,#1
        0x00005d06:    05c9        ..      LSLS     r1,r1,#23
        0x00005d08:    f7fefa73    ..s.    BL       __aeabi_frsub ; 0x41f2
        0x00005d0c:    2100        .!      MOVS     r1,#0
        0x00005d0e:    43c9        .C      MVNS     r1,r1
        0x00005d10:    f7fefaee    ....    BL       __ARM_scalbnf ; 0x42f0
        0x00005d14:    4607        .F      MOV      r7,r0
        0x00005d16:    f000faa7    ....    BL       sqrtf ; 0x6268
        0x00005d1a:    2c00        .,      CMP      r4,#0
        0x00005d1c:    da04        ..      BGE      0x5d28 ; asinf + 68
        0x00005d1e:    4d2f        /M      LDR      r5,[pc,#188] ; [0x5ddc] = 0xb9fdaa22
        0x00005d20:    4e2d        -N      LDR      r6,[pc,#180] ; [0x5dd8] = 0xbfc90000
        0x00005d22:    07a9        ..      LSLS     r1,r5,#30
        0x00005d24:    4048        H@      EORS     r0,r0,r1
        0x00005d26:    e001        ..      B        0x5d2c ; asinf + 72
        0x00005d28:    4e2d        -N      LDR      r6,[pc,#180] ; [0x5de0] = 0x3fc90000
        0x00005d2a:    4d2e        .M      LDR      r5,[pc,#184] ; [0x5de4] = 0x39fdaa22
        0x00005d2c:    2103        .!      MOVS     r1,#3
        0x00005d2e:    0789        ..      LSLS     r1,r1,#30
        0x00005d30:    f7fefa63    ..c.    BL       __aeabi_fmul ; 0x41fa
        0x00005d34:    4604        .F      MOV      r4,r0
        0x00005d36:    e006        ..      B        0x5d46 ; asinf + 98
        0x00005d38:    2600        .&      MOVS     r6,#0
        0x00005d3a:    4621        !F      MOV      r1,r4
        0x00005d3c:    4635        5F      MOV      r5,r6
        0x00005d3e:    4608        .F      MOV      r0,r1
        0x00005d40:    f7fefa5b    ..[.    BL       __aeabi_fmul ; 0x41fa
        0x00005d44:    4607        .F      MOV      r7,r0
        0x00005d46:    4928        (I      LDR      r1,[pc,#160] ; [0x5de8] = 0x3d1cfe24
        0x00005d48:    4638        8F      MOV      r0,r7
        0x00005d4a:    f7fefa56    ..V.    BL       __aeabi_fmul ; 0x41fa
        0x00005d4e:    4927        'I      LDR      r1,[pc,#156] ; [0x5dec] = 0x3cd88ac7
        0x00005d50:    f7fef9fa    ....    BL       __aeabi_fadd ; 0x4148
        0x00005d54:    4639        9F      MOV      r1,r7
        0x00005d56:    f7fefa50    ..P.    BL       __aeabi_fmul ; 0x41fa
        0x00005d5a:    4925        %I      LDR      r1,[pc,#148] ; [0x5df0] = 0x3d38671e
        0x00005d5c:    f7fef9f4    ....    BL       __aeabi_fadd ; 0x4148
        0x00005d60:    4639        9F      MOV      r1,r7
        0x00005d62:    f7fefa4a    ..J.    BL       __aeabi_fmul ; 0x41fa
        0x00005d66:    4923        #I      LDR      r1,[pc,#140] ; [0x5df4] = 0x3d99931b
        0x00005d68:    f7fef9ee    ....    BL       __aeabi_fadd ; 0x4148
        0x00005d6c:    4639        9F      MOV      r1,r7
        0x00005d6e:    f7fefa44    ..D.    BL       __aeabi_fmul ; 0x41fa
        0x00005d72:    4921        !I      LDR      r1,[pc,#132] ; [0x5df8] = 0x3e2aaaaf
        0x00005d74:    f7fef9e8    ....    BL       __aeabi_fadd ; 0x4148
        0x00005d78:    9000        ..      STR      r0,[sp,#0]
        0x00005d7a:    4639        9F      MOV      r1,r7
        0x00005d7c:    4620         F      MOV      r0,r4
        0x00005d7e:    f7fefa3c    ..<.    BL       __aeabi_fmul ; 0x41fa
        0x00005d82:    9900        ..      LDR      r1,[sp,#0]
        0x00005d84:    f7fefa39    ..9.    BL       __aeabi_fmul ; 0x41fa
        0x00005d88:    4607        .F      MOV      r7,r0
        0x00005d8a:    4629        )F      MOV      r1,r5
        0x00005d8c:    4620         F      MOV      r0,r4
        0x00005d8e:    f7fef9db    ....    BL       __aeabi_fadd ; 0x4148
        0x00005d92:    4639        9F      MOV      r1,r7
        0x00005d94:    f7fef9d8    ....    BL       __aeabi_fadd ; 0x4148
        0x00005d98:    4631        1F      MOV      r1,r6
        0x00005d9a:    f7fef9d5    ....    BL       __aeabi_fadd ; 0x4148
        0x00005d9e:    bdf8        ..      POP      {r3-r7,pc}
        0x00005da0:    2139        9!      MOVS     r1,#0x39
        0x00005da2:    0649        I.      LSLS     r1,r1,#25
        0x00005da4:    4288        .B      CMP      r0,r1
        0x00005da6:    d208        ..      BCS      0x5dba ; asinf + 214
        0x00005da8:    4620         F      MOV      r0,r4
        0x00005daa:    f7feff29    ..).    BL       __ARM_fpclassifyf ; 0x4c00
        0x00005dae:    2804        .(      CMP      r0,#4
        0x00005db0:    d101        ..      BNE      0x5db6 ; asinf + 210
        0x00005db2:    f7fffa72    ..r.    BL       __mathlib_flt_underflow ; 0x529a
        0x00005db6:    4620         F      MOV      r0,r4
        0x00005db8:    bdf8        ..      POP      {r3-r7,pc}
        0x00005dba:    21ff        .!      MOVS     r1,#0xff
        0x00005dbc:    0609        ..      LSLS     r1,r1,#24
        0x00005dbe:    4288        .B      CMP      r0,r1
        0x00005dc0:    d903        ..      BLS      0x5dca ; asinf + 230
        0x00005dc2:    4620         F      MOV      r0,r4
        0x00005dc4:    f7fffa5a    ..Z.    BL       __mathlib_flt_infnan ; 0x527c
        0x00005dc8:    bdf8        ..      POP      {r3-r7,pc}
        0x00005dca:    2001        .       MOVS     r0,#1
        0x00005dcc:    f7fffb3c    ..<.    BL       __set_errno ; 0x5448
        0x00005dd0:    f7fffa5d    ..].    BL       __mathlib_flt_invalid ; 0x528e
        0x00005dd4:    bdf8        ..      POP      {r3-r7,pc}
    $d
        0x00005dd6:    0000        ..      DCW    0
        0x00005dd8:    bfc90000    ....    DCD    3217620992
        0x00005ddc:    b9fdaa22    "...    DCD    3120409122
        0x00005de0:    3fc90000    ...?    DCD    1070137344
        0x00005de4:    39fdaa22    "..9    DCD    972925474
        0x00005de8:    3d1cfe24    $..=    DCD    1025310244
        0x00005dec:    3cd88ac7    ...<    DCD    1020824263
        0x00005df0:    3d38671e    .g8=    DCD    1027106590
        0x00005df4:    3d99931b    ...=    DCD    1033474843
        0x00005df8:    3e2aaaaf    ..*>    DCD    1042983599
    $t
    i.atan2f
    atan2f
        0x00005dfc:    b5f0        ..      PUSH     {r4-r7,lr}
        0x00005dfe:    460c        .F      MOV      r4,r1
        0x00005e00:    4601        .F      MOV      r1,r0
        0x00005e02:    221d        ."      MOVS     r2,#0x1d
        0x00005e04:    004b        K.      LSLS     r3,r1,#1
        0x00005e06:    06d2        ..      LSLS     r2,r2,#27
        0x00005e08:    189f        ..      ADDS     r7,r3,r2
        0x00005e0a:    26e5        .&      MOVS     r6,#0xe5
        0x00005e0c:    4605        .F      MOV      r5,r0
        0x00005e0e:    0636        6.      LSLS     r6,r6,#24
        0x00005e10:    0062        b.      LSLS     r2,r4,#1
        0x00005e12:    b087        ..      SUB      sp,sp,#0x1c
        0x00005e14:    4620         F      MOV      r0,r4
        0x00005e16:    42b7        .B      CMP      r7,r6
        0x00005e18:    d27d        }.      BCS      0x5f16 ; atan2f + 282
        0x00005e1a:    271d        .'      MOVS     r7,#0x1d
        0x00005e1c:    06ff        ..      LSLS     r7,r7,#27
        0x00005e1e:    19d7        ..      ADDS     r7,r2,r7
        0x00005e20:    42b7        .B      CMP      r7,r6
        0x00005e22:    d278        x.      BCS      0x5f16 ; atan2f + 282
        0x00005e24:    004f        O.      LSLS     r7,r1,#1
        0x00005e26:    0043        C.      LSLS     r3,r0,#1
        0x00005e28:    0e3e        >.      LSRS     r6,r7,#24
        0x00005e2a:    0e1a        ..      LSRS     r2,r3,#24
        0x00005e2c:    1ab2        ..      SUBS     r2,r6,r2
        0x00005e2e:    2a1b        .*      CMP      r2,#0x1b
        0x00005e30:    dd07        ..      BLE      0x5e42 ; atan2f + 70
        0x00005e32:    2900        .)      CMP      r1,#0
        0x00005e34:    da02        ..      BGE      0x5e3c ; atan2f + 64
        0x00005e36:    4875        uH      LDR      r0,[pc,#468] ; [0x600c] = 0xbfc90fdb
        0x00005e38:    b007        ..      ADD      sp,sp,#0x1c
        0x00005e3a:    bdf0        ..      POP      {r4-r7,pc}
        0x00005e3c:    4874        tH      LDR      r0,[pc,#464] ; [0x6010] = 0x3fc90fdb
        0x00005e3e:    b007        ..      ADD      sp,sp,#0x1c
        0x00005e40:    bdf0        ..      POP      {r4-r7,pc}
        0x00005e42:    261a        .&      MOVS     r6,#0x1a
        0x00005e44:    42f2        .B      CMN      r2,r6
        0x00005e46:    da17        ..      BGE      0x5e78 ; atan2f + 124
        0x00005e48:    2800        .(      CMP      r0,#0
        0x00005e4a:    da07        ..      BGE      0x5e5c ; atan2f + 96
        0x00005e4c:    2900        .)      CMP      r1,#0
        0x00005e4e:    da02        ..      BGE      0x5e56 ; atan2f + 90
        0x00005e50:    4870        pH      LDR      r0,[pc,#448] ; [0x6014] = 0xc0490fdb
        0x00005e52:    b007        ..      ADD      sp,sp,#0x1c
        0x00005e54:    bdf0        ..      POP      {r4-r7,pc}
        0x00005e56:    4870        pH      LDR      r0,[pc,#448] ; [0x6018] = 0x40490fdb
        0x00005e58:    b007        ..      ADD      sp,sp,#0x1c
        0x00005e5a:    bdf0        ..      POP      {r4-r7,pc}
        0x00005e5c:    4621        !F      MOV      r1,r4
        0x00005e5e:    4628        (F      MOV      r0,r5
        0x00005e60:    f7fefa08    ....    BL       __aeabi_fdiv ; 0x4274
        0x00005e64:    4604        .F      MOV      r4,r0
        0x00005e66:    f7fefecb    ....    BL       __ARM_fpclassifyf ; 0x4c00
        0x00005e6a:    2804        .(      CMP      r0,#4
        0x00005e6c:    d101        ..      BNE      0x5e72 ; atan2f + 118
        0x00005e6e:    f7fffa14    ....    BL       __mathlib_flt_underflow ; 0x529a
        0x00005e72:    4620         F      MOV      r0,r4
        0x00005e74:    b007        ..      ADD      sp,sp,#0x1c
        0x00005e76:    bdf0        ..      POP      {r4-r7,pc}
        0x00005e78:    429f        .B      CMP      r7,r3
        0x00005e7a:    d911        ..      BLS      0x5ea0 ; atan2f + 164
        0x00005e7c:    2900        .)      CMP      r1,#0
        0x00005e7e:    da02        ..      BGE      0x5e86 ; atan2f + 138
        0x00005e80:    4f66        fO      LDR      r7,[pc,#408] ; [0x601c] = 0xbfc90000
        0x00005e82:    4e67        gN      LDR      r6,[pc,#412] ; [0x6020] = 0xb9fdaa22
        0x00005e84:    e001        ..      B        0x5e8a ; atan2f + 142
        0x00005e86:    4f67        gO      LDR      r7,[pc,#412] ; [0x6024] = 0x3fc90000
        0x00005e88:    4e67        gN      LDR      r6,[pc,#412] ; [0x6028] = 0x39fdaa22
        0x00005e8a:    4623        #F      MOV      r3,r4
        0x00005e8c:    462c        ,F      MOV      r4,r5
        0x00005e8e:    461d        .F      MOV      r5,r3
        0x00005e90:    2201        ."      MOVS     r2,#1
        0x00005e92:    4603        .F      MOV      r3,r0
        0x00005e94:    07d2        ..      LSLS     r2,r2,#31
        0x00005e96:    4608        .F      MOV      r0,r1
        0x00005e98:    4054        T@      EORS     r4,r4,r2
        0x00005e9a:    4050        P@      EORS     r0,r0,r2
        0x00005e9c:    4619        .F      MOV      r1,r3
        0x00005e9e:    e00b        ..      B        0x5eb8 ; atan2f + 188
        0x00005ea0:    2800        .(      CMP      r0,#0
        0x00005ea2:    da07        ..      BGE      0x5eb4 ; atan2f + 184
        0x00005ea4:    2900        .)      CMP      r1,#0
        0x00005ea6:    da02        ..      BGE      0x5eae ; atan2f + 178
        0x00005ea8:    4f60        `O      LDR      r7,[pc,#384] ; [0x602c] = 0xc0490000
        0x00005eaa:    4e61        aN      LDR      r6,[pc,#388] ; [0x6030] = 0xba7daa22
        0x00005eac:    e004        ..      B        0x5eb8 ; atan2f + 188
        0x00005eae:    4f61        aO      LDR      r7,[pc,#388] ; [0x6034] = 0x40490000
        0x00005eb0:    4e61        aN      LDR      r6,[pc,#388] ; [0x6038] = 0x3a7daa22
        0x00005eb2:    e001        ..      B        0x5eb8 ; atan2f + 188
        0x00005eb4:    2600        .&      MOVS     r6,#0
        0x00005eb6:    4637        7F      MOV      r7,r6
        0x00005eb8:    1a42        B.      SUBS     r2,r0,r1
        0x00005eba:    2301        .#      MOVS     r3,#1
        0x00005ebc:    0052        R.      LSLS     r2,r2,#1
        0x00005ebe:    061b        ..      LSLS     r3,r3,#24
        0x00005ec0:    429a        .B      CMP      r2,r3
        0x00005ec2:    d230        0.      BCS      0x5f26 ; atan2f + 298
        0x00005ec4:    4048        H@      EORS     r0,r0,r1
        0x00005ec6:    495d        ]I      LDR      r1,[pc,#372] ; [0x603c] = 0x3eed6000
        0x00005ec8:    d50b        ..      BPL      0x5ee2 ; atan2f + 230
        0x00005eca:    20bf        .       MOVS     r0,#0xbf
        0x00005ecc:    0600        ..      LSLS     r0,r0,#24
        0x00005ece:    9003        ..      STR      r0,[sp,#0xc]
        0x00005ed0:    4638        8F      MOV      r0,r7
        0x00005ed2:    f7fef98a    ....    BL       __aeabi_fsub ; 0x41ea
        0x00005ed6:    4607        .F      MOV      r7,r0
        0x00005ed8:    4959        YI      LDR      r1,[pc,#356] ; [0x6040] = 0x37ce0ac3
        0x00005eda:    4630        0F      MOV      r0,r6
        0x00005edc:    f7fef985    ....    BL       __aeabi_fsub ; 0x41ea
        0x00005ee0:    e00a        ..      B        0x5ef8 ; atan2f + 252
        0x00005ee2:    203f        ?       MOVS     r0,#0x3f
        0x00005ee4:    0600        ..      LSLS     r0,r0,#24
        0x00005ee6:    9003        ..      STR      r0,[sp,#0xc]
        0x00005ee8:    4638        8F      MOV      r0,r7
        0x00005eea:    f7fef92d    ..-.    BL       __aeabi_fadd ; 0x4148
        0x00005eee:    4607        .F      MOV      r7,r0
        0x00005ef0:    4953        SI      LDR      r1,[pc,#332] ; [0x6040] = 0x37ce0ac3
        0x00005ef2:    4630        0F      MOV      r0,r6
        0x00005ef4:    f7fef928    ..(.    BL       __aeabi_fadd ; 0x4148
        0x00005ef8:    4606        .F      MOV      r6,r0
        0x00005efa:    4628        (F      MOV      r0,r5
        0x00005efc:    9903        ..      LDR      r1,[sp,#0xc]
        0x00005efe:    f7fef97c    ..|.    BL       __aeabi_fmul ; 0x41fa
        0x00005f02:    4621        !F      MOV      r1,r4
        0x00005f04:    f7fef920    .. .    BL       __aeabi_fadd ; 0x4148
        0x00005f08:    9000        ..      STR      r0,[sp,#0]
        0x00005f0a:    4621        !F      MOV      r1,r4
        0x00005f0c:    9803        ..      LDR      r0,[sp,#0xc]
        0x00005f0e:    f7fef974    ..t.    BL       __aeabi_fmul ; 0x41fa
        0x00005f12:    4629        )F      MOV      r1,r5
        0x00005f14:    e000        ..      B        0x5f18 ; atan2f + 284
        0x00005f16:    e03a        :.      B        0x5f8e ; atan2f + 402
        0x00005f18:    f7fef96b    ..k.    BL       __aeabi_frsub ; 0x41f2
        0x00005f1c:    9900        ..      LDR      r1,[sp,#0]
        0x00005f1e:    f7fef9a9    ....    BL       __aeabi_fdiv ; 0x4274
        0x00005f22:    4604        .F      MOV      r4,r0
        0x00005f24:    e004        ..      B        0x5f30 ; atan2f + 308
        0x00005f26:    4621        !F      MOV      r1,r4
        0x00005f28:    4628        (F      MOV      r0,r5
        0x00005f2a:    f7fef9a3    ....    BL       __aeabi_fdiv ; 0x4274
        0x00005f2e:    4604        .F      MOV      r4,r0
        0x00005f30:    4601        .F      MOV      r1,r0
        0x00005f32:    f7fef962    ..b.    BL       __aeabi_fmul ; 0x41fa
        0x00005f36:    4943        CI      LDR      r1,[pc,#268] ; [0x6044] = 0xbd65ad2d
        0x00005f38:    9000        ..      STR      r0,[sp,#0]
        0x00005f3a:    f7fef95e    ..^.    BL       __aeabi_fmul ; 0x41fa
        0x00005f3e:    4942        BI      LDR      r1,[pc,#264] ; [0x6048] = 0x3dd5b88f
        0x00005f40:    f7fef902    ....    BL       __aeabi_fadd ; 0x4148
        0x00005f44:    9900        ..      LDR      r1,[sp,#0]
        0x00005f46:    f7fef958    ..X.    BL       __aeabi_fmul ; 0x41fa
        0x00005f4a:    4940        @I      LDR      r1,[pc,#256] ; [0x604c] = 0xbe11b50f
        0x00005f4c:    f7fef8fc    ....    BL       __aeabi_fadd ; 0x4148
        0x00005f50:    9900        ..      LDR      r1,[sp,#0]
        0x00005f52:    f7fef952    ..R.    BL       __aeabi_fmul ; 0x41fa
        0x00005f56:    493e        >I      LDR      r1,[pc,#248] ; [0x6050] = 0x3e4cc861
        0x00005f58:    f7fef8f6    ....    BL       __aeabi_fadd ; 0x4148
        0x00005f5c:    9900        ..      LDR      r1,[sp,#0]
        0x00005f5e:    f7fef94c    ..L.    BL       __aeabi_fmul ; 0x41fa
        0x00005f62:    493c        <I      LDR      r1,[pc,#240] ; [0x6054] = 0xbeaaaaa8
        0x00005f64:    f7fef8f0    ....    BL       __aeabi_fadd ; 0x4148
        0x00005f68:    4605        .F      MOV      r5,r0
        0x00005f6a:    4620         F      MOV      r0,r4
        0x00005f6c:    9900        ..      LDR      r1,[sp,#0]
        0x00005f6e:    f7fef944    ..D.    BL       __aeabi_fmul ; 0x41fa
        0x00005f72:    4629        )F      MOV      r1,r5
        0x00005f74:    f7fef941    ..A.    BL       __aeabi_fmul ; 0x41fa
        0x00005f78:    4631        1F      MOV      r1,r6
        0x00005f7a:    f7fef8e5    ....    BL       __aeabi_fadd ; 0x4148
        0x00005f7e:    4621        !F      MOV      r1,r4
        0x00005f80:    f7fef8e2    ....    BL       __aeabi_fadd ; 0x4148
        0x00005f84:    4639        9F      MOV      r1,r7
        0x00005f86:    f7fef8df    ....    BL       __aeabi_fadd ; 0x4148
        0x00005f8a:    b007        ..      ADD      sp,sp,#0x1c
        0x00005f8c:    bdf0        ..      POP      {r4-r7,pc}
        0x00005f8e:    26ff        .&      MOVS     r6,#0xff
        0x00005f90:    0636        6.      LSLS     r6,r6,#24
        0x00005f92:    42b3        .B      CMP      r3,r6
        0x00005f94:    d801        ..      BHI      0x5f9a ; atan2f + 414
        0x00005f96:    42b2        .B      CMP      r2,r6
        0x00005f98:    d905        ..      BLS      0x5fa6 ; atan2f + 426
        0x00005f9a:    4601        .F      MOV      r1,r0
        0x00005f9c:    4628        (F      MOV      r0,r5
        0x00005f9e:    f7fff972    ..r.    BL       __mathlib_flt_infnan2 ; 0x5286
        0x00005fa2:    b007        ..      ADD      sp,sp,#0x1c
        0x00005fa4:    bdf0        ..      POP      {r4-r7,pc}
        0x00005fa6:    462f        /F      MOV      r7,r5
        0x00005fa8:    4307        .C      ORRS     r7,r7,r0
        0x00005faa:    007f        ..      LSLS     r7,r7,#1
        0x00005fac:    d00a        ..      BEQ      0x5fc4 ; atan2f + 456
        0x00005fae:    42b3        .B      CMP      r3,r6
        0x00005fb0:    d10c        ..      BNE      0x5fcc ; atan2f + 464
        0x00005fb2:    42b2        .B      CMP      r2,r6
        0x00005fb4:    d10a        ..      BNE      0x5fcc ; atan2f + 464
        0x00005fb6:    2201        ."      MOVS     r2,#1
        0x00005fb8:    0792        ..      LSLS     r2,r2,#30
        0x00005fba:    4390        .C      BICS     r0,r0,r2
        0x00005fbc:    4391        .C      BICS     r1,r1,r2
        0x00005fbe:    460d        .F      MOV      r5,r1
        0x00005fc0:    4604        .F      MOV      r4,r0
        0x00005fc2:    e72f        /.      B        0x5e24 ; atan2f + 40
        0x00005fc4:    22ff        ."      MOVS     r2,#0xff
        0x00005fc6:    05d2        ..      LSLS     r2,r2,#23
        0x00005fc8:    4310        .C      ORRS     r0,r0,r2
        0x00005fca:    e7f9        ..      B        0x5fc0 ; atan2f + 452
        0x00005fcc:    42b3        .B      CMP      r3,r6
        0x00005fce:    d008        ..      BEQ      0x5fe2 ; atan2f + 486
        0x00005fd0:    0046        F.      LSLS     r6,r0,#1
        0x00005fd2:    d006        ..      BEQ      0x5fe2 ; atan2f + 486
        0x00005fd4:    4053        S@      EORS     r3,r3,r2
        0x00005fd6:    d4f4        ..      BMI      0x5fc2 ; atan2f + 454
        0x00005fd8:    2a00        .*      CMP      r2,#0
        0x00005fda:    db08        ..      BLT      0x5fee ; atan2f + 498
        0x00005fdc:    269f        .&      MOVS     r6,#0x9f
        0x00005fde:    05f6        ..      LSLS     r6,r6,#23
        0x00005fe0:    e007        ..      B        0x5ff2 ; atan2f + 502
        0x00005fe2:    22ff        ."      MOVS     r2,#0xff
        0x00005fe4:    05d2        ..      LSLS     r2,r2,#23
        0x00005fe6:    4311        .C      ORRS     r1,r1,r2
        0x00005fe8:    0fe0        ..      LSRS     r0,r4,#31
        0x00005fea:    07c0        ..      LSLS     r0,r0,#31
        0x00005fec:    e71a        ..      B        0x5e24 ; atan2f + 40
        0x00005fee:    265f        _&      MOVS     r6,#0x5f
        0x00005ff0:    05f6        ..      LSLS     r6,r6,#23
        0x00005ff2:    4631        1F      MOV      r1,r6
        0x00005ff4:    4628        (F      MOV      r0,r5
        0x00005ff6:    f7fef900    ....    BL       __aeabi_fmul ; 0x41fa
        0x00005ffa:    4605        .F      MOV      r5,r0
        0x00005ffc:    4631        1F      MOV      r1,r6
        0x00005ffe:    4620         F      MOV      r0,r4
        0x00006000:    f7fef8fb    ....    BL       __aeabi_fmul ; 0x41fa
        0x00006004:    4604        .F      MOV      r4,r0
        0x00006006:    4629        )F      MOV      r1,r5
        0x00006008:    e70c        ..      B        0x5e24 ; atan2f + 40
    $d
        0x0000600a:    0000        ..      DCW    0
        0x0000600c:    bfc90fdb    ....    DCD    3217625051
        0x00006010:    3fc90fdb    ...?    DCD    1070141403
        0x00006014:    c0490fdb    ..I.    DCD    3226013659
        0x00006018:    40490fdb    ..I@    DCD    1078530011
        0x0000601c:    bfc90000    ....    DCD    3217620992
        0x00006020:    b9fdaa22    "...    DCD    3120409122
        0x00006024:    3fc90000    ...?    DCD    1070137344
        0x00006028:    39fdaa22    "..9    DCD    972925474
        0x0000602c:    c0490000    ..I.    DCD    3226009600
        0x00006030:    ba7daa22    ".}.    DCD    3128797730
        0x00006034:    40490000    ..I@    DCD    1078525952
        0x00006038:    3a7daa22    ".}:    DCD    981314082
        0x0000603c:    3eed6000    .`.>    DCD    1055744000
        0x00006040:    37ce0ac3    ...7    DCD    936250051
        0x00006044:    bd65ad2d    -.e.    DCD    3177557293
        0x00006048:    3dd5b88f    ...=    DCD    1037416591
        0x0000604c:    be11b50f    ....    DCD    3188831503
        0x00006050:    3e4cc861    a.L>    DCD    1045219425
        0x00006054:    beaaaaa8    ....    DCD    3198855848
    $t
    i.cos
    cos
        0x00006058:    b500        ..      PUSH     {lr}
        0x0000605a:    004a        J.      LSLS     r2,r1,#1
        0x0000605c:    4b22        "K      LDR      r3,[pc,#136] ; [0x60e8] = 0x3fe921fb
        0x0000605e:    0852        R.      LSRS     r2,r2,#1
        0x00006060:    b087        ..      SUB      sp,sp,#0x1c
        0x00006062:    429a        .B      CMP      r2,r3
        0x00006064:    dc02        ..      BGT      0x606c ; cos + 20
        0x00006066:    2200        ."      MOVS     r2,#0
        0x00006068:    4613        .F      MOV      r3,r2
        0x0000606a:    e025        %.      B        0x60b8 ; cos + 96
        0x0000606c:    4b1f        .K      LDR      r3,[pc,#124] ; [0x60ec] = 0x7ff00000
        0x0000606e:    429a        .B      CMP      r2,r3
        0x00006070:    d108        ..      BNE      0x6084 ; cos + 44
        0x00006072:    2800        .(      CMP      r0,#0
        0x00006074:    d108        ..      BNE      0x6088 ; cos + 48
        0x00006076:    2001        .       MOVS     r0,#1
        0x00006078:    f7fff9e6    ....    BL       __set_errno ; 0x5448
        0x0000607c:    f7fff8eb    ....    BL       __mathlib_dbl_invalid ; 0x5256
        0x00006080:    b007        ..      ADD      sp,sp,#0x1c
        0x00006082:    bd00        ..      POP      {pc}
        0x00006084:    429a        .B      CMP      r2,r3
        0x00006086:    db03        ..      BLT      0x6090 ; cos + 56
        0x00006088:    f7fff8e0    ....    BL       __mathlib_dbl_infnan ; 0x524c
        0x0000608c:    b007        ..      ADD      sp,sp,#0x1c
        0x0000608e:    bd00        ..      POP      {pc}
        0x00006090:    aa02        ..      ADD      r2,sp,#8
        0x00006092:    f7fefdc7    ....    BL       __ieee754_rem_pio2 ; 0x4c24
        0x00006096:    0781        ..      LSLS     r1,r0,#30
        0x00006098:    0f89        ..      LSRS     r1,r1,#30
        0x0000609a:    d00b        ..      BEQ      0x60b4 ; cos + 92
        0x0000609c:    2001        .       MOVS     r0,#1
        0x0000609e:    2901        .)      CMP      r1,#1
        0x000060a0:    d00e        ..      BEQ      0x60c0 ; cos + 104
        0x000060a2:    2902        .)      CMP      r1,#2
        0x000060a4:    d016        ..      BEQ      0x60d4 ; cos + 124
        0x000060a6:    9000        ..      STR      r0,[sp,#0]
        0x000060a8:    a802        ..      ADD      r0,sp,#8
        0x000060aa:    c80f        ..      LDM      r0,{r0-r3}
        0x000060ac:    f7fff858    ..X.    BL       __kernel_sin ; 0x5160
        0x000060b0:    b007        ..      ADD      sp,sp,#0x1c
        0x000060b2:    bd00        ..      POP      {pc}
        0x000060b4:    a802        ..      ADD      r0,sp,#8
        0x000060b6:    c80f        ..      LDM      r0,{r0-r3}
        0x000060b8:    f7feff82    ....    BL       __kernel_cos ; 0x4fc0
        0x000060bc:    b007        ..      ADD      sp,sp,#0x1c
        0x000060be:    bd00        ..      POP      {pc}
        0x000060c0:    9000        ..      STR      r0,[sp,#0]
        0x000060c2:    a802        ..      ADD      r0,sp,#8
        0x000060c4:    c80f        ..      LDM      r0,{r0-r3}
        0x000060c6:    f7fff84b    ..K.    BL       __kernel_sin ; 0x5160
        0x000060ca:    2201        ."      MOVS     r2,#1
        0x000060cc:    07d2        ..      LSLS     r2,r2,#31
        0x000060ce:    4051        Q@      EORS     r1,r1,r2
        0x000060d0:    b007        ..      ADD      sp,sp,#0x1c
        0x000060d2:    bd00        ..      POP      {pc}
        0x000060d4:    a802        ..      ADD      r0,sp,#8
        0x000060d6:    c80f        ..      LDM      r0,{r0-r3}
        0x000060d8:    f7feff72    ..r.    BL       __kernel_cos ; 0x4fc0
        0x000060dc:    2201        ."      MOVS     r2,#1
        0x000060de:    07d2        ..      LSLS     r2,r2,#31
        0x000060e0:    4051        Q@      EORS     r1,r1,r2
        0x000060e2:    b007        ..      ADD      sp,sp,#0x1c
        0x000060e4:    bd00        ..      POP      {pc}
    $d
        0x000060e6:    0000        ..      DCW    0
        0x000060e8:    3fe921fb    .!.?    DCD    1072243195
        0x000060ec:    7ff00000    ....    DCD    2146435072
    $t
    i.cosf
    cosf
        0x000060f0:    b5f0        ..      PUSH     {r4-r7,lr}
        0x000060f2:    4602        .F      MOV      r2,r0
        0x000060f4:    4604        .F      MOV      r4,r0
        0x000060f6:    4b4e        NK      LDR      r3,[pc,#312] ; [0x6230] = 0x7e921fb6
        0x000060f8:    b083        ..      SUB      sp,sp,#0xc
        0x000060fa:    0040        @.      LSLS     r0,r0,#1
        0x000060fc:    4669        iF      MOV      r1,sp
        0x000060fe:    4298        .B      CMP      r0,r3
        0x00006100:    d209        ..      BCS      0x6116 ; cosf + 38
        0x00006102:    2173        s!      MOVS     r1,#0x73
        0x00006104:    0609        ..      LSLS     r1,r1,#24
        0x00006106:    4288        .B      CMP      r0,r1
        0x00006108:    d202        ..      BCS      0x6110 ; cosf + 32
        0x0000610a:    2000        .       MOVS     r0,#0
        0x0000610c:    43c0        .C      MVNS     r0,r0
        0x0000610e:    e000        ..      B        0x6112 ; cosf + 34
        0x00006110:    2000        .       MOVS     r0,#0
        0x00006112:    9000        ..      STR      r0,[sp,#0]
        0x00006114:    e030        0.      B        0x6178 ; cosf + 136
        0x00006116:    0050        P.      LSLS     r0,r2,#1
        0x00006118:    4b46        FK      LDR      r3,[pc,#280] ; [0x6234] = 0x46490e49
        0x0000611a:    0840        @.      LSRS     r0,r0,#1
        0x0000611c:    4298        .B      CMP      r0,r3
        0x0000611e:    d26c        l.      BCS      0x61fa ; cosf + 266
        0x00006120:    4945        EI      LDR      r1,[pc,#276] ; [0x6238] = 0x3f22f983
        0x00006122:    4610        .F      MOV      r0,r2
        0x00006124:    f7fef869    ..i.    BL       __aeabi_fmul ; 0x41fa
        0x00006128:    f7fefbc0    ....    BL       _frnd ; 0x48ac
        0x0000612c:    4607        .F      MOV      r7,r0
        0x0000612e:    f7fefaa3    ....    BL       __aeabi_f2iz ; 0x4678
        0x00006132:    0780        ..      LSLS     r0,r0,#30
        0x00006134:    0f80        ..      LSRS     r0,r0,#30
        0x00006136:    9000        ..      STR      r0,[sp,#0]
        0x00006138:    4940        @I      LDR      r1,[pc,#256] ; [0x623c] = 0x2c34611a
        0x0000613a:    4638        8F      MOV      r0,r7
        0x0000613c:    f7fef85d    ..].    BL       __aeabi_fmul ; 0x41fa
        0x00006140:    9001        ..      STR      r0,[sp,#4]
        0x00006142:    493f        ?I      LDR      r1,[pc,#252] ; [0x6240] = 0x33a22000
        0x00006144:    4638        8F      MOV      r0,r7
        0x00006146:    f7fef858    ..X.    BL       __aeabi_fmul ; 0x41fa
        0x0000614a:    4606        .F      MOV      r6,r0
        0x0000614c:    493d        =I      LDR      r1,[pc,#244] ; [0x6244] = 0x39fda000
        0x0000614e:    4638        8F      MOV      r0,r7
        0x00006150:    f7fef853    ..S.    BL       __aeabi_fmul ; 0x41fa
        0x00006154:    4605        .F      MOV      r5,r0
        0x00006156:    493c        <I      LDR      r1,[pc,#240] ; [0x6248] = 0x3fc90000
        0x00006158:    4638        8F      MOV      r0,r7
        0x0000615a:    f7fef84e    ..N.    BL       __aeabi_fmul ; 0x41fa
        0x0000615e:    4621        !F      MOV      r1,r4
        0x00006160:    f7fef847    ..G.    BL       __aeabi_frsub ; 0x41f2
        0x00006164:    4629        )F      MOV      r1,r5
        0x00006166:    f7fef840    ..@.    BL       __aeabi_fsub ; 0x41ea
        0x0000616a:    4631        1F      MOV      r1,r6
        0x0000616c:    f7fef83d    ..=.    BL       __aeabi_fsub ; 0x41ea
        0x00006170:    9901        ..      LDR      r1,[sp,#4]
        0x00006172:    f7fef83a    ..:.    BL       __aeabi_fsub ; 0x41ea
        0x00006176:    4604        .F      MOV      r4,r0
        0x00006178:    4625        %F      MOV      r5,r4
        0x0000617a:    277f        .'      MOVS     r7,#0x7f
        0x0000617c:    9c00        ..      LDR      r4,[sp,#0]
        0x0000617e:    05ff        ..      LSLS     r7,r7,#23
        0x00006180:    2c00        .,      CMP      r4,#0
        0x00006182:    db3e        >.      BLT      0x6202 ; cosf + 274
        0x00006184:    07e0        ..      LSLS     r0,r4,#31
        0x00006186:    4e31        1N      LDR      r6,[pc,#196] ; [0x624c] = 0x80000000
        0x00006188:    4629        )F      MOV      r1,r5
        0x0000618a:    4608        .F      MOV      r0,r1
        0x0000618c:    d01b        ..      BEQ      0x61c6 ; cosf + 214
        0x0000618e:    f7fef834    ..4.    BL       __aeabi_fmul ; 0x41fa
        0x00006192:    4607        .F      MOV      r7,r0
        0x00006194:    492e        .I      LDR      r1,[pc,#184] ; [0x6250] = 0x394c6d33
        0x00006196:    f7fef830    ..0.    BL       __aeabi_fmul ; 0x41fa
        0x0000619a:    492e        .I      LDR      r1,[pc,#184] ; [0x6254] = 0x3c0882da
        0x0000619c:    f7fef829    ..).    BL       __aeabi_frsub ; 0x41f2
        0x000061a0:    4639        9F      MOV      r1,r7
        0x000061a2:    f7fef82a    ..*.    BL       __aeabi_fmul ; 0x41fa
        0x000061a6:    492c        ,I      LDR      r1,[pc,#176] ; [0x6258] = 0xbe2aaaa0
        0x000061a8:    f7fdffce    ....    BL       __aeabi_fadd ; 0x4148
        0x000061ac:    4639        9F      MOV      r1,r7
        0x000061ae:    f7fef824    ..$.    BL       __aeabi_fmul ; 0x41fa
        0x000061b2:    4629        )F      MOV      r1,r5
        0x000061b4:    f7fef821    ..!.    BL       __aeabi_fmul ; 0x41fa
        0x000061b8:    4629        )F      MOV      r1,r5
        0x000061ba:    f7fdffc5    ....    BL       __aeabi_fadd ; 0x4148
        0x000061be:    07a1        ..      LSLS     r1,r4,#30
        0x000061c0:    d518        ..      BPL      0x61f4 ; cosf + 260
        0x000061c2:    b003        ..      ADD      sp,sp,#0xc
        0x000061c4:    bdf0        ..      POP      {r4-r7,pc}
        0x000061c6:    f7fef818    ....    BL       __aeabi_fmul ; 0x41fa
        0x000061ca:    4605        .F      MOV      r5,r0
        0x000061cc:    4923        #I      LDR      r1,[pc,#140] ; [0x625c] = 0xbab23ab9
        0x000061ce:    f7fef814    ....    BL       __aeabi_fmul ; 0x41fa
        0x000061d2:    4923        #I      LDR      r1,[pc,#140] ; [0x6260] = 0x3d2a9fca
        0x000061d4:    f7fdffb8    ....    BL       __aeabi_fadd ; 0x4148
        0x000061d8:    4629        )F      MOV      r1,r5
        0x000061da:    f7fef80e    ....    BL       __aeabi_fmul ; 0x41fa
        0x000061de:    4921        !I      LDR      r1,[pc,#132] ; [0x6264] = 0xbeffffdd
        0x000061e0:    f7fdffb2    ....    BL       __aeabi_fadd ; 0x4148
        0x000061e4:    4629        )F      MOV      r1,r5
        0x000061e6:    f7fef808    ....    BL       __aeabi_fmul ; 0x41fa
        0x000061ea:    4639        9F      MOV      r1,r7
        0x000061ec:    f7fdffac    ....    BL       __aeabi_fadd ; 0x4148
        0x000061f0:    07a1        ..      LSLS     r1,r4,#30
        0x000061f2:    d5e6        ..      BPL      0x61c2 ; cosf + 210
        0x000061f4:    4070        p@      EORS     r0,r0,r6
        0x000061f6:    b003        ..      ADD      sp,sp,#0xc
        0x000061f8:    bdf0        ..      POP      {r4-r7,pc}
        0x000061fa:    4610        .F      MOV      r0,r2
        0x000061fc:    f7fff854    ..T.    BL       __mathlib_rredf2 ; 0x52a8
        0x00006200:    e7b9        ..      B        0x6176 ; cosf + 134
        0x00006202:    21ff        .!      MOVS     r1,#0xff
        0x00006204:    0068        h.      LSLS     r0,r5,#1
        0x00006206:    0609        ..      LSLS     r1,r1,#24
        0x00006208:    4288        .B      CMP      r0,r1
        0x0000620a:    d202        ..      BCS      0x6212 ; cosf + 290
        0x0000620c:    4638        8F      MOV      r0,r7
        0x0000620e:    b003        ..      ADD      sp,sp,#0xc
        0x00006210:    bdf0        ..      POP      {r4-r7,pc}
        0x00006212:    4288        .B      CMP      r0,r1
        0x00006214:    d106        ..      BNE      0x6224 ; cosf + 308
        0x00006216:    2001        .       MOVS     r0,#1
        0x00006218:    f7fff916    ....    BL       __set_errno ; 0x5448
        0x0000621c:    f7fff837    ..7.    BL       __mathlib_flt_invalid ; 0x528e
        0x00006220:    b003        ..      ADD      sp,sp,#0xc
        0x00006222:    bdf0        ..      POP      {r4-r7,pc}
        0x00006224:    4628        (F      MOV      r0,r5
        0x00006226:    f7fff829    ..).    BL       __mathlib_flt_infnan ; 0x527c
        0x0000622a:    b003        ..      ADD      sp,sp,#0xc
        0x0000622c:    bdf0        ..      POP      {r4-r7,pc}
    $d
        0x0000622e:    0000        ..      DCW    0
        0x00006230:    7e921fb6    ...~    DCD    2123505590
        0x00006234:    46490e49    I.IF    DCD    1179192905
        0x00006238:    3f22f983    .."?    DCD    1059256707
        0x0000623c:    2c34611a    .a4,    DCD    741630234
        0x00006240:    33a22000    . .3    DCD    866263040
        0x00006244:    39fda000    ...9    DCD    972922880
        0x00006248:    3fc90000    ...?    DCD    1070137344
        0x0000624c:    80000000    ....    DCD    2147483648
        0x00006250:    394c6d33    3mL9    DCD    961310003
        0x00006254:    3c0882da    ...<    DCD    1007190746
        0x00006258:    be2aaaa0    ..*.    DCD    3190467232
        0x0000625c:    bab23ab9    .:..    DCD    3132242617
        0x00006260:    3d2a9fca    ..*=    DCD    1026203594
        0x00006264:    beffffdd    ....    DCD    3204448221
    $t
    i.sqrtf
    sqrtf
        0x00006268:    b570        p.      PUSH     {r4-r6,lr}
        0x0000626a:    4605        .F      MOV      r5,r0
        0x0000626c:    f7fefbdf    ....    BL       _fsqrt ; 0x4a2e
        0x00006270:    0041        A.      LSLS     r1,r0,#1
        0x00006272:    4604        .F      MOV      r4,r0
        0x00006274:    20ff        .       MOVS     r0,#0xff
        0x00006276:    0849        I.      LSRS     r1,r1,#1
        0x00006278:    05c0        ..      LSLS     r0,r0,#23
        0x0000627a:    1a41        A.      SUBS     r1,r0,r1
        0x0000627c:    0fc9        ..      LSRS     r1,r1,#31
        0x0000627e:    d007        ..      BEQ      0x6290 ; sqrtf + 40
        0x00006280:    0069        i.      LSLS     r1,r5,#1
        0x00006282:    0849        I.      LSRS     r1,r1,#1
        0x00006284:    1a40        @.      SUBS     r0,r0,r1
        0x00006286:    0fc0        ..      LSRS     r0,r0,#31
        0x00006288:    d102        ..      BNE      0x6290 ; sqrtf + 40
        0x0000628a:    2001        .       MOVS     r0,#1
        0x0000628c:    f7fff8dc    ....    BL       __set_errno ; 0x5448
        0x00006290:    4620         F      MOV      r0,r4
        0x00006292:    bd70        p.      POP      {r4-r6,pc}
    i.tanf
    tanf
        0x00006294:    b5f0        ..      PUSH     {r4-r7,lr}
        0x00006296:    4602        .F      MOV      r2,r0
        0x00006298:    4604        .F      MOV      r4,r0
        0x0000629a:    4b4c        LK      LDR      r3,[pc,#304] ; [0x63cc] = 0x7e921fb6
        0x0000629c:    b083        ..      SUB      sp,sp,#0xc
        0x0000629e:    0040        @.      LSLS     r0,r0,#1
        0x000062a0:    4669        iF      MOV      r1,sp
        0x000062a2:    4298        .B      CMP      r0,r3
        0x000062a4:    d209        ..      BCS      0x62ba ; tanf + 38
        0x000062a6:    2173        s!      MOVS     r1,#0x73
        0x000062a8:    0609        ..      LSLS     r1,r1,#24
        0x000062aa:    4288        .B      CMP      r0,r1
        0x000062ac:    d202        ..      BCS      0x62b4 ; tanf + 32
        0x000062ae:    2000        .       MOVS     r0,#0
        0x000062b0:    43c0        .C      MVNS     r0,r0
        0x000062b2:    e000        ..      B        0x62b6 ; tanf + 34
        0x000062b4:    2000        .       MOVS     r0,#0
        0x000062b6:    9000        ..      STR      r0,[sp,#0]
        0x000062b8:    e030        0.      B        0x631c ; tanf + 136
        0x000062ba:    0050        P.      LSLS     r0,r2,#1
        0x000062bc:    4b44        DK      LDR      r3,[pc,#272] ; [0x63d0] = 0x46490e49
        0x000062be:    0840        @.      LSRS     r0,r0,#1
        0x000062c0:    4298        .B      CMP      r0,r3
        0x000062c2:    d262        b.      BCS      0x638a ; tanf + 246
        0x000062c4:    4943        CI      LDR      r1,[pc,#268] ; [0x63d4] = 0x3f22f983
        0x000062c6:    4610        .F      MOV      r0,r2
        0x000062c8:    f7fdff97    ....    BL       __aeabi_fmul ; 0x41fa
        0x000062cc:    f7fefaee    ....    BL       _frnd ; 0x48ac
        0x000062d0:    4607        .F      MOV      r7,r0
        0x000062d2:    f7fef9d1    ....    BL       __aeabi_f2iz ; 0x4678
        0x000062d6:    0780        ..      LSLS     r0,r0,#30
        0x000062d8:    0f80        ..      LSRS     r0,r0,#30
        0x000062da:    9000        ..      STR      r0,[sp,#0]
        0x000062dc:    493e        >I      LDR      r1,[pc,#248] ; [0x63d8] = 0x2c34611a
        0x000062de:    4638        8F      MOV      r0,r7
        0x000062e0:    f7fdff8b    ....    BL       __aeabi_fmul ; 0x41fa
        0x000062e4:    9001        ..      STR      r0,[sp,#4]
        0x000062e6:    493d        =I      LDR      r1,[pc,#244] ; [0x63dc] = 0x33a22000
        0x000062e8:    4638        8F      MOV      r0,r7
        0x000062ea:    f7fdff86    ....    BL       __aeabi_fmul ; 0x41fa
        0x000062ee:    4606        .F      MOV      r6,r0
        0x000062f0:    493b        ;I      LDR      r1,[pc,#236] ; [0x63e0] = 0x39fda000
        0x000062f2:    4638        8F      MOV      r0,r7
        0x000062f4:    f7fdff81    ....    BL       __aeabi_fmul ; 0x41fa
        0x000062f8:    4605        .F      MOV      r5,r0
        0x000062fa:    493a        :I      LDR      r1,[pc,#232] ; [0x63e4] = 0x3fc90000
        0x000062fc:    4638        8F      MOV      r0,r7
        0x000062fe:    f7fdff7c    ..|.    BL       __aeabi_fmul ; 0x41fa
        0x00006302:    4621        !F      MOV      r1,r4
        0x00006304:    f7fdff75    ..u.    BL       __aeabi_frsub ; 0x41f2
        0x00006308:    4629        )F      MOV      r1,r5
        0x0000630a:    f7fdff6e    ..n.    BL       __aeabi_fsub ; 0x41ea
        0x0000630e:    4631        1F      MOV      r1,r6
        0x00006310:    f7fdff6b    ..k.    BL       __aeabi_fsub ; 0x41ea
        0x00006314:    9901        ..      LDR      r1,[sp,#4]
        0x00006316:    f7fdff68    ..h.    BL       __aeabi_fsub ; 0x41ea
        0x0000631a:    4604        .F      MOV      r4,r0
        0x0000631c:    9d00        ..      LDR      r5,[sp,#0]
        0x0000631e:    2d00        .-      CMP      r5,#0
        0x00006320:    db37        7.      BLT      0x6392 ; tanf + 254
        0x00006322:    4621        !F      MOV      r1,r4
        0x00006324:    4608        .F      MOV      r0,r1
        0x00006326:    f7fdff68    ..h.    BL       __aeabi_fmul ; 0x41fa
        0x0000632a:    4606        .F      MOV      r6,r0
        0x0000632c:    492e        .I      LDR      r1,[pc,#184] ; [0x63e8] = 0x3c22e9bb
        0x0000632e:    f7fdff64    ..d.    BL       __aeabi_fmul ; 0x41fa
        0x00006332:    492e        .I      LDR      r1,[pc,#184] ; [0x63ec] = 0x3b066d0c
        0x00006334:    f7fdff08    ....    BL       __aeabi_fadd ; 0x4148
        0x00006338:    4631        1F      MOV      r1,r6
        0x0000633a:    f7fdff5e    ..^.    BL       __aeabi_fmul ; 0x41fa
        0x0000633e:    492c        ,I      LDR      r1,[pc,#176] ; [0x63f0] = 0x3cce768a
        0x00006340:    f7fdff02    ....    BL       __aeabi_fadd ; 0x4148
        0x00006344:    4631        1F      MOV      r1,r6
        0x00006346:    f7fdff58    ..X.    BL       __aeabi_fmul ; 0x41fa
        0x0000634a:    492a        *I      LDR      r1,[pc,#168] ; [0x63f4] = 0x3d59b5ac
        0x0000634c:    f7fdfefc    ....    BL       __aeabi_fadd ; 0x4148
        0x00006350:    4631        1F      MOV      r1,r6
        0x00006352:    f7fdff52    ..R.    BL       __aeabi_fmul ; 0x41fa
        0x00006356:    4928        (I      LDR      r1,[pc,#160] ; [0x63f8] = 0x3e08a135
        0x00006358:    f7fdfef6    ....    BL       __aeabi_fadd ; 0x4148
        0x0000635c:    4631        1F      MOV      r1,r6
        0x0000635e:    f7fdff4c    ..L.    BL       __aeabi_fmul ; 0x41fa
        0x00006362:    4926        &I      LDR      r1,[pc,#152] ; [0x63fc] = 0x3eaaaa29
        0x00006364:    f7fdfef0    ....    BL       __aeabi_fadd ; 0x4148
        0x00006368:    4631        1F      MOV      r1,r6
        0x0000636a:    f7fdff46    ..F.    BL       __aeabi_fmul ; 0x41fa
        0x0000636e:    4621        !F      MOV      r1,r4
        0x00006370:    f7fdff43    ..C.    BL       __aeabi_fmul ; 0x41fa
        0x00006374:    4621        !F      MOV      r1,r4
        0x00006376:    f7fdfee7    ....    BL       __aeabi_fadd ; 0x4148
        0x0000637a:    07e9        ..      LSLS     r1,r5,#31
        0x0000637c:    d003        ..      BEQ      0x6386 ; tanf + 242
        0x0000637e:    4601        .F      MOV      r1,r0
        0x00006380:    481f        .H      LDR      r0,[pc,#124] ; [0x6400] = 0xbf800000
        0x00006382:    f7fdff77    ..w.    BL       __aeabi_fdiv ; 0x4274
        0x00006386:    b003        ..      ADD      sp,sp,#0xc
        0x00006388:    bdf0        ..      POP      {r4-r7,pc}
        0x0000638a:    4610        .F      MOV      r0,r2
        0x0000638c:    f7feff8c    ....    BL       __mathlib_rredf2 ; 0x52a8
        0x00006390:    e7c3        ..      B        0x631a ; tanf + 134
        0x00006392:    21ff        .!      MOVS     r1,#0xff
        0x00006394:    0060        `.      LSLS     r0,r4,#1
        0x00006396:    0609        ..      LSLS     r1,r1,#24
        0x00006398:    4288        .B      CMP      r0,r1
        0x0000639a:    d209        ..      BCS      0x63b0 ; tanf + 284
        0x0000639c:    4620         F      MOV      r0,r4
        0x0000639e:    f7fefc2f    ../.    BL       __ARM_fpclassifyf ; 0x4c00
        0x000063a2:    2804        .(      CMP      r0,#4
        0x000063a4:    d101        ..      BNE      0x63aa ; tanf + 278
        0x000063a6:    f7feff78    ..x.    BL       __mathlib_flt_underflow ; 0x529a
        0x000063aa:    4620         F      MOV      r0,r4
        0x000063ac:    b003        ..      ADD      sp,sp,#0xc
        0x000063ae:    bdf0        ..      POP      {r4-r7,pc}
        0x000063b0:    4288        .B      CMP      r0,r1
        0x000063b2:    d106        ..      BNE      0x63c2 ; tanf + 302
        0x000063b4:    2001        .       MOVS     r0,#1
        0x000063b6:    f7fff847    ..G.    BL       __set_errno ; 0x5448
        0x000063ba:    f7feff68    ..h.    BL       __mathlib_flt_invalid ; 0x528e
        0x000063be:    b003        ..      ADD      sp,sp,#0xc
        0x000063c0:    bdf0        ..      POP      {r4-r7,pc}
        0x000063c2:    4620         F      MOV      r0,r4
        0x000063c4:    f7feff5a    ..Z.    BL       __mathlib_flt_infnan ; 0x527c
        0x000063c8:    b003        ..      ADD      sp,sp,#0xc
        0x000063ca:    bdf0        ..      POP      {r4-r7,pc}
    $d
        0x000063cc:    7e921fb6    ...~    DCD    2123505590
        0x000063d0:    46490e49    I.IF    DCD    1179192905
        0x000063d4:    3f22f983    .."?    DCD    1059256707
        0x000063d8:    2c34611a    .a4,    DCD    741630234
        0x000063dc:    33a22000    . .3    DCD    866263040
        0x000063e0:    39fda000    ...9    DCD    972922880
        0x000063e4:    3fc90000    ...?    DCD    1070137344
        0x000063e8:    3c22e9bb    .."<    DCD    1008921019
        0x000063ec:    3b066d0c    .m.;    DCD    990276876
        0x000063f0:    3cce768a    .v.<    DCD    1020163722
        0x000063f4:    3d59b5ac    ..Y=    DCD    1029289388
        0x000063f8:    3e08a135    5..>    DCD    1040752949
        0x000063fc:    3eaaaa29    )..>    DCD    1051372073
        0x00006400:    bf800000    ....    DCD    3212836864
    $d.realdata
    .constdata
        0x00006404:    80018001    ....    DCD    2147581953
        0x00006408:    00008001    ....    DCD    32769
        0x0000640c:    80018001    ....    DCD    2147581953
        0x00006410:    00008001    ....    DCD    32769
        0x00006414:    80018001    ....    DCD    2147581953
        0x00006418:    00008001    ....    DCD    32769
        0x0000641c:    80018001    ....    DCD    2147581953
        0x00006420:    00008001    ....    DCD    32769
        0x00006424:    7fff7fff    ....    DCD    2147450879
        0x00006428:    00007fff    ....    DCD    32767
        0x0000642c:    7fff7fff    ....    DCD    2147450879
        0x00006430:    00007fff    ....    DCD    32767
        0x00006434:    7fff7fff    ....    DCD    2147450879
        0x00006438:    00007fff    ....    DCD    32767
        0x0000643c:    7fff7fff    ....    DCD    2147450879
        0x00006440:    7fff        ..      DCW    32767
    .constdata
    TX_ADDRESS_DEF
        0x00006442:    cccc        ..      DCW    52428
        0x00006444:    00cccccc    ....    DCD    13421772
    .constdata
    C
        0x00006448:    5555554c    LUUU    DCD    1431655756
        0x0000644c:    3fa55555    UU.?    DCD    1067799893
        0x00006450:    16c15177    wQ..    DCD    381768055
        0x00006454:    bf56c16c    l.V.    DCD    3210133868
        0x00006458:    19cb1590    ....    DCD    432739728
        0x0000645c:    3efa01a0    ...>    DCD    1056571808
        0x00006460:    809c52ad    .R..    DCD    2157728429
        0x00006464:    be927e4f    O~..    DCD    3197271631
        0x00006468:    bdb4b1c4    ....    DCD    3182735812
        0x0000646c:    3e21ee9e    ..!>    DCD    1042411166
        0x00006470:    be8838d4    .8..    DCD    3196598484
        0x00006474:    bda8fae9    ....    DCD    3181968105
    .constdata
    pio2s
        0x00006478:    54400000    ..@T    DCD    1413480448
        0x0000647c:    3ff921fb    .!.?    DCD    1073291771
        0x00006480:    1a626331    1cb.    DCD    442655537
        0x00006484:    3dd0b461    a..=    DCD    1037087841
        0x00006488:    1a600000    ..`.    DCD    442499072
        0x0000648c:    3dd0b461    a..=    DCD    1037087841
        0x00006490:    2e037073    sp..    DCD    771977331
        0x00006494:    3ba3198a    ...;    DCD    1000544650
        0x00006498:    2e000000    ....    DCD    771751936
        0x0000649c:    3ba3198a    ...;    DCD    1000544650
        0x000064a0:    252049c1    .I %    DCD    622873025
        0x000064a4:    397b839a    ..{9    DCD    964395930
    twooverpi
        0x000064a8:    00000000    ....    DCD    0
        0x000064ac:    00000000    ....    DCD    0
        0x000064b0:    a2f9836e    n...    DCD    2734261102
        0x000064b4:    4e441529    ).DN    DCD    1313084713
        0x000064b8:    fc2757d1    .W'.    DCD    4230436817
        0x000064bc:    f534ddc0    ..4.    DCD    4113882560
        0x000064c0:    db629599    ..b.    DCD    3680671129
        0x000064c4:    3c439041    A.C<    DCD    1011060801
        0x000064c8:    fe5163ab    .cQ.    DCD    4266746795
        0x000064cc:    debbc561    a...    DCD    3736847713
        0x000064d0:    b7246e3a    :n$.    DCD    3072618042
        0x000064d4:    424dd2e0    ..MB    DCD    1112396512
        0x000064d8:    06492eea    ..I.    DCD    105459434
        0x000064dc:    09d1921c    ....    DCD    164729372
        0x000064e0:    fe1deb1c    ....    DCD    4263373596
        0x000064e4:    b129a73e    >.).    DCD    2972297022
        0x000064e8:    e88235f5    .5..    DCD    3900847605
        0x000064ec:    2ebb4484    .D..    DCD    784024708
        0x000064f0:    e99c7026    &p..    DCD    3919343654
        0x000064f4:    b45f7e41    A~_.    DCD    3026157121
        0x000064f8:    3991d639    9..9    DCD    965858873
        0x000064fc:    835339f4    .9S.    DCD    2203269620
        0x00006500:    9c845f8b    ._..    DCD    2625920907
        0x00006504:    bdf9283b    ;(..    DCD    3187222587
        0x00006508:    1ff897ff    ....    DCD    536385535
        0x0000650c:    de05980f    ....    DCD    3724908559
        0x00006510:    ef2f118b    ../.    DCD    4012839307
        0x00006514:    5a0a6d1f    .m.Z    DCD    1510632735
        0x00006518:    6d367ecf    .~6m    DCD    1832287951
        0x0000651c:    27cb09b7    ...'    DCD    667617719
        0x00006520:    4f463f66    f?FO    DCD    1330003814
        0x00006524:    9e5fea2d    -._.    DCD    2657085997
        0x00006528:    7527bac7    ..'u    DCD    1965537991
        0x0000652c:    ebe5f17b    {...    DCD    3957715323
        0x00006530:    3d0739f7    .9.=    DCD    1023883767
        0x00006534:    8a5292ea    ..R.    DCD    2320667370
        0x00006538:    6bfb5fb1    ._.k    DCD    1811636145
        0x0000653c:    1f8d5d08    .]..    DCD    529358088
    .constdata
    twooverpi
        0x00006540:    00000000    ....    DCD    0
        0x00006544:    a2f9836e    n...    DCD    2734261102
        0x00006548:    4e441529    ).DN    DCD    1313084713
        0x0000654c:    fc2757d1    .W'.    DCD    4230436817
        0x00006550:    f534ddc0    ..4.    DCD    4113882560
        0x00006554:    db629599    ..b.    DCD    3680671129
        0x00006558:    3c439041    A.C<    DCD    1011060801
        0x0000655c:    fe5163ab    .cQ.    DCD    4266746795
    .constdata
    S
        0x00006560:    1110f8a6    ....    DCD    286324902
        0x00006564:    3f811111    ...?    DCD    1065423121
        0x00006568:    19c161d5    .a..    DCD    432103893
        0x0000656c:    bf2a01a0    ..*.    DCD    3207201184
        0x00006570:    57b1fe7d    }..W    DCD    1471282813
        0x00006574:    3ec71de3    ...>    DCD    1053236707
        0x00006578:    8a2b9ceb    ..+.    DCD    2318114027
        0x0000657c:    be5ae5e6    ..Z.    DCD    3193628134
        0x00006580:    5acfd57c    |..Z    DCD    1523570044
        0x00006584:    3de5d93a    :..=    DCD    1038473530
    .conststring
        0x00006588:    69726570    peri    DCD    1769104752
        0x0000658c:    3a30646f    od0:    DCD    976249967
        0x00006590:    202c6425    %d,     DCD    539780133
        0x00006594:    69726570    peri    DCD    1769104752
        0x00006598:    3a31646f    od1:    DCD    976315503
        0x0000659c:    202c6425    %d,     DCD    539780133
        0x000065a0:    69726570    peri    DCD    1769104752
        0x000065a4:    3a32646f    od2:    DCD    976381039
        0x000065a8:    202c6425    %d,     DCD    539780133
        0x000065ac:    69726570    peri    DCD    1769104752
        0x000065b0:    3a33646f    od3:    DCD    976446575
        0x000065b4:    202c6425    %d,     DCD    539780133
        0x000065b8:    6f746f6d    moto    DCD    1869901677
        0x000065bc:    75645f72    r_du    DCD    1969512306
        0x000065c0:    725f7974    ty_r    DCD    1918859636
        0x000065c4:    65676e61    ange    DCD    1701277281
        0x000065c8:    0a64253a    :%d.    DCD    174335290
        0x000065cc:    00000000    ....    DCD    0
    Region$$Table$$Base
        0x000065d0:    000065f0    .e..    DCD    26096
        0x000065d4:    20000000    ...     DCD    536870912
        0x000065d8:    000000b4    ....    DCD    180
        0x000065dc:    00005428    (T..    DCD    21544
        0x000065e0:    000066a4    .f..    DCD    26276
        0x000065e4:    200000b4    ...     DCD    536871092
        0x000065e8:    000007d8    ....    DCD    2008
        0x000065ec:    00005438    8T..    DCD    21560
    Region$$Table$$Limit

** Section #2 'ER_RW' (SHT_PROGBITS) [SHF_ALLOC + SHF_WRITE]
    Size   : 180 bytes (alignment 4)
    Address: 0x20000000


** Section #3 'ER_ZI' (SHT_NOBITS) [SHF_ALLOC + SHF_WRITE]
    Size   : 2008 bytes (alignment 4)
    Address: 0x200000b4


** Section #4 '.debug_abbrev' (SHT_PROGBITS)
    Size   : 1476 bytes


** Section #5 '.debug_frame' (SHT_PROGBITS)
    Size   : 6264 bytes


** Section #6 '.debug_info' (SHT_PROGBITS)
    Size   : 53632 bytes


** Section #7 '.debug_line' (SHT_PROGBITS)
    Size   : 22356 bytes


** Section #8 '.debug_loc' (SHT_PROGBITS)
    Size   : 12088 bytes


** Section #9 '.debug_macinfo' (SHT_PROGBITS)
    Size   : 155152 bytes


** Section #10 '.debug_pubnames' (SHT_PROGBITS)
    Size   : 4953 bytes


** Section #11 '.symtab' (SHT_SYMTAB)
    Size   : 13024 bytes (alignment 4)
    String table #12 '.strtab'
    Last local symbol no. 467


** Section #12 '.strtab' (SHT_STRTAB)
    Size   : 9816 bytes


** Section #13 '.note' (SHT_NOTE)
    Size   : 28 bytes (alignment 4)


** Section #14 '.comment' (SHT_PROGBITS)
    Size   : 56408 bytes


** Section #15 '.shstrtab' (SHT_STRTAB)
    Size   : 156 bytes


