
========================================================================

** ELF Header Information

    File Name: .\output\HD_Drone.axf

    Machine class: ELFCLASS32 (32-bit)
    Data encoding: ELFDATA2LSB (Little endian)
    Header version: EV_CURRENT (Current version)
    Operating System ABI: none
    ABI Version: 0
    File Type: ET_EXEC (Executable) (2)
    Machine: EM_ARM (ARM)

    Image Entry point: 0x0000117d
    Flags: EF_ARM_HASENTRY + EF_ARM_ABI_FLOAT_SOFT (0x05000202)

    ARM ELF revision: 5 (ABI version 2)

    Conforms to Soft float procedure-call standard

    Built with
    Component: ARM Compiler 5.06 update 2 (build 183) Tool: armasm [4d35b2]
    Component: ARM Compiler 5.06 update 2 (build 183) Tool: armlink [4d35b7]

    Header size: 52 bytes (0x34)
    Program header entry size: 32 bytes (0x20)
    Section header entry size: 40 bytes (0x28)

    Program header entries: 1
    Section header entries: 16

    Program header offset: 377272 (0x0005c1b8)
    Section header offset: 377304 (0x0005c1d8)

    Section header string table index: 15

========================================================================

** Program header #0 (PT_LOAD) [PF_X + PF_W + PF_R + PF_ARM_ENTRY]
    Size : 30336 bytes (28608 bytes in file)
    Virtual address: 0x00000000 (Alignment 8)


========================================================================

** Section #1 'ER_RO' (SHT_PROGBITS) [SHF_ALLOC + SHF_EXECINSTR]
    Size   : 28320 bytes (alignment 8)
    Address: 0x00000000

    $d.realdata
    RESET
    __Vectors
        0x00000000:    20000dfc    ...     DCD    536874492
        0x00000004:    0000117d    }...    DCD    4477
        0x00000008:    00001181    ....    DCD    4481
        0x0000000c:    000000d5    ....    DCD    213
        0x00000010:    00000000    ....    DCD    0
        0x00000014:    00000000    ....    DCD    0
        0x00000018:    00000000    ....    DCD    0
        0x0000001c:    00000000    ....    DCD    0
        0x00000020:    00000000    ....    DCD    0
        0x00000024:    00000000    ....    DCD    0
        0x00000028:    00000000    ....    DCD    0
        0x0000002c:    00001185    ....    DCD    4485
        0x00000030:    00000000    ....    DCD    0
        0x00000034:    00000000    ....    DCD    0
        0x00000038:    00001187    ....    DCD    4487
        0x0000003c:    00000fa7    ....    DCD    4007
        0x00000040:    0000118b    ....    DCD    4491
        0x00000044:    0000118b    ....    DCD    4491
        0x00000048:    0000118b    ....    DCD    4491
        0x0000004c:    0000118b    ....    DCD    4491
        0x00000050:    0000118b    ....    DCD    4491
        0x00000054:    0000118b    ....    DCD    4491
        0x00000058:    0000118b    ....    DCD    4491
        0x0000005c:    0000118b    ....    DCD    4491
        0x00000060:    0000118b    ....    DCD    4491
        0x00000064:    000029d7    .)..    DCD    10711
        0x00000068:    0000118b    ....    DCD    4491
        0x0000006c:    0000118b    ....    DCD    4491
        0x00000070:    0000118b    ....    DCD    4491
        0x00000074:    0000118b    ....    DCD    4491
        0x00000078:    0000118b    ....    DCD    4491
        0x0000007c:    0000118b    ....    DCD    4491
        0x00000080:    0000118b    ....    DCD    4491
        0x00000084:    0000118b    ....    DCD    4491
        0x00000088:    0000118b    ....    DCD    4491
        0x0000008c:    0000118b    ....    DCD    4491
        0x00000090:    0000118b    ....    DCD    4491
        0x00000094:    0000118b    ....    DCD    4491
        0x00000098:    0000118b    ....    DCD    4491
        0x0000009c:    0000118b    ....    DCD    4491
        0x000000a0:    0000118b    ....    DCD    4491
        0x000000a4:    0000118b    ....    DCD    4491
        0x000000a8:    0000118b    ....    DCD    4491
        0x000000ac:    0000118b    ....    DCD    4491
        0x000000b0:    0000118b    ....    DCD    4491
        0x000000b4:    0000118b    ....    DCD    4491
        0x000000b8:    0000118b    ....    DCD    4491
        0x000000bc:    0000118b    ....    DCD    4491
    $t
    .ARM.Collect$$$$00000000
    .ARM.Collect$$$$00000001
    __main
    _main_stk
        0x000000c0:    4803        .H      LDR      r0,__lit__00000000 ; [0xd0] = 0x20000dfc
        0x000000c2:    4685        .F      MOV      sp,r0
    .ARM.Collect$$$$00000004
    _main_scatterload
        0x000000c4:    f005fa52    ..R.    BL       __scatterload ; 0x556c
    .ARM.Collect$$$$00000008
    .ARM.Collect$$$$0000000A
    .ARM.Collect$$$$0000000B
    __main_after_scatterload
    _main_clock
    _main_cpp_init
    _main_init
        0x000000c8:    4800        .H      LDR      r0,[pc,#0] ; [0xcc] = 0x10f1
        0x000000ca:    4700        .G      BX       r0
    $d
        0x000000cc:    000010f1    ....    DCD    4337
    .ARM.Collect$$$$00002712
    __lit__00000000
    .ARM.Collect$$$$0000000D
    .ARM.Collect$$$$0000000F
    __rt_final_cpp
    __rt_final_exit
        0x000000d0:    20000dfc    ...     DCD    536874492
    $t
    .emb_text
    HardFault_Handler
        0x000000d4:    2004        .       MOVS     r0,#4
        0x000000d6:    4671        qF      MOV      r1,lr
        0x000000d8:    4208        .B      TST      r0,r1
        0x000000da:    d002        ..      BEQ      0xe2 ; HardFault_Handler + 14
        0x000000dc:    f3ef8009    ....    MRS      r0,PSP
        0x000000e0:    e001        ..      B        0xe6 ; HardFault_Handler + 18
        0x000000e2:    f3ef8008    ....    MRS      r0,MSP
        0x000000e6:    4671        qF      MOV      r1,lr
        0x000000e8:    4a00        .J      LDR      r2,[pc,#0] ; [0xec] = 0x3f2f
        0x000000ea:    4710        .G      BX       r2
    $d
        0x000000ec:    00003f2f    /?..    DCD    16175
    $t
    .text
    configure_fifo
        0x000000f0:    b510        ..      PUSH     {r4,lr}
        0x000000f2:    22c0        ."      MOVS     r2,#0xc0
        0x000000f4:    2147        G!      MOVS     r1,#0x47
        0x000000f6:    20d0        .       MOVS     r0,#0xd0
        0x000000f8:    f003fc2e    ....    BL       I2C_WriteByte ; 0x3958
        0x000000fc:    217d        }!      MOVS     r1,#0x7d
        0x000000fe:    00c9        ..      LSLS     r1,r1,#3
        0x00000100:    489c        .H      LDR      r0,[pc,#624] ; [0x374] = 0x40010000
        0x00000102:    f003fff3    ....    BL       TIMER_Delay ; 0x40ec
        0x00000106:    22b0        ."      MOVS     r2,#0xb0
        0x00000108:    217e        ~!      MOVS     r1,#0x7e
        0x0000010a:    20d0        .       MOVS     r0,#0xd0
        0x0000010c:    f003fc24    ..$.    BL       I2C_WriteByte ; 0x3958
        0x00000110:    2001        .       MOVS     r0,#1
        0x00000112:    bd10        ..      POP      {r4,pc}
    configure_gyro
        0x00000114:    b570        p.      PUSH     {r4-r6,lr}
        0x00000116:    222c        ,"      MOVS     r2,#0x2c
        0x00000118:    2142        B!      MOVS     r1,#0x42
        0x0000011a:    20d0        .       MOVS     r0,#0xd0
        0x0000011c:    f003fc1c    ....    BL       I2C_WriteByte ; 0x3958
        0x00000120:    247d        }$      MOVS     r4,#0x7d
        0x00000122:    4d94        .M      LDR      r5,[pc,#592] ; [0x374] = 0x40010000
        0x00000124:    00e4        ..      LSLS     r4,r4,#3
        0x00000126:    4621        !F      MOV      r1,r4
        0x00000128:    4628        (F      MOV      r0,r5
        0x0000012a:    f003ffdf    ....    BL       TIMER_Delay ; 0x40ec
        0x0000012e:    2201        ."      MOVS     r2,#1
        0x00000130:    2143        C!      MOVS     r1,#0x43
        0x00000132:    20d0        .       MOVS     r0,#0xd0
        0x00000134:    f003fc10    ....    BL       I2C_WriteByte ; 0x3958
        0x00000138:    4621        !F      MOV      r1,r4
        0x0000013a:    4628        (F      MOV      r0,r5
        0x0000013c:    f003ffd6    ....    BL       TIMER_Delay ; 0x40ec
        0x00000140:    498e        .I      LDR      r1,[pc,#568] ; [0x37c] = 0x20000000
        0x00000142:    488d        .H      LDR      r0,[pc,#564] ; [0x378] = 0x3cfa0000
        0x00000144:    6048        H`      STR      r0,[r1,#4]
        0x00000146:    2001        .       MOVS     r0,#1
        0x00000148:    bd70        p.      POP      {r4-r6,pc}
    configure_accel
        0x0000014a:    b570        p.      PUSH     {r4-r6,lr}
        0x0000014c:    222c        ,"      MOVS     r2,#0x2c
        0x0000014e:    2140        @!      MOVS     r1,#0x40
        0x00000150:    20d0        .       MOVS     r0,#0xd0
        0x00000152:    f003fc01    ....    BL       I2C_WriteByte ; 0x3958
        0x00000156:    247d        }$      MOVS     r4,#0x7d
        0x00000158:    4d86        .M      LDR      r5,[pc,#536] ; [0x374] = 0x40010000
        0x0000015a:    00e4        ..      LSLS     r4,r4,#3
        0x0000015c:    4621        !F      MOV      r1,r4
        0x0000015e:    4628        (F      MOV      r0,r5
        0x00000160:    f003ffc4    ....    BL       TIMER_Delay ; 0x40ec
        0x00000164:    2205        ."      MOVS     r2,#5
        0x00000166:    2141        A!      MOVS     r1,#0x41
        0x00000168:    20d0        .       MOVS     r0,#0xd0
        0x0000016a:    f003fbf5    ....    BL       I2C_WriteByte ; 0x3958
        0x0000016e:    4621        !F      MOV      r1,r4
        0x00000170:    4628        (F      MOV      r0,r5
        0x00000172:    f003ffbb    ....    BL       TIMER_Delay ; 0x40ec
        0x00000176:    4981        .I      LDR      r1,[pc,#516] ; [0x37c] = 0x20000000
        0x00000178:    4881        .H      LDR      r0,[pc,#516] ; [0x380] = 0x3a9ce80a
        0x0000017a:    6008        .`      STR      r0,[r1,#0]
        0x0000017c:    2001        .       MOVS     r0,#1
        0x0000017e:    bd70        p.      POP      {r4-r6,pc}
    bmi160_init
        0x00000180:    b570        p.      PUSH     {r4-r6,lr}
        0x00000182:    2600        .&      MOVS     r6,#0
        0x00000184:    2400        .$      MOVS     r4,#0
        0x00000186:    4d7b        {M      LDR      r5,[pc,#492] ; [0x374] = 0x40010000
        0x00000188:    497e        ~I      LDR      r1,[pc,#504] ; [0x384] = 0x2710
        0x0000018a:    4628        (F      MOV      r0,r5
        0x0000018c:    f003ffae    ....    BL       TIMER_Delay ; 0x40ec
        0x00000190:    e031        1.      B        0x1f6 ; bmi160_init + 118
        0x00000192:    22b6        ."      MOVS     r2,#0xb6
        0x00000194:    217e        ~!      MOVS     r1,#0x7e
        0x00000196:    20d0        .       MOVS     r0,#0xd0
        0x00000198:    f003fbde    ....    BL       I2C_WriteByte ; 0x3958
        0x0000019c:    497a        zI      LDR      r1,[pc,#488] ; [0x388] = 0x186a0
        0x0000019e:    4628        (F      MOV      r0,r5
        0x000001a0:    f003ffa4    ....    BL       TIMER_Delay ; 0x40ec
        0x000001a4:    2100        .!      MOVS     r1,#0
        0x000001a6:    20d0        .       MOVS     r0,#0xd0
        0x000001a8:    f003fc21    ..!.    BL       I2C_ReadByte ; 0x39ee
        0x000001ac:    28d1        .(      CMP      r0,#0xd1
        0x000001ae:    d120         .      BNE      0x1f2 ; bmi160_init + 114
        0x000001b0:    2211        ."      MOVS     r2,#0x11
        0x000001b2:    217e        ~!      MOVS     r1,#0x7e
        0x000001b4:    20d0        .       MOVS     r0,#0xd0
        0x000001b6:    f003fbcf    ....    BL       I2C_WriteByte ; 0x3958
        0x000001ba:    217d        }!      MOVS     r1,#0x7d
        0x000001bc:    0149        I.      LSLS     r1,r1,#5
        0x000001be:    4628        (F      MOV      r0,r5
        0x000001c0:    f003ff94    ....    BL       TIMER_Delay ; 0x40ec
        0x000001c4:    2215        ."      MOVS     r2,#0x15
        0x000001c6:    217e        ~!      MOVS     r1,#0x7e
        0x000001c8:    20d0        .       MOVS     r0,#0xd0
        0x000001ca:    f003fbc5    ....    BL       I2C_WriteByte ; 0x3958
        0x000001ce:    496f        oI      LDR      r1,[pc,#444] ; [0x38c] = 0x13c68
        0x000001d0:    4628        (F      MOV      r0,r5
        0x000001d2:    f003ff8b    ....    BL       TIMER_Delay ; 0x40ec
        0x000001d6:    f7ffffb8    ....    BL       configure_accel ; 0x14a
        0x000001da:    2800        .(      CMP      r0,#0
        0x000001dc:    d009        ..      BEQ      0x1f2 ; bmi160_init + 114
        0x000001de:    f7ffff99    ....    BL       configure_gyro ; 0x114
        0x000001e2:    2800        .(      CMP      r0,#0
        0x000001e4:    d005        ..      BEQ      0x1f2 ; bmi160_init + 114
        0x000001e6:    f7ffff83    ....    BL       configure_fifo ; 0xf0
        0x000001ea:    2800        .(      CMP      r0,#0
        0x000001ec:    d001        ..      BEQ      0x1f2 ; bmi160_init + 114
        0x000001ee:    2601        .&      MOVS     r6,#1
        0x000001f0:    e003        ..      B        0x1fa ; bmi160_init + 122
        0x000001f2:    1c64        d.      ADDS     r4,r4,#1
        0x000001f4:    b2e4        ..      UXTB     r4,r4
        0x000001f6:    2c05        .,      CMP      r4,#5
        0x000001f8:    d3cb        ..      BCC      0x192 ; bmi160_init + 18
        0x000001fa:    4630        0F      MOV      r0,r6
        0x000001fc:    bd70        p.      POP      {r4-r6,pc}
    read_fifo
        0x000001fe:    b5f0        ..      PUSH     {r4-r7,lr}
        0x00000200:    b0cd        ..      SUB      sp,sp,#0x134
        0x00000202:    4605        .F      MOV      r5,r0
        0x00000204:    2000        .       MOVS     r0,#0
        0x00000206:    9049        I.      STR      r0,[sp,#0x124]
        0x00000208:    904a        J.      STR      r0,[sp,#0x128]
        0x0000020a:    904b        K.      STR      r0,[sp,#0x12c]
        0x0000020c:    9046        F.      STR      r0,[sp,#0x118]
        0x0000020e:    9047        G.      STR      r0,[sp,#0x11c]
        0x00000210:    9048        H.      STR      r0,[sp,#0x120]
        0x00000212:    2100        .!      MOVS     r1,#0
        0x00000214:    9145        E.      STR      r1,[sp,#0x114]
        0x00000216:    9003        ..      STR      r0,[sp,#0xc]
        0x00000218:    2400        .$      MOVS     r4,#0
        0x0000021a:    2700        .'      MOVS     r7,#0
        0x0000021c:    2001        .       MOVS     r0,#1
        0x0000021e:    9000        ..      STR      r0,[sp,#0]
        0x00000220:    2302        .#      MOVS     r3,#2
        0x00000222:    aa03        ..      ADD      r2,sp,#0xc
        0x00000224:    2122        "!      MOVS     r1,#0x22
        0x00000226:    20d0        .       MOVS     r0,#0xd0
        0x00000228:    f003fc51    ..Q.    BL       I2C_SequentialRead ; 0x3ace
        0x0000022c:    4669        iF      MOV      r1,sp
        0x0000022e:    7b48        H{      LDRB     r0,[r1,#0xd]
        0x00000230:    7b09        .{      LDRB     r1,[r1,#0xc]
        0x00000232:    0740        @.      LSLS     r0,r0,#29
        0x00000234:    0d40        @.      LSRS     r0,r0,#21
        0x00000236:    4308        .C      ORRS     r0,r0,r1
        0x00000238:    9004        ..      STR      r0,[sp,#0x10]
        0x0000023a:    9804        ..      LDR      r0,[sp,#0x10]
        0x0000023c:    2800        .(      CMP      r0,#0
        0x0000023e:    d00b        ..      BEQ      0x258 ; read_fifo + 90
        0x00000240:    462e        .F      MOV      r6,r5
        0x00000242:    3680        .6      ADDS     r6,r6,#0x80
        0x00000244:    9804        ..      LDR      r0,[sp,#0x10]
        0x00000246:    28f0        .(      CMP      r0,#0xf0
        0x00000248:    d909        ..      BLS      0x25e ; read_fifo + 96
        0x0000024a:    9804        ..      LDR      r0,[sp,#0x10]
        0x0000024c:    38f0        .8      SUBS     r0,r0,#0xf0
        0x0000024e:    b280        ..      UXTH     r0,r0
        0x00000250:    9002        ..      STR      r0,[sp,#8]
        0x00000252:    20f0        .       MOVS     r0,#0xf0
        0x00000254:    9004        ..      STR      r0,[sp,#0x10]
        0x00000256:    e004        ..      B        0x262 ; read_fifo + 100
        0x00000258:    2000        .       MOVS     r0,#0
        0x0000025a:    9000        ..      STR      r0,[sp,#0]
        0x0000025c:    e086        ..      B        0x36c ; read_fifo + 366
        0x0000025e:    2000        .       MOVS     r0,#0
        0x00000260:    9002        ..      STR      r0,[sp,#8]
        0x00000262:    aa05        ..      ADD      r2,sp,#0x14
        0x00000264:    2124        $!      MOVS     r1,#0x24
        0x00000266:    20d0        .       MOVS     r0,#0xd0
        0x00000268:    9b04        ..      LDR      r3,[sp,#0x10]
        0x0000026a:    f003fc30    ..0.    BL       I2C_SequentialRead ; 0x3ace
        0x0000026e:    9802        ..      LDR      r0,[sp,#8]
        0x00000270:    2800        .(      CMP      r0,#0
        0x00000272:    d006        ..      BEQ      0x282 ; read_fifo + 132
        0x00000274:    22b0        ."      MOVS     r2,#0xb0
        0x00000276:    217e        ~!      MOVS     r1,#0x7e
        0x00000278:    20d0        .       MOVS     r0,#0xd0
        0x0000027a:    f003fb6d    ..m.    BL       I2C_WriteByte ; 0x3958
        0x0000027e:    2000        .       MOVS     r0,#0
        0x00000280:    9002        ..      STR      r0,[sp,#8]
        0x00000282:    210c        .!      MOVS     r1,#0xc
        0x00000284:    9804        ..      LDR      r0,[sp,#0x10]
        0x00000286:    f004fc55    ..U.    BL       __aeabi_uidiv ; 0x4b34
        0x0000028a:    b2c0        ..      UXTB     r0,r0
        0x0000028c:    9001        ..      STR      r0,[sp,#4]
        0x0000028e:    e041        A.      B        0x314 ; read_fifo + 278
        0x00000290:    a805        ..      ADD      r0,sp,#0x14
        0x00000292:    19c2        ..      ADDS     r2,r0,r7
        0x00000294:    7851        Qx      LDRB     r1,[r2,#1]
        0x00000296:    5dc0        .]      LDRB     r0,[r0,r7]
        0x00000298:    0209        ..      LSLS     r1,r1,#8
        0x0000029a:    4301        .C      ORRS     r1,r1,r0
        0x0000029c:    b208        ..      SXTH     r0,r1
        0x0000029e:    82b0        ..      STRH     r0,[r6,#0x14]
        0x000002a0:    904c        L.      STR      r0,[sp,#0x130]
        0x000002a2:    78d0        .x      LDRB     r0,[r2,#3]
        0x000002a4:    7891        .x      LDRB     r1,[r2,#2]
        0x000002a6:    0200        ..      LSLS     r0,r0,#8
        0x000002a8:    4308        .C      ORRS     r0,r0,r1
        0x000002aa:    b200        ..      SXTH     r0,r0
        0x000002ac:    82f0        ..      STRH     r0,[r6,#0x16]
        0x000002ae:    4686        .F      MOV      lr,r0
        0x000002b0:    7950        Py      LDRB     r0,[r2,#5]
        0x000002b2:    7911        .y      LDRB     r1,[r2,#4]
        0x000002b4:    0200        ..      LSLS     r0,r0,#8
        0x000002b6:    4308        .C      ORRS     r0,r0,r1
        0x000002b8:    b200        ..      SXTH     r0,r0
        0x000002ba:    8330        0.      STRH     r0,[r6,#0x18]
        0x000002bc:    4684        .F      MOV      r12,r0
        0x000002be:    79d0        .y      LDRB     r0,[r2,#7]
        0x000002c0:    7991        .y      LDRB     r1,[r2,#6]
        0x000002c2:    0200        ..      LSLS     r0,r0,#8
        0x000002c4:    4308        .C      ORRS     r0,r0,r1
        0x000002c6:    b200        ..      SXTH     r0,r0
        0x000002c8:    8028        (.      STRH     r0,[r5,#0]
        0x000002ca:    7a51        Qz      LDRB     r1,[r2,#9]
        0x000002cc:    7a13        .z      LDRB     r3,[r2,#8]
        0x000002ce:    0209        ..      LSLS     r1,r1,#8
        0x000002d0:    4319        .C      ORRS     r1,r1,r3
        0x000002d2:    b209        ..      SXTH     r1,r1
        0x000002d4:    8069        i.      STRH     r1,[r5,#2]
        0x000002d6:    7ad3        .z      LDRB     r3,[r2,#0xb]
        0x000002d8:    7a92        .z      LDRB     r2,[r2,#0xa]
        0x000002da:    021b        ..      LSLS     r3,r3,#8
        0x000002dc:    4313        .C      ORRS     r3,r3,r2
        0x000002de:    b21a        ..      SXTH     r2,r3
        0x000002e0:    80aa        ..      STRH     r2,[r5,#4]
        0x000002e2:    9b49        I.      LDR      r3,[sp,#0x124]
        0x000002e4:    1818        ..      ADDS     r0,r3,r0
        0x000002e6:    9049        I.      STR      r0,[sp,#0x124]
        0x000002e8:    984a        J.      LDR      r0,[sp,#0x128]
        0x000002ea:    1840        @.      ADDS     r0,r0,r1
        0x000002ec:    904a        J.      STR      r0,[sp,#0x128]
        0x000002ee:    984b        K.      LDR      r0,[sp,#0x12c]
        0x000002f0:    1880        ..      ADDS     r0,r0,r2
        0x000002f2:    904b        K.      STR      r0,[sp,#0x12c]
        0x000002f4:    9946        F.      LDR      r1,[sp,#0x118]
        0x000002f6:    984c        L.      LDR      r0,[sp,#0x130]
        0x000002f8:    1808        ..      ADDS     r0,r1,r0
        0x000002fa:    9046        F.      STR      r0,[sp,#0x118]
        0x000002fc:    9947        G.      LDR      r1,[sp,#0x11c]
        0x000002fe:    4670        pF      MOV      r0,lr
        0x00000300:    1808        ..      ADDS     r0,r1,r0
        0x00000302:    9047        G.      STR      r0,[sp,#0x11c]
        0x00000304:    9948        H.      LDR      r1,[sp,#0x120]
        0x00000306:    4660        `F      MOV      r0,r12
        0x00000308:    1808        ..      ADDS     r0,r1,r0
        0x0000030a:    9048        H.      STR      r0,[sp,#0x120]
        0x0000030c:    370c        .7      ADDS     r7,r7,#0xc
        0x0000030e:    b2bf        ..      UXTH     r7,r7
        0x00000310:    1c64        d.      ADDS     r4,r4,#1
        0x00000312:    b2e4        ..      UXTB     r4,r4
        0x00000314:    9801        ..      LDR      r0,[sp,#4]
        0x00000316:    4284        .B      CMP      r4,r0
        0x00000318:    d3ba        ..      BCC      0x290 ; read_fifo + 146
        0x0000031a:    9845        E.      LDR      r0,[sp,#0x114]
        0x0000031c:    1900        ..      ADDS     r0,r0,r4
        0x0000031e:    b2c0        ..      UXTB     r0,r0
        0x00000320:    9045        E.      STR      r0,[sp,#0x114]
        0x00000322:    9802        ..      LDR      r0,[sp,#8]
        0x00000324:    2800        .(      CMP      r0,#0
        0x00000326:    d003        ..      BEQ      0x330 ; read_fifo + 306
        0x00000328:    9802        ..      LDR      r0,[sp,#8]
        0x0000032a:    9004        ..      STR      r0,[sp,#0x10]
        0x0000032c:    2400        .$      MOVS     r4,#0
        0x0000032e:    e789        ..      B        0x244 ; read_fifo + 70
        0x00000330:    9945        E.      LDR      r1,[sp,#0x114]
        0x00000332:    9849        I.      LDR      r0,[sp,#0x124]
        0x00000334:    f004fc14    ....    BL       __aeabi_idiv ; 0x4b60
        0x00000338:    80e8        ..      STRH     r0,[r5,#6]
        0x0000033a:    9945        E.      LDR      r1,[sp,#0x114]
        0x0000033c:    984a        J.      LDR      r0,[sp,#0x128]
        0x0000033e:    f004fc0f    ....    BL       __aeabi_idiv ; 0x4b60
        0x00000342:    8128        (.      STRH     r0,[r5,#8]
        0x00000344:    9945        E.      LDR      r1,[sp,#0x114]
        0x00000346:    984b        K.      LDR      r0,[sp,#0x12c]
        0x00000348:    f004fc0a    ....    BL       __aeabi_idiv ; 0x4b60
        0x0000034c:    8168        h.      STRH     r0,[r5,#0xa]
        0x0000034e:    9945        E.      LDR      r1,[sp,#0x114]
        0x00000350:    9846        F.      LDR      r0,[sp,#0x118]
        0x00000352:    f004fc05    ....    BL       __aeabi_idiv ; 0x4b60
        0x00000356:    8370        p.      STRH     r0,[r6,#0x1a]
        0x00000358:    9945        E.      LDR      r1,[sp,#0x114]
        0x0000035a:    9847        G.      LDR      r0,[sp,#0x11c]
        0x0000035c:    f004fc00    ....    BL       __aeabi_idiv ; 0x4b60
        0x00000360:    83b0        ..      STRH     r0,[r6,#0x1c]
        0x00000362:    9945        E.      LDR      r1,[sp,#0x114]
        0x00000364:    9848        H.      LDR      r0,[sp,#0x120]
        0x00000366:    f004fbfb    ....    BL       __aeabi_idiv ; 0x4b60
        0x0000036a:    83f0        ..      STRH     r0,[r6,#0x1e]
        0x0000036c:    9800        ..      LDR      r0,[sp,#0]
        0x0000036e:    b04d        M.      ADD      sp,sp,#0x134
        0x00000370:    bdf0        ..      POP      {r4-r7,pc}
    bmi160_read_raw
        0x00000372:    e744        D.      B        read_fifo ; 0x1fe
    $d
        0x00000374:    40010000    ...@    DCD    1073807360
        0x00000378:    3cfa0000    ...<    DCD    1023016960
        0x0000037c:    20000000    ...     DCD    536870912
        0x00000380:    3a9ce80a    ...:    DCD    983361546
        0x00000384:    00002710    .'..    DCD    10000
        0x00000388:    000186a0    ....    DCD    100000
        0x0000038c:    00013c68    h<..    DCD    81000
    $t
    .text
    calculate
        0x00000390:    b5f0        ..      PUSH     {r4-r7,lr}
        0x00000392:    b091        ..      SUB      sp,sp,#0x44
        0x00000394:    2000        .       MOVS     r0,#0
        0x00000396:    9006        ..      STR      r0,[sp,#0x18]
        0x00000398:    9005        ..      STR      r0,[sp,#0x14]
        0x0000039a:    9004        ..      STR      r0,[sp,#0x10]
        0x0000039c:    9003        ..      STR      r0,[sp,#0xc]
        0x0000039e:    9002        ..      STR      r0,[sp,#8]
        0x000003a0:    9001        ..      STR      r0,[sp,#4]
        0x000003a2:    9000        ..      STR      r0,[sp,#0]
        0x000003a4:    4684        .F      MOV      r12,r0
        0x000003a6:    48fe        .H      LDR      r0,[pc,#1016] ; [0x7a0] = 0x20000134
        0x000003a8:    7800        .x      LDRB     r0,[r0,#0]
        0x000003aa:    9010        ..      STR      r0,[sp,#0x40]
        0x000003ac:    2803        .(      CMP      r0,#3
        0x000003ae:    d113        ..      BNE      0x3d8 ; calculate + 72
        0x000003b0:    48fc        .H      LDR      r0,[pc,#1008] ; [0x7a4] = 0x22f
        0x000003b2:    9000        ..      STR      r0,[sp,#0]
        0x000003b4:    48fb        .H      LDR      r0,[pc,#1004] ; [0x7a4] = 0x22f
        0x000003b6:    380a        .8      SUBS     r0,r0,#0xa
        0x000003b8:    4684        .F      MOV      r12,r0
        0x000003ba:    207d        }       MOVS     r0,#0x7d
        0x000003bc:    0100        ..      LSLS     r0,r0,#4
        0x000003be:    9006        ..      STR      r0,[sp,#0x18]
        0x000003c0:    20af        .       MOVS     r0,#0xaf
        0x000003c2:    0080        ..      LSLS     r0,r0,#2
        0x000003c4:    9005        ..      STR      r0,[sp,#0x14]
        0x000003c6:    48f8        .H      LDR      r0,[pc,#992] ; [0x7a8] = 0xfffffa17
        0x000003c8:    9004        ..      STR      r0,[sp,#0x10]
        0x000003ca:    202e        .       MOVS     r0,#0x2e
        0x000003cc:    9003        ..      STR      r0,[sp,#0xc]
        0x000003ce:    48f7        .H      LDR      r0,[pc,#988] ; [0x7ac] = 0x333
        0x000003d0:    9002        ..      STR      r0,[sp,#8]
        0x000003d2:    2008        .       MOVS     r0,#8
        0x000003d4:    43c0        .C      MVNS     r0,r0
        0x000003d6:    9001        ..      STR      r0,[sp,#4]
        0x000003d8:    48f5        .H      LDR      r0,[pc,#980] ; [0x7b0] = 0x20000008
        0x000003da:    7807        .x      LDRB     r7,[r0,#0]
        0x000003dc:    2001        .       MOVS     r0,#1
        0x000003de:    05c0        ..      LSLS     r0,r0,#23
        0x000003e0:    1a08        ..      SUBS     r0,r1,r0
        0x000003e2:    49ef        .I      LDR      r1,[pc,#956] ; [0x7a0] = 0x20000134
        0x000003e4:    1100        ..      ASRS     r0,r0,#4
        0x000003e6:    8b0a        ..      LDRH     r2,[r1,#0x18]
        0x000003e8:    8b4e        N.      LDRH     r6,[r1,#0x1a]
        0x000003ea:    0112        ..      LSLS     r2,r2,#4
        0x000003ec:    1880        ..      ADDS     r0,r0,r2
        0x000003ee:    8b8a        ..      LDRH     r2,[r1,#0x1c]
        0x000003f0:    8c0c        ..      LDRH     r4,[r1,#0x20]
        0x000003f2:    3aff        .:      SUBS     r2,r2,#0xff
        0x000003f4:    3a01        .:      SUBS     r2,#1
        0x000003f6:    4342        BC      MULS     r2,r0,r2
        0x000003f8:    1393        ..      ASRS     r3,r2,#14
        0x000003fa:    8bca        ..      LDRH     r2,[r1,#0x1e]
        0x000003fc:    940f        ..      STR      r4,[sp,#0x3c]
        0x000003fe:    6acc        .j      LDR      r4,[r1,#0x2c]
        0x00000400:    940e        ..      STR      r4,[sp,#0x38]
        0x00000402:    8c4c        L.      LDRH     r4,[r1,#0x22]
        0x00000404:    940d        ..      STR      r4,[sp,#0x34]
        0x00000406:    8c8c        ..      LDRH     r4,[r1,#0x24]
        0x00000408:    940c        ..      STR      r4,[sp,#0x30]
        0x0000040a:    684c        Lh      LDR      r4,[r1,#4]
        0x0000040c:    940b        ..      STR      r4,[sp,#0x2c]
        0x0000040e:    8d4c        L.      LDRH     r4,[r1,#0x2a]
        0x00000410:    940a        ..      STR      r4,[sp,#0x28]
        0x00000412:    8ccc        ..      LDRH     r4,[r1,#0x26]
        0x00000414:    4342        BC      MULS     r2,r0,r2
        0x00000416:    9409        ..      STR      r4,[sp,#0x24]
        0x00000418:    1492        ..      ASRS     r2,r2,#18
        0x0000041a:    8d0c        ..      LDRH     r4,[r1,#0x28]
        0x0000041c:    4342        BC      MULS     r2,r0,r2
        0x0000041e:    9408        ..      STR      r4,[sp,#0x20]
        0x00000420:    1492        ..      ASRS     r2,r2,#18
        0x00000422:    6b0c        .k      LDR      r4,[r1,#0x30]
        0x00000424:    093d        =.      LSRS     r5,r7,#4
        0x00000426:    4343        CC      MULS     r3,r0,r3
        0x00000428:    4342        BC      MULS     r2,r0,r2
        0x0000042a:    6b49        Ik      LDR      r1,[r1,#0x34]
        0x0000042c:    2d01        .-      CMP      r5,#1
        0x0000042e:    d02f        /.      BEQ      0x490 ; calculate + 256
        0x00000430:    073d        =.      LSLS     r5,r7,#28
        0x00000432:    0f2d        -.      LSRS     r5,r5,#28
        0x00000434:    2d01        .-      CMP      r5,#1
        0x00000436:    d02b        +.      BEQ      0x490 ; calculate + 256
        0x00000438:    4fd9        .O      LDR      r7,[pc,#868] ; [0x7a0] = 0x20000134
        0x0000043a:    4dde        .M      LDR      r5,[pc,#888] ; [0x7b4] = 0x1142
        0x0000043c:    1975        u.      ADDS     r5,r6,r5
        0x0000043e:    4345        EC      MULS     r5,r0,r5
        0x00000440:    1068        h.      ASRS     r0,r5,#1
        0x00000442:    111b        ..      ASRS     r3,r3,#4
        0x00000444:    4ddc        .M      LDR      r5,[pc,#880] ; [0x7b8] = 0x4e20000
        0x00000446:    1a2d        -.      SUBS     r5,r5,r0
        0x00000448:    1aed        ..      SUBS     r5,r5,r3
        0x0000044a:    1aad        ..      SUBS     r5,r5,r2
        0x0000044c:    13ee        ..      ASRS     r6,r5,#15
        0x0000044e:    613e        >a      STR      r6,[r7,#0x10]
        0x00000450:    18c0        ..      ADDS     r0,r0,r3
        0x00000452:    1880        ..      ADDS     r0,r0,r2
        0x00000454:    1300        ..      ASRS     r0,r0,#12
        0x00000456:    4622        "F      MOV      r2,r4
        0x00000458:    4342        BC      MULS     r2,r0,r2
        0x0000045a:    9b0f        ..      LDR      r3,[sp,#0x3c]
        0x0000045c:    4343        CC      MULS     r3,r0,r3
        0x0000045e:    141b        ..      ASRS     r3,r3,#16
        0x00000460:    4343        CC      MULS     r3,r0,r3
        0x00000462:    109b        ..      ASRS     r3,r3,#2
        0x00000464:    18d2        ..      ADDS     r2,r2,r3
        0x00000466:    1293        ..      ASRS     r3,r2,#10
        0x00000468:    4dd4        .M      LDR      r5,[pc,#848] ; [0x7bc] = 0x33958
        0x0000046a:    9a0e        ..      LDR      r2,[sp,#0x38]
        0x0000046c:    1952        R.      ADDS     r2,r2,r5
        0x0000046e:    0112        ..      LSLS     r2,r2,#4
        0x00000470:    189a        ..      ADDS     r2,r3,r2
        0x00000472:    9207        ..      STR      r2,[sp,#0x1c]
        0x00000474:    4bd2        .K      LDR      r3,[pc,#840] ; [0x7c0] = 0x1c29
        0x00000476:    9a0d        ..      LDR      r2,[sp,#0x34]
        0x00000478:    18d2        ..      ADDS     r2,r2,r3
        0x0000047a:    4342        BC      MULS     r2,r0,r2
        0x0000047c:    1292        ..      ASRS     r2,r2,#10
        0x0000047e:    9b0c        ..      LDR      r3,[sp,#0x30]
        0x00000480:    4343        CC      MULS     r3,r0,r3
        0x00000482:    145b        [.      ASRS     r3,r3,#17
        0x00000484:    4343        CC      MULS     r3,r0,r3
        0x00000486:    131b        ..      ASRS     r3,r3,#12
        0x00000488:    4293        .B      CMP      r3,r2
        0x0000048a:    db70        p.      BLT      0x56e ; calculate + 478
        0x0000048c:    1a9d        ..      SUBS     r5,r3,r2
        0x0000048e:    e06f        o.      B        0x570 ; calculate + 480
        0x00000490:    4fc3        .O      LDR      r7,[pc,#780] ; [0x7a0] = 0x20000134
        0x00000492:    4dc8        .M      LDR      r5,[pc,#800] ; [0x7b4] = 0x1142
        0x00000494:    3529        )5      ADDS     r5,r5,#0x29
        0x00000496:    1975        u.      ADDS     r5,r6,r5
        0x00000498:    4345        EC      MULS     r5,r0,r5
        0x0000049a:    1068        h.      ASRS     r0,r5,#1
        0x0000049c:    111b        ..      ASRS     r3,r3,#4
        0x0000049e:    4dc6        .M      LDR      r5,[pc,#792] ; [0x7b8] = 0x4e20000
        0x000004a0:    1a2d        -.      SUBS     r5,r5,r0
        0x000004a2:    1aed        ..      SUBS     r5,r5,r3
        0x000004a4:    1aad        ..      SUBS     r5,r5,r2
        0x000004a6:    13ee        ..      ASRS     r6,r5,#15
        0x000004a8:    613e        >a      STR      r6,[r7,#0x10]
        0x000004aa:    18c0        ..      ADDS     r0,r0,r3
        0x000004ac:    1880        ..      ADDS     r0,r0,r2
        0x000004ae:    1300        ..      ASRS     r0,r0,#12
        0x000004b0:    4ac4        .J      LDR      r2,[pc,#784] ; [0x7c4] = 0xffffeea5
        0x000004b2:    18a2        ..      ADDS     r2,r4,r2
        0x000004b4:    4342        BC      MULS     r2,r0,r2
        0x000004b6:    9b0f        ..      LDR      r3,[sp,#0x3c]
        0x000004b8:    4343        CC      MULS     r3,r0,r3
        0x000004ba:    141b        ..      ASRS     r3,r3,#16
        0x000004bc:    4343        CC      MULS     r3,r0,r3
        0x000004be:    109b        ..      ASRS     r3,r3,#2
        0x000004c0:    18d2        ..      ADDS     r2,r2,r3
        0x000004c2:    1293        ..      ASRS     r3,r2,#10
        0x000004c4:    4dc0        .M      LDR      r5,[pc,#768] ; [0x7c8] = 0x1d70a
        0x000004c6:    9a0e        ..      LDR      r2,[sp,#0x38]
        0x000004c8:    1952        R.      ADDS     r2,r2,r5
        0x000004ca:    0112        ..      LSLS     r2,r2,#4
        0x000004cc:    189a        ..      ADDS     r2,r3,r2
        0x000004ce:    9207        ..      STR      r2,[sp,#0x1c]
        0x000004d0:    4bbb        .K      LDR      r3,[pc,#748] ; [0x7c0] = 0x1c29
        0x000004d2:    9a0d        ..      LDR      r2,[sp,#0x34]
        0x000004d4:    3b1d        .;      SUBS     r3,r3,#0x1d
        0x000004d6:    18d2        ..      ADDS     r2,r2,r3
        0x000004d8:    4342        BC      MULS     r2,r0,r2
        0x000004da:    1292        ..      ASRS     r2,r2,#10
        0x000004dc:    9b0c        ..      LDR      r3,[sp,#0x30]
        0x000004de:    4343        CC      MULS     r3,r0,r3
        0x000004e0:    145b        [.      ASRS     r3,r3,#17
        0x000004e2:    4343        CC      MULS     r3,r0,r3
        0x000004e4:    131b        ..      ASRS     r3,r3,#12
        0x000004e6:    4293        .B      CMP      r3,r2
        0x000004e8:    db01        ..      BLT      0x4ee ; calculate + 350
        0x000004ea:    1a9d        ..      SUBS     r5,r3,r2
        0x000004ec:    e000        ..      B        0x4f0 ; calculate + 352
        0x000004ee:    1ad5        ..      SUBS     r5,r2,r3
        0x000004f0:    4fb6        .O      LDR      r7,[pc,#728] ; [0x7cc] = 0x28a1a
        0x000004f2:    12ee        ..      ASRS     r6,r5,#11
        0x000004f4:    19cf        ..      ADDS     r7,r1,r7
        0x000004f6:    437e        ~C      MULS     r6,r7,r6
        0x000004f8:    056d        m.      LSLS     r5,r5,#21
        0x000004fa:    0d6d        m.      LSRS     r5,r5,#21
        0x000004fc:    437d        }C      MULS     r5,r7,r5
        0x000004fe:    0aed        ..      LSRS     r5,r5,#11
        0x00000500:    1a9a        ..      SUBS     r2,r3,r2
        0x00000502:    d506        ..      BPL      0x512 ; calculate + 386
        0x00000504:    1972        r.      ADDS     r2,r6,r5
        0x00000506:    4252        RB      RSBS     r2,r2,#0
        0x00000508:    12d3        ..      ASRS     r3,r2,#11
        0x0000050a:    4ab0        .J      LDR      r2,[pc,#704] ; [0x7cc] = 0x28a1a
        0x0000050c:    189a        ..      ADDS     r2,r3,r2
        0x0000050e:    1889        ..      ADDS     r1,r1,r2
        0x00000510:    e004        ..      B        0x51c ; calculate + 396
        0x00000512:    1972        r.      ADDS     r2,r6,r5
        0x00000514:    12d3        ..      ASRS     r3,r2,#11
        0x00000516:    4aad        .J      LDR      r2,[pc,#692] ; [0x7cc] = 0x28a1a
        0x00000518:    189a        ..      ADDS     r2,r3,r2
        0x0000051a:    1889        ..      ADDS     r1,r1,r2
        0x0000051c:    9d0b        ..      LDR      r5,[sp,#0x2c]
        0x0000051e:    9a07        ..      LDR      r2,[sp,#0x1c]
        0x00000520:    4b9f        .K      LDR      r3,[pc,#636] ; [0x7a0] = 0x20000134
        0x00000522:    1aad        ..      SUBS     r5,r5,r2
        0x00000524:    2201        ."      MOVS     r2,#1
        0x00000526:    05d2        ..      LSLS     r2,r2,#23
        0x00000528:    1aaa        ..      SUBS     r2,r5,r2
        0x0000052a:    10d2        ..      ASRS     r2,r2,#3
        0x0000052c:    12cd        ..      ASRS     r5,r1,#11
        0x0000052e:    4355        UC      MULS     r5,r2,r5
        0x00000530:    0549        I.      LSLS     r1,r1,#21
        0x00000532:    0d49        I.      LSRS     r1,r1,#21
        0x00000534:    4351        QC      MULS     r1,r2,r1
        0x00000536:    12c9        ..      ASRS     r1,r1,#11
        0x00000538:    1869        i.      ADDS     r1,r5,r1
        0x0000053a:    1289        ..      ASRS     r1,r1,#10
        0x0000053c:    9a0a        ..      LDR      r2,[sp,#0x28]
        0x0000053e:    4342        BC      MULS     r2,r0,r2
        0x00000540:    2001        .       MOVS     r0,#1
        0x00000542:    0540        @.      LSLS     r0,r0,#21
        0x00000544:    1810        ..      ADDS     r0,r2,r0
        0x00000546:    10c0        ..      ASRS     r0,r0,#3
        0x00000548:    9a09        ..      LDR      r2,[sp,#0x24]
        0x0000054a:    4342        BC      MULS     r2,r0,r2
        0x0000054c:    1452        R.      ASRS     r2,r2,#17
        0x0000054e:    434a        JC      MULS     r2,r1,r2
        0x00000550:    1092        ..      ASRS     r2,r2,#2
        0x00000552:    9d08        ..      LDR      r5,[sp,#0x20]
        0x00000554:    4345        EC      MULS     r5,r0,r5
        0x00000556:    13e8        ..      ASRS     r0,r5,#15
        0x00000558:    4348        HC      MULS     r0,r1,r0
        0x0000055a:    1480        ..      ASRS     r0,r0,#18
        0x0000055c:    4348        HC      MULS     r0,r1,r0
        0x0000055e:    1810        ..      ADDS     r0,r2,r0
        0x00000560:    13c0        ..      ASRS     r0,r0,#15
        0x00000562:    1841        A.      ADDS     r1,r0,r1
        0x00000564:    489a        .H      LDR      r0,[pc,#616] ; [0x7d0] = 0x18628
        0x00000566:    1808        ..      ADDS     r0,r1,r0
        0x00000568:    60d8        .`      STR      r0,[r3,#0xc]
        0x0000056a:    e03e        >.      B        0x5ea ; calculate + 602
        0x0000056c:    e7ff        ..      B        0x56e ; calculate + 478
        0x0000056e:    1ad5        ..      SUBS     r5,r2,r3
        0x00000570:    4f98        .O      LDR      r7,[pc,#608] ; [0x7d4] = 0x45b9a
        0x00000572:    12ee        ..      ASRS     r6,r5,#11
        0x00000574:    19cf        ..      ADDS     r7,r1,r7
        0x00000576:    437e        ~C      MULS     r6,r7,r6
        0x00000578:    056d        m.      LSLS     r5,r5,#21
        0x0000057a:    0d6d        m.      LSRS     r5,r5,#21
        0x0000057c:    437d        }C      MULS     r5,r7,r5
        0x0000057e:    0aed        ..      LSRS     r5,r5,#11
        0x00000580:    1a9a        ..      SUBS     r2,r3,r2
        0x00000582:    d506        ..      BPL      0x592 ; calculate + 514
        0x00000584:    1972        r.      ADDS     r2,r6,r5
        0x00000586:    4252        RB      RSBS     r2,r2,#0
        0x00000588:    12d3        ..      ASRS     r3,r2,#11
        0x0000058a:    4a92        .J      LDR      r2,[pc,#584] ; [0x7d4] = 0x45b9a
        0x0000058c:    189a        ..      ADDS     r2,r3,r2
        0x0000058e:    1889        ..      ADDS     r1,r1,r2
        0x00000590:    e004        ..      B        0x59c ; calculate + 524
        0x00000592:    1972        r.      ADDS     r2,r6,r5
        0x00000594:    12d3        ..      ASRS     r3,r2,#11
        0x00000596:    4a8f        .J      LDR      r2,[pc,#572] ; [0x7d4] = 0x45b9a
        0x00000598:    189a        ..      ADDS     r2,r3,r2
        0x0000059a:    1889        ..      ADDS     r1,r1,r2
        0x0000059c:    9d07        ..      LDR      r5,[sp,#0x1c]
        0x0000059e:    9a0b        ..      LDR      r2,[sp,#0x2c]
        0x000005a0:    4b7f        .K      LDR      r3,[pc,#508] ; [0x7a0] = 0x20000134
        0x000005a2:    1b55        U.      SUBS     r5,r2,r5
        0x000005a4:    2201        ."      MOVS     r2,#1
        0x000005a6:    05d2        ..      LSLS     r2,r2,#23
        0x000005a8:    1aaa        ..      SUBS     r2,r5,r2
        0x000005aa:    10d2        ..      ASRS     r2,r2,#3
        0x000005ac:    12cd        ..      ASRS     r5,r1,#11
        0x000005ae:    4355        UC      MULS     r5,r2,r5
        0x000005b0:    0549        I.      LSLS     r1,r1,#21
        0x000005b2:    0d49        I.      LSRS     r1,r1,#21
        0x000005b4:    4351        QC      MULS     r1,r2,r1
        0x000005b6:    12c9        ..      ASRS     r1,r1,#11
        0x000005b8:    1869        i.      ADDS     r1,r5,r1
        0x000005ba:    1289        ..      ASRS     r1,r1,#10
        0x000005bc:    9a0a        ..      LDR      r2,[sp,#0x28]
        0x000005be:    4342        BC      MULS     r2,r0,r2
        0x000005c0:    2001        .       MOVS     r0,#1
        0x000005c2:    0540        @.      LSLS     r0,r0,#21
        0x000005c4:    1810        ..      ADDS     r0,r2,r0
        0x000005c6:    10c0        ..      ASRS     r0,r0,#3
        0x000005c8:    9a09        ..      LDR      r2,[sp,#0x24]
        0x000005ca:    4342        BC      MULS     r2,r0,r2
        0x000005cc:    1452        R.      ASRS     r2,r2,#17
        0x000005ce:    434a        JC      MULS     r2,r1,r2
        0x000005d0:    1092        ..      ASRS     r2,r2,#2
        0x000005d2:    9d08        ..      LDR      r5,[sp,#0x20]
        0x000005d4:    4345        EC      MULS     r5,r0,r5
        0x000005d6:    13e8        ..      ASRS     r0,r5,#15
        0x000005d8:    4348        HC      MULS     r0,r1,r0
        0x000005da:    1480        ..      ASRS     r0,r0,#18
        0x000005dc:    4348        HC      MULS     r0,r1,r0
        0x000005de:    1810        ..      ADDS     r0,r2,r0
        0x000005e0:    13c0        ..      ASRS     r0,r0,#15
        0x000005e2:    1841        A.      ADDS     r1,r0,r1
        0x000005e4:    487a        zH      LDR      r0,[pc,#488] ; [0x7d0] = 0x18628
        0x000005e6:    1808        ..      ADDS     r0,r1,r0
        0x000005e8:    60d8        .`      STR      r0,[r3,#0xc]
        0x000005ea:    9810        ..      LDR      r0,[sp,#0x40]
        0x000005ec:    4a6c        lJ      LDR      r2,[pc,#432] ; [0x7a0] = 0x20000134
        0x000005ee:    2803        .(      CMP      r0,#3
        0x000005f0:    d12c        ,.      BNE      0x64c ; calculate + 700
        0x000005f2:    7851        Qx      LDRB     r1,[r2,#1]
        0x000005f4:    07c8        ..      LSLS     r0,r1,#31
        0x000005f6:    d012        ..      BEQ      0x61e ; calculate + 654
        0x000005f8:    2001        .       MOVS     r0,#1
        0x000005fa:    0380        ..      LSLS     r0,r0,#14
        0x000005fc:    1a23        #.      SUBS     r3,r4,r0
        0x000005fe:    4c76        vL      LDR      r4,[pc,#472] ; [0x7d8] = 0xfffff63c
        0x00000600:    6910        .i      LDR      r0,[r2,#0x10]
        0x00000602:    1900        ..      ADDS     r0,r0,r4
        0x00000604:    4664        dF      MOV      r4,r12
        0x00000606:    435c        \C      MULS     r4,r3,r4
        0x00000608:    9b00        ..      LDR      r3,[sp,#0]
        0x0000060a:    1264        d.      ASRS     r4,r4,#9
        0x0000060c:    18e3        ..      ADDS     r3,r4,r3
        0x0000060e:    111b        ..      ASRS     r3,r3,#4
        0x00000610:    4343        CC      MULS     r3,r0,r3
        0x00000612:    13db        ..      ASRS     r3,r3,#15
        0x00000614:    4343        CC      MULS     r3,r0,r3
        0x00000616:    12d8        ..      ASRS     r0,r3,#11
        0x00000618:    68d3        .h      LDR      r3,[r2,#0xc]
        0x0000061a:    1a18        ..      SUBS     r0,r3,r0
        0x0000061c:    60d0        .`      STR      r0,[r2,#0xc]
        0x0000061e:    0788        ..      LSLS     r0,r1,#30
        0x00000620:    d514        ..      BPL      0x64c ; calculate + 700
        0x00000622:    6910        .i      LDR      r0,[r2,#0x10]
        0x00000624:    9906        ..      LDR      r1,[sp,#0x18]
        0x00000626:    4288        .B      CMP      r0,r1
        0x00000628:    da10        ..      BGE      0x64c ; calculate + 700
        0x0000062a:    9904        ..      LDR      r1,[sp,#0x10]
        0x0000062c:    4341        AC      MULS     r1,r0,r1
        0x0000062e:    140b        ..      ASRS     r3,r1,#16
        0x00000630:    9903        ..      LDR      r1,[sp,#0xc]
        0x00000632:    1859        Y.      ADDS     r1,r3,r1
        0x00000634:    9b05        ..      LDR      r3,[sp,#0x14]
        0x00000636:    4298        .B      CMP      r0,r3
        0x00000638:    da05        ..      BGE      0x646 ; calculate + 694
        0x0000063a:    9b02        ..      LDR      r3,[sp,#8]
        0x0000063c:    4358        XC      MULS     r0,r3,r0
        0x0000063e:    1403        ..      ASRS     r3,r0,#16
        0x00000640:    9801        ..      LDR      r0,[sp,#4]
        0x00000642:    1818        ..      ADDS     r0,r3,r0
        0x00000644:    1841        A.      ADDS     r1,r0,r1
        0x00000646:    68d0        .h      LDR      r0,[r2,#0xc]
        0x00000648:    1a40        @.      SUBS     r0,r0,r1
        0x0000064a:    60d0        .`      STR      r0,[r2,#0xc]
        0x0000064c:    b011        ..      ADD      sp,sp,#0x44
        0x0000064e:    bdf0        ..      POP      {r4-r7,pc}
    fbm320_read_long_data
        0x00000650:    b508        ..      PUSH     {r3,lr}
        0x00000652:    2303        .#      MOVS     r3,#3
        0x00000654:    466a        jF      MOV      r2,sp
        0x00000656:    21f6        .!      MOVS     r1,#0xf6
        0x00000658:    20d8        .       MOVS     r0,#0xd8
        0x0000065a:    f003fa38    ..8.    BL       I2C_SequentialRead ; 0x3ace
        0x0000065e:    4669        iF      MOV      r1,sp
        0x00000660:    7808        .x      LDRB     r0,[r1,#0]
        0x00000662:    7849        Ix      LDRB     r1,[r1,#1]
        0x00000664:    0400        ..      LSLS     r0,r0,#16
        0x00000666:    0209        ..      LSLS     r1,r1,#8
        0x00000668:    4308        .C      ORRS     r0,r0,r1
        0x0000066a:    4669        iF      MOV      r1,sp
        0x0000066c:    7889        .x      LDRB     r1,[r1,#2]
        0x0000066e:    4308        .C      ORRS     r0,r0,r1
        0x00000670:    bd08        ..      POP      {r3,pc}
    coefficient
        0x00000672:    b5f0        ..      PUSH     {r4-r7,lr}
        0x00000674:    b085        ..      SUB      sp,sp,#0x14
        0x00000676:    2400        .$      MOVS     r4,#0
        0x00000678:    466f        oF      MOV      r7,sp
        0x0000067a:    0065        e.      LSLS     r5,r4,#1
        0x0000067c:    4629        )F      MOV      r1,r5
        0x0000067e:    31aa        .1      ADDS     r1,r1,#0xaa
        0x00000680:    20d8        .       MOVS     r0,#0xd8
        0x00000682:    f003f9b4    ....    BL       I2C_ReadByte ; 0x39ee
        0x00000686:    0206        ..      LSLS     r6,r0,#8
        0x00000688:    4629        )F      MOV      r1,r5
        0x0000068a:    31ab        .1      ADDS     r1,r1,#0xab
        0x0000068c:    20d8        .       MOVS     r0,#0xd8
        0x0000068e:    f003f9ae    ....    BL       I2C_ReadByte ; 0x39ee
        0x00000692:    4306        .C      ORRS     r6,r6,r0
        0x00000694:    537e        ~S      STRH     r6,[r7,r5]
        0x00000696:    1c64        d.      ADDS     r4,r4,#1
        0x00000698:    b2e4        ..      UXTB     r4,r4
        0x0000069a:    2c09        .,      CMP      r4,#9
        0x0000069c:    d3ed        ..      BCC      0x67a ; coefficient + 8
        0x0000069e:    21d0        .!      MOVS     r1,#0xd0
        0x000006a0:    20d8        .       MOVS     r0,#0xd8
        0x000006a2:    f003f9a4    ....    BL       I2C_ReadByte ; 0x39ee
        0x000006a6:    0204        ..      LSLS     r4,r0,#8
        0x000006a8:    21f1        .!      MOVS     r1,#0xf1
        0x000006aa:    20d8        .       MOVS     r0,#0xd8
        0x000006ac:    f003f99f    ....    BL       I2C_ReadByte ; 0x39ee
        0x000006b0:    4304        .C      ORRS     r4,r4,r0
        0x000006b2:    4668        hF      MOV      r0,sp
        0x000006b4:    8244        D.      STRH     r4,[r0,#0x12]
        0x000006b6:    483e        >H      LDR      r0,[pc,#248] ; [0x7b0] = 0x20000008
        0x000006b8:    7801        .x      LDRB     r1,[r0,#0]
        0x000006ba:    4839        9H      LDR      r0,[pc,#228] ; [0x7a0] = 0x20000134
        0x000006bc:    090a        ..      LSRS     r2,r1,#4
        0x000006be:    2a01        .*      CMP      r2,#1
        0x000006c0:    d043        C.      BEQ      0x74a ; coefficient + 216
        0x000006c2:    0709        ..      LSLS     r1,r1,#28
        0x000006c4:    0f09        ..      LSRS     r1,r1,#28
        0x000006c6:    2901        .)      CMP      r1,#1
        0x000006c8:    d03f        ?.      BEQ      0x74a ; coefficient + 216
        0x000006ca:    466d        mF      MOV      r5,sp
        0x000006cc:    882b        +.      LDRH     r3,[r5,#0]
        0x000006ce:    0919        ..      LSRS     r1,r3,#4
        0x000006d0:    8301        ..      STRH     r1,[r0,#0x18]
        0x000006d2:    8869        i.      LDRH     r1,[r5,#2]
        0x000006d4:    88ae        ..      LDRH     r6,[r5,#4]
        0x000006d6:    0a0a        ..      LSRS     r2,r1,#8
        0x000006d8:    00d2        ..      LSLS     r2,r2,#3
        0x000006da:    0775        u.      LSLS     r5,r6,#29
        0x000006dc:    0f6d        m.      LSRS     r5,r5,#29
        0x000006de:    432a        *C      ORRS     r2,r2,r5
        0x000006e0:    8342        B.      STRH     r2,[r0,#0x1a]
        0x000006e2:    466d        mF      MOV      r5,sp
        0x000006e4:    892a        *.      LDRH     r2,[r5,#8]
        0x000006e6:    0609        ..      LSLS     r1,r1,#24
        0x000006e8:    0dc9        ..      LSRS     r1,r1,#23
        0x000006ea:    07d5        ..      LSLS     r5,r2,#31
        0x000006ec:    0fed        ..      LSRS     r5,r5,#31
        0x000006ee:    4329        )C      ORRS     r1,r1,r5
        0x000006f0:    8381        ..      STRH     r1,[r0,#0x1c]
        0x000006f2:    08f1        ..      LSRS     r1,r6,#3
        0x000006f4:    83c1        ..      STRH     r1,[r0,#0x1e]
        0x000006f6:    466d        mF      MOV      r5,sp
        0x000006f8:    88e9        ..      LDRH     r1,[r5,#6]
        0x000006fa:    004e        N.      LSLS     r6,r1,#1
        0x000006fc:    8969        i.      LDRH     r1,[r5,#0xa]
        0x000006fe:    07cd        ..      LSLS     r5,r1,#31
        0x00000700:    0fed        ..      LSRS     r5,r5,#31
        0x00000702:    432e        .C      ORRS     r6,r6,r5
        0x00000704:    62c6        .b      STR      r6,[r0,#0x2c]
        0x00000706:    0852        R.      LSRS     r2,r2,#1
        0x00000708:    6302        .c      STR      r2,[r0,#0x30]
        0x0000070a:    08ca        ..      LSRS     r2,r1,#3
        0x0000070c:    8402        ..      STRH     r2,[r0,#0x20]
        0x0000070e:    466d        mF      MOV      r5,sp
        0x00000710:    89aa        ..      LDRH     r2,[r5,#0xc]
        0x00000712:    071b        ..      LSLS     r3,r3,#28
        0x00000714:    0092        ..      LSLS     r2,r2,#2
        0x00000716:    0f9b        ..      LSRS     r3,r3,#30
        0x00000718:    431a        .C      ORRS     r2,r2,r3
        0x0000071a:    6342        Bc      STR      r2,[r0,#0x34]
        0x0000071c:    89eb        ..      LDRH     r3,[r5,#0xe]
        0x0000071e:    08da        ..      LSRS     r2,r3,#3
        0x00000720:    8442        B.      STRH     r2,[r0,#0x22]
        0x00000722:    8a2a        *.      LDRH     r2,[r5,#0x10]
        0x00000724:    0895        ..      LSRS     r5,r2,#2
        0x00000726:    8485        ..      STRH     r5,[r0,#0x24]
        0x00000728:    0a25        %.      LSRS     r5,r4,#8
        0x0000072a:    00ad        ..      LSLS     r5,r5,#2
        0x0000072c:    0792        ..      LSLS     r2,r2,#30
        0x0000072e:    0f92        ..      LSRS     r2,r2,#30
        0x00000730:    4315        .C      ORRS     r5,r5,r2
        0x00000732:    84c5        ..      STRH     r5,[r0,#0x26]
        0x00000734:    b2e2        ..      UXTB     r2,r4
        0x00000736:    8502        ..      STRH     r2,[r0,#0x28]
        0x00000738:    2206        ."      MOVS     r2,#6
        0x0000073a:    4011        .@      ANDS     r1,r1,r2
        0x0000073c:    0089        ..      LSLS     r1,r1,#2
        0x0000073e:    075a        Z.      LSLS     r2,r3,#29
        0x00000740:    0f52        R.      LSRS     r2,r2,#29
        0x00000742:    4311        .C      ORRS     r1,r1,r2
        0x00000744:    8541        A.      STRH     r1,[r0,#0x2a]
        0x00000746:    b005        ..      ADD      sp,sp,#0x14
        0x00000748:    bdf0        ..      POP      {r4-r7,pc}
        0x0000074a:    466d        mF      MOV      r5,sp
        0x0000074c:    8829        ).      LDRH     r1,[r5,#0]
        0x0000074e:    090a        ..      LSRS     r2,r1,#4
        0x00000750:    8302        ..      STRH     r2,[r0,#0x18]
        0x00000752:    886b        k.      LDRH     r3,[r5,#2]
        0x00000754:    0a1a        ..      LSRS     r2,r3,#8
        0x00000756:    00d6        ..      LSLS     r6,r2,#3
        0x00000758:    88aa        ..      LDRH     r2,[r5,#4]
        0x0000075a:    0755        U.      LSLS     r5,r2,#29
        0x0000075c:    0f6d        m.      LSRS     r5,r5,#29
        0x0000075e:    432e        .C      ORRS     r6,r6,r5
        0x00000760:    8346        F.      STRH     r6,[r0,#0x1a]
        0x00000762:    061b        ..      LSLS     r3,r3,#24
        0x00000764:    0dde        ..      LSRS     r6,r3,#23
        0x00000766:    466d        mF      MOV      r5,sp
        0x00000768:    892b        +.      LDRH     r3,[r5,#8]
        0x0000076a:    07dd        ..      LSLS     r5,r3,#31
        0x0000076c:    0fed        ..      LSRS     r5,r5,#31
        0x0000076e:    432e        .C      ORRS     r6,r6,r5
        0x00000770:    8386        ..      STRH     r6,[r0,#0x1c]
        0x00000772:    08d2        ..      LSRS     r2,r2,#3
        0x00000774:    83c2        ..      STRH     r2,[r0,#0x1e]
        0x00000776:    466d        mF      MOV      r5,sp
        0x00000778:    88ea        ..      LDRH     r2,[r5,#6]
        0x0000077a:    078d        ..      LSLS     r5,r1,#30
        0x0000077c:    0092        ..      LSLS     r2,r2,#2
        0x0000077e:    0fad        ..      LSRS     r5,r5,#30
        0x00000780:    432a        *C      ORRS     r2,r2,r5
        0x00000782:    62c2        .b      STR      r2,[r0,#0x2c]
        0x00000784:    085a        Z.      LSRS     r2,r3,#1
        0x00000786:    6302        .c      STR      r2,[r0,#0x30]
        0x00000788:    466d        mF      MOV      r5,sp
        0x0000078a:    896a        j.      LDRH     r2,[r5,#0xa]
        0x0000078c:    08d3        ..      LSRS     r3,r2,#3
        0x0000078e:    8403        ..      STRH     r3,[r0,#0x20]
        0x00000790:    89ab        ..      LDRH     r3,[r5,#0xc]
        0x00000792:    0752        R.      LSLS     r2,r2,#29
        0x00000794:    00db        ..      LSLS     r3,r3,#3
        0x00000796:    0f52        R.      LSRS     r2,r2,#29
        0x00000798:    4313        .C      ORRS     r3,r3,r2
        0x0000079a:    6343        Cc      STR      r3,[r0,#0x34]
        0x0000079c:    89ea        ..      LDRH     r2,[r5,#0xe]
        0x0000079e:    e01d        ..      B        0x7dc ; coefficient + 362
    $d
        0x000007a0:    20000134    4..     DCD    536871220
        0x000007a4:    0000022f    /...    DCD    559
        0x000007a8:    fffffa17    ....    DCD    4294965783
        0x000007ac:    00000333    3...    DCD    819
        0x000007b0:    20000008    ...     DCD    536870920
        0x000007b4:    00001142    B...    DCD    4418
        0x000007b8:    04e20000    ....    DCD    81920000
        0x000007bc:    00033958    X9..    DCD    211288
        0x000007c0:    00001c29    )...    DCD    7209
        0x000007c4:    ffffeea5    ....    DCD    4294962853
        0x000007c8:    0001d70a    ....    DCD    120586
        0x000007cc:    00028a1a    ....    DCD    166426
        0x000007d0:    00018628    (...    DCD    99880
        0x000007d4:    00045b9a    .[..    DCD    285594
        0x000007d8:    fffff63c    <...    DCD    4294964796
    $t
        0x000007dc:    08d3        ..      LSRS     r3,r2,#3
        0x000007de:    8443        C.      STRH     r3,[r0,#0x22]
        0x000007e0:    8a2b        +.      LDRH     r3,[r5,#0x10]
        0x000007e2:    089d        ..      LSRS     r5,r3,#2
        0x000007e4:    8485        ..      STRH     r5,[r0,#0x24]
        0x000007e6:    0a25        %.      LSRS     r5,r4,#8
        0x000007e8:    00ad        ..      LSLS     r5,r5,#2
        0x000007ea:    079b        ..      LSLS     r3,r3,#30
        0x000007ec:    0f9b        ..      LSRS     r3,r3,#30
        0x000007ee:    431d        .C      ORRS     r5,r5,r3
        0x000007f0:    84c5        ..      STRH     r5,[r0,#0x26]
        0x000007f2:    b2e3        ..      UXTB     r3,r4
        0x000007f4:    8503        ..      STRH     r3,[r0,#0x28]
        0x000007f6:    230c        .#      MOVS     r3,#0xc
        0x000007f8:    4019        .@      ANDS     r1,r1,r3
        0x000007fa:    0049        I.      LSLS     r1,r1,#1
        0x000007fc:    0752        R.      LSLS     r2,r2,#29
        0x000007fe:    0f52        R.      LSRS     r2,r2,#29
        0x00000800:    4311        .C      ORRS     r1,r1,r2
        0x00000802:    8541        A.      STRH     r1,[r0,#0x2a]
        0x00000804:    e79f        ..      B        0x746 ; coefficient + 212
    fbm320_init
        0x00000806:    b570        p.      PUSH     {r4-r6,lr}
        0x00000808:    216b        k!      MOVS     r1,#0x6b
        0x0000080a:    20d8        .       MOVS     r0,#0xd8
        0x0000080c:    f003f8ef    ....    BL       I2C_ReadByte ; 0x39ee
        0x00000810:    2842        B(      CMP      r0,#0x42
        0x00000812:    d001        ..      BEQ      0x818 ; fbm320_init + 18
        0x00000814:    2000        .       MOVS     r0,#0
        0x00000816:    bd70        p.      POP      {r4-r6,pc}
        0x00000818:    21a5        .!      MOVS     r1,#0xa5
        0x0000081a:    20d8        .       MOVS     r0,#0xd8
        0x0000081c:    f003f8e7    ....    BL       I2C_ReadByte ; 0x39ee
        0x00000820:    2170        p!      MOVS     r1,#0x70
        0x00000822:    4008        .@      ANDS     r0,r0,r1
        0x00000824:    0885        ..      LSRS     r5,r0,#2
        0x00000826:    21f4        .!      MOVS     r1,#0xf4
        0x00000828:    20d8        .       MOVS     r0,#0xd8
        0x0000082a:    f003f8e0    ....    BL       I2C_ReadByte ; 0x39ee
        0x0000082e:    0980        ..      LSRS     r0,r0,#6
        0x00000830:    4cb6        .L      LDR      r4,[pc,#728] ; [0xb0c] = 0x20000134
        0x00000832:    4305        .C      ORRS     r5,r5,r0
        0x00000834:    7025        %p      STRB     r5,[r4,#0]
        0x00000836:    2003        .       MOVS     r0,#3
        0x00000838:    7060        `p      STRB     r0,[r4,#1]
        0x0000083a:    48b5        .H      LDR      r0,[pc,#724] ; [0xb10] = 0x20000008
        0x0000083c:    2201        ."      MOVS     r2,#1
        0x0000083e:    7801        .x      LDRB     r1,[r0,#0]
        0x00000840:    4311        .C      ORRS     r1,r1,r2
        0x00000842:    7001        .p      STRB     r1,[r0,#0]
        0x00000844:    f7ffff15    ....    BL       coefficient ; 0x672
        0x00000848:    222e        ."      MOVS     r2,#0x2e
        0x0000084a:    21f4        .!      MOVS     r1,#0xf4
        0x0000084c:    20d8        .       MOVS     r0,#0xd8
        0x0000084e:    f003f883    ....    BL       I2C_WriteByte ; 0x3958
        0x00000852:    4db1        .M      LDR      r5,[pc,#708] ; [0xb18] = 0x40010000
        0x00000854:    49af        .I      LDR      r1,[pc,#700] ; [0xb14] = 0x1388
        0x00000856:    4628        (F      MOV      r0,r5
        0x00000858:    f003fc48    ..H.    BL       TIMER_Delay ; 0x40ec
        0x0000085c:    f7fffef8    ....    BL       fbm320_read_long_data ; 0x650
        0x00000860:    60a0        .`      STR      r0,[r4,#8]
        0x00000862:    22f4        ."      MOVS     r2,#0xf4
        0x00000864:    4611        .F      MOV      r1,r2
        0x00000866:    20d8        .       MOVS     r0,#0xd8
        0x00000868:    f003f876    ..v.    BL       I2C_WriteByte ; 0x3958
        0x0000086c:    49ab        .I      LDR      r1,[pc,#684] ; [0xb1c] = 0x4e20
        0x0000086e:    4628        (F      MOV      r0,r5
        0x00000870:    f003fc3c    ..<.    BL       TIMER_Delay ; 0x40ec
        0x00000874:    f7fffeec    ....    BL       fbm320_read_long_data ; 0x650
        0x00000878:    6060        ``      STR      r0,[r4,#4]
        0x0000087a:    68a1        .h      LDR      r1,[r4,#8]
        0x0000087c:    f7fffd88    ....    BL       calculate ; 0x390
        0x00000880:    222e        ."      MOVS     r2,#0x2e
        0x00000882:    21f4        .!      MOVS     r1,#0xf4
        0x00000884:    20d8        .       MOVS     r0,#0xd8
        0x00000886:    f003f867    ..g.    BL       I2C_WriteByte ; 0x3958
        0x0000088a:    2000        .       MOVS     r0,#0
        0x0000088c:    6160        `a      STR      r0,[r4,#0x14]
        0x0000088e:    2001        .       MOVS     r0,#1
        0x00000890:    bd70        p.      POP      {r4-r6,pc}
    abs_altitude
        0x00000892:    b530        0.      PUSH     {r4,r5,lr}
        0x00000894:    49a2        .I      LDR      r1,[pc,#648] ; [0xb20] = 0x19258
        0x00000896:    4288        .B      CMP      r0,r1
        0x00000898:    db05        ..      BLT      0x8a6 ; abs_altitude + 20
        0x0000089a:    2167        g!      MOVS     r1,#0x67
        0x0000089c:    4ca1        .L      LDR      r4,[pc,#644] ; [0xb24] = 0xfffde2f5
        0x0000089e:    4ba2        .K      LDR      r3,[pc,#648] ; [0xb28] = 0xffffadf1
        0x000008a0:    22ff        ."      MOVS     r2,#0xff
        0x000008a2:    3238        82      ADDS     r2,r2,#0x38
        0x000008a4:    e07d        }.      B        0x9a2 ; abs_altitude + 272
        0x000008a6:    49a1        .I      LDR      r1,[pc,#644] ; [0xb2c] = 0x17ed0
        0x000008a8:    4288        .B      CMP      r0,r1
        0x000008aa:    db05        ..      BLT      0x8b8 ; abs_altitude + 38
        0x000008ac:    2162        b!      MOVS     r1,#0x62
        0x000008ae:    4ca0        .L      LDR      r4,[pc,#640] ; [0xb30] = 0x447d3
        0x000008b0:    4ba0        .K      LDR      r3,[pc,#640] ; [0xb34] = 0xffffaa93
        0x000008b2:    22ff        ."      MOVS     r2,#0xff
        0x000008b4:    3253        S2      ADDS     r2,r2,#0x53
        0x000008b6:    e074        t.      B        0x9a2 ; abs_altitude + 272
        0x000008b8:    499f        .I      LDR      r1,[pc,#636] ; [0xb38] = 0x16b48
        0x000008ba:    4288        .B      CMP      r0,r1
        0x000008bc:    db05        ..      BLT      0x8ca ; abs_altitude + 56
        0x000008be:    215d        ]!      MOVS     r1,#0x5d
        0x000008c0:    4c9e        .L      LDR      r4,[pc,#632] ; [0xb3c] = 0xaf1c5
        0x000008c2:    4b9f        .K      LDR      r3,[pc,#636] ; [0xb40] = 0xffffa6e3
        0x000008c4:    22ff        ."      MOVS     r2,#0xff
        0x000008c6:    3273        s2      ADDS     r2,r2,#0x73
        0x000008c8:    e06b        k.      B        0x9a2 ; abs_altitude + 272
        0x000008ca:    499e        .I      LDR      r1,[pc,#632] ; [0xb44] = 0x157c0
        0x000008cc:    4288        .B      CMP      r0,r1
        0x000008ce:    db05        ..      BLT      0x8dc ; abs_altitude + 74
        0x000008d0:    2158        X!      MOVS     r1,#0x58
        0x000008d2:    4c9d        .L      LDR      r4,[pc,#628] ; [0xb48] = 0x11e7ad
        0x000008d4:    4b9d        .K      LDR      r3,[pc,#628] ; [0xb4c] = 0xffffa2d2
        0x000008d6:    22ff        ."      MOVS     r2,#0xff
        0x000008d8:    3298        .2      ADDS     r2,r2,#0x98
        0x000008da:    e062        b.      B        0x9a2 ; abs_altitude + 272
        0x000008dc:    499c        .I      LDR      r1,[pc,#624] ; [0xb50] = 0x14438
        0x000008de:    4288        .B      CMP      r0,r1
        0x000008e0:    db05        ..      BLT      0x8ee ; abs_altitude + 92
        0x000008e2:    2153        S!      MOVS     r1,#0x53
        0x000008e4:    4c9b        .L      LDR      r4,[pc,#620] ; [0xb54] = 0x19318c
        0x000008e6:    4b9c        .K      LDR      r3,[pc,#624] ; [0xb58] = 0xffff9e51
        0x000008e8:    22ff        ."      MOVS     r2,#0xff
        0x000008ea:    32c3        .2      ADDS     r2,r2,#0xc3
        0x000008ec:    e059        Y.      B        0x9a2 ; abs_altitude + 272
        0x000008ee:    499b        .I      LDR      r1,[pc,#620] ; [0xb5c] = 0x130b0
        0x000008f0:    4288        .B      CMP      r0,r1
        0x000008f2:    db05        ..      BLT      0x900 ; abs_altitude + 110
        0x000008f4:    214e        N!      MOVS     r1,#0x4e
        0x000008f6:    4c9a        .L      LDR      r4,[pc,#616] ; [0xb60] = 0x20d8c5
        0x000008f8:    4b9a        .K      LDR      r3,[pc,#616] ; [0xb64] = 0xffff994c
        0x000008fa:    22ff        ."      MOVS     r2,#0xff
        0x000008fc:    32f6        .2      ADDS     r2,r2,#0xf6
        0x000008fe:    e050        P.      B        0x9a2 ; abs_altitude + 272
        0x00000900:    4999        .I      LDR      r1,[pc,#612] ; [0xb68] = 0x11d28
        0x00000902:    4288        .B      CMP      r0,r1
        0x00000904:    db05        ..      BLT      0x912 ; abs_altitude + 128
        0x00000906:    2149        I!      MOVS     r1,#0x49
        0x00000908:    4c98        .L      LDR      r4,[pc,#608] ; [0xb6c] = 0x28e87a
        0x0000090a:    4b99        .K      LDR      r3,[pc,#612] ; [0xb70] = 0xffff93a9
        0x0000090c:    2223        #"      MOVS     r2,#0x23
        0x0000090e:    0112        ..      LSLS     r2,r2,#4
        0x00000910:    e047        G.      B        0x9a2 ; abs_altitude + 272
        0x00000912:    4998        .I      LDR      r1,[pc,#608] ; [0xb74] = 0x109a0
        0x00000914:    4288        .B      CMP      r0,r1
        0x00000916:    db05        ..      BLT      0x924 ; abs_altitude + 146
        0x00000918:    2144        D!      MOVS     r1,#0x44
        0x0000091a:    4c97        .L      LDR      r4,[pc,#604] ; [0xb78] = 0x316e02
        0x0000091c:    4b97        .K      LDR      r3,[pc,#604] ; [0xb7c] = 0xffff8d4a
        0x0000091e:    224f        O"      MOVS     r2,#0x4f
        0x00000920:    00d2        ..      LSLS     r2,r2,#3
        0x00000922:    e03e        >.      B        0x9a2 ; abs_altitude + 272
        0x00000924:    4996        .I      LDR      r1,[pc,#600] ; [0xb80] = 0xf618
        0x00000926:    4288        .B      CMP      r0,r1
        0x00000928:    db04        ..      BLT      0x934 ; abs_altitude + 162
        0x0000092a:    213f        ?!      MOVS     r1,#0x3f
        0x0000092c:    4c95        .L      LDR      r4,[pc,#596] ; [0xb84] = 0x3a798c
        0x0000092e:    4b96        .K      LDR      r3,[pc,#600] ; [0xb88] = 0xffff8603
        0x00000930:    4a96        .J      LDR      r2,[pc,#600] ; [0xb8c] = 0x2cf
        0x00000932:    e036        6.      B        0x9a2 ; abs_altitude + 272
        0x00000934:    4996        .I      LDR      r1,[pc,#600] ; [0xb90] = 0xe290
        0x00000936:    4288        .B      CMP      r0,r1
        0x00000938:    db05        ..      BLT      0x946 ; abs_altitude + 180
        0x0000093a:    213a        :!      MOVS     r1,#0x3a
        0x0000093c:    4c95        .L      LDR      r4,[pc,#596] ; [0xb94] = 0x441f03
        0x0000093e:    4b96        .K      LDR      r3,[pc,#600] ; [0xb98] = 0xffff7d9f
        0x00000940:    4a92        .J      LDR      r2,[pc,#584] ; [0xb8c] = 0x2cf
        0x00000942:    326b        k2      ADDS     r2,r2,#0x6b
        0x00000944:    e02d        -.      B        0x9a2 ; abs_altitude + 272
        0x00000946:    4995        .I      LDR      r1,[pc,#596] ; [0xb9c] = 0xcf08
        0x00000948:    4288        .B      CMP      r0,r1
        0x0000094a:    db05        ..      BLT      0x958 ; abs_altitude + 198
        0x0000094c:    2135        5!      MOVS     r1,#0x35
        0x0000094e:    4c94        .L      LDR      r4,[pc,#592] ; [0xba0] = 0x4e7757
        0x00000950:    4b94        .K      LDR      r3,[pc,#592] ; [0xba4] = 0xffff73d3
        0x00000952:    220f        ."      MOVS     r2,#0xf
        0x00000954:    0192        ..      LSLS     r2,r2,#6
        0x00000956:    e024        $.      B        0x9a2 ; abs_altitude + 272
        0x00000958:    4993        .I      LDR      r1,[pc,#588] ; [0xba8] = 0xbb80
        0x0000095a:    4288        .B      CMP      r0,r1
        0x0000095c:    db04        ..      BLT      0x968 ; abs_altitude + 214
        0x0000095e:    2130        0!      MOVS     r1,#0x30
        0x00000960:    4c92        .L      LDR      r4,[pc,#584] ; [0xbac] = 0x59a25c
        0x00000962:    4b93        .K      LDR      r3,[pc,#588] ; [0xbb0] = 0xffff6839
        0x00000964:    4a93        .J      LDR      r2,[pc,#588] ; [0xbb4] = 0x46b
        0x00000966:    e01c        ..      B        0x9a2 ; abs_altitude + 272
        0x00000968:    4993        .I      LDR      r1,[pc,#588] ; [0xbb8] = 0xa7f8
        0x0000096a:    4288        .B      CMP      r0,r1
        0x0000096c:    db05        ..      BLT      0x97a ; abs_altitude + 232
        0x0000096e:    212b        +!      MOVS     r1,#0x2b
        0x00000970:    4c92        .L      LDR      r4,[pc,#584] ; [0xbbc] = 0x65c9aa
        0x00000972:    4b93        .K      LDR      r3,[pc,#588] ; [0xbc0] = 0xffff5a3e
        0x00000974:    4a8f        .J      LDR      r2,[pc,#572] ; [0xbb4] = 0x46b
        0x00000976:    32df        .2      ADDS     r2,r2,#0xdf
        0x00000978:    e013        ..      B        0x9a2 ; abs_altitude + 272
        0x0000097a:    4992        .I      LDR      r1,[pc,#584] ; [0xbc4] = 0x9470
        0x0000097c:    4288        .B      CMP      r0,r1
        0x0000097e:    db04        ..      BLT      0x98a ; abs_altitude + 248
        0x00000980:    2126        &!      MOVS     r1,#0x26
        0x00000982:    4c91        .L      LDR      r4,[pc,#580] ; [0xbc8] = 0x73252d
        0x00000984:    4b91        .K      LDR      r3,[pc,#580] ; [0xbcc] = 0xffff4907
        0x00000986:    4a92        .J      LDR      r2,[pc,#584] ; [0xbd0] = 0x676
        0x00000988:    e00b        ..      B        0x9a2 ; abs_altitude + 272
        0x0000098a:    4992        .I      LDR      r1,[pc,#584] ; [0xbd4] = 0x80e8
        0x0000098c:    4288        .B      CMP      r0,r1
        0x0000098e:    db04        ..      BLT      0x99a ; abs_altitude + 264
        0x00000990:    2121        !!      MOVS     r1,#0x21
        0x00000992:    4c91        .L      LDR      r4,[pc,#580] ; [0xbd8] = 0x8202cb
        0x00000994:    4b91        .K      LDR      r3,[pc,#580] ; [0xbdc] = 0xffff3344
        0x00000996:    4a92        .J      LDR      r2,[pc,#584] ; [0xbe0] = 0x818
        0x00000998:    e003        ..      B        0x9a2 ; abs_altitude + 272
        0x0000099a:    211c        .!      MOVS     r1,#0x1c
        0x0000099c:    4c91        .L      LDR      r4,[pc,#580] ; [0xbe4] = 0x92d408
        0x0000099e:    4b92        .K      LDR      r3,[pc,#584] ; [0xbe8] = 0xffff16c8
        0x000009a0:    4a92        .J      LDR      r2,[pc,#584] ; [0xbec] = 0xa7a
        0x000009a2:    257d        }%      MOVS     r5,#0x7d
        0x000009a4:    00ed        ..      LSLS     r5,r5,#3
        0x000009a6:    4369        iC      MULS     r1,r5,r1
        0x000009a8:    1a40        @.      SUBS     r0,r0,r1
        0x000009aa:    b200        ..      SXTH     r0,r0
        0x000009ac:    4343        CC      MULS     r3,r0,r3
        0x000009ae:    1099        ..      ASRS     r1,r3,#2
        0x000009b0:    4342        BC      MULS     r2,r0,r2
        0x000009b2:    1292        ..      ASRS     r2,r2,#10
        0x000009b4:    4342        BC      MULS     r2,r0,r2
        0x000009b6:    1110        ..      ASRS     r0,r2,#4
        0x000009b8:    01a2        ..      LSLS     r2,r4,#6
        0x000009ba:    1851        Q.      ADDS     r1,r2,r1
        0x000009bc:    1808        ..      ADDS     r0,r1,r0
        0x000009be:    1180        ..      ASRS     r0,r0,#6
        0x000009c0:    bd30        0.      POP      {r4,r5,pc}
    fbm320_timer_procedure
        0x000009c2:    b5f8        ..      PUSH     {r3-r7,lr}
        0x000009c4:    4e52        RN      LDR      r6,[pc,#328] ; [0xb10] = 0x20000008
        0x000009c6:    2401        .$      MOVS     r4,#1
        0x000009c8:    8870        p.      LDRH     r0,[r6,#2]
        0x000009ca:    2800        .(      CMP      r0,#0
        0x000009cc:    d005        ..      BEQ      0x9da ; fbm320_timer_procedure + 24
        0x000009ce:    4d4f        OM      LDR      r5,[pc,#316] ; [0xb0c] = 0x20000134
        0x000009d0:    2801        .(      CMP      r0,#1
        0x000009d2:    d008        ..      BEQ      0x9e6 ; fbm320_timer_procedure + 36
        0x000009d4:    2802        .(      CMP      r0,#2
        0x000009d6:    d105        ..      BNE      0x9e4 ; fbm320_timer_procedure + 34
        0x000009d8:    e00e        ..      B        0x9f8 ; fbm320_timer_procedure + 54
        0x000009da:    22f4        ."      MOVS     r2,#0xf4
        0x000009dc:    4611        .F      MOV      r1,r2
        0x000009de:    20d8        .       MOVS     r0,#0xd8
        0x000009e0:    f002ffba    ....    BL       I2C_WriteByte ; 0x3958
        0x000009e4:    e089        ..      B        0xafa ; fbm320_timer_procedure + 312
        0x000009e6:    f7fffe33    ..3.    BL       fbm320_read_long_data ; 0x650
        0x000009ea:    6068        h`      STR      r0,[r5,#4]
        0x000009ec:    222e        ."      MOVS     r2,#0x2e
        0x000009ee:    21f4        .!      MOVS     r1,#0xf4
        0x000009f0:    20d8        .       MOVS     r0,#0xd8
        0x000009f2:    f002ffb1    ....    BL       I2C_WriteByte ; 0x3958
        0x000009f6:    e080        ..      B        0xafa ; fbm320_timer_procedure + 312
        0x000009f8:    f7fffe2a    ..*.    BL       fbm320_read_long_data ; 0x650
        0x000009fc:    60a8        .`      STR      r0,[r5,#8]
        0x000009fe:    22f4        ."      MOVS     r2,#0xf4
        0x00000a00:    4611        .F      MOV      r1,r2
        0x00000a02:    20d8        .       MOVS     r0,#0xd8
        0x00000a04:    f002ffa8    ....    BL       I2C_WriteByte ; 0x3958
        0x00000a08:    68a9        .h      LDR      r1,[r5,#8]
        0x00000a0a:    6868        hh      LDR      r0,[r5,#4]
        0x00000a0c:    f7fffcc0    ....    BL       calculate ; 0x390
        0x00000a10:    68e8        .h      LDR      r0,[r5,#0xc]
        0x00000a12:    f7ffff3e    ..>.    BL       abs_altitude ; 0x892
        0x00000a16:    f004fb51    ..Q.    BL       __aeabi_i2f ; 0x50bc
        0x00000a1a:    4975        uI      LDR      r1,[pc,#468] ; [0xbf0] = 0x447a0000
        0x00000a1c:    f004f95c    ..\.    BL       __aeabi_fdiv ; 0x4cd8
        0x00000a20:    4607        .F      MOV      r7,r0
        0x00000a22:    7870        px      LDRB     r0,[r6,#1]
        0x00000a24:    2800        .(      CMP      r0,#0
        0x00000a26:    d022        ".      BEQ      0xa6e ; fbm320_timer_procedure + 172
        0x00000a28:    4872        rH      LDR      r0,[pc,#456] ; [0xbf4] = 0x2000017c
        0x00000a2a:    7980        .y      LDRB     r0,[r0,#6]
        0x00000a2c:    2800        .(      CMP      r0,#0
        0x00000a2e:    d058        X.      BEQ      0xae2 ; fbm320_timer_procedure + 288
        0x00000a30:    4836        6H      LDR      r0,[pc,#216] ; [0xb0c] = 0x20000134
        0x00000a32:    2301        .#      MOVS     r3,#1
        0x00000a34:    463a        :F      MOV      r2,r7
        0x00000a36:    2105        .!      MOVS     r1,#5
        0x00000a38:    3814        .8      SUBS     r0,r0,#0x14
        0x00000a3a:    f000fc5d    ..].    BL       Moving_Average ; 0x12f8
        0x00000a3e:    9000        ..      STR      r0,[sp,#0]
        0x00000a40:    6969        ii      LDR      r1,[r5,#0x14]
        0x00000a42:    9800        ..      LDR      r0,[sp,#0]
        0x00000a44:    f004f903    ....    BL       __aeabi_fsub ; 0x4c4e
        0x00000a48:    f004fb77    ..w.    BL       __aeabi_f2d ; 0x513a
        0x00000a4c:    0040        @.      LSLS     r0,r0,#1
        0x00000a4e:    0840        @.      LSRS     r0,r0,#1
        0x00000a50:    280a        .(      CMP      r0,#0xa
        0x00000a52:    da20         .      BGE      0xa96 ; fbm320_timer_procedure + 212
        0x00000a54:    696f        oi      LDR      r7,[r5,#0x14]
        0x00000a56:    9800        ..      LDR      r0,[sp,#0]
        0x00000a58:    4639        9F      MOV      r1,r7
        0x00000a5a:    f004f8f8    ....    BL       __aeabi_fsub ; 0x4c4e
        0x00000a5e:    4966        fI      LDR      r1,[pc,#408] ; [0xbf8] = 0x3e432ca5
        0x00000a60:    f004f8fd    ....    BL       __aeabi_fmul ; 0x4c5e
        0x00000a64:    4639        9F      MOV      r1,r7
        0x00000a66:    f004f8a1    ....    BL       __aeabi_fadd ; 0x4bac
        0x00000a6a:    6168        ha      STR      r0,[r5,#0x14]
        0x00000a6c:    e036        6.      B        0xadc ; fbm320_timer_procedure + 282
        0x00000a6e:    6870        ph      LDR      r0,[r6,#4]
        0x00000a70:    2800        .(      CMP      r0,#0
        0x00000a72:    d00c        ..      BEQ      0xa8e ; fbm320_timer_procedure + 204
        0x00000a74:    f000faae    ....    BL       sys_milli ; 0xfd4
        0x00000a78:    6871        qh      LDR      r1,[r6,#4]
        0x00000a7a:    1a40        @.      SUBS     r0,r0,r1
        0x00000a7c:    21ff        .!      MOVS     r1,#0xff
        0x00000a7e:    31f5        .1      ADDS     r1,r1,#0xf5
        0x00000a80:    4288        .B      CMP      r0,r1
        0x00000a82:    d93a        :.      BLS      0xafa ; fbm320_timer_procedure + 312
        0x00000a84:    0078        x.      LSLS     r0,r7,#1
        0x00000a86:    0e00        ..      LSRS     r0,r0,#24
        0x00000a88:    d037        7.      BEQ      0xafa ; fbm320_timer_procedure + 312
        0x00000a8a:    7074        tp      STRB     r4,[r6,#1]
        0x00000a8c:    e035        5.      B        0xafa ; fbm320_timer_procedure + 312
        0x00000a8e:    f000faa1    ....    BL       sys_milli ; 0xfd4
        0x00000a92:    6070        p`      STR      r0,[r6,#4]
        0x00000a94:    e031        1.      B        0xafa ; fbm320_timer_procedure + 312
        0x00000a96:    6969        ii      LDR      r1,[r5,#0x14]
        0x00000a98:    9800        ..      LDR      r0,[sp,#0]
        0x00000a9a:    f004f8d8    ....    BL       __aeabi_fsub ; 0x4c4e
        0x00000a9e:    f004fb4c    ..L.    BL       __aeabi_f2d ; 0x513a
        0x00000aa2:    0040        @.      LSLS     r0,r0,#1
        0x00000aa4:    0840        @.      LSRS     r0,r0,#1
        0x00000aa6:    2832        2(      CMP      r0,#0x32
        0x00000aa8:    da0c        ..      BGE      0xac4 ; fbm320_timer_procedure + 258
        0x00000aaa:    696f        oi      LDR      r7,[r5,#0x14]
        0x00000aac:    9800        ..      LDR      r0,[sp,#0]
        0x00000aae:    4639        9F      MOV      r1,r7
        0x00000ab0:    f004f8cd    ....    BL       __aeabi_fsub ; 0x4c4e
        0x00000ab4:    4951        QI      LDR      r1,[pc,#324] ; [0xbfc] = 0x3dd77319
        0x00000ab6:    f004f8d2    ....    BL       __aeabi_fmul ; 0x4c5e
        0x00000aba:    4639        9F      MOV      r1,r7
        0x00000abc:    f004f876    ..v.    BL       __aeabi_fadd ; 0x4bac
        0x00000ac0:    6168        ha      STR      r0,[r5,#0x14]
        0x00000ac2:    e00b        ..      B        0xadc ; fbm320_timer_procedure + 282
        0x00000ac4:    696f        oi      LDR      r7,[r5,#0x14]
        0x00000ac6:    9800        ..      LDR      r0,[sp,#0]
        0x00000ac8:    4639        9F      MOV      r1,r7
        0x00000aca:    f004f8c0    ....    BL       __aeabi_fsub ; 0x4c4e
        0x00000ace:    494c        LI      LDR      r1,[pc,#304] ; [0xc00] = 0x3d6353f8
        0x00000ad0:    f004f8c5    ....    BL       __aeabi_fmul ; 0x4c5e
        0x00000ad4:    4639        9F      MOV      r1,r7
        0x00000ad6:    f004f869    ..i.    BL       __aeabi_fadd ; 0x4bac
        0x00000ada:    6168        ha      STR      r0,[r5,#0x14]
        0x00000adc:    4845        EH      LDR      r0,[pc,#276] ; [0xbf4] = 0x2000017c
        0x00000ade:    7144        Dq      STRB     r4,[r0,#5]
        0x00000ae0:    e009        ..      B        0xaf6 ; fbm320_timer_procedure + 308
        0x00000ae2:    2000        .       MOVS     r0,#0
        0x00000ae4:    4909        .I      LDR      r1,[pc,#36] ; [0xb0c] = 0x20000134
        0x00000ae6:    3914        .9      SUBS     r1,r1,#0x14
        0x00000ae8:    616f        oa      STR      r7,[r5,#0x14]
        0x00000aea:    0082        ..      LSLS     r2,r0,#2
        0x00000aec:    508f        .P      STR      r7,[r1,r2]
        0x00000aee:    1c40        @.      ADDS     r0,r0,#1
        0x00000af0:    b2c0        ..      UXTB     r0,r0
        0x00000af2:    2805        .(      CMP      r0,#5
        0x00000af4:    d3f8        ..      BCC      0xae8 ; fbm320_timer_procedure + 294
        0x00000af6:    483f        ?H      LDR      r0,[pc,#252] ; [0xbf4] = 0x2000017c
        0x00000af8:    7184        .q      STRB     r4,[r0,#6]
        0x00000afa:    8870        p.      LDRH     r0,[r6,#2]
        0x00000afc:    2803        .(      CMP      r0,#3
        0x00000afe:    d202        ..      BCS      0xb06 ; fbm320_timer_procedure + 324
        0x00000b00:    1c40        @.      ADDS     r0,r0,#1
        0x00000b02:    8070        p.      STRH     r0,[r6,#2]
        0x00000b04:    bdf8        ..      POP      {r3-r7,pc}
        0x00000b06:    8074        t.      STRH     r4,[r6,#2]
        0x00000b08:    bdf8        ..      POP      {r3-r7,pc}
    $d
        0x00000b0a:    0000        ..      DCW    0
        0x00000b0c:    20000134    4..     DCD    536871220
        0x00000b10:    20000008    ...     DCD    536870920
        0x00000b14:    00001388    ....    DCD    5000
        0x00000b18:    40010000    ...@    DCD    1073807360
        0x00000b1c:    00004e20     N..    DCD    20000
        0x00000b20:    00019258    X...    DCD    103000
        0x00000b24:    fffde2f5    ....    DCD    4294828789
        0x00000b28:    ffffadf1    ....    DCD    4294946289
        0x00000b2c:    00017ed0    .~..    DCD    98000
        0x00000b30:    000447d3    .G..    DCD    280531
        0x00000b34:    ffffaa93    ....    DCD    4294945427
        0x00000b38:    00016b48    Hk..    DCD    93000
        0x00000b3c:    000af1c5    ....    DCD    717253
        0x00000b40:    ffffa6e3    ....    DCD    4294944483
        0x00000b44:    000157c0    .W..    DCD    88000
        0x00000b48:    0011e7ad    ....    DCD    1173421
        0x00000b4c:    ffffa2d2    ....    DCD    4294943442
        0x00000b50:    00014438    8D..    DCD    83000
        0x00000b54:    0019318c    .1..    DCD    1651084
        0x00000b58:    ffff9e51    Q...    DCD    4294942289
        0x00000b5c:    000130b0    .0..    DCD    78000
        0x00000b60:    0020d8c5    .. .    DCD    2152645
        0x00000b64:    ffff994c    L...    DCD    4294941004
        0x00000b68:    00011d28    (...    DCD    73000
        0x00000b6c:    0028e87a    z.(.    DCD    2680954
        0x00000b70:    ffff93a9    ....    DCD    4294939561
        0x00000b74:    000109a0    ....    DCD    68000
        0x00000b78:    00316e02    .n1.    DCD    3239426
        0x00000b7c:    ffff8d4a    J...    DCD    4294937930
        0x00000b80:    0000f618    ....    DCD    63000
        0x00000b84:    003a798c    .y:.    DCD    3832204
        0x00000b88:    ffff8603    ....    DCD    4294936067
        0x00000b8c:    000002cf    ....    DCD    719
        0x00000b90:    0000e290    ....    DCD    58000
        0x00000b94:    00441f03    ..D.    DCD    4464387
        0x00000b98:    ffff7d9f    .}..    DCD    4294933919
        0x00000b9c:    0000cf08    ....    DCD    53000
        0x00000ba0:    004e7757    WwN.    DCD    5142359
        0x00000ba4:    ffff73d3    .s..    DCD    4294931411
        0x00000ba8:    0000bb80    ....    DCD    48000
        0x00000bac:    0059a25c    \.Y.    DCD    5874268
        0x00000bb0:    ffff6839    9h..    DCD    4294928441
        0x00000bb4:    0000046b    k...    DCD    1131
        0x00000bb8:    0000a7f8    ....    DCD    43000
        0x00000bbc:    0065c9aa    ..e.    DCD    6670762
        0x00000bc0:    ffff5a3e    >Z..    DCD    4294924862
        0x00000bc4:    00009470    p...    DCD    38000
        0x00000bc8:    0073252d    -%s.    DCD    7546157
        0x00000bcc:    ffff4907    .I..    DCD    4294920455
        0x00000bd0:    00000676    v...    DCD    1654
        0x00000bd4:    000080e8    ....    DCD    33000
        0x00000bd8:    008202cb    ....    DCD    8520395
        0x00000bdc:    ffff3344    D3..    DCD    4294914884
        0x00000be0:    00000818    ....    DCD    2072
        0x00000be4:    0092d408    ....    DCD    9622536
        0x00000be8:    ffff16c8    ....    DCD    4294907592
        0x00000bec:    00000a7a    z...    DCD    2682
        0x00000bf0:    447a0000    ..zD    DCD    1148846080
        0x00000bf4:    2000017c    |..     DCD    536871292
        0x00000bf8:    3e432ca5    .,C>    DCD    1044589733
        0x00000bfc:    3dd77319    .s.=    DCD    1037529881
        0x00000c00:    3d6353f8    .Sc=    DCD    1029919736
    $t
    .text
    motor_init
        0x00000c04:    b57c        |.      PUSH     {r2-r6,lr}
        0x00000c06:    4d3b        ;M      LDR      r5,[pc,#236] ; [0xcf4] = 0x55f0
        0x00000c08:    4c3b        ;L      LDR      r4,[pc,#236] ; [0xcf8] = 0x40040000
        0x00000c0a:    2301        .#      MOVS     r3,#1
        0x00000c0c:    462a        *F      MOV      r2,r5
        0x00000c0e:    2100        .!      MOVS     r1,#0
        0x00000c10:    4620         F      MOV      r0,r4
        0x00000c12:    f003f8cb    ....    BL       PWM_ConfigOutputChannel ; 0x3dac
        0x00000c16:    2301        .#      MOVS     r3,#1
        0x00000c18:    462a        *F      MOV      r2,r5
        0x00000c1a:    4619        .F      MOV      r1,r3
        0x00000c1c:    4620         F      MOV      r0,r4
        0x00000c1e:    f003f8c5    ....    BL       PWM_ConfigOutputChannel ; 0x3dac
        0x00000c22:    2301        .#      MOVS     r3,#1
        0x00000c24:    462a        *F      MOV      r2,r5
        0x00000c26:    2102        .!      MOVS     r1,#2
        0x00000c28:    4620         F      MOV      r0,r4
        0x00000c2a:    f003f8bf    ....    BL       PWM_ConfigOutputChannel ; 0x3dac
        0x00000c2e:    2301        .#      MOVS     r3,#1
        0x00000c30:    462a        *F      MOV      r2,r5
        0x00000c32:    2103        .!      MOVS     r1,#3
        0x00000c34:    4620         F      MOV      r0,r4
        0x00000c36:    f003f8b9    ....    BL       PWM_ConfigOutputChannel ; 0x3dac
        0x00000c3a:    210f        .!      MOVS     r1,#0xf
        0x00000c3c:    4620         F      MOV      r0,r4
        0x00000c3e:    f003f947    ..G.    BL       PWM_EnableOutput ; 0x3ed0
        0x00000c42:    210f        .!      MOVS     r1,#0xf
        0x00000c44:    4620         F      MOV      r0,r4
        0x00000c46:    f003f92f    ../.    BL       PWM_Start ; 0x3ea8
        0x00000c4a:    68e0        .h      LDR      r0,[r4,#0xc]
        0x00000c4c:    492b        +I      LDR      r1,[pc,#172] ; [0xcfc] = 0x20000010
        0x00000c4e:    6008        .`      STR      r0,[r1,#0]
        0x00000c50:    69a1        .i      LDR      r1,[r4,#0x18]
        0x00000c52:    9100        ..      STR      r1,[sp,#0]
        0x00000c54:    9001        ..      STR      r0,[sp,#4]
        0x00000c56:    6963        ci      LDR      r3,[r4,#0x14]
        0x00000c58:    6922        "i      LDR      r2,[r4,#0x10]
        0x00000c5a:    68e1        .h      LDR      r1,[r4,#0xc]
        0x00000c5c:    4828        (H      LDR      r0,[pc,#160] ; [0xd00] = 0x6e38
        0x00000c5e:    f004fcff    ....    BL       __0printf$5 ; 0x5660
        0x00000c62:    6ae0        .j      LDR      r0,[r4,#0x2c]
        0x00000c64:    0c00        ..      LSRS     r0,r0,#16
        0x00000c66:    0400        ..      LSLS     r0,r0,#16
        0x00000c68:    62e0        .b      STR      r0,[r4,#0x2c]
        0x00000c6a:    6b20         k      LDR      r0,[r4,#0x30]
        0x00000c6c:    0c00        ..      LSRS     r0,r0,#16
        0x00000c6e:    0400        ..      LSLS     r0,r0,#16
        0x00000c70:    6320         c      STR      r0,[r4,#0x30]
        0x00000c72:    6b60        `k      LDR      r0,[r4,#0x34]
        0x00000c74:    0c00        ..      LSRS     r0,r0,#16
        0x00000c76:    0400        ..      LSLS     r0,r0,#16
        0x00000c78:    6360        `c      STR      r0,[r4,#0x34]
        0x00000c7a:    6ba0        .k      LDR      r0,[r4,#0x38]
        0x00000c7c:    0c00        ..      LSRS     r0,r0,#16
        0x00000c7e:    0400        ..      LSLS     r0,r0,#16
        0x00000c80:    63a0        .c      STR      r0,[r4,#0x38]
        0x00000c82:    bd7c        |.      POP      {r2-r6,pc}
    motor_update
        0x00000c84:    b5f8        ..      PUSH     {r3-r7,lr}
        0x00000c86:    4606        .F      MOV      r6,r0
        0x00000c88:    2400        .$      MOVS     r4,#0
        0x00000c8a:    00a5        ..      LSLS     r5,r4,#2
        0x00000c8c:    227f        ."      MOVS     r2,#0x7f
        0x00000c8e:    5970        pY      LDR      r0,[r6,r5]
        0x00000c90:    05d2        ..      LSLS     r2,r2,#23
        0x00000c92:    2100        .!      MOVS     r1,#0
        0x00000c94:    f000fbb8    ....    BL       constrain_float ; 0x1408
        0x00000c98:    5170        pQ      STR      r0,[r6,r5]
        0x00000c9a:    4607        .F      MOV      r7,r0
        0x00000c9c:    4817        .H      LDR      r0,[pc,#92] ; [0xcfc] = 0x20000010
        0x00000c9e:    6800        .h      LDR      r0,[r0,#0]
        0x00000ca0:    f004fa17    ....    BL       __aeabi_ui2f ; 0x50d2
        0x00000ca4:    4639        9F      MOV      r1,r7
        0x00000ca6:    f003ffda    ....    BL       __aeabi_fmul ; 0x4c5e
        0x00000caa:    f004fa32    ..2.    BL       __aeabi_f2uiz ; 0x5112
        0x00000cae:    2800        .(      CMP      r0,#0
        0x00000cb0:    d000        ..      BEQ      0xcb4 ; motor_update + 48
        0x00000cb2:    1e40        @.      SUBS     r0,r0,#1
        0x00000cb4:    b281        ..      UXTH     r1,r0
        0x00000cb6:    4810        .H      LDR      r0,[pc,#64] ; [0xcf8] = 0x40040000
        0x00000cb8:    1828        (.      ADDS     r0,r5,r0
        0x00000cba:    6ac2        .j      LDR      r2,[r0,#0x2c]
        0x00000cbc:    0c12        ..      LSRS     r2,r2,#16
        0x00000cbe:    0412        ..      LSLS     r2,r2,#16
        0x00000cc0:    4311        .C      ORRS     r1,r1,r2
        0x00000cc2:    62c1        .b      STR      r1,[r0,#0x2c]
        0x00000cc4:    1c64        d.      ADDS     r4,r4,#1
        0x00000cc6:    b2e4        ..      UXTB     r4,r4
        0x00000cc8:    2c04        .,      CMP      r4,#4
        0x00000cca:    d3de        ..      BCC      0xc8a ; motor_update + 6
        0x00000ccc:    bdf8        ..      POP      {r3-r7,pc}
    motor_stop
        0x00000cce:    480a        .H      LDR      r0,[pc,#40] ; [0xcf8] = 0x40040000
        0x00000cd0:    6ac1        .j      LDR      r1,[r0,#0x2c]
        0x00000cd2:    0c09        ..      LSRS     r1,r1,#16
        0x00000cd4:    0409        ..      LSLS     r1,r1,#16
        0x00000cd6:    62c1        .b      STR      r1,[r0,#0x2c]
        0x00000cd8:    6b01        .k      LDR      r1,[r0,#0x30]
        0x00000cda:    0c09        ..      LSRS     r1,r1,#16
        0x00000cdc:    0409        ..      LSLS     r1,r1,#16
        0x00000cde:    6301        .c      STR      r1,[r0,#0x30]
        0x00000ce0:    6b41        Ak      LDR      r1,[r0,#0x34]
        0x00000ce2:    0c09        ..      LSRS     r1,r1,#16
        0x00000ce4:    0409        ..      LSLS     r1,r1,#16
        0x00000ce6:    6341        Ac      STR      r1,[r0,#0x34]
        0x00000ce8:    6b81        .k      LDR      r1,[r0,#0x38]
        0x00000cea:    0c09        ..      LSRS     r1,r1,#16
        0x00000cec:    0409        ..      LSLS     r1,r1,#16
        0x00000cee:    6381        .c      STR      r1,[r0,#0x38]
        0x00000cf0:    4770        pG      BX       lr
    $d
        0x00000cf2:    0000        ..      DCW    0
        0x00000cf4:    000055f0    .U..    DCD    22000
        0x00000cf8:    40040000    ...@    DCD    1074003968
        0x00000cfc:    20000010    ...     DCD    536870928
        0x00000d00:    00006e38    8n..    DCD    28216
    $t
    .text
    system_init
        0x00000d04:    b5f8        ..      PUSH     {r3-r7,lr}
        0x00000d06:    2059        Y       MOVS     r0,#0x59
        0x00000d08:    4cb4        .L      LDR      r4,[pc,#720] ; [0xfdc] = 0x50000100
        0x00000d0a:    2116        .!      MOVS     r1,#0x16
        0x00000d0c:    2288        ."      MOVS     r2,#0x88
        0x00000d0e:    6020         `      STR      r0,[r4,#0]
        0x00000d10:    6021        !`      STR      r1,[r4,#0]
        0x00000d12:    6022        "`      STR      r2,[r4,#0]
        0x00000d14:    6823        #h      LDR      r3,[r4,#0]
        0x00000d16:    2b00        .+      CMP      r3,#0
        0x00000d18:    d0f9        ..      BEQ      0xd0e ; system_init + 10
        0x00000d1a:    f002ffed    ....    BL       CLK_InitHIRC ; 0x3cf8
        0x00000d1e:    f000f9f7    ....    BL       SystemCoreClockUpdate ; 0x1110
        0x00000d22:    2505        .%      MOVS     r5,#5
        0x00000d24:    072d        -.      LSLS     r5,r5,#28
        0x00000d26:    6b28        (k      LDR      r0,[r5,#0x30]
        0x00000d28:    49ad        .I      LDR      r1,[pc,#692] ; [0xfe0] = 0x303
        0x00000d2a:    4308        .C      ORRS     r0,r0,r1
        0x00000d2c:    6328        (c      STR      r0,[r5,#0x30]
        0x00000d2e:    4fad        .O      LDR      r7,[pc,#692] ; [0xfe4] = 0x50004000
        0x00000d30:    6878        xh      LDR      r0,[r7,#4]
        0x00000d32:    2601        .&      MOVS     r6,#1
        0x00000d34:    0476        v.      LSLS     r6,r6,#17
        0x00000d36:    43b0        .C      BICS     r0,r0,r6
        0x00000d38:    6078        x`      STR      r0,[r7,#4]
        0x00000d3a:    48ab        .H      LDR      r0,[pc,#684] ; [0xfe8] = 0xa7803d10
        0x00000d3c:    f002ffc1    ....    BL       CLK_EnableModuleClock ; 0x3cc2
        0x00000d40:    48aa        .H      LDR      r0,[pc,#680] ; [0xfec] = 0xae800002
        0x00000d42:    f002ffbe    ....    BL       CLK_EnableModuleClock ; 0x3cc2
        0x00000d46:    2100        .!      MOVS     r1,#0
        0x00000d48:    48a8        .H      LDR      r0,[pc,#672] ; [0xfec] = 0xae800002
        0x00000d4a:    f002ffa7    ....    BL       CLK_SetModuleClock ; 0x3c9c
        0x00000d4e:    48a8        .H      LDR      r0,[pc,#672] ; [0xff0] = 0xaec00003
        0x00000d50:    f002ffb7    ....    BL       CLK_EnableModuleClock ; 0x3cc2
        0x00000d54:    2100        .!      MOVS     r1,#0
        0x00000d56:    48a6        .H      LDR      r0,[pc,#664] ; [0xff0] = 0xaec00003
        0x00000d58:    f002ffa0    ....    BL       CLK_SetModuleClock ; 0x3c9c
        0x00000d5c:    48a5        .H      LDR      r0,[pc,#660] ; [0xff4] = 0xa7c00014
        0x00000d5e:    f002ffb0    ....    BL       CLK_EnableModuleClock ; 0x3cc2
        0x00000d62:    48a5        .H      LDR      r0,[pc,#660] ; [0xff8] = 0xa7e00015
        0x00000d64:    f002ffad    ....    BL       CLK_EnableModuleClock ; 0x3cc2
        0x00000d68:    48a4        .H      LDR      r0,[pc,#656] ; [0xffc] = 0xe6600017
        0x00000d6a:    f002ffaa    ....    BL       CLK_EnableModuleClock ; 0x3cc2
        0x00000d6e:    200f        .       MOVS     r0,#0xf
        0x00000d70:    0280        ..      LSLS     r0,r0,#10
        0x00000d72:    63a8        .c      STR      r0,[r5,#0x38]
        0x00000d74:    4999        .I      LDR      r1,[pc,#612] ; [0xfdc] = 0x50000100
        0x00000d76:    48a2        .H      LDR      r0,[pc,#648] ; [0x1000] = 0x8080
        0x00000d78:    39c0        .9      SUBS     r1,r1,#0xc0
        0x00000d7a:    6048        H`      STR      r0,[r1,#4]
        0x00000d7c:    48a1        .H      LDR      r0,[pc,#644] ; [0x1004] = 0x80000008
        0x00000d7e:    f002ffa0    ....    BL       CLK_EnableModuleClock ; 0x3cc2
        0x00000d82:    6be8        .k      LDR      r0,[r5,#0x3c]
        0x00000d84:    2103        .!      MOVS     r1,#3
        0x00000d86:    0309        ..      LSLS     r1,r1,#12
        0x00000d88:    4308        .C      ORRS     r0,r0,r1
        0x00000d8a:    63e8        .c      STR      r0,[r5,#0x3c]
        0x00000d8c:    4895        .H      LDR      r0,[pc,#596] ; [0xfe4] = 0x50004000
        0x00000d8e:    30c0        .0      ADDS     r0,r0,#0xc0
        0x00000d90:    6841        Ah      LDR      r1,[r0,#4]
        0x00000d92:    2203        ."      MOVS     r2,#3
        0x00000d94:    0512        ..      LSLS     r2,r2,#20
        0x00000d96:    4391        .C      BICS     r1,r1,r2
        0x00000d98:    6041        A`      STR      r1,[r0,#4]
        0x00000d9a:    6b28        (k      LDR      r0,[r5,#0x30]
        0x00000d9c:    2108        .!      MOVS     r1,#8
        0x00000d9e:    4308        .C      ORRS     r0,r0,r1
        0x00000da0:    6328        (c      STR      r0,[r5,#0x30]
        0x00000da2:    6b68        hk      LDR      r0,[r5,#0x34]
        0x00000da4:    21c2        .!      MOVS     r1,#0xc2
        0x00000da6:    4308        .C      ORRS     r0,r0,r1
        0x00000da8:    6368        hc      STR      r0,[r5,#0x34]
        0x00000daa:    6878        xh      LDR      r0,[r7,#4]
        0x00000dac:    00b1        ..      LSLS     r1,r6,#2
        0x00000dae:    4388        .C      BICS     r0,r0,r1
        0x00000db0:    6078        x`      STR      r0,[r7,#4]
        0x00000db2:    488c        .H      LDR      r0,[pc,#560] ; [0xfe4] = 0x50004000
        0x00000db4:    3040        @0      ADDS     r0,r0,#0x40
        0x00000db6:    6841        Ah      LDR      r1,[r0,#4]
        0x00000db8:    43b1        .C      BICS     r1,r1,r6
        0x00000dba:    6041        A`      STR      r1,[r0,#4]
        0x00000dbc:    6841        Ah      LDR      r1,[r0,#4]
        0x00000dbe:    0172        r.      LSLS     r2,r6,#5
        0x00000dc0:    4391        .C      BICS     r1,r1,r2
        0x00000dc2:    6041        A`      STR      r1,[r0,#4]
        0x00000dc4:    6841        Ah      LDR      r1,[r0,#4]
        0x00000dc6:    0052        R.      LSLS     r2,r2,#1
        0x00000dc8:    4391        .C      BICS     r1,r1,r2
        0x00000dca:    6041        A`      STR      r1,[r0,#4]
        0x00000dcc:    488e        .H      LDR      r0,[pc,#568] ; [0x1008] = 0xa660000d
        0x00000dce:    f002ff78    ..x.    BL       CLK_EnableModuleClock ; 0x3cc2
        0x00000dd2:    2000        .       MOVS     r0,#0
        0x00000dd4:    6020         `      STR      r0,[r4,#0]
        0x00000dd6:    bdf8        ..      POP      {r3-r7,pc}
    param_load
        0x00000dd8:    b5fe        ..      PUSH     {r1-r7,lr}
        0x00000dda:    2400        .$      MOVS     r4,#0
        0x00000ddc:    4e8c        .N      LDR      r6,[pc,#560] ; [0x1010] = 0x43160000
        0x00000dde:    4d8b        .M      LDR      r5,[pc,#556] ; [0x100c] = 0x3c23d70a
        0x00000de0:    9400        ..      STR      r4,[sp,#0]
        0x00000de2:    4623        #F      MOV      r3,r4
        0x00000de4:    4622        "F      MOV      r2,r4
        0x00000de6:    4631        1F      MOV      r1,r6
        0x00000de8:    488a        .H      LDR      r0,[pc,#552] ; [0x1014] = 0x2000024c
        0x00000dea:    9502        ..      STR      r5,[sp,#8]
        0x00000dec:    9401        ..      STR      r4,[sp,#4]
        0x00000dee:    f000fb33    ..3.    BL       set_pid_param ; 0x1458
        0x00000df2:    4888        .H      LDR      r0,[pc,#544] ; [0x1014] = 0x2000024c
        0x00000df4:    2300        .#      MOVS     r3,#0
        0x00000df6:    9400        ..      STR      r4,[sp,#0]
        0x00000df8:    461a        .F      MOV      r2,r3
        0x00000dfa:    4631        1F      MOV      r1,r6
        0x00000dfc:    3830        08      SUBS     r0,r0,#0x30
        0x00000dfe:    9502        ..      STR      r5,[sp,#8]
        0x00000e00:    9401        ..      STR      r4,[sp,#4]
        0x00000e02:    f000fb29    ..).    BL       set_pid_param ; 0x1458
        0x00000e06:    4883        .H      LDR      r0,[pc,#524] ; [0x1014] = 0x2000024c
        0x00000e08:    2300        .#      MOVS     r3,#0
        0x00000e0a:    9400        ..      STR      r4,[sp,#0]
        0x00000e0c:    461a        .F      MOV      r2,r3
        0x00000e0e:    4982        .I      LDR      r1,[pc,#520] ; [0x1018] = 0x42c80000
        0x00000e10:    3030        00      ADDS     r0,r0,#0x30
        0x00000e12:    9502        ..      STR      r5,[sp,#8]
        0x00000e14:    9401        ..      STR      r4,[sp,#4]
        0x00000e16:    f000fb1f    ....    BL       set_pid_param ; 0x1458
        0x00000e1a:    487e        ~H      LDR      r0,[pc,#504] ; [0x1014] = 0x2000024c
        0x00000e1c:    4e7f        .N      LDR      r6,[pc,#508] ; [0x101c] = 0x41a00000
        0x00000e1e:    4f80        .O      LDR      r7,[pc,#512] ; [0x1020] = 0x3e99999a
        0x00000e20:    4b80        .K      LDR      r3,[pc,#512] ; [0x1024] = 0x3c1ba5e3
        0x00000e22:    2200        ."      MOVS     r2,#0
        0x00000e24:    4980        .I      LDR      r1,[pc,#512] ; [0x1028] = 0x3e3851ec
        0x00000e26:    3890        .8      SUBS     r0,r0,#0x90
        0x00000e28:    9700        ..      STR      r7,[sp,#0]
        0x00000e2a:    9601        ..      STR      r6,[sp,#4]
        0x00000e2c:    9502        ..      STR      r5,[sp,#8]
        0x00000e2e:    f000fb13    ....    BL       set_pid_param ; 0x1458
        0x00000e32:    4878        xH      LDR      r0,[pc,#480] ; [0x1014] = 0x2000024c
        0x00000e34:    4b7b        {K      LDR      r3,[pc,#492] ; [0x1024] = 0x3c1ba5e3
        0x00000e36:    2200        ."      MOVS     r2,#0
        0x00000e38:    497b        {I      LDR      r1,[pc,#492] ; [0x1028] = 0x3e3851ec
        0x00000e3a:    38c0        .8      SUBS     r0,r0,#0xc0
        0x00000e3c:    9700        ..      STR      r7,[sp,#0]
        0x00000e3e:    9601        ..      STR      r6,[sp,#4]
        0x00000e40:    9502        ..      STR      r5,[sp,#8]
        0x00000e42:    f000fb09    ....    BL       set_pid_param ; 0x1458
        0x00000e46:    203f        ?       MOVS     r0,#0x3f
        0x00000e48:    0600        ..      LSLS     r0,r0,#24
        0x00000e4a:    9001        ..      STR      r0,[sp,#4]
        0x00000e4c:    4871        qH      LDR      r0,[pc,#452] ; [0x1014] = 0x2000024c
        0x00000e4e:    2300        .#      MOVS     r3,#0
        0x00000e50:    461a        .F      MOV      r2,r3
        0x00000e52:    0769        i.      LSLS     r1,r5,#29
        0x00000e54:    9700        ..      STR      r7,[sp,#0]
        0x00000e56:    9502        ..      STR      r5,[sp,#8]
        0x00000e58:    3860        `8      SUBS     r0,r0,#0x60
        0x00000e5a:    f000fafd    ....    BL       set_pid_param ; 0x1458
        0x00000e5e:    486d        mH      LDR      r0,[pc,#436] ; [0x1014] = 0x2000024c
        0x00000e60:    2300        .#      MOVS     r3,#0
        0x00000e62:    217f        .!      MOVS     r1,#0x7f
        0x00000e64:    9400        ..      STR      r4,[sp,#0]
        0x00000e66:    461a        .F      MOV      r2,r3
        0x00000e68:    05c9        ..      LSLS     r1,r1,#23
        0x00000e6a:    30c0        .0      ADDS     r0,r0,#0xc0
        0x00000e6c:    9502        ..      STR      r5,[sp,#8]
        0x00000e6e:    9401        ..      STR      r4,[sp,#4]
        0x00000e70:    f000faf2    ....    BL       set_pid_param ; 0x1458
        0x00000e74:    486d        mH      LDR      r0,[pc,#436] ; [0x102c] = 0x2000039c
        0x00000e76:    2300        .#      MOVS     r3,#0
        0x00000e78:    217f        .!      MOVS     r1,#0x7f
        0x00000e7a:    9400        ..      STR      r4,[sp,#0]
        0x00000e7c:    461a        .F      MOV      r2,r3
        0x00000e7e:    05c9        ..      LSLS     r1,r1,#23
        0x00000e80:    4607        .F      MOV      r7,r0
        0x00000e82:    9502        ..      STR      r5,[sp,#8]
        0x00000e84:    9401        ..      STR      r4,[sp,#4]
        0x00000e86:    f000fae7    ....    BL       set_pid_param ; 0x1458
        0x00000e8a:    2300        .#      MOVS     r3,#0
        0x00000e8c:    9400        ..      STR      r4,[sp,#0]
        0x00000e8e:    461a        .F      MOV      r2,r3
        0x00000e90:    4967        gI      LDR      r1,[pc,#412] ; [0x1030] = 0x40a00000
        0x00000e92:    4638        8F      MOV      r0,r7
        0x00000e94:    9502        ..      STR      r5,[sp,#8]
        0x00000e96:    9401        ..      STR      r4,[sp,#4]
        0x00000e98:    f000fade    ....    BL       set_pid_param ; 0x1458
        0x00000e9c:    4865        eH      LDR      r0,[pc,#404] ; [0x1034] = 0x44480000
        0x00000e9e:    227f        ."      MOVS     r2,#0x7f
        0x00000ea0:    213f        ?!      MOVS     r1,#0x3f
        0x00000ea2:    9001        ..      STR      r0,[sp,#4]
        0x00000ea4:    2300        .#      MOVS     r3,#0
        0x00000ea6:    05d2        ..      LSLS     r2,r2,#23
        0x00000ea8:    0609        ..      LSLS     r1,r1,#24
        0x00000eaa:    9600        ..      STR      r6,[sp,#0]
        0x00000eac:    9502        ..      STR      r5,[sp,#8]
        0x00000eae:    4638        8F      MOV      r0,r7
        0x00000eb0:    f000fad2    ....    BL       set_pid_param ; 0x1458
        0x00000eb4:    bdfe        ..      POP      {r1-r7,pc}
    peripheral_init
        0x00000eb6:    b510        ..      PUSH     {r4,lr}
        0x00000eb8:    21e1        .!      MOVS     r1,#0xe1
        0x00000eba:    0249        I.      LSLS     r1,r1,#9
        0x00000ebc:    485e        ^H      LDR      r0,[pc,#376] ; [0x1038] = 0x40050000
        0x00000ebe:    f002fe89    ....    BL       uart_console_init ; 0x3bd4
        0x00000ec2:    a05e        ^.      ADR      r0,{pc}+0x17a ; 0x103c
        0x00000ec4:    f004fbcc    ....    BL       __0printf$5 ; 0x5660
        0x00000ec8:    4962        bI      LDR      r1,[pc,#392] ; [0x1054] = 0xf4240
        0x00000eca:    4863        cH      LDR      r0,[pc,#396] ; [0x1058] = 0x40020000
        0x00000ecc:    f002fd40    ..@.    BL       I2C_Init ; 0x3950
        0x00000ed0:    f7fffc99    ....    BL       fbm320_init ; 0x806
        0x00000ed4:    a061        a.      ADR      r0,{pc}+0x188 ; 0x105c
        0x00000ed6:    f004fbc3    ....    BL       __0printf$5 ; 0x5660
        0x00000eda:    f7fff951    ..Q.    BL       bmi160_init ; 0x180
        0x00000ede:    a065        e.      ADR      r0,{pc}+0x196 ; 0x1074
        0x00000ee0:    f004fbbe    ....    BL       __0printf$5 ; 0x5660
        0x00000ee4:    f7fffe8e    ....    BL       motor_init ; 0xc04
        0x00000ee8:    f001fcee    ....    BL       scheduler_init ; 0x28c8
        0x00000eec:    f003f9e6    ....    BL       rc_channel_init ; 0x42bc
        0x00000ef0:    f7ffff72    ..r.    BL       param_load ; 0xdd8
        0x00000ef4:    a065        e.      ADR      r0,{pc}+0x198 ; 0x108c
        0x00000ef6:    f004fbb3    ....    BL       __0printf$5 ; 0x5660
        0x00000efa:    a06a        j.      ADR      r0,{pc}+0x1aa ; 0x10a4
        0x00000efc:    f004fbb0    ....    BL       __0printf$5 ; 0x5660
        0x00000f00:    f002fa2e    ....    BL       gyro_offset ; 0x3360
        0x00000f04:    f002fab3    ....    BL       accel_offset ; 0x346e
        0x00000f08:    f002f96e    ..n.    BL       inertial_sensor_init ; 0x31e8
        0x00000f0c:    f002fb0c    ....    BL       inertial_nav_init ; 0x3528
        0x00000f10:    a06b        k.      ADR      r0,{pc}+0x1b0 ; 0x10c0
        0x00000f12:    f004fba5    ....    BL       __0printf$5 ; 0x5660
        0x00000f16:    bd10        ..      POP      {r4,pc}
    fc_status_reset
        0x00000f18:    486e        nH      LDR      r0,[pc,#440] ; [0x10d4] = 0x2000017c
        0x00000f1a:    2100        .!      MOVS     r1,#0
        0x00000f1c:    7001        .p      STRB     r1,[r0,#0]
        0x00000f1e:    7041        Ap      STRB     r1,[r0,#1]
        0x00000f20:    2201        ."      MOVS     r2,#1
        0x00000f22:    7082        .p      STRB     r2,[r0,#2]
        0x00000f24:    70c1        .p      STRB     r1,[r0,#3]
        0x00000f26:    7102        .q      STRB     r2,[r0,#4]
        0x00000f28:    7141        Aq      STRB     r1,[r0,#5]
        0x00000f2a:    7181        .q      STRB     r1,[r0,#6]
        0x00000f2c:    71c1        .q      STRB     r1,[r0,#7]
        0x00000f2e:    7201        .r      STRB     r1,[r0,#8]
        0x00000f30:    7241        Ar      STRB     r1,[r0,#9]
        0x00000f32:    2106        .!      MOVS     r1,#6
        0x00000f34:    7281        .r      STRB     r1,[r0,#0xa]
        0x00000f36:    217d        }!      MOVS     r1,#0x7d
        0x00000f38:    0109        ..      LSLS     r1,r1,#4
        0x00000f3a:    8181        ..      STRH     r1,[r0,#0xc]
        0x00000f3c:    4770        pG      BX       lr
    set_land_complete
        0x00000f3e:    4965        eI      LDR      r1,[pc,#404] ; [0x10d4] = 0x2000017c
        0x00000f40:    788a        .x      LDRB     r2,[r1,#2]
        0x00000f42:    4282        .B      CMP      r2,r0
        0x00000f44:    d000        ..      BEQ      0xf48 ; set_land_complete + 10
        0x00000f46:    7088        .p      STRB     r0,[r1,#2]
        0x00000f48:    7888        .x      LDRB     r0,[r1,#2]
        0x00000f4a:    2800        .(      CMP      r0,#0
        0x00000f4c:    d007        ..      BEQ      0xf5e ; set_land_complete + 32
        0x00000f4e:    4862        bH      LDR      r0,[pc,#392] ; [0x10d8] = 0x20000024
        0x00000f50:    7800        .x      LDRB     r0,[r0,#0]
        0x00000f52:    2807        .(      CMP      r0,#7
        0x00000f54:    d001        ..      BEQ      0xf5a ; set_land_complete + 28
        0x00000f56:    2806        .(      CMP      r0,#6
        0x00000f58:    d101        ..      BNE      0xf5e ; set_land_complete + 32
        0x00000f5a:    2000        .       MOVS     r0,#0
        0x00000f5c:    7008        .p      STRB     r0,[r1,#0]
        0x00000f5e:    4770        pG      BX       lr
    set_radio_lost
        0x00000f60:    495c        \I      LDR      r1,[pc,#368] ; [0x10d4] = 0x2000017c
        0x00000f62:    790a        .y      LDRB     r2,[r1,#4]
        0x00000f64:    4282        .B      CMP      r2,r0
        0x00000f66:    d000        ..      BEQ      0xf6a ; set_radio_lost + 10
        0x00000f68:    7108        .q      STRB     r0,[r1,#4]
        0x00000f6a:    7908        .y      LDRB     r0,[r1,#4]
        0x00000f6c:    2800        .(      CMP      r0,#0
        0x00000f6e:    d001        ..      BEQ      0xf74 ; set_radio_lost + 20
        0x00000f70:    2000        .       MOVS     r0,#0
        0x00000f72:    7008        .p      STRB     r0,[r1,#0]
        0x00000f74:    4770        pG      BX       lr
    systick_config
        0x00000f76:    b510        ..      PUSH     {r4,lr}
        0x00000f78:    4958        XI      LDR      r1,[pc,#352] ; [0x10dc] = 0xffffff
        0x00000f7a:    4288        .B      CMP      r0,r1
        0x00000f7c:    d901        ..      BLS      0xf82 ; systick_config + 12
        0x00000f7e:    2001        .       MOVS     r0,#1
        0x00000f80:    bd10        ..      POP      {r4,pc}
        0x00000f82:    0201        ..      LSLS     r1,r0,#8
        0x00000f84:    0a09        ..      LSRS     r1,r1,#8
        0x00000f86:    4856        VH      LDR      r0,[pc,#344] ; [0x10e0] = 0xe000e000
        0x00000f88:    1e49        I.      SUBS     r1,r1,#1
        0x00000f8a:    6141        Aa      STR      r1,[r0,#0x14]
        0x00000f8c:    4955        UI      LDR      r1,[pc,#340] ; [0x10e4] = 0xe000ed04
        0x00000f8e:    2207        ."      MOVS     r2,#7
        0x00000f90:    69cb        .i      LDR      r3,[r1,#0x1c]
        0x00000f92:    021b        ..      LSLS     r3,r3,#8
        0x00000f94:    0a1b        ..      LSRS     r3,r3,#8
        0x00000f96:    0444        D.      LSLS     r4,r0,#17
        0x00000f98:    4323        #C      ORRS     r3,r3,r4
        0x00000f9a:    61cb        .a      STR      r3,[r1,#0x1c]
        0x00000f9c:    2100        .!      MOVS     r1,#0
        0x00000f9e:    6181        .a      STR      r1,[r0,#0x18]
        0x00000fa0:    6102        .a      STR      r2,[r0,#0x10]
        0x00000fa2:    2000        .       MOVS     r0,#0
        0x00000fa4:    bd10        ..      POP      {r4,pc}
    SysTick_Handler
        0x00000fa6:    484e        NH      LDR      r0,[pc,#312] ; [0x10e0] = 0xe000e000
        0x00000fa8:    6900        .i      LDR      r0,[r0,#0x10]
        0x00000faa:    03c0        ..      LSLS     r0,r0,#15
        0x00000fac:    d503        ..      BPL      0xfb6 ; SysTick_Handler + 16
        0x00000fae:    484e        NH      LDR      r0,[pc,#312] ; [0x10e8] = 0x20000014
        0x00000fb0:    6801        .h      LDR      r1,[r0,#0]
        0x00000fb2:    1c49        I.      ADDS     r1,r1,#1
        0x00000fb4:    6001        .`      STR      r1,[r0,#0]
        0x00000fb6:    4770        pG      BX       lr
    sys_micro
        0x00000fb8:    b510        ..      PUSH     {r4,lr}
        0x00000fba:    4849        IH      LDR      r0,[pc,#292] ; [0x10e0] = 0xe000e000
        0x00000fbc:    6980        .i      LDR      r0,[r0,#0x18]
        0x00000fbe:    494b        KI      LDR      r1,[pc,#300] ; [0x10ec] = 0x20000020
        0x00000fc0:    6809        .h      LDR      r1,[r1,#0]
        0x00000fc2:    f003fdb7    ....    BL       __aeabi_uidiv ; 0x4b34
        0x00000fc6:    4948        HI      LDR      r1,[pc,#288] ; [0x10e8] = 0x20000014
        0x00000fc8:    227d        }"      MOVS     r2,#0x7d
        0x00000fca:    6809        .h      LDR      r1,[r1,#0]
        0x00000fcc:    00d2        ..      LSLS     r2,r2,#3
        0x00000fce:    4351        QC      MULS     r1,r2,r1
        0x00000fd0:    1840        @.      ADDS     r0,r0,r1
        0x00000fd2:    bd10        ..      POP      {r4,pc}
    sys_milli
        0x00000fd4:    4844        DH      LDR      r0,[pc,#272] ; [0x10e8] = 0x20000014
        0x00000fd6:    6800        .h      LDR      r0,[r0,#0]
        0x00000fd8:    4770        pG      BX       lr
    $d
        0x00000fda:    0000        ..      DCW    0
        0x00000fdc:    50000100    ...P    DCD    1342177536
        0x00000fe0:    00000303    ....    DCD    771
        0x00000fe4:    50004000    .@.P    DCD    1342193664
        0x00000fe8:    a7803d10    .=..    DCD    2810199312
        0x00000fec:    ae800002    ....    DCD    2927624194
        0x00000ff0:    aec00003    ....    DCD    2931818499
        0x00000ff4:    a7c00014    ....    DCD    2814378004
        0x00000ff8:    a7e00015    ....    DCD    2816475157
        0x00000ffc:    e6600017    ..`.    DCD    3865051159
        0x00001000:    00008080    ....    DCD    32896
        0x00001004:    80000008    ....    DCD    2147483656
        0x00001008:    a660000d    ..`.    DCD    2791309325
        0x0000100c:    3c23d70a    ..#<    DCD    1008981770
        0x00001010:    43160000    ...C    DCD    1125515264
        0x00001014:    2000024c    L..     DCD    536871500
        0x00001018:    42c80000    ...B    DCD    1120403456
        0x0000101c:    41a00000    ...A    DCD    1101004800
        0x00001020:    3e99999a    ...>    DCD    1050253722
        0x00001024:    3c1ba5e3    ...<    DCD    1008444899
        0x00001028:    3e3851ec    .Q8>    DCD    1043878380
        0x0000102c:    2000039c    ...     DCD    536871836
        0x00001030:    40a00000    ...@    DCD    1084227584
        0x00001034:    44480000    ..HD    DCD    1145569280
        0x00001038:    40050000    ...@    DCD    1074069504
        0x0000103c:    736e6f63    cons    DCD    1936617315
        0x00001040:    20656c6f    ole     DCD    543517807
        0x00001044:    74696e69    init    DCD    1953066601
        0x00001048:    63757320     suc    DCD    1668641568
        0x0000104c:    73736563    cess    DCD    1936942435
        0x00001050:    00000a21    !...    DCD    2593
        0x00001054:    000f4240    @B..    DCD    1000000
        0x00001058:    40020000    ...@    DCD    1073872896
        0x0000105c:    336d6266    fbm3    DCD    862806630
        0x00001060:    69203032    20 i    DCD    1763717170
        0x00001064:    2074696e    nit     DCD    544500078
        0x00001068:    63637573    succ    DCD    1667462515
        0x0000106c:    21737365    ess!    DCD    561214309
        0x00001070:    0000000a    ....    DCD    10
        0x00001074:    31696d62    bmi1    DCD    828992866
        0x00001078:    69203036    60 i    DCD    1763717174
        0x0000107c:    2074696e    nit     DCD    544500078
        0x00001080:    63637573    succ    DCD    1667462515
        0x00001084:    21737365    ess!    DCD    561214309
        0x00001088:    0000000a    ....    DCD    10
        0x0000108c:    445f4448    HD_D    DCD    1147094088
        0x00001090:    656e6f72    rone    DCD    1701736306
        0x00001094:    696e6920     ini    DCD    1768843552
        0x00001098:    75732074    t su    DCD    1970479220
        0x0000109c:    73656363    cces    DCD    1936024419
        0x000010a0:    000a2173    s!..    DCD    663923
        0x000010a4:    736e6573    sens    DCD    1936614771
        0x000010a8:    6320726f    or c    DCD    1663070831
        0x000010ac:    656c6c6f    olle    DCD    1701604463
        0x000010b0:    6f207463    ct o    DCD    1864397923
        0x000010b4:    65736666    ffse    DCD    1702061670
        0x000010b8:    2e2e2e74    t...    DCD    774778484
        0x000010bc:    0000000a    ....    DCD    10
        0x000010c0:    6c6c6f63    coll    DCD    1819045731
        0x000010c4:    20746365    ect     DCD    544498533
        0x000010c8:    706d6f63    comp    DCD    1886220131
        0x000010cc:    6574656c    lete    DCD    1702126956
        0x000010d0:    0000000a    ....    DCD    10
        0x000010d4:    2000017c    |..     DCD    536871292
        0x000010d8:    20000024    $..     DCD    536870948
        0x000010dc:    00ffffff    ....    DCD    16777215
        0x000010e0:    e000e000    ....    DCD    3758153728
        0x000010e4:    e000ed04    ....    DCD    3758157060
        0x000010e8:    20000014    ...     DCD    536870932
        0x000010ec:    20000020     ..     DCD    536870944
    $t
    .text
    main
        0x000010f0:    f7fffe08    ....    BL       system_init ; 0xd04
        0x000010f4:    f7ffff10    ....    BL       fc_status_reset ; 0xf18
        0x000010f8:    f7fffedd    ....    BL       peripheral_init ; 0xeb6
        0x000010fc:    4803        .H      LDR      r0,[pc,#12] ; [0x110c] = 0x40010020
        0x000010fe:    6801        .h      LDR      r1,[r0,#0]
        0x00001100:    0642        B.      LSLS     r2,r0,#25
        0x00001102:    4311        .C      ORRS     r1,r1,r2
        0x00001104:    6001        .`      STR      r1,[r0,#0]
        0x00001106:    f001ff22    ..".    BL       scheduler_run ; 0x2f4e
        0x0000110a:    e7fc        ..      B        0x1106 ; main + 22
    $d
        0x0000110c:    40010020     ..@    DCD    1073807392
    $t
    .text
    SystemCoreClockUpdate
        0x00001110:    b510        ..      PUSH     {r4,lr}
        0x00001112:    4a14        .J      LDR      r2,[pc,#80] ; [0x1164] = 0x50000200
        0x00001114:    6a10        .j      LDR      r0,[r2,#0x20]
        0x00001116:    03c1        ..      LSLS     r1,r0,#15
        0x00001118:    4813        .H      LDR      r0,[pc,#76] ; [0x1168] = 0x2dc6c00
        0x0000111a:    d501        ..      BPL      0x1120 ; SystemCoreClockUpdate + 16
        0x0000111c:    2100        .!      MOVS     r1,#0
        0x0000111e:    e000        ..      B        0x1122 ; SystemCoreClockUpdate + 18
        0x00001120:    4601        .F      MOV      r1,r0
        0x00001122:    4c12        .L      LDR      r4,[pc,#72] ; [0x116c] = 0x20000018
        0x00001124:    6021        !`      STR      r1,[r4,#0]
        0x00001126:    6911        .i      LDR      r1,[r2,#0x10]
        0x00001128:    0789        ..      LSLS     r1,r1,#30
        0x0000112a:    0f89        ..      LSRS     r1,r1,#30
        0x0000112c:    2900        .)      CMP      r1,#0
        0x0000112e:    d009        ..      BEQ      0x1144 ; SystemCoreClockUpdate + 52
        0x00001130:    2901        .)      CMP      r1,#1
        0x00001132:    d007        ..      BEQ      0x1144 ; SystemCoreClockUpdate + 52
        0x00001134:    2902        .)      CMP      r1,#2
        0x00001136:    d002        ..      BEQ      0x113e ; SystemCoreClockUpdate + 46
        0x00001138:    2903        .)      CMP      r1,#3
        0x0000113a:    d002        ..      BEQ      0x1142 ; SystemCoreClockUpdate + 50
        0x0000113c:    e002        ..      B        0x1144 ; SystemCoreClockUpdate + 52
        0x0000113e:    480c        .H      LDR      r0,[pc,#48] ; [0x1170] = 0x2710
        0x00001140:    e000        ..      B        0x1144 ; SystemCoreClockUpdate + 52
        0x00001142:    480c        .H      LDR      r0,[pc,#48] ; [0x1174] = 0xf42400
        0x00001144:    6991        .i      LDR      r1,[r2,#0x18]
        0x00001146:    078a        ..      LSLS     r2,r1,#30
        0x00001148:    0f92        ..      LSRS     r2,r2,#30
        0x0000114a:    2101        .!      MOVS     r1,#1
        0x0000114c:    4091        .@      LSLS     r1,r1,r2
        0x0000114e:    f003fcf1    ....    BL       __aeabi_uidiv ; 0x4b34
        0x00001152:    6060        ``      STR      r0,[r4,#4]
        0x00001154:    4908        .I      LDR      r1,[pc,#32] ; [0x1178] = 0xf4240
        0x00001156:    104a        J.      ASRS     r2,r1,#1
        0x00001158:    1880        ..      ADDS     r0,r0,r2
        0x0000115a:    f003fceb    ....    BL       __aeabi_uidiv ; 0x4b34
        0x0000115e:    60a0        .`      STR      r0,[r4,#8]
        0x00001160:    bd10        ..      POP      {r4,pc}
    $d
        0x00001162:    0000        ..      DCW    0
        0x00001164:    50000200    ...P    DCD    1342177792
        0x00001168:    02dc6c00    .l..    DCD    48000000
        0x0000116c:    20000018    ...     DCD    536870936
        0x00001170:    00002710    .'..    DCD    10000
        0x00001174:    00f42400    .$..    DCD    16000000
        0x00001178:    000f4240    @B..    DCD    1000000
    $t
    .text
    Reset_Handler
        0x0000117c:    4803        .H      LDR      r0,[pc,#12] ; [0x118c] = 0xc1
        0x0000117e:    4700        .G      BX       r0
    NMI_Handler
        0x00001180:    e7fe        ..      B        NMI_Handler ; 0x1180
        0x00001182:    e7fe        ..      B        0x1182 ; NMI_Handler + 2
    SVC_Handler
        0x00001184:    e7fe        ..      B        SVC_Handler ; 0x1184
    PendSV_Handler
        0x00001186:    e7fe        ..      B        PendSV_Handler ; 0x1186
        0x00001188:    e7fe        ..      B        0x1188 ; PendSV_Handler + 2
    Default_Handler
    ACMP_IRQHandler
    ADC_IRQHandler
    BOD_IRQHandler
    EINT0_IRQHandler
    EINT1_IRQHandler
    EINT2_IRQHandler
    FB_IRQHandler
    GPIO01_IRQHandler
    GPIO234_IRQHandler
    GPIO5_IRQHandler
    HIRC_IRQHandler
    I2C0_IRQHandler
    I2C1_IRQHandler
    PDWU_IRQHandler
    PWM_IRQHandler
    SPI0_IRQHandler
    SPI1_IRQHandler
    TMR0_IRQHandler
    TMR2_IRQHandler
    UART0_IRQHandler
    UART1_IRQHandler
    WDT_IRQHandler
        0x0000118a:    e7fe        ..      B        Default_Handler ; 0x118a
    $d
        0x0000118c:    000000c1    ....    DCD    193
    $t
    .text
    LPF2pSetCutoffFreq
        0x00001190:    b5fe        ..      PUSH     {r1-r7,lr}
        0x00001192:    4604        .F      MOV      r4,r0
        0x00001194:    4608        .F      MOV      r0,r1
        0x00001196:    4615        .F      MOV      r5,r2
        0x00001198:    4629        )F      MOV      r1,r5
        0x0000119a:    f003fd9d    ....    BL       __aeabi_fdiv ; 0x4cd8
        0x0000119e:    4601        .F      MOV      r1,r0
        0x000011a0:    487c        |H      LDR      r0,[pc,#496] ; [0x1394] = 0x40490fdb
        0x000011a2:    f003fd99    ....    BL       __aeabi_fdiv ; 0x4cd8
        0x000011a6:    f005fceb    ....    BL       tanf ; 0x6b80
        0x000011aa:    9000        ..      STR      r0,[sp,#0]
        0x000011ac:    9900        ..      LDR      r1,[sp,#0]
        0x000011ae:    4608        .F      MOV      r0,r1
        0x000011b0:    f003fd55    ..U.    BL       __aeabi_fmul ; 0x4c5e
        0x000011b4:    4606        .F      MOV      r6,r0
        0x000011b6:    9001        ..      STR      r0,[sp,#4]
        0x000011b8:    4877        wH      LDR      r0,[pc,#476] ; [0x1398] = 0x3f490fdb
        0x000011ba:    f005fb0b    ....    BL       cosf ; 0x67d4
        0x000011be:    2101        .!      MOVS     r1,#1
        0x000011c0:    f003fdc8    ....    BL       __ARM_scalbnf ; 0x4d54
        0x000011c4:    9900        ..      LDR      r1,[sp,#0]
        0x000011c6:    f003fd4a    ..J.    BL       __aeabi_fmul ; 0x4c5e
        0x000011ca:    277f        .'      MOVS     r7,#0x7f
        0x000011cc:    05ff        ..      LSLS     r7,r7,#23
        0x000011ce:    4639        9F      MOV      r1,r7
        0x000011d0:    f003fcec    ....    BL       __aeabi_fadd ; 0x4bac
        0x000011d4:    4631        1F      MOV      r1,r6
        0x000011d6:    f003fce9    ....    BL       __aeabi_fadd ; 0x4bac
        0x000011da:    4606        .F      MOV      r6,r0
        0x000011dc:    6025        %`      STR      r5,[r4,#0]
        0x000011de:    2001        .       MOVS     r0,#1
        0x000011e0:    05c0        ..      LSLS     r0,r0,#23
        0x000011e2:    4285        .B      CMP      r5,r0
        0x000011e4:    db2a        *.      BLT      0x123c ; LPF2pSetCutoffFreq + 172
        0x000011e6:    4631        1F      MOV      r1,r6
        0x000011e8:    9801        ..      LDR      r0,[sp,#4]
        0x000011ea:    f003fd75    ..u.    BL       __aeabi_fdiv ; 0x4cd8
        0x000011ee:    4605        .F      MOV      r5,r0
        0x000011f0:    60e0        .`      STR      r0,[r4,#0xc]
        0x000011f2:    2101        .!      MOVS     r1,#1
        0x000011f4:    4628        (F      MOV      r0,r5
        0x000011f6:    f003fdad    ....    BL       __ARM_scalbnf ; 0x4d54
        0x000011fa:    6120         a      STR      r0,[r4,#0x10]
        0x000011fc:    6165        ea      STR      r5,[r4,#0x14]
        0x000011fe:    4639        9F      MOV      r1,r7
        0x00001200:    9801        ..      LDR      r0,[sp,#4]
        0x00001202:    f003fd24    ..$.    BL       __aeabi_fsub ; 0x4c4e
        0x00001206:    2101        .!      MOVS     r1,#1
        0x00001208:    f003fda4    ....    BL       __ARM_scalbnf ; 0x4d54
        0x0000120c:    4631        1F      MOV      r1,r6
        0x0000120e:    f003fd63    ..c.    BL       __aeabi_fdiv ; 0x4cd8
        0x00001212:    6060        ``      STR      r0,[r4,#4]
        0x00001214:    4860        `H      LDR      r0,[pc,#384] ; [0x1398] = 0x3f490fdb
        0x00001216:    9d01        ..      LDR      r5,[sp,#4]
        0x00001218:    f005fadc    ....    BL       cosf ; 0x67d4
        0x0000121c:    2101        .!      MOVS     r1,#1
        0x0000121e:    f003fd99    ....    BL       __ARM_scalbnf ; 0x4d54
        0x00001222:    9900        ..      LDR      r1,[sp,#0]
        0x00001224:    f003fd1b    ....    BL       __aeabi_fmul ; 0x4c5e
        0x00001228:    4639        9F      MOV      r1,r7
        0x0000122a:    f003fd14    ....    BL       __aeabi_frsub ; 0x4c56
        0x0000122e:    4629        )F      MOV      r1,r5
        0x00001230:    f003fcbc    ....    BL       __aeabi_fadd ; 0x4bac
        0x00001234:    4631        1F      MOV      r1,r6
        0x00001236:    f003fd4f    ..O.    BL       __aeabi_fdiv ; 0x4cd8
        0x0000123a:    60a0        .`      STR      r0,[r4,#8]
        0x0000123c:    2000        .       MOVS     r0,#0
        0x0000123e:    61a0        .a      STR      r0,[r4,#0x18]
        0x00001240:    61e0        .a      STR      r0,[r4,#0x1c]
        0x00001242:    bdfe        ..      POP      {r1-r7,pc}
    LPF2pApply
        0x00001244:    b5fe        ..      PUSH     {r1-r7,lr}
        0x00001246:    4604        .F      MOV      r4,r0
        0x00001248:    460e        .F      MOV      r6,r1
        0x0000124a:    2101        .!      MOVS     r1,#1
        0x0000124c:    6820         h      LDR      r0,[r4,#0]
        0x0000124e:    05c9        ..      LSLS     r1,r1,#23
        0x00001250:    4288        .B      CMP      r0,r1
        0x00001252:    da01        ..      BGE      0x1258 ; LPF2pApply + 20
        0x00001254:    4630        0F      MOV      r0,r6
        0x00001256:    bdfe        ..      POP      {r1-r7,pc}
        0x00001258:    68a1        .h      LDR      r1,[r4,#8]
        0x0000125a:    69e0        .i      LDR      r0,[r4,#0x1c]
        0x0000125c:    9001        ..      STR      r0,[sp,#4]
        0x0000125e:    f003fcfe    ....    BL       __aeabi_fmul ; 0x4c5e
        0x00001262:    69a7        .i      LDR      r7,[r4,#0x18]
        0x00001264:    4605        .F      MOV      r5,r0
        0x00001266:    4638        8F      MOV      r0,r7
        0x00001268:    6861        ah      LDR      r1,[r4,#4]
        0x0000126a:    f003fcf8    ....    BL       __aeabi_fmul ; 0x4c5e
        0x0000126e:    4631        1F      MOV      r1,r6
        0x00001270:    f003fcf1    ....    BL       __aeabi_frsub ; 0x4c56
        0x00001274:    4629        )F      MOV      r1,r5
        0x00001276:    f003fcea    ....    BL       __aeabi_fsub ; 0x4c4e
        0x0000127a:    4605        .F      MOV      r5,r0
        0x0000127c:    4628        (F      MOV      r0,r5
        0x0000127e:    0040        @.      LSLS     r0,r0,#1
        0x00001280:    21ff        .!      MOVS     r1,#0xff
        0x00001282:    0840        @.      LSRS     r0,r0,#1
        0x00001284:    05c9        ..      LSLS     r1,r1,#23
        0x00001286:    1a08        ..      SUBS     r0,r1,r0
        0x00001288:    0fc0        ..      LSRS     r0,r0,#31
        0x0000128a:    2800        .(      CMP      r0,#0
        0x0000128c:    d108        ..      BNE      0x12a0 ; LPF2pApply + 92
        0x0000128e:    0068        h.      LSLS     r0,r5,#1
        0x00001290:    0049        I.      LSLS     r1,r1,#1
        0x00001292:    4288        .B      CMP      r0,r1
        0x00001294:    d101        ..      BNE      0x129a ; LPF2pApply + 86
        0x00001296:    2001        .       MOVS     r0,#1
        0x00001298:    e000        ..      B        0x129c ; LPF2pApply + 88
        0x0000129a:    2000        .       MOVS     r0,#0
        0x0000129c:    2800        .(      CMP      r0,#0
        0x0000129e:    d000        ..      BEQ      0x12a2 ; LPF2pApply + 94
        0x000012a0:    4635        5F      MOV      r5,r6
        0x000012a2:    6961        ai      LDR      r1,[r4,#0x14]
        0x000012a4:    9801        ..      LDR      r0,[sp,#4]
        0x000012a6:    f003fcda    ....    BL       __aeabi_fmul ; 0x4c5e
        0x000012aa:    9000        ..      STR      r0,[sp,#0]
        0x000012ac:    4638        8F      MOV      r0,r7
        0x000012ae:    6921        !i      LDR      r1,[r4,#0x10]
        0x000012b0:    f003fcd5    ....    BL       __aeabi_fmul ; 0x4c5e
        0x000012b4:    4606        .F      MOV      r6,r0
        0x000012b6:    4628        (F      MOV      r0,r5
        0x000012b8:    68e1        .h      LDR      r1,[r4,#0xc]
        0x000012ba:    f003fcd0    ....    BL       __aeabi_fmul ; 0x4c5e
        0x000012be:    4631        1F      MOV      r1,r6
        0x000012c0:    f003fc74    ..t.    BL       __aeabi_fadd ; 0x4bac
        0x000012c4:    9900        ..      LDR      r1,[sp,#0]
        0x000012c6:    f003fc71    ..q.    BL       __aeabi_fadd ; 0x4bac
        0x000012ca:    61e7        .a      STR      r7,[r4,#0x1c]
        0x000012cc:    61a5        .a      STR      r5,[r4,#0x18]
        0x000012ce:    bdfe        ..      POP      {r1-r7,pc}
    LPF_1st
        0x000012d0:    b570        p.      PUSH     {r4-r6,lr}
        0x000012d2:    4605        .F      MOV      r5,r0
        0x000012d4:    4608        .F      MOV      r0,r1
        0x000012d6:    4616        .F      MOV      r6,r2
        0x000012d8:    4631        1F      MOV      r1,r6
        0x000012da:    f003fcc0    ....    BL       __aeabi_fmul ; 0x4c5e
        0x000012de:    4604        .F      MOV      r4,r0
        0x000012e0:    207f        .       MOVS     r0,#0x7f
        0x000012e2:    4631        1F      MOV      r1,r6
        0x000012e4:    05c0        ..      LSLS     r0,r0,#23
        0x000012e6:    f003fcb2    ....    BL       __aeabi_fsub ; 0x4c4e
        0x000012ea:    4629        )F      MOV      r1,r5
        0x000012ec:    f003fcb7    ....    BL       __aeabi_fmul ; 0x4c5e
        0x000012f0:    4621        !F      MOV      r1,r4
        0x000012f2:    f003fc5b    ..[.    BL       __aeabi_fadd ; 0x4bac
        0x000012f6:    bd70        p.      POP      {r4-r6,pc}
    Moving_Average
        0x000012f8:    b5ff        ..      PUSH     {r0-r7,lr}
        0x000012fa:    b083        ..      SUB      sp,sp,#0xc
        0x000012fc:    4604        .F      MOV      r4,r0
        0x000012fe:    460f        .F      MOV      r7,r1
        0x00001300:    2000        .       MOVS     r0,#0
        0x00001302:    9002        ..      STR      r0,[sp,#8]
        0x00001304:    9805        ..      LDR      r0,[sp,#0x14]
        0x00001306:    9001        ..      STR      r0,[sp,#4]
        0x00001308:    9805        ..      LDR      r0,[sp,#0x14]
        0x0000130a:    9000        ..      STR      r0,[sp,#0]
        0x0000130c:    2501        .%      MOVS     r5,#1
        0x0000130e:    e01a        ..      B        0x1346 ; Moving_Average + 78
        0x00001310:    00ae        ..      LSLS     r6,r5,#2
        0x00001312:    59a0        .Y      LDR      r0,[r4,r6]
        0x00001314:    9901        ..      LDR      r1,[sp,#4]
        0x00001316:    f003ff5f    .._.    BL       __aeabi_cfrcmple ; 0x51d8
        0x0000131a:    d202        ..      BCS      0x1322 ; Moving_Average + 42
        0x0000131c:    59a0        .Y      LDR      r0,[r4,r6]
        0x0000131e:    9001        ..      STR      r0,[sp,#4]
        0x00001320:    e006        ..      B        0x1330 ; Moving_Average + 56
        0x00001322:    59a0        .Y      LDR      r0,[r4,r6]
        0x00001324:    9900        ..      LDR      r1,[sp,#0]
        0x00001326:    f003ff4d    ..M.    BL       __aeabi_cfcmpeq ; 0x51c4
        0x0000132a:    d201        ..      BCS      0x1330 ; Moving_Average + 56
        0x0000132c:    59a0        .Y      LDR      r0,[r4,r6]
        0x0000132e:    9000        ..      STR      r0,[sp,#0]
        0x00001330:    59a6        .Y      LDR      r6,[r4,r6]
        0x00001332:    9802        ..      LDR      r0,[sp,#8]
        0x00001334:    4631        1F      MOV      r1,r6
        0x00001336:    f003fc39    ..9.    BL       __aeabi_fadd ; 0x4bac
        0x0000133a:    9002        ..      STR      r0,[sp,#8]
        0x0000133c:    1e68        h.      SUBS     r0,r5,#1
        0x0000133e:    0080        ..      LSLS     r0,r0,#2
        0x00001340:    5026        &P      STR      r6,[r4,r0]
        0x00001342:    1c6d        m.      ADDS     r5,r5,#1
        0x00001344:    b2ed        ..      UXTB     r5,r5
        0x00001346:    42bd        .B      CMP      r5,r7
        0x00001348:    d3e2        ..      BCC      0x1310 ; Moving_Average + 24
        0x0000134a:    1e79        y.      SUBS     r1,r7,#1
        0x0000134c:    0089        ..      LSLS     r1,r1,#2
        0x0000134e:    9805        ..      LDR      r0,[sp,#0x14]
        0x00001350:    5060        `P      STR      r0,[r4,r1]
        0x00001352:    9905        ..      LDR      r1,[sp,#0x14]
        0x00001354:    9802        ..      LDR      r0,[sp,#8]
        0x00001356:    f003fc29    ..).    BL       __aeabi_fadd ; 0x4bac
        0x0000135a:    4604        .F      MOV      r4,r0
        0x0000135c:    9806        ..      LDR      r0,[sp,#0x18]
        0x0000135e:    2800        .(      CMP      r0,#0
        0x00001360:    d00f        ..      BEQ      0x1382 ; Moving_Average + 138
        0x00001362:    1eb8        ..      SUBS     r0,r7,#2
        0x00001364:    f003feaa    ....    BL       __aeabi_i2f ; 0x50bc
        0x00001368:    4605        .F      MOV      r5,r0
        0x0000136a:    4620         F      MOV      r0,r4
        0x0000136c:    9901        ..      LDR      r1,[sp,#4]
        0x0000136e:    f003fc6e    ..n.    BL       __aeabi_fsub ; 0x4c4e
        0x00001372:    9900        ..      LDR      r1,[sp,#0]
        0x00001374:    f003fc6b    ..k.    BL       __aeabi_fsub ; 0x4c4e
        0x00001378:    4629        )F      MOV      r1,r5
        0x0000137a:    f003fcad    ....    BL       __aeabi_fdiv ; 0x4cd8
        0x0000137e:    b007        ..      ADD      sp,sp,#0x1c
        0x00001380:    bdf0        ..      POP      {r4-r7,pc}
        0x00001382:    4638        8F      MOV      r0,r7
        0x00001384:    f003fea5    ....    BL       __aeabi_ui2f ; 0x50d2
        0x00001388:    4601        .F      MOV      r1,r0
        0x0000138a:    4620         F      MOV      r0,r4
        0x0000138c:    f003fca4    ....    BL       __aeabi_fdiv ; 0x4cd8
        0x00001390:    e7f5        ..      B        0x137e ; Moving_Average + 134
    $d
        0x00001392:    0000        ..      DCW    0
        0x00001394:    40490fdb    ..I@    DCD    1078530011
        0x00001398:    3f490fdb    ..I?    DCD    1061752795
    $t
    .text
    Q_rsqrt
        0x0000139c:    b570        p.      PUSH     {r4-r6,lr}
        0x0000139e:    4604        .F      MOV      r4,r0
        0x000013a0:    25ff        .%      MOVS     r5,#0xff
        0x000013a2:    05ad        ..      LSLS     r5,r5,#22
        0x000013a4:    2100        .!      MOVS     r1,#0
        0x000013a6:    43c9        .C      MVNS     r1,r1
        0x000013a8:    4620         F      MOV      r0,r4
        0x000013aa:    f003fcd3    ....    BL       __ARM_scalbnf ; 0x4d54
        0x000013ae:    4a20         J      LDR      r2,[pc,#128] ; [0x1430] = 0x5f3759df
        0x000013b0:    1061        a.      ASRS     r1,r4,#1
        0x000013b2:    1a54        T.      SUBS     r4,r2,r1
        0x000013b4:    4621        !F      MOV      r1,r4
        0x000013b6:    f003fc52    ..R.    BL       __aeabi_fmul ; 0x4c5e
        0x000013ba:    4621        !F      MOV      r1,r4
        0x000013bc:    f003fc4f    ..O.    BL       __aeabi_fmul ; 0x4c5e
        0x000013c0:    4629        )F      MOV      r1,r5
        0x000013c2:    f003fc48    ..H.    BL       __aeabi_frsub ; 0x4c56
        0x000013c6:    4621        !F      MOV      r1,r4
        0x000013c8:    f003fc49    ..I.    BL       __aeabi_fmul ; 0x4c5e
        0x000013cc:    bd70        p.      POP      {r4-r6,pc}
    VariableParameter
        0x000013ce:    207f        .       MOVS     r0,#0x7f
        0x000013d0:    05c0        ..      LSLS     r0,r0,#23
        0x000013d2:    4770        pG      BX       lr
    Rad
        0x000013d4:    b510        ..      PUSH     {r4,lr}
        0x000013d6:    4917        .I      LDR      r1,[pc,#92] ; [0x1434] = 0x40490fdb
        0x000013d8:    f003fc41    ..A.    BL       __aeabi_fmul ; 0x4c5e
        0x000013dc:    f003fead    ....    BL       __aeabi_f2d ; 0x513a
        0x000013e0:    2200        ."      MOVS     r2,#0
        0x000013e2:    4b15        .K      LDR      r3,[pc,#84] ; [0x1438] = 0x40668000
        0x000013e4:    f003fddc    ....    BL       __aeabi_ddiv ; 0x4fa0
        0x000013e8:    f003fed0    ....    BL       __aeabi_d2f ; 0x518c
        0x000013ec:    bd10        ..      POP      {r4,pc}
    Degree
        0x000013ee:    b510        ..      PUSH     {r4,lr}
        0x000013f0:    4910        .I      LDR      r1,[pc,#64] ; [0x1434] = 0x40490fdb
        0x000013f2:    f003fc71    ..q.    BL       __aeabi_fdiv ; 0x4cd8
        0x000013f6:    f003fea0    ....    BL       __aeabi_f2d ; 0x513a
        0x000013fa:    2200        ."      MOVS     r2,#0
        0x000013fc:    4b0e        .K      LDR      r3,[pc,#56] ; [0x1438] = 0x40668000
        0x000013fe:    f003fd67    ..g.    BL       __aeabi_dmul ; 0x4ed0
        0x00001402:    f003fec3    ....    BL       __aeabi_d2f ; 0x518c
        0x00001406:    bd10        ..      POP      {r4,pc}
    constrain_float
        0x00001408:    b570        p.      PUSH     {r4-r6,lr}
        0x0000140a:    4604        .F      MOV      r4,r0
        0x0000140c:    460e        .F      MOV      r6,r1
        0x0000140e:    4615        .F      MOV      r5,r2
        0x00001410:    4629        )F      MOV      r1,r5
        0x00001412:    4620         F      MOV      r0,r4
        0x00001414:    f003fee0    ....    BL       __aeabi_cfrcmple ; 0x51d8
        0x00001418:    d201        ..      BCS      0x141e ; constrain_float + 22
        0x0000141a:    462c        ,F      MOV      r4,r5
        0x0000141c:    e005        ..      B        0x142a ; constrain_float + 34
        0x0000141e:    4631        1F      MOV      r1,r6
        0x00001420:    4620         F      MOV      r0,r4
        0x00001422:    f003fecf    ....    BL       __aeabi_cfcmpeq ; 0x51c4
        0x00001426:    d200        ..      BCS      0x142a ; constrain_float + 34
        0x00001428:    4634        4F      MOV      r4,r6
        0x0000142a:    4620         F      MOV      r0,r4
        0x0000142c:    bd70        p.      POP      {r4-r6,pc}
    $d
        0x0000142e:    0000        ..      DCW    0
        0x00001430:    5f3759df    .Y7_    DCD    1597463007
        0x00001434:    40490fdb    ..I@    DCD    1078530011
        0x00001438:    40668000    ..f@    DCD    1080459264
    $t
    .text
    set_pid_filt_hz
        0x0000143c:    b510        ..      PUSH     {r4,lr}
        0x0000143e:    4604        .F      MOV      r4,r0
        0x00001440:    4608        .F      MOV      r0,r1
        0x00001442:    61e0        .a      STR      r0,[r4,#0x1c]
        0x00001444:    f003fe79    ..y.    BL       __aeabi_f2d ; 0x513a
        0x00001448:    2200        ."      MOVS     r2,#0
        0x0000144a:    4b4d        MK      LDR      r3,[pc,#308] ; [0x1580] = 0x3ff00000
        0x0000144c:    f005fa7e    ..~.    BL       fmax ; 0x694c
        0x00001450:    f003fe34    ..4.    BL       __aeabi_i2f ; 0x50bc
        0x00001454:    61e0        .a      STR      r0,[r4,#0x1c]
        0x00001456:    bd10        ..      POP      {r4,pc}
    set_pid_param
        0x00001458:    b4f0        ..      PUSH     {r4-r7}
        0x0000145a:    9e05        ..      LDR      r6,[sp,#0x14]
        0x0000145c:    9d06        ..      LDR      r5,[sp,#0x18]
        0x0000145e:    9c04        ..      LDR      r4,[sp,#0x10]
        0x00001460:    6001        .`      STR      r1,[r0,#0]
        0x00001462:    6042        B`      STR      r2,[r0,#4]
        0x00001464:    6083        .`      STR      r3,[r0,#8]
        0x00001466:    6104        .a      STR      r4,[r0,#0x10]
        0x00001468:    6185        .a      STR      r5,[r0,#0x18]
        0x0000146a:    2100        .!      MOVS     r1,#0
        0x0000146c:    60c1        .`      STR      r1,[r0,#0xc]
        0x0000146e:    6141        Aa      STR      r1,[r0,#0x14]
        0x00001470:    4631        1F      MOV      r1,r6
        0x00001472:    bcf0        ..      POP      {r4-r7}
        0x00001474:    e7e2        ..      B        set_pid_filt_hz ; 0x143c
    set_pid_param_i
        0x00001476:    6041        A`      STR      r1,[r0,#4]
        0x00001478:    2100        .!      MOVS     r1,#0
        0x0000147a:    60c1        .`      STR      r1,[r0,#0xc]
        0x0000147c:    4770        pG      BX       lr
    set_pid_param_d
        0x0000147e:    6081        .`      STR      r1,[r0,#8]
        0x00001480:    2100        .!      MOVS     r1,#0
        0x00001482:    6141        Aa      STR      r1,[r0,#0x14]
        0x00001484:    4770        pG      BX       lr
    get_pd_output
        0x00001486:    b510        ..      PUSH     {r4,lr}
        0x00001488:    4604        .F      MOV      r4,r0
        0x0000148a:    6a21        !j      LDR      r1,[r4,#0x20]
        0x0000148c:    6820         h      LDR      r0,[r4,#0]
        0x0000148e:    f003fbe6    ....    BL       __aeabi_fmul ; 0x4c5e
        0x00001492:    6260        `b      STR      r0,[r4,#0x24]
        0x00001494:    6961        ai      LDR      r1,[r4,#0x14]
        0x00001496:    68a0        .h      LDR      r0,[r4,#8]
        0x00001498:    f003fbe1    ....    BL       __aeabi_fmul ; 0x4c5e
        0x0000149c:    62e0        .b      STR      r0,[r4,#0x2c]
        0x0000149e:    bd10        ..      POP      {r4,pc}
    get_filt_alpha
        0x000014a0:    b570        p.      PUSH     {r4-r6,lr}
        0x000014a2:    4604        .F      MOV      r4,r0
        0x000014a4:    69e0        .i      LDR      r0,[r4,#0x1c]
        0x000014a6:    4d37        7M      LDR      r5,[pc,#220] ; [0x1584] = 0x3f800000
        0x000014a8:    0041        A.      LSLS     r1,r0,#1
        0x000014aa:    0e09        ..      LSRS     r1,r1,#24
        0x000014ac:    d010        ..      BEQ      0x14d0 ; get_filt_alpha + 48
        0x000014ae:    4936        6I      LDR      r1,[pc,#216] ; [0x1588] = 0x40c90fdb
        0x000014b0:    f003fbd5    ....    BL       __aeabi_fmul ; 0x4c5e
        0x000014b4:    4601        .F      MOV      r1,r0
        0x000014b6:    4628        (F      MOV      r0,r5
        0x000014b8:    f003fc0e    ....    BL       __aeabi_fdiv ; 0x4cd8
        0x000014bc:    4601        .F      MOV      r1,r0
        0x000014be:    69a4        .i      LDR      r4,[r4,#0x18]
        0x000014c0:    4620         F      MOV      r0,r4
        0x000014c2:    f003fb73    ..s.    BL       __aeabi_fadd ; 0x4bac
        0x000014c6:    4601        .F      MOV      r1,r0
        0x000014c8:    4620         F      MOV      r0,r4
        0x000014ca:    f003fc05    ....    BL       __aeabi_fdiv ; 0x4cd8
        0x000014ce:    bd70        p.      POP      {r4-r6,pc}
        0x000014d0:    4628        (F      MOV      r0,r5
        0x000014d2:    bd70        p.      POP      {r4-r6,pc}
    set_pid_input
        0x000014d4:    b570        p.      PUSH     {r4-r6,lr}
        0x000014d6:    4604        .F      MOV      r4,r0
        0x000014d8:    460e        .F      MOV      r6,r1
        0x000014da:    2001        .       MOVS     r0,#1
        0x000014dc:    69a5        .i      LDR      r5,[r4,#0x18]
        0x000014de:    05c0        ..      LSLS     r0,r0,#23
        0x000014e0:    4285        .B      CMP      r5,r0
        0x000014e2:    db14        ..      BLT      0x150e ; set_pid_input + 58
        0x000014e4:    4630        0F      MOV      r0,r6
        0x000014e6:    6a21        !j      LDR      r1,[r4,#0x20]
        0x000014e8:    f003fbb1    ....    BL       __aeabi_fsub ; 0x4c4e
        0x000014ec:    4629        )F      MOV      r1,r5
        0x000014ee:    f003fbf3    ....    BL       __aeabi_fdiv ; 0x4cd8
        0x000014f2:    6961        ai      LDR      r1,[r4,#0x14]
        0x000014f4:    f003fbab    ....    BL       __aeabi_fsub ; 0x4c4e
        0x000014f8:    4605        .F      MOV      r5,r0
        0x000014fa:    4620         F      MOV      r0,r4
        0x000014fc:    f7ffffd0    ....    BL       get_filt_alpha ; 0x14a0
        0x00001500:    4629        )F      MOV      r1,r5
        0x00001502:    f003fbac    ....    BL       __aeabi_fmul ; 0x4c5e
        0x00001506:    6961        ai      LDR      r1,[r4,#0x14]
        0x00001508:    f003fb50    ..P.    BL       __aeabi_fadd ; 0x4bac
        0x0000150c:    6160        `a      STR      r0,[r4,#0x14]
        0x0000150e:    6226        &b      STR      r6,[r4,#0x20]
        0x00001510:    4620         F      MOV      r0,r4
        0x00001512:    f7ffffb8    ....    BL       get_pd_output ; 0x1486
        0x00001516:    bd70        p.      POP      {r4-r6,pc}
    get_i_output
        0x00001518:    b570        p.      PUSH     {r4-r6,lr}
        0x0000151a:    4604        .F      MOV      r4,r0
        0x0000151c:    6861        ah      LDR      r1,[r4,#4]
        0x0000151e:    0048        H.      LSLS     r0,r1,#1
        0x00001520:    0e00        ..      LSRS     r0,r0,#24
        0x00001522:    d022        ".      BEQ      0x156a ; get_i_output + 82
        0x00001524:    69a6        .i      LDR      r6,[r4,#0x18]
        0x00001526:    4d19        .M      LDR      r5,[pc,#100] ; [0x158c] = 0x80000000
        0x00001528:    0070        p.      LSLS     r0,r6,#1
        0x0000152a:    0e00        ..      LSRS     r0,r0,#24
        0x0000152c:    d01d        ..      BEQ      0x156a ; get_i_output + 82
        0x0000152e:    6a20         j      LDR      r0,[r4,#0x20]
        0x00001530:    f003fb95    ....    BL       __aeabi_fmul ; 0x4c5e
        0x00001534:    4631        1F      MOV      r1,r6
        0x00001536:    f003fb92    ....    BL       __aeabi_fmul ; 0x4c5e
        0x0000153a:    68e1        .h      LDR      r1,[r4,#0xc]
        0x0000153c:    f003fb36    ..6.    BL       __aeabi_fadd ; 0x4bac
        0x00001540:    60e0        .`      STR      r0,[r4,#0xc]
        0x00001542:    6922        "i      LDR      r2,[r4,#0x10]
        0x00001544:    4601        .F      MOV      r1,r0
        0x00001546:    406a        j@      EORS     r2,r2,r5
        0x00001548:    4610        .F      MOV      r0,r2
        0x0000154a:    f003fe45    ..E.    BL       __aeabi_cfrcmple ; 0x51d8
        0x0000154e:    d203        ..      BCS      0x1558 ; get_i_output + 64
        0x00001550:    6920         i      LDR      r0,[r4,#0x10]
        0x00001552:    4068        h@      EORS     r0,r0,r5
        0x00001554:    60e0        .`      STR      r0,[r4,#0xc]
        0x00001556:    e006        ..      B        0x1566 ; get_i_output + 78
        0x00001558:    6921        !i      LDR      r1,[r4,#0x10]
        0x0000155a:    68e0        .h      LDR      r0,[r4,#0xc]
        0x0000155c:    f003fe3c    ..<.    BL       __aeabi_cfrcmple ; 0x51d8
        0x00001560:    d201        ..      BCS      0x1566 ; get_i_output + 78
        0x00001562:    6920         i      LDR      r0,[r4,#0x10]
        0x00001564:    60e0        .`      STR      r0,[r4,#0xc]
        0x00001566:    68e0        .h      LDR      r0,[r4,#0xc]
        0x00001568:    62a0        .b      STR      r0,[r4,#0x28]
        0x0000156a:    6aa0        .j      LDR      r0,[r4,#0x28]
        0x0000156c:    bd70        p.      POP      {r4-r6,pc}
    reset_pid_I
        0x0000156e:    2100        .!      MOVS     r1,#0
        0x00001570:    60c1        .`      STR      r1,[r0,#0xc]
        0x00001572:    4770        pG      BX       lr
    reset_pid_D
        0x00001574:    2100        .!      MOVS     r1,#0
        0x00001576:    6141        Aa      STR      r1,[r0,#0x14]
        0x00001578:    4770        pG      BX       lr
    get_integrator
        0x0000157a:    68c0        .h      LDR      r0,[r0,#0xc]
        0x0000157c:    4770        pG      BX       lr
    $d
        0x0000157e:    0000        ..      DCW    0
        0x00001580:    3ff00000    ...?    DCD    1072693248
        0x00001584:    3f800000    ...?    DCD    1065353216
        0x00001588:    40c90fdb    ...@    DCD    1086918619
        0x0000158c:    80000000    ....    DCD    2147483648
    $t
    .text
    Quaternion_vectorGravity
        0x00001590:    b5fe        ..      PUSH     {r1-r7,lr}
        0x00001592:    4605        .F      MOV      r5,r0
        0x00001594:    460c        .F      MOV      r4,r1
        0x00001596:    68a1        .h      LDR      r1,[r4,#8]
        0x00001598:    6820         h      LDR      r0,[r4,#0]
        0x0000159a:    f003fb60    ..`.    BL       __aeabi_fmul ; 0x4c5e
        0x0000159e:    68e1        .h      LDR      r1,[r4,#0xc]
        0x000015a0:    4606        .F      MOV      r6,r0
        0x000015a2:    6860        `h      LDR      r0,[r4,#4]
        0x000015a4:    f003fb5b    ..[.    BL       __aeabi_fmul ; 0x4c5e
        0x000015a8:    4631        1F      MOV      r1,r6
        0x000015aa:    f003fb50    ..P.    BL       __aeabi_fsub ; 0x4c4e
        0x000015ae:    2101        .!      MOVS     r1,#1
        0x000015b0:    f003fbd0    ....    BL       __ARM_scalbnf ; 0x4d54
        0x000015b4:    9000        ..      STR      r0,[sp,#0]
        0x000015b6:    68e1        .h      LDR      r1,[r4,#0xc]
        0x000015b8:    68a0        .h      LDR      r0,[r4,#8]
        0x000015ba:    f003fb50    ..P.    BL       __aeabi_fmul ; 0x4c5e
        0x000015be:    6861        ah      LDR      r1,[r4,#4]
        0x000015c0:    4606        .F      MOV      r6,r0
        0x000015c2:    6820         h      LDR      r0,[r4,#0]
        0x000015c4:    f003fb4b    ..K.    BL       __aeabi_fmul ; 0x4c5e
        0x000015c8:    4631        1F      MOV      r1,r6
        0x000015ca:    f003faef    ....    BL       __aeabi_fadd ; 0x4bac
        0x000015ce:    2101        .!      MOVS     r1,#1
        0x000015d0:    f003fbc0    ....    BL       __ARM_scalbnf ; 0x4d54
        0x000015d4:    9001        ..      STR      r0,[sp,#4]
        0x000015d6:    68a1        .h      LDR      r1,[r4,#8]
        0x000015d8:    68a0        .h      LDR      r0,[r4,#8]
        0x000015da:    f003fb40    ..@.    BL       __aeabi_fmul ; 0x4c5e
        0x000015de:    6861        ah      LDR      r1,[r4,#4]
        0x000015e0:    4606        .F      MOV      r6,r0
        0x000015e2:    6860        `h      LDR      r0,[r4,#4]
        0x000015e4:    f003fb3b    ..;.    BL       __aeabi_fmul ; 0x4c5e
        0x000015e8:    4631        1F      MOV      r1,r6
        0x000015ea:    f003fadf    ....    BL       __aeabi_fadd ; 0x4bac
        0x000015ee:    2101        .!      MOVS     r1,#1
        0x000015f0:    f003fbb0    ....    BL       __ARM_scalbnf ; 0x4d54
        0x000015f4:    217f        .!      MOVS     r1,#0x7f
        0x000015f6:    05c9        ..      LSLS     r1,r1,#23
        0x000015f8:    f003fb2d    ..-.    BL       __aeabi_frsub ; 0x4c56
        0x000015fc:    9002        ..      STR      r0,[sp,#8]
        0x000015fe:    4668        hF      MOV      r0,sp
        0x00001600:    c807        ..      LDM      r0,{r0-r2}
        0x00001602:    c507        ..      STM      r5!,{r0-r2}
        0x00001604:    bdfe        ..      POP      {r1-r7,pc}
    Quaternion_ToMatrix
        0x00001606:    b5f8        ..      PUSH     {r3-r7,lr}
        0x00001608:    4604        .F      MOV      r4,r0
        0x0000160a:    460d        .F      MOV      r5,r1
        0x0000160c:    68e1        .h      LDR      r1,[r4,#0xc]
        0x0000160e:    68e0        .h      LDR      r0,[r4,#0xc]
        0x00001610:    f003fb25    ..%.    BL       __aeabi_fmul ; 0x4c5e
        0x00001614:    68a1        .h      LDR      r1,[r4,#8]
        0x00001616:    4606        .F      MOV      r6,r0
        0x00001618:    68a0        .h      LDR      r0,[r4,#8]
        0x0000161a:    f003fb20    .. .    BL       __aeabi_fmul ; 0x4c5e
        0x0000161e:    6861        ah      LDR      r1,[r4,#4]
        0x00001620:    4607        .F      MOV      r7,r0
        0x00001622:    6860        `h      LDR      r0,[r4,#4]
        0x00001624:    f003fb1b    ....    BL       __aeabi_fmul ; 0x4c5e
        0x00001628:    9000        ..      STR      r0,[sp,#0]
        0x0000162a:    6821        !h      LDR      r1,[r4,#0]
        0x0000162c:    6820         h      LDR      r0,[r4,#0]
        0x0000162e:    f003fb16    ....    BL       __aeabi_fmul ; 0x4c5e
        0x00001632:    9900        ..      LDR      r1,[sp,#0]
        0x00001634:    f003faba    ....    BL       __aeabi_fadd ; 0x4bac
        0x00001638:    4639        9F      MOV      r1,r7
        0x0000163a:    f003fb08    ....    BL       __aeabi_fsub ; 0x4c4e
        0x0000163e:    4631        1F      MOV      r1,r6
        0x00001640:    f003fb05    ....    BL       __aeabi_fsub ; 0x4c4e
        0x00001644:    6028        (`      STR      r0,[r5,#0]
        0x00001646:    68a1        .h      LDR      r1,[r4,#8]
        0x00001648:    6860        `h      LDR      r0,[r4,#4]
        0x0000164a:    f003fb08    ....    BL       __aeabi_fmul ; 0x4c5e
        0x0000164e:    68e1        .h      LDR      r1,[r4,#0xc]
        0x00001650:    4606        .F      MOV      r6,r0
        0x00001652:    6820         h      LDR      r0,[r4,#0]
        0x00001654:    f003fb03    ....    BL       __aeabi_fmul ; 0x4c5e
        0x00001658:    4631        1F      MOV      r1,r6
        0x0000165a:    f003faa7    ....    BL       __aeabi_fadd ; 0x4bac
        0x0000165e:    2101        .!      MOVS     r1,#1
        0x00001660:    f003fb78    ..x.    BL       __ARM_scalbnf ; 0x4d54
        0x00001664:    6068        h`      STR      r0,[r5,#4]
        0x00001666:    68a1        .h      LDR      r1,[r4,#8]
        0x00001668:    6820         h      LDR      r0,[r4,#0]
        0x0000166a:    f003faf8    ....    BL       __aeabi_fmul ; 0x4c5e
        0x0000166e:    68e1        .h      LDR      r1,[r4,#0xc]
        0x00001670:    4606        .F      MOV      r6,r0
        0x00001672:    6860        `h      LDR      r0,[r4,#4]
        0x00001674:    f003faf3    ....    BL       __aeabi_fmul ; 0x4c5e
        0x00001678:    4631        1F      MOV      r1,r6
        0x0000167a:    f003fae8    ....    BL       __aeabi_fsub ; 0x4c4e
        0x0000167e:    2101        .!      MOVS     r1,#1
        0x00001680:    f003fb68    ..h.    BL       __ARM_scalbnf ; 0x4d54
        0x00001684:    60a8        .`      STR      r0,[r5,#8]
        0x00001686:    68e1        .h      LDR      r1,[r4,#0xc]
        0x00001688:    6820         h      LDR      r0,[r4,#0]
        0x0000168a:    f003fae8    ....    BL       __aeabi_fmul ; 0x4c5e
        0x0000168e:    68a1        .h      LDR      r1,[r4,#8]
        0x00001690:    4606        .F      MOV      r6,r0
        0x00001692:    6860        `h      LDR      r0,[r4,#4]
        0x00001694:    f003fae3    ....    BL       __aeabi_fmul ; 0x4c5e
        0x00001698:    4631        1F      MOV      r1,r6
        0x0000169a:    f003fad8    ....    BL       __aeabi_fsub ; 0x4c4e
        0x0000169e:    2101        .!      MOVS     r1,#1
        0x000016a0:    f003fb58    ..X.    BL       __ARM_scalbnf ; 0x4d54
        0x000016a4:    60e8        .`      STR      r0,[r5,#0xc]
        0x000016a6:    68e1        .h      LDR      r1,[r4,#0xc]
        0x000016a8:    68e0        .h      LDR      r0,[r4,#0xc]
        0x000016aa:    f003fad8    ....    BL       __aeabi_fmul ; 0x4c5e
        0x000016ae:    68a1        .h      LDR      r1,[r4,#8]
        0x000016b0:    4606        .F      MOV      r6,r0
        0x000016b2:    68a0        .h      LDR      r0,[r4,#8]
        0x000016b4:    f003fad3    ....    BL       __aeabi_fmul ; 0x4c5e
        0x000016b8:    6861        ah      LDR      r1,[r4,#4]
        0x000016ba:    4607        .F      MOV      r7,r0
        0x000016bc:    6860        `h      LDR      r0,[r4,#4]
        0x000016be:    f003face    ....    BL       __aeabi_fmul ; 0x4c5e
        0x000016c2:    9000        ..      STR      r0,[sp,#0]
        0x000016c4:    6821        !h      LDR      r1,[r4,#0]
        0x000016c6:    6820         h      LDR      r0,[r4,#0]
        0x000016c8:    f003fac9    ....    BL       __aeabi_fmul ; 0x4c5e
        0x000016cc:    9900        ..      LDR      r1,[sp,#0]
        0x000016ce:    f003fabe    ....    BL       __aeabi_fsub ; 0x4c4e
        0x000016d2:    4639        9F      MOV      r1,r7
        0x000016d4:    f003fa6a    ..j.    BL       __aeabi_fadd ; 0x4bac
        0x000016d8:    4631        1F      MOV      r1,r6
        0x000016da:    f003fab8    ....    BL       __aeabi_fsub ; 0x4c4e
        0x000016de:    6128        (a      STR      r0,[r5,#0x10]
        0x000016e0:    68e1        .h      LDR      r1,[r4,#0xc]
        0x000016e2:    68a0        .h      LDR      r0,[r4,#8]
        0x000016e4:    f003fabb    ....    BL       __aeabi_fmul ; 0x4c5e
        0x000016e8:    6861        ah      LDR      r1,[r4,#4]
        0x000016ea:    4606        .F      MOV      r6,r0
        0x000016ec:    6820         h      LDR      r0,[r4,#0]
        0x000016ee:    f003fab6    ....    BL       __aeabi_fmul ; 0x4c5e
        0x000016f2:    4631        1F      MOV      r1,r6
        0x000016f4:    f003fa5a    ..Z.    BL       __aeabi_fadd ; 0x4bac
        0x000016f8:    2101        .!      MOVS     r1,#1
        0x000016fa:    f003fb2b    ..+.    BL       __ARM_scalbnf ; 0x4d54
        0x000016fe:    6168        ha      STR      r0,[r5,#0x14]
        0x00001700:    68a1        .h      LDR      r1,[r4,#8]
        0x00001702:    6820         h      LDR      r0,[r4,#0]
        0x00001704:    f003faab    ....    BL       __aeabi_fmul ; 0x4c5e
        0x00001708:    68e1        .h      LDR      r1,[r4,#0xc]
        0x0000170a:    4606        .F      MOV      r6,r0
        0x0000170c:    6860        `h      LDR      r0,[r4,#4]
        0x0000170e:    f003faa6    ....    BL       __aeabi_fmul ; 0x4c5e
        0x00001712:    4631        1F      MOV      r1,r6
        0x00001714:    f003fa4a    ..J.    BL       __aeabi_fadd ; 0x4bac
        0x00001718:    2101        .!      MOVS     r1,#1
        0x0000171a:    f003fb1b    ....    BL       __ARM_scalbnf ; 0x4d54
        0x0000171e:    61a8        .a      STR      r0,[r5,#0x18]
        0x00001720:    6861        ah      LDR      r1,[r4,#4]
        0x00001722:    6820         h      LDR      r0,[r4,#0]
        0x00001724:    f003fa9b    ....    BL       __aeabi_fmul ; 0x4c5e
        0x00001728:    68e1        .h      LDR      r1,[r4,#0xc]
        0x0000172a:    4606        .F      MOV      r6,r0
        0x0000172c:    68a0        .h      LDR      r0,[r4,#8]
        0x0000172e:    f003fa96    ....    BL       __aeabi_fmul ; 0x4c5e
        0x00001732:    4631        1F      MOV      r1,r6
        0x00001734:    f003fa8b    ....    BL       __aeabi_fsub ; 0x4c4e
        0x00001738:    2101        .!      MOVS     r1,#1
        0x0000173a:    f003fb0b    ....    BL       __ARM_scalbnf ; 0x4d54
        0x0000173e:    61e8        .a      STR      r0,[r5,#0x1c]
        0x00001740:    68e1        .h      LDR      r1,[r4,#0xc]
        0x00001742:    68e0        .h      LDR      r0,[r4,#0xc]
        0x00001744:    f003fa8b    ....    BL       __aeabi_fmul ; 0x4c5e
        0x00001748:    9000        ..      STR      r0,[sp,#0]
        0x0000174a:    68a1        .h      LDR      r1,[r4,#8]
        0x0000174c:    68a0        .h      LDR      r0,[r4,#8]
        0x0000174e:    f003fa86    ....    BL       __aeabi_fmul ; 0x4c5e
        0x00001752:    6861        ah      LDR      r1,[r4,#4]
        0x00001754:    4606        .F      MOV      r6,r0
        0x00001756:    6860        `h      LDR      r0,[r4,#4]
        0x00001758:    f003fa81    ....    BL       __aeabi_fmul ; 0x4c5e
        0x0000175c:    6821        !h      LDR      r1,[r4,#0]
        0x0000175e:    4607        .F      MOV      r7,r0
        0x00001760:    6820         h      LDR      r0,[r4,#0]
        0x00001762:    f003fa7c    ..|.    BL       __aeabi_fmul ; 0x4c5e
        0x00001766:    4639        9F      MOV      r1,r7
        0x00001768:    f003fa71    ..q.    BL       __aeabi_fsub ; 0x4c4e
        0x0000176c:    4631        1F      MOV      r1,r6
        0x0000176e:    f003fa6e    ..n.    BL       __aeabi_fsub ; 0x4c4e
        0x00001772:    9900        ..      LDR      r1,[sp,#0]
        0x00001774:    f003fa1a    ....    BL       __aeabi_fadd ; 0x4bac
        0x00001778:    6228        (b      STR      r0,[r5,#0x20]
        0x0000177a:    bdf8        ..      POP      {r3-r7,pc}
    Quaternion_ToAngE
        0x0000177c:    b570        p.      PUSH     {r4-r6,lr}
        0x0000177e:    460d        .F      MOV      r5,r1
        0x00001780:    4614        .F      MOV      r4,r2
        0x00001782:    4621        !F      MOV      r1,r4
        0x00001784:    f7ffff3f    ..?.    BL       Quaternion_ToMatrix ; 0x1606
        0x00001788:    68a0        .h      LDR      r0,[r4,#8]
        0x0000178a:    f004fd6d    ..m.    BL       asinf ; 0x6268
        0x0000178e:    2101        .!      MOVS     r1,#1
        0x00001790:    07c9        ..      LSLS     r1,r1,#31
        0x00001792:    4048        H@      EORS     r0,r0,r1
        0x00001794:    6028        (`      STR      r0,[r5,#0]
        0x00001796:    6a21        !j      LDR      r1,[r4,#0x20]
        0x00001798:    6960        `i      LDR      r0,[r4,#0x14]
        0x0000179a:    f004fdf1    ....    BL       atan2f ; 0x6380
        0x0000179e:    6068        h`      STR      r0,[r5,#4]
        0x000017a0:    6821        !h      LDR      r1,[r4,#0]
        0x000017a2:    6860        `h      LDR      r0,[r4,#4]
        0x000017a4:    f004fdec    ....    BL       atan2f ; 0x6380
        0x000017a8:    60a8        .`      STR      r0,[r5,#8]
        0x000017aa:    bd70        p.      POP      {r4-r6,pc}
    Quaternion_Normalize
        0x000017ac:    b5f8        ..      PUSH     {r3-r7,lr}
        0x000017ae:    4604        .F      MOV      r4,r0
        0x000017b0:    68e1        .h      LDR      r1,[r4,#0xc]
        0x000017b2:    68e0        .h      LDR      r0,[r4,#0xc]
        0x000017b4:    f003fa53    ..S.    BL       __aeabi_fmul ; 0x4c5e
        0x000017b8:    68a1        .h      LDR      r1,[r4,#8]
        0x000017ba:    4605        .F      MOV      r5,r0
        0x000017bc:    68a0        .h      LDR      r0,[r4,#8]
        0x000017be:    f003fa4e    ..N.    BL       __aeabi_fmul ; 0x4c5e
        0x000017c2:    6861        ah      LDR      r1,[r4,#4]
        0x000017c4:    4606        .F      MOV      r6,r0
        0x000017c6:    6860        `h      LDR      r0,[r4,#4]
        0x000017c8:    f003fa49    ..I.    BL       __aeabi_fmul ; 0x4c5e
        0x000017cc:    6821        !h      LDR      r1,[r4,#0]
        0x000017ce:    4607        .F      MOV      r7,r0
        0x000017d0:    6820         h      LDR      r0,[r4,#0]
        0x000017d2:    f003fa44    ..D.    BL       __aeabi_fmul ; 0x4c5e
        0x000017d6:    4639        9F      MOV      r1,r7
        0x000017d8:    f003f9e8    ....    BL       __aeabi_fadd ; 0x4bac
        0x000017dc:    4631        1F      MOV      r1,r6
        0x000017de:    f003f9e5    ....    BL       __aeabi_fadd ; 0x4bac
        0x000017e2:    4629        )F      MOV      r1,r5
        0x000017e4:    f003f9e2    ....    BL       __aeabi_fadd ; 0x4bac
        0x000017e8:    f7fffdd8    ....    BL       Q_rsqrt ; 0x139c
        0x000017ec:    4605        .F      MOV      r5,r0
        0x000017ee:    6820         h      LDR      r0,[r4,#0]
        0x000017f0:    4629        )F      MOV      r1,r5
        0x000017f2:    f003fa34    ..4.    BL       __aeabi_fmul ; 0x4c5e
        0x000017f6:    6020         `      STR      r0,[r4,#0]
        0x000017f8:    6860        `h      LDR      r0,[r4,#4]
        0x000017fa:    4629        )F      MOV      r1,r5
        0x000017fc:    f003fa2f    ../.    BL       __aeabi_fmul ; 0x4c5e
        0x00001800:    6060        ``      STR      r0,[r4,#4]
        0x00001802:    68a0        .h      LDR      r0,[r4,#8]
        0x00001804:    4629        )F      MOV      r1,r5
        0x00001806:    f003fa2a    ..*.    BL       __aeabi_fmul ; 0x4c5e
        0x0000180a:    60a0        .`      STR      r0,[r4,#8]
        0x0000180c:    68e0        .h      LDR      r0,[r4,#0xc]
        0x0000180e:    4629        )F      MOV      r1,r5
        0x00001810:    f003fa25    ..%.    BL       __aeabi_fmul ; 0x4c5e
        0x00001814:    60e0        .`      STR      r0,[r4,#0xc]
        0x00001816:    bdf8        ..      POP      {r3-r7,pc}
    Quaternion_RungeKutta
        0x00001818:    b5ff        ..      PUSH     {r0-r7,lr}
        0x0000181a:    b083        ..      SUB      sp,sp,#0xc
        0x0000181c:    4604        .F      MOV      r4,r0
        0x0000181e:    6826        &h      LDR      r6,[r4,#0]
        0x00001820:    6865        eh      LDR      r5,[r4,#4]
        0x00001822:    68a0        .h      LDR      r0,[r4,#8]
        0x00001824:    9002        ..      STR      r0,[sp,#8]
        0x00001826:    68e7        .h      LDR      r7,[r4,#0xc]
        0x00001828:    9906        ..      LDR      r1,[sp,#0x18]
        0x0000182a:    4638        8F      MOV      r0,r7
        0x0000182c:    f003fa17    ....    BL       __aeabi_fmul ; 0x4c5e
        0x00001830:    9001        ..      STR      r0,[sp,#4]
        0x00001832:    9905        ..      LDR      r1,[sp,#0x14]
        0x00001834:    9802        ..      LDR      r0,[sp,#8]
        0x00001836:    f003fa12    ....    BL       __aeabi_fmul ; 0x4c5e
        0x0000183a:    9000        ..      STR      r0,[sp,#0]
        0x0000183c:    2001        .       MOVS     r0,#1
        0x0000183e:    07c0        ..      LSLS     r0,r0,#31
        0x00001840:    4068        h@      EORS     r0,r0,r5
        0x00001842:    9904        ..      LDR      r1,[sp,#0x10]
        0x00001844:    f003fa0b    ....    BL       __aeabi_fmul ; 0x4c5e
        0x00001848:    9900        ..      LDR      r1,[sp,#0]
        0x0000184a:    f003fa00    ....    BL       __aeabi_fsub ; 0x4c4e
        0x0000184e:    9901        ..      LDR      r1,[sp,#4]
        0x00001850:    f003f9fd    ....    BL       __aeabi_fsub ; 0x4c4e
        0x00001854:    990c        ..      LDR      r1,[sp,#0x30]
        0x00001856:    f003fa02    ....    BL       __aeabi_fmul ; 0x4c5e
        0x0000185a:    6821        !h      LDR      r1,[r4,#0]
        0x0000185c:    f003f9a6    ....    BL       __aeabi_fadd ; 0x4bac
        0x00001860:    6020         `      STR      r0,[r4,#0]
        0x00001862:    9906        ..      LDR      r1,[sp,#0x18]
        0x00001864:    9802        ..      LDR      r0,[sp,#8]
        0x00001866:    f003f9fa    ....    BL       __aeabi_fmul ; 0x4c5e
        0x0000186a:    9001        ..      STR      r0,[sp,#4]
        0x0000186c:    4638        8F      MOV      r0,r7
        0x0000186e:    9905        ..      LDR      r1,[sp,#0x14]
        0x00001870:    f003f9f5    ....    BL       __aeabi_fmul ; 0x4c5e
        0x00001874:    9000        ..      STR      r0,[sp,#0]
        0x00001876:    4630        0F      MOV      r0,r6
        0x00001878:    9904        ..      LDR      r1,[sp,#0x10]
        0x0000187a:    f003f9f0    ....    BL       __aeabi_fmul ; 0x4c5e
        0x0000187e:    9900        ..      LDR      r1,[sp,#0]
        0x00001880:    f003f9e5    ....    BL       __aeabi_fsub ; 0x4c4e
        0x00001884:    9901        ..      LDR      r1,[sp,#4]
        0x00001886:    f003f991    ....    BL       __aeabi_fadd ; 0x4bac
        0x0000188a:    990c        ..      LDR      r1,[sp,#0x30]
        0x0000188c:    f003f9e7    ....    BL       __aeabi_fmul ; 0x4c5e
        0x00001890:    6861        ah      LDR      r1,[r4,#4]
        0x00001892:    f003f98b    ....    BL       __aeabi_fadd ; 0x4bac
        0x00001896:    6060        ``      STR      r0,[r4,#4]
        0x00001898:    4628        (F      MOV      r0,r5
        0x0000189a:    9906        ..      LDR      r1,[sp,#0x18]
        0x0000189c:    f003f9df    ....    BL       __aeabi_fmul ; 0x4c5e
        0x000018a0:    9001        ..      STR      r0,[sp,#4]
        0x000018a2:    4630        0F      MOV      r0,r6
        0x000018a4:    9905        ..      LDR      r1,[sp,#0x14]
        0x000018a6:    f003f9da    ....    BL       __aeabi_fmul ; 0x4c5e
        0x000018aa:    9000        ..      STR      r0,[sp,#0]
        0x000018ac:    4638        8F      MOV      r0,r7
        0x000018ae:    9904        ..      LDR      r1,[sp,#0x10]
        0x000018b0:    f003f9d5    ....    BL       __aeabi_fmul ; 0x4c5e
        0x000018b4:    9900        ..      LDR      r1,[sp,#0]
        0x000018b6:    f003f979    ..y.    BL       __aeabi_fadd ; 0x4bac
        0x000018ba:    9901        ..      LDR      r1,[sp,#4]
        0x000018bc:    f003f9c7    ....    BL       __aeabi_fsub ; 0x4c4e
        0x000018c0:    990c        ..      LDR      r1,[sp,#0x30]
        0x000018c2:    f003f9cc    ....    BL       __aeabi_fmul ; 0x4c5e
        0x000018c6:    68a1        .h      LDR      r1,[r4,#8]
        0x000018c8:    f003f970    ..p.    BL       __aeabi_fadd ; 0x4bac
        0x000018cc:    60a0        .`      STR      r0,[r4,#8]
        0x000018ce:    4630        0F      MOV      r0,r6
        0x000018d0:    9906        ..      LDR      r1,[sp,#0x18]
        0x000018d2:    f003f9c4    ....    BL       __aeabi_fmul ; 0x4c5e
        0x000018d6:    4606        .F      MOV      r6,r0
        0x000018d8:    9904        ..      LDR      r1,[sp,#0x10]
        0x000018da:    9802        ..      LDR      r0,[sp,#8]
        0x000018dc:    f003f9bf    ....    BL       __aeabi_fmul ; 0x4c5e
        0x000018e0:    4607        .F      MOV      r7,r0
        0x000018e2:    4628        (F      MOV      r0,r5
        0x000018e4:    9905        ..      LDR      r1,[sp,#0x14]
        0x000018e6:    f003f9ba    ....    BL       __aeabi_fmul ; 0x4c5e
        0x000018ea:    4639        9F      MOV      r1,r7
        0x000018ec:    f003f9af    ....    BL       __aeabi_fsub ; 0x4c4e
        0x000018f0:    4631        1F      MOV      r1,r6
        0x000018f2:    f003f95b    ..[.    BL       __aeabi_fadd ; 0x4bac
        0x000018f6:    990c        ..      LDR      r1,[sp,#0x30]
        0x000018f8:    f003f9b1    ....    BL       __aeabi_fmul ; 0x4c5e
        0x000018fc:    68e1        .h      LDR      r1,[r4,#0xc]
        0x000018fe:    f003f955    ..U.    BL       __aeabi_fadd ; 0x4bac
        0x00001902:    60e0        .`      STR      r0,[r4,#0xc]
        0x00001904:    b007        ..      ADD      sp,sp,#0x1c
        0x00001906:    bdf0        ..      POP      {r4-r7,pc}
    .text
    axis_target_pid_cal
        0x00001908:    b570        p.      PUSH     {r4-r6,lr}
        0x0000190a:    4605        .F      MOV      r5,r0
        0x0000190c:    4608        .F      MOV      r0,r1
        0x0000190e:    f7fffd61    ..a.    BL       Rad ; 0x13d4
        0x00001912:    4604        .F      MOV      r4,r0
        0x00001914:    4621        !F      MOV      r1,r4
        0x00001916:    4628        (F      MOV      r0,r5
        0x00001918:    f7fffddc    ....    BL       set_pid_input ; 0x14d4
        0x0000191c:    4628        (F      MOV      r0,r5
        0x0000191e:    f7fffe2c    ..,.    BL       get_integrator ; 0x157a
        0x00001922:    4601        .F      MOV      r1,r0
        0x00001924:    2001        .       MOVS     r0,#1
        0x00001926:    05c0        ..      LSLS     r0,r0,#23
        0x00001928:    4a5e        ^J      LDR      r2,[pc,#376] ; [0x1aa4] = 0x80800000
        0x0000192a:    4281        .B      CMP      r1,r0
        0x0000192c:    db01        ..      BLT      0x1932 ; axis_target_pid_cal + 42
        0x0000192e:    4294        .B      CMP      r4,r2
        0x00001930:    d203        ..      BCS      0x193a ; axis_target_pid_cal + 50
        0x00001932:    4291        .B      CMP      r1,r2
        0x00001934:    d305        ..      BCC      0x1942 ; axis_target_pid_cal + 58
        0x00001936:    4284        .B      CMP      r4,r0
        0x00001938:    db03        ..      BLT      0x1942 ; axis_target_pid_cal + 58
        0x0000193a:    4628        (F      MOV      r0,r5
        0x0000193c:    f7fffdec    ....    BL       get_i_output ; 0x1518
        0x00001940:    4601        .F      MOV      r1,r0
        0x00001942:    6a68        hj      LDR      r0,[r5,#0x24]
        0x00001944:    f003f932    ..2.    BL       __aeabi_fadd ; 0x4bac
        0x00001948:    6ae9        .j      LDR      r1,[r5,#0x2c]
        0x0000194a:    f003f92f    ../.    BL       __aeabi_fadd ; 0x4bac
        0x0000194e:    bd70        p.      POP      {r4-r6,pc}
    attitude_angle_rate_controller
        0x00001950:    b53e        >.      PUSH     {r1-r5,lr}
        0x00001952:    4668        hF      MOV      r0,sp
        0x00001954:    f001fdc2    ....    BL       get_inertial_vel ; 0x34dc
        0x00001958:    4c53        SL      LDR      r4,[pc,#332] ; [0x1aa8] = 0x200004ec
        0x0000195a:    9900        ..      LDR      r1,[sp,#0]
        0x0000195c:    6820         h      LDR      r0,[r4,#0]
        0x0000195e:    f003f976    ..v.    BL       __aeabi_fsub ; 0x4c4e
        0x00001962:    4601        .F      MOV      r1,r0
        0x00001964:    4851        QH      LDR      r0,[pc,#324] ; [0x1aac] = 0x2000018c
        0x00001966:    f7ffffcf    ....    BL       axis_target_pid_cal ; 0x1908
        0x0000196a:    f000fc04    ....    BL       set_motor_roll ; 0x2176
        0x0000196e:    9901        ..      LDR      r1,[sp,#4]
        0x00001970:    6860        `h      LDR      r0,[r4,#4]
        0x00001972:    f003f96c    ..l.    BL       __aeabi_fsub ; 0x4c4e
        0x00001976:    4601        .F      MOV      r1,r0
        0x00001978:    484c        LH      LDR      r0,[pc,#304] ; [0x1aac] = 0x2000018c
        0x0000197a:    3030        00      ADDS     r0,r0,#0x30
        0x0000197c:    f7ffffc4    ....    BL       axis_target_pid_cal ; 0x1908
        0x00001980:    f000fbfc    ....    BL       set_motor_pitch ; 0x217c
        0x00001984:    9902        ..      LDR      r1,[sp,#8]
        0x00001986:    68a0        .h      LDR      r0,[r4,#8]
        0x00001988:    f003f961    ..a.    BL       __aeabi_fsub ; 0x4c4e
        0x0000198c:    4601        .F      MOV      r1,r0
        0x0000198e:    4847        GH      LDR      r0,[pc,#284] ; [0x1aac] = 0x2000018c
        0x00001990:    3060        `0      ADDS     r0,r0,#0x60
        0x00001992:    f7ffffb9    ....    BL       axis_target_pid_cal ; 0x1908
        0x00001996:    f000fbf4    ....    BL       set_motor_yaw ; 0x2182
        0x0000199a:    bd3e        >.      POP      {r1-r5,pc}
    attitude_angle_euler_controller
        0x0000199c:    b5ff        ..      PUSH     {r0-r7,lr}
        0x0000199e:    b081        ..      SUB      sp,sp,#4
        0x000019a0:    460f        .F      MOV      r7,r1
        0x000019a2:    4615        .F      MOV      r5,r2
        0x000019a4:    4e42        BN      LDR      r6,[pc,#264] ; [0x1ab0] = 0x200005b4
        0x000019a6:    6831        1h      LDR      r1,[r6,#0]
        0x000019a8:    f003f951    ..Q.    BL       __aeabi_fsub ; 0x4c4e
        0x000019ac:    4601        .F      MOV      r1,r0
        0x000019ae:    483f        ?H      LDR      r0,[pc,#252] ; [0x1aac] = 0x2000018c
        0x000019b0:    3090        .0      ADDS     r0,r0,#0x90
        0x000019b2:    f7ffffa9    ....    BL       axis_target_pid_cal ; 0x1908
        0x000019b6:    9904        ..      LDR      r1,[sp,#0x10]
        0x000019b8:    f003f951    ..Q.    BL       __aeabi_fmul ; 0x4c5e
        0x000019bc:    4c3a        :L      LDR      r4,[pc,#232] ; [0x1aa8] = 0x200004ec
        0x000019be:    6020         `      STR      r0,[r4,#0]
        0x000019c0:    4638        8F      MOV      r0,r7
        0x000019c2:    6871        qh      LDR      r1,[r6,#4]
        0x000019c4:    f003f943    ..C.    BL       __aeabi_fsub ; 0x4c4e
        0x000019c8:    4601        .F      MOV      r1,r0
        0x000019ca:    4838        8H      LDR      r0,[pc,#224] ; [0x1aac] = 0x2000018c
        0x000019cc:    30c0        .0      ADDS     r0,r0,#0xc0
        0x000019ce:    f7ffff9b    ....    BL       axis_target_pid_cal ; 0x1908
        0x000019d2:    9904        ..      LDR      r1,[sp,#0x10]
        0x000019d4:    f003f943    ..C.    BL       __aeabi_fmul ; 0x4c5e
        0x000019d8:    6060        ``      STR      r0,[r4,#4]
        0x000019da:    4834        4H      LDR      r0,[pc,#208] ; [0x1aac] = 0x2000018c
        0x000019dc:    4629        )F      MOV      r1,r5
        0x000019de:    30f0        .0      ADDS     r0,r0,#0xf0
        0x000019e0:    f7ffff92    ....    BL       axis_target_pid_cal ; 0x1908
        0x000019e4:    9904        ..      LDR      r1,[sp,#0x10]
        0x000019e6:    f003f93a    ..:.    BL       __aeabi_fmul ; 0x4c5e
        0x000019ea:    60a0        .`      STR      r0,[r4,#8]
        0x000019ec:    b005        ..      ADD      sp,sp,#0x14
        0x000019ee:    bdf0        ..      POP      {r4-r7,pc}
    get_throttle_boosted
        0x000019f0:    b5f8        ..      PUSH     {r3-r7,lr}
        0x000019f2:    4606        .F      MOV      r6,r0
        0x000019f4:    4f2f        /O      LDR      r7,[pc,#188] ; [0x1ab4] = 0x200005a8
        0x000019f6:    6878        xh      LDR      r0,[r7,#4]
        0x000019f8:    f003fb9f    ....    BL       __aeabi_f2d ; 0x513a
        0x000019fc:    f004fe9e    ....    BL       cos ; 0x673c
        0x00001a00:    4604        .F      MOV      r4,r0
        0x00001a02:    460d        .F      MOV      r5,r1
        0x00001a04:    6838        8h      LDR      r0,[r7,#0]
        0x00001a06:    f003fb98    ....    BL       __aeabi_f2d ; 0x513a
        0x00001a0a:    f004fe97    ....    BL       cos ; 0x673c
        0x00001a0e:    4622        "F      MOV      r2,r4
        0x00001a10:    462b        +F      MOV      r3,r5
        0x00001a12:    f003fa5d    ..].    BL       __aeabi_dmul ; 0x4ed0
        0x00001a16:    f003fbb9    ....    BL       __aeabi_d2f ; 0x518c
        0x00001a1a:    4607        .F      MOV      r7,r0
        0x00001a1c:    2101        .!      MOVS     r1,#1
        0x00001a1e:    4638        8F      MOV      r0,r7
        0x00001a20:    f003f998    ....    BL       __ARM_scalbnf ; 0x4d54
        0x00001a24:    257f        .%      MOVS     r5,#0x7f
        0x00001a26:    05ed        ..      LSLS     r5,r5,#23
        0x00001a28:    462a        *F      MOV      r2,r5
        0x00001a2a:    2100        .!      MOVS     r1,#0
        0x00001a2c:    f7fffcec    ....    BL       constrain_float ; 0x1408
        0x00001a30:    4604        .F      MOV      r4,r0
        0x00001a32:    213f        ?!      MOVS     r1,#0x3f
        0x00001a34:    462a        *F      MOV      r2,r5
        0x00001a36:    0609        ..      LSLS     r1,r1,#24
        0x00001a38:    4638        8F      MOV      r0,r7
        0x00001a3a:    f7fffce5    ....    BL       constrain_float ; 0x1408
        0x00001a3e:    4601        .F      MOV      r1,r0
        0x00001a40:    4628        (F      MOV      r0,r5
        0x00001a42:    f003f949    ..I.    BL       __aeabi_fdiv ; 0x4cd8
        0x00001a46:    4605        .F      MOV      r5,r0
        0x00001a48:    4621        !F      MOV      r1,r4
        0x00001a4a:    4630        0F      MOV      r0,r6
        0x00001a4c:    f003f907    ....    BL       __aeabi_fmul ; 0x4c5e
        0x00001a50:    4629        )F      MOV      r1,r5
        0x00001a52:    f003f904    ....    BL       __aeabi_fmul ; 0x4c5e
        0x00001a56:    4a18        .J      LDR      r2,[pc,#96] ; [0x1ab8] = 0x3f733333
        0x00001a58:    2100        .!      MOVS     r1,#0
        0x00001a5a:    f7fffcd5    ....    BL       constrain_float ; 0x1408
        0x00001a5e:    bdf8        ..      POP      {r3-r7,pc}
    attitude_throttle_controller
        0x00001a60:    b510        ..      PUSH     {r4,lr}
        0x00001a62:    4614        .F      MOV      r4,r2
        0x00001a64:    2900        .)      CMP      r1,#0
        0x00001a66:    d001        ..      BEQ      0x1a6c ; attitude_throttle_controller + 12
        0x00001a68:    f7ffffc2    ....    BL       get_throttle_boosted ; 0x19f0
        0x00001a6c:    4621        !F      MOV      r1,r4
        0x00001a6e:    f000fb8b    ....    BL       set_motor_throttle ; 0x2188
        0x00001a72:    bd10        ..      POP      {r4,pc}
    reset_rate_controller
        0x00001a74:    b570        p.      PUSH     {r4-r6,lr}
        0x00001a76:    480d        .H      LDR      r0,[pc,#52] ; [0x1aac] = 0x2000018c
        0x00001a78:    f7fffd79    ..y.    BL       reset_pid_I ; 0x156e
        0x00001a7c:    480b        .H      LDR      r0,[pc,#44] ; [0x1aac] = 0x2000018c
        0x00001a7e:    3030        00      ADDS     r0,r0,#0x30
        0x00001a80:    4604        .F      MOV      r4,r0
        0x00001a82:    f7fffd74    ..t.    BL       reset_pid_I ; 0x156e
        0x00001a86:    4809        .H      LDR      r0,[pc,#36] ; [0x1aac] = 0x2000018c
        0x00001a88:    3060        `0      ADDS     r0,r0,#0x60
        0x00001a8a:    4605        .F      MOV      r5,r0
        0x00001a8c:    f7fffd6f    ..o.    BL       reset_pid_I ; 0x156e
        0x00001a90:    4806        .H      LDR      r0,[pc,#24] ; [0x1aac] = 0x2000018c
        0x00001a92:    f7fffd6f    ..o.    BL       reset_pid_D ; 0x1574
        0x00001a96:    4620         F      MOV      r0,r4
        0x00001a98:    f7fffd6c    ..l.    BL       reset_pid_D ; 0x1574
        0x00001a9c:    4628        (F      MOV      r0,r5
        0x00001a9e:    f7fffd69    ..i.    BL       reset_pid_D ; 0x1574
        0x00001aa2:    bd70        p.      POP      {r4-r6,pc}
    $d
        0x00001aa4:    80800000    ....    DCD    2155872256
        0x00001aa8:    200004ec    ...     DCD    536872172
        0x00001aac:    2000018c    ...     DCD    536871308
        0x00001ab0:    200005b4    ...     DCD    536872372
        0x00001ab4:    200005a8    ...     DCD    536872360
        0x00001ab8:    3f733333    33s?    DCD    1064514355
    $t
    .text
    exit_mode
        0x00001abc:    4770        pG      BX       lr
    acro_init
        0x00001abe:    b510        ..      PUSH     {r4,lr}
        0x00001ac0:    48f9        .H      LDR      r0,[pc,#996] ; [0x1ea8] = 0x2000017c
        0x00001ac2:    7880        .x      LDRB     r0,[r0,#2]
        0x00001ac4:    2800        .(      CMP      r0,#0
        0x00001ac6:    d003        ..      BEQ      0x1ad0 ; acro_init + 18
        0x00001ac8:    f002ff36    ..6.    BL       check_throttle_is_safe ; 0x4938
        0x00001acc:    2800        .(      CMP      r0,#0
        0x00001ace:    d003        ..      BEQ      0x1ad8 ; acro_init + 26
        0x00001ad0:    f7ffffd0    ....    BL       reset_rate_controller ; 0x1a74
        0x00001ad4:    2001        .       MOVS     r0,#1
        0x00001ad6:    bd10        ..      POP      {r4,pc}
        0x00001ad8:    2000        .       MOVS     r0,#0
        0x00001ada:    bd10        ..      POP      {r4,pc}
    takeoff_stop
        0x00001adc:    48f3        .H      LDR      r0,[pc,#972] ; [0x1eac] = 0x20000504
        0x00001ade:    2100        .!      MOVS     r1,#0
        0x00001ae0:    7001        .p      STRB     r1,[r0,#0]
        0x00001ae2:    60c1        .`      STR      r1,[r0,#0xc]
        0x00001ae4:    4770        pG      BX       lr
    althold_init
        0x00001ae6:    b510        ..      PUSH     {r4,lr}
        0x00001ae8:    b086        ..      SUB      sp,sp,#0x18
        0x00001aea:    4cef        .L      LDR      r4,[pc,#956] ; [0x1ea8] = 0x2000017c
        0x00001aec:    78a0        .x      LDRB     r0,[r4,#2]
        0x00001aee:    2800        .(      CMP      r0,#0
        0x00001af0:    d003        ..      BEQ      0x1afa ; althold_init + 20
        0x00001af2:    f002ff21    ..!.    BL       check_throttle_is_safe ; 0x4938
        0x00001af6:    2800        .(      CMP      r0,#0
        0x00001af8:    d00f        ..      BEQ      0x1b1a ; althold_init + 52
        0x00001afa:    7a60        `z      LDRB     r0,[r4,#9]
        0x00001afc:    2800        .(      CMP      r0,#0
        0x00001afe:    d00c        ..      BEQ      0x1b1a ; althold_init + 52
        0x00001b00:    4ceb        .L      LDR      r4,[pc,#940] ; [0x1eb0] = 0x437a0000
        0x00001b02:    48ec        .H      LDR      r0,[pc,#944] ; [0x1eb4] = 0xc37a0000
        0x00001b04:    4621        !F      MOV      r1,r4
        0x00001b06:    f000fe82    ....    BL       set_speed_z ; 0x280e
        0x00001b0a:    4620         F      MOV      r0,r4
        0x00001b0c:    f000fea4    ....    BL       set_accel_z ; 0x2858
        0x00001b10:    f000feb8    ....    BL       is_active_z ; 0x2884
        0x00001b14:    2800        .(      CMP      r0,#0
        0x00001b16:    d003        ..      BEQ      0x1b20 ; althold_init + 58
        0x00001b18:    e00e        ..      B        0x1b38 ; althold_init + 82
        0x00001b1a:    2000        .       MOVS     r0,#0
        0x00001b1c:    b006        ..      ADD      sp,sp,#0x18
        0x00001b1e:    bd10        ..      POP      {r4,pc}
        0x00001b20:    f000febc    ....    BL       set_alt_target_to_current_alt ; 0x289c
        0x00001b24:    4668        hF      MOV      r0,sp
        0x00001b26:    f001fec0    ....    BL       get_inav_velocity ; 0x38aa
        0x00001b2a:    4668        hF      MOV      r0,sp
        0x00001b2c:    c807        ..      LDM      r0,{r0-r2}
        0x00001b2e:    ab03        ..      ADD      r3,sp,#0xc
        0x00001b30:    c307        ..      STM      r3!,{r0-r2}
        0x00001b32:    4610        .F      MOV      r0,r2
        0x00001b34:    f000feb8    ....    BL       set_desired_vel_z ; 0x28a8
        0x00001b38:    f7ffffd0    ....    BL       takeoff_stop ; 0x1adc
        0x00001b3c:    2001        .       MOVS     r0,#1
        0x00001b3e:    e7ed        ..      B        0x1b1c ; althold_init + 54
    stabilize_init
        0x00001b40:    b510        ..      PUSH     {r4,lr}
        0x00001b42:    48d9        .H      LDR      r0,[pc,#868] ; [0x1ea8] = 0x2000017c
        0x00001b44:    7880        .x      LDRB     r0,[r0,#2]
        0x00001b46:    2800        .(      CMP      r0,#0
        0x00001b48:    d003        ..      BEQ      0x1b52 ; stabilize_init + 18
        0x00001b4a:    f002fef5    ....    BL       check_throttle_is_safe ; 0x4938
        0x00001b4e:    2800        .(      CMP      r0,#0
        0x00001b50:    d001        ..      BEQ      0x1b56 ; stabilize_init + 22
        0x00001b52:    2001        .       MOVS     r0,#1
        0x00001b54:    bd10        ..      POP      {r4,pc}
        0x00001b56:    2000        .       MOVS     r0,#0
        0x00001b58:    bd10        ..      POP      {r4,pc}
    set_flight_mode
        0x00001b5a:    b570        p.      PUSH     {r4-r6,lr}
        0x00001b5c:    4604        .F      MOV      r4,r0
        0x00001b5e:    2100        .!      MOVS     r1,#0
        0x00001b60:    48d1        .H      LDR      r0,[pc,#836] ; [0x1ea8] = 0x2000017c
        0x00001b62:    7800        .x      LDRB     r0,[r0,#0]
        0x00001b64:    2800        .(      CMP      r0,#0
        0x00001b66:    d006        ..      BEQ      0x1b76 ; set_flight_mode + 28
        0x00001b68:    2000        .       MOVS     r0,#0
        0x00001b6a:    4dd3        .M      LDR      r5,[pc,#844] ; [0x1eb8] = 0x20000024
        0x00001b6c:    782a        *x      LDRB     r2,[r5,#0]
        0x00001b6e:    4294        .B      CMP      r4,r2
        0x00001b70:    d103        ..      BNE      0x1b7a ; set_flight_mode + 32
        0x00001b72:    2001        .       MOVS     r0,#1
        0x00001b74:    bd70        p.      POP      {r4-r6,pc}
        0x00001b76:    2001        .       MOVS     r0,#1
        0x00001b78:    e7f7        ..      B        0x1b6a ; set_flight_mode + 16
        0x00001b7a:    0023        #.      MOVS     r3,r4
        0x00001b7c:    f003fdb0    ....    BL       __ARM_common_switch8 ; 0x56e0
    $d
        0x00001b80:    0e070304    ....    DCD    235340548
        0x00001b84:    0e0b        ..      DCW    3595
    $t
        0x00001b86:    f7ffffdb    ....    BL       stabilize_init ; 0x1b40
        0x00001b8a:    4601        .F      MOV      r1,r0
        0x00001b8c:    e006        ..      B        0x1b9c ; set_flight_mode + 66
        0x00001b8e:    f7ffffaa    ....    BL       althold_init ; 0x1ae6
        0x00001b92:    4601        .F      MOV      r1,r0
        0x00001b94:    e002        ..      B        0x1b9c ; set_flight_mode + 66
        0x00001b96:    f7ffff92    ....    BL       acro_init ; 0x1abe
        0x00001b9a:    4601        .F      MOV      r1,r0
        0x00001b9c:    2900        .)      CMP      r1,#0
        0x00001b9e:    d005        ..      BEQ      0x1bac ; set_flight_mode + 82
        0x00001ba0:    7828        (x      LDRB     r0,[r5,#0]
        0x00001ba2:    f7ffff8b    ....    BL       exit_mode ; 0x1abc
        0x00001ba6:    7828        (x      LDRB     r0,[r5,#0]
        0x00001ba8:    7068        hp      STRB     r0,[r5,#1]
        0x00001baa:    702c        ,p      STRB     r4,[r5,#0]
        0x00001bac:    4608        .F      MOV      r0,r1
        0x00001bae:    bd70        p.      POP      {r4-r6,pc}
    update_simple_mode
        0x00001bb0:    b5f8        ..      PUSH     {r3-r7,lr}
        0x00001bb2:    4604        .F      MOV      r4,r0
        0x00001bb4:    48bc        .H      LDR      r0,[pc,#752] ; [0x1ea8] = 0x2000017c
        0x00001bb6:    7840        @x      LDRB     r0,[r0,#1]
        0x00001bb8:    2800        .(      CMP      r0,#0
        0x00001bba:    d041        A.      BEQ      0x1c40 ; update_simple_mode + 144
        0x00001bbc:    4dbe        .M      LDR      r5,[pc,#760] ; [0x1eb8] = 0x20000024
        0x00001bbe:    2801        .(      CMP      r0,#1
        0x00001bc0:    d03f        ?.      BEQ      0x1c42 ; update_simple_mode + 146
        0x00001bc2:    6866        fh      LDR      r6,[r4,#4]
        0x00001bc4:    69e9        .i      LDR      r1,[r5,#0x1c]
        0x00001bc6:    4630        0F      MOV      r0,r6
        0x00001bc8:    f003f849    ..I.    BL       __aeabi_fmul ; 0x4c5e
        0x00001bcc:    4607        .F      MOV      r7,r0
        0x00001bce:    6820         h      LDR      r0,[r4,#0]
        0x00001bd0:    69a9        .i      LDR      r1,[r5,#0x18]
        0x00001bd2:    f003f844    ..D.    BL       __aeabi_fmul ; 0x4c5e
        0x00001bd6:    4639        9F      MOV      r1,r7
        0x00001bd8:    f003f839    ..9.    BL       __aeabi_fsub ; 0x4c4e
        0x00001bdc:    4607        .F      MOV      r7,r0
        0x00001bde:    6020         `      STR      r0,[r4,#0]
        0x00001be0:    4630        0F      MOV      r0,r6
        0x00001be2:    69a9        .i      LDR      r1,[r5,#0x18]
        0x00001be4:    f003f83b    ..;.    BL       __aeabi_fmul ; 0x4c5e
        0x00001be8:    4606        .F      MOV      r6,r0
        0x00001bea:    4638        8F      MOV      r0,r7
        0x00001bec:    69e9        .i      LDR      r1,[r5,#0x1c]
        0x00001bee:    f003f836    ..6.    BL       __aeabi_fmul ; 0x4c5e
        0x00001bf2:    4631        1F      MOV      r1,r6
        0x00001bf4:    f002ffda    ....    BL       __aeabi_fadd ; 0x4bac
        0x00001bf8:    6060        ``      STR      r0,[r4,#4]
        0x00001bfa:    4db0        .M      LDR      r5,[pc,#704] ; [0x1ebc] = 0x200005a8
        0x00001bfc:    68a8        .h      LDR      r0,[r5,#8]
        0x00001bfe:    f004fec3    ....    BL       sinf ; 0x6988
        0x00001c02:    6861        ah      LDR      r1,[r4,#4]
        0x00001c04:    f003f82b    ..+.    BL       __aeabi_fmul ; 0x4c5e
        0x00001c08:    4606        .F      MOV      r6,r0
        0x00001c0a:    68a8        .h      LDR      r0,[r5,#8]
        0x00001c0c:    f004fde2    ....    BL       cosf ; 0x67d4
        0x00001c10:    6821        !h      LDR      r1,[r4,#0]
        0x00001c12:    f003f824    ..$.    BL       __aeabi_fmul ; 0x4c5e
        0x00001c16:    4631        1F      MOV      r1,r6
        0x00001c18:    f002ffc8    ....    BL       __aeabi_fadd ; 0x4bac
        0x00001c1c:    6020         `      STR      r0,[r4,#0]
        0x00001c1e:    68a8        .h      LDR      r0,[r5,#8]
        0x00001c20:    f004feb2    ....    BL       sinf ; 0x6988
        0x00001c24:    6821        !h      LDR      r1,[r4,#0]
        0x00001c26:    f003f81a    ....    BL       __aeabi_fmul ; 0x4c5e
        0x00001c2a:    4606        .F      MOV      r6,r0
        0x00001c2c:    68a8        .h      LDR      r0,[r5,#8]
        0x00001c2e:    f004fdd1    ....    BL       cosf ; 0x67d4
        0x00001c32:    6861        ah      LDR      r1,[r4,#4]
        0x00001c34:    f003f813    ....    BL       __aeabi_fmul ; 0x4c5e
        0x00001c38:    4631        1F      MOV      r1,r6
        0x00001c3a:    f003f808    ....    BL       __aeabi_fsub ; 0x4c4e
        0x00001c3e:    6060        ``      STR      r0,[r4,#4]
        0x00001c40:    bdf8        ..      POP      {r3-r7,pc}
        0x00001c42:    6866        fh      LDR      r6,[r4,#4]
        0x00001c44:    6929        )i      LDR      r1,[r5,#0x10]
        0x00001c46:    4630        0F      MOV      r0,r6
        0x00001c48:    f003f809    ....    BL       __aeabi_fmul ; 0x4c5e
        0x00001c4c:    4607        .F      MOV      r7,r0
        0x00001c4e:    6820         h      LDR      r0,[r4,#0]
        0x00001c50:    68e9        .h      LDR      r1,[r5,#0xc]
        0x00001c52:    f003f804    ....    BL       __aeabi_fmul ; 0x4c5e
        0x00001c56:    4639        9F      MOV      r1,r7
        0x00001c58:    f002fff9    ....    BL       __aeabi_fsub ; 0x4c4e
        0x00001c5c:    4607        .F      MOV      r7,r0
        0x00001c5e:    6020         `      STR      r0,[r4,#0]
        0x00001c60:    4630        0F      MOV      r0,r6
        0x00001c62:    68e9        .h      LDR      r1,[r5,#0xc]
        0x00001c64:    f002fffb    ....    BL       __aeabi_fmul ; 0x4c5e
        0x00001c68:    4606        .F      MOV      r6,r0
        0x00001c6a:    4638        8F      MOV      r0,r7
        0x00001c6c:    6929        )i      LDR      r1,[r5,#0x10]
        0x00001c6e:    f002fff6    ....    BL       __aeabi_fmul ; 0x4c5e
        0x00001c72:    4631        1F      MOV      r1,r6
        0x00001c74:    f002ff9a    ....    BL       __aeabi_fadd ; 0x4bac
        0x00001c78:    6060        ``      STR      r0,[r4,#4]
        0x00001c7a:    e7be        ..      B        0x1bfa ; update_simple_mode + 74
    acro_run
        0x00001c7c:    b510        ..      PUSH     {r4,lr}
        0x00001c7e:    488a        .H      LDR      r0,[pc,#552] ; [0x1ea8] = 0x2000017c
        0x00001c80:    7800        .x      LDRB     r0,[r0,#0]
        0x00001c82:    2800        .(      CMP      r0,#0
        0x00001c84:    d022        ".      BEQ      0x1ccc ; acro_run + 80
        0x00001c86:    2801        .(      CMP      r0,#1
        0x00001c88:    d024        $.      BEQ      0x1cd4 ; acro_run + 88
        0x00001c8a:    2002        .       MOVS     r0,#2
        0x00001c8c:    f000fa80    ....    BL       set_motor_state ; 0x2190
        0x00001c90:    f002fd4e    ..N.    BL       get_desired_throttle_expo ; 0x4730
        0x00001c94:    4604        .F      MOV      r4,r0
        0x00001c96:    4885        .H      LDR      r0,[pc,#532] ; [0x1eac] = 0x20000504
        0x00001c98:    4989        .I      LDR      r1,[pc,#548] ; [0x1ec0] = 0x42340000
        0x00001c9a:    380c        .8      SUBS     r0,r0,#0xc
        0x00001c9c:    f002fc92    ....    BL       get_desired_leans_angles ; 0x45c4
        0x00001ca0:    4882        .H      LDR      r0,[pc,#520] ; [0x1eac] = 0x20000504
        0x00001ca2:    380c        .8      SUBS     r0,r0,#0xc
        0x00001ca4:    f7ffff84    ....    BL       update_simple_mode ; 0x1bb0
        0x00001ca8:    2200        ."      MOVS     r2,#0
        0x00001caa:    2101        .!      MOVS     r1,#1
        0x00001cac:    4620         F      MOV      r0,r4
        0x00001cae:    f7fffed7    ....    BL       attitude_throttle_controller ; 0x1a60
        0x00001cb2:    487e        ~H      LDR      r0,[pc,#504] ; [0x1eac] = 0x20000504
        0x00001cb4:    4983        .I      LDR      r1,[pc,#524] ; [0x1ec4] = 0x200004ec
        0x00001cb6:    380c        .8      SUBS     r0,r0,#0xc
        0x00001cb8:    6802        .h      LDR      r2,[r0,#0]
        0x00001cba:    600a        .`      STR      r2,[r1,#0]
        0x00001cbc:    6842        Bh      LDR      r2,[r0,#4]
        0x00001cbe:    604a        J`      STR      r2,[r1,#4]
        0x00001cc0:    6880        .h      LDR      r0,[r0,#8]
        0x00001cc2:    6088        .`      STR      r0,[r1,#8]
        0x00001cc4:    2000        .       MOVS     r0,#0
        0x00001cc6:    f7fff93a    ..:.    BL       set_land_complete ; 0xf3e
        0x00001cca:    bd10        ..      POP      {r4,pc}
        0x00001ccc:    2000        .       MOVS     r0,#0
        0x00001cce:    f000fa5f    .._.    BL       set_motor_state ; 0x2190
        0x00001cd2:    bd10        ..      POP      {r4,pc}
        0x00001cd4:    2001        .       MOVS     r0,#1
        0x00001cd6:    f000fa5b    ..[.    BL       set_motor_state ; 0x2190
        0x00001cda:    bd10        ..      POP      {r4,pc}
    get_smoothing_gain
        0x00001cdc:    207f        .       MOVS     r0,#0x7f
        0x00001cde:    05c0        ..      LSLS     r0,r0,#23
        0x00001ce0:    4770        pG      BX       lr
    takeoff_get_climb_rates
        0x00001ce2:    b5f0        ..      PUSH     {r4-r7,lr}
        0x00001ce4:    b085        ..      SUB      sp,sp,#0x14
        0x00001ce6:    4604        .F      MOV      r4,r0
        0x00001ce8:    460d        .F      MOV      r5,r1
        0x00001cea:    4e70        pN      LDR      r6,[pc,#448] ; [0x1eac] = 0x20000504
        0x00001cec:    4f76        vO      LDR      r7,[pc,#472] ; [0x1ec8] = 0x42480000
        0x00001cee:    6870        ph      LDR      r0,[r6,#4]
        0x00001cf0:    42b8        .B      CMP      r0,r7
        0x00001cf2:    dd00        ..      BLE      0x1cf6 ; takeoff_get_climb_rates + 20
        0x00001cf4:    4638        8F      MOV      r0,r7
        0x00001cf6:    9004        ..      STR      r0,[sp,#0x10]
        0x00001cf8:    f7fff96c    ..l.    BL       sys_milli ; 0xfd4
        0x00001cfc:    68f1        .h      LDR      r1,[r6,#0xc]
        0x00001cfe:    1a40        @.      SUBS     r0,r0,r1
        0x00001d00:    f003f9e7    ....    BL       __aeabi_ui2f ; 0x50d2
        0x00001d04:    4971        qI      LDR      r1,[pc,#452] ; [0x1ecc] = 0x3a83126f
        0x00001d06:    f002ffaa    ....    BL       __aeabi_fmul ; 0x4c5e
        0x00001d0a:    9003        ..      STR      r0,[sp,#0xc]
        0x00001d0c:    496e        nI      LDR      r1,[pc,#440] ; [0x1ec8] = 0x42480000
        0x00001d0e:    9803        ..      LDR      r0,[sp,#0xc]
        0x00001d10:    f002ffa5    ....    BL       __aeabi_fmul ; 0x4c5e
        0x00001d14:    9904        ..      LDR      r1,[sp,#0x10]
        0x00001d16:    f002ff49    ..I.    BL       __aeabi_fadd ; 0x4bac
        0x00001d1a:    4607        .F      MOV      r7,r0
        0x00001d1c:    6871        qh      LDR      r1,[r6,#4]
        0x00001d1e:    f003fa51    ..Q.    BL       __aeabi_cfcmpeq ; 0x51c4
        0x00001d22:    d200        ..      BCS      0x1d26 ; takeoff_get_climb_rates + 68
        0x00001d24:    e000        ..      B        0x1d28 ; takeoff_get_climb_rates + 70
        0x00001d26:    6877        wh      LDR      r7,[r6,#4]
        0x00001d28:    4e60        `N      LDR      r6,[pc,#384] ; [0x1eac] = 0x20000504
        0x00001d2a:    9904        ..      LDR      r1,[sp,#0x10]
        0x00001d2c:    6870        ph      LDR      r0,[r6,#4]
        0x00001d2e:    f002ff8e    ....    BL       __aeabi_fsub ; 0x4c4e
        0x00001d32:    4965        eI      LDR      r1,[pc,#404] ; [0x1ec8] = 0x42480000
        0x00001d34:    f002ffd0    ....    BL       __aeabi_fdiv ; 0x4cd8
        0x00001d38:    9002        ..      STR      r0,[sp,#8]
        0x00001d3a:    7830        0x      LDRB     r0,[r6,#0]
        0x00001d3c:    2600        .&      MOVS     r6,#0
        0x00001d3e:    2800        .(      CMP      r0,#0
        0x00001d40:    d014        ..      BEQ      0x1d6c ; takeoff_get_climb_rates + 138
        0x00001d42:    9902        ..      LDR      r1,[sp,#8]
        0x00001d44:    9803        ..      LDR      r0,[sp,#0xc]
        0x00001d46:    f003fa3d    ..=.    BL       __aeabi_cfcmpeq ; 0x51c4
        0x00001d4a:    d812        ..      BHI      0x1d72 ; takeoff_get_climb_rates + 144
        0x00001d4c:    9903        ..      LDR      r1,[sp,#0xc]
        0x00001d4e:    9804        ..      LDR      r0,[sp,#0x10]
        0x00001d50:    f002ff85    ....    BL       __aeabi_fmul ; 0x4c5e
        0x00001d54:    9903        ..      LDR      r1,[sp,#0xc]
        0x00001d56:    9001        ..      STR      r0,[sp,#4]
        0x00001d58:    4608        .F      MOV      r0,r1
        0x00001d5a:    f002ff80    ....    BL       __aeabi_fmul ; 0x4c5e
        0x00001d5e:    495c        \I      LDR      r1,[pc,#368] ; [0x1ed0] = 0x41c80000
        0x00001d60:    f002ff7d    ..}.    BL       __aeabi_fmul ; 0x4c5e
        0x00001d64:    9901        ..      LDR      r1,[sp,#4]
        0x00001d66:    f002ff21    ..!.    BL       __aeabi_fadd ; 0x4bac
        0x00001d6a:    e01d        ..      B        0x1da8 ; takeoff_get_climb_rates + 198
        0x00001d6c:    602e        .`      STR      r6,[r5,#0]
        0x00001d6e:    b005        ..      ADD      sp,sp,#0x14
        0x00001d70:    bdf0        ..      POP      {r4-r7,pc}
        0x00001d72:    9902        ..      LDR      r1,[sp,#8]
        0x00001d74:    9803        ..      LDR      r0,[sp,#0xc]
        0x00001d76:    f002ff6a    ..j.    BL       __aeabi_fsub ; 0x4c4e
        0x00001d7a:    494c        LI      LDR      r1,[pc,#304] ; [0x1eac] = 0x20000504
        0x00001d7c:    6849        Ih      LDR      r1,[r1,#4]
        0x00001d7e:    f002ff6e    ..n.    BL       __aeabi_fmul ; 0x4c5e
        0x00001d82:    9001        ..      STR      r0,[sp,#4]
        0x00001d84:    9902        ..      LDR      r1,[sp,#8]
        0x00001d86:    9804        ..      LDR      r0,[sp,#0x10]
        0x00001d88:    f002ff69    ..i.    BL       __aeabi_fmul ; 0x4c5e
        0x00001d8c:    9902        ..      LDR      r1,[sp,#8]
        0x00001d8e:    9000        ..      STR      r0,[sp,#0]
        0x00001d90:    4608        .F      MOV      r0,r1
        0x00001d92:    f002ff64    ..d.    BL       __aeabi_fmul ; 0x4c5e
        0x00001d96:    494e        NI      LDR      r1,[pc,#312] ; [0x1ed0] = 0x41c80000
        0x00001d98:    f002ff61    ..a.    BL       __aeabi_fmul ; 0x4c5e
        0x00001d9c:    9900        ..      LDR      r1,[sp,#0]
        0x00001d9e:    f002ff05    ....    BL       __aeabi_fadd ; 0x4bac
        0x00001da2:    9901        ..      LDR      r1,[sp,#4]
        0x00001da4:    f002ff02    ....    BL       __aeabi_fadd ; 0x4bac
        0x00001da8:    4940        @I      LDR      r1,[pc,#256] ; [0x1eac] = 0x20000504
        0x00001daa:    6889        .h      LDR      r1,[r1,#8]
        0x00001dac:    f003fa14    ....    BL       __aeabi_cfrcmple ; 0x51d8
        0x00001db0:    d801        ..      BHI      0x1db6 ; takeoff_get_climb_rates + 212
        0x00001db2:    f7fffe93    ....    BL       takeoff_stop ; 0x1adc
        0x00001db6:    2001        .       MOVS     r0,#1
        0x00001db8:    05c0        ..      LSLS     r0,r0,#23
        0x00001dba:    4287        .B      CMP      r7,r0
        0x00001dbc:    da01        ..      BGE      0x1dc2 ; takeoff_get_climb_rates + 224
        0x00001dbe:    602e        .`      STR      r6,[r5,#0]
        0x00001dc0:    e7d5        ..      B        0x1d6e ; takeoff_get_climb_rates + 140
        0x00001dc2:    602f        /`      STR      r7,[r5,#0]
        0x00001dc4:    21ff        .!      MOVS     r1,#0xff
        0x00001dc6:    6820         h      LDR      r0,[r4,#0]
        0x00001dc8:    05c9        ..      LSLS     r1,r1,#23
        0x00001dca:    42c8        .B      CMN      r0,r1
        0x00001dcc:    d30d        ..      BCC      0x1dea ; takeoff_get_climb_rates + 264
        0x00001dce:    4601        .F      MOV      r1,r0
        0x00001dd0:    4638        8F      MOV      r0,r7
        0x00001dd2:    f002feeb    ....    BL       __aeabi_fadd ; 0x4bac
        0x00001dd6:    2101        .!      MOVS     r1,#1
        0x00001dd8:    05c9        ..      LSLS     r1,r1,#23
        0x00001dda:    4288        .B      CMP      r0,r1
        0x00001ddc:    db02        ..      BLT      0x1de4 ; takeoff_get_climb_rates + 258
        0x00001dde:    6028        (`      STR      r0,[r5,#0]
        0x00001de0:    6026        &`      STR      r6,[r4,#0]
        0x00001de2:    e7c4        ..      B        0x1d6e ; takeoff_get_climb_rates + 140
        0x00001de4:    6020         `      STR      r0,[r4,#0]
        0x00001de6:    602e        .`      STR      r6,[r5,#0]
        0x00001de8:    e7c1        ..      B        0x1d6e ; takeoff_get_climb_rates + 140
        0x00001dea:    4639        9F      MOV      r1,r7
        0x00001dec:    f003f9f4    ....    BL       __aeabi_cfrcmple ; 0x51d8
        0x00001df0:    d205        ..      BCS      0x1dfe ; takeoff_get_climb_rates + 284
        0x00001df2:    6829        )h      LDR      r1,[r5,#0]
        0x00001df4:    6820         h      LDR      r0,[r4,#0]
        0x00001df6:    f002ff2a    ..*.    BL       __aeabi_fsub ; 0x4c4e
        0x00001dfa:    6020         `      STR      r0,[r4,#0]
        0x00001dfc:    e7b7        ..      B        0x1d6e ; takeoff_get_climb_rates + 140
        0x00001dfe:    6026        &`      STR      r6,[r4,#0]
        0x00001e00:    e7b5        ..      B        0x1d6e ; takeoff_get_climb_rates + 140
    takeoff_timer_start
        0x00001e02:    b570        p.      PUSH     {r4-r6,lr}
        0x00001e04:    4605        .F      MOV      r5,r0
        0x00001e06:    4833        3H      LDR      r0,[pc,#204] ; [0x1ed4] = 0x43480000
        0x00001e08:    4c28        (L      LDR      r4,[pc,#160] ; [0x1eac] = 0x20000504
        0x00001e0a:    7821        !x      LDRB     r1,[r4,#0]
        0x00001e0c:    2900        .)      CMP      r1,#0
        0x00001e0e:    d10a        ..      BNE      0x1e26 ; takeoff_timer_start + 36
        0x00001e10:    2101        .!      MOVS     r1,#1
        0x00001e12:    05c9        ..      LSLS     r1,r1,#23
        0x00001e14:    428d        .B      CMP      r5,r1
        0x00001e16:    db06        ..      BLT      0x1e26 ; takeoff_timer_start + 36
        0x00001e18:    2101        .!      MOVS     r1,#1
        0x00001e1a:    7021        !p      STRB     r1,[r4,#0]
        0x00001e1c:    6060        ``      STR      r0,[r4,#4]
        0x00001e1e:    f7fff8d9    ....    BL       sys_milli ; 0xfd4
        0x00001e22:    60e0        .`      STR      r0,[r4,#0xc]
        0x00001e24:    60a5        .`      STR      r5,[r4,#8]
        0x00001e26:    bd70        p.      POP      {r4-r6,pc}
    althold_run
        0x00001e28:    b5fe        ..      PUSH     {r1-r7,lr}
        0x00001e2a:    2600        .&      MOVS     r6,#0
        0x00001e2c:    9602        ..      STR      r6,[sp,#8]
        0x00001e2e:    9601        ..      STR      r6,[sp,#4]
        0x00001e30:    f7fff8c2    ....    BL       sys_micro ; 0xfb8
        0x00001e34:    4605        .F      MOV      r5,r0
        0x00001e36:    4f20         O      LDR      r7,[pc,#128] ; [0x1eb8] = 0x20000024
        0x00001e38:    68b8        .h      LDR      r0,[r7,#8]
        0x00001e3a:    2800        .(      CMP      r0,#0
        0x00001e3c:    d007        ..      BEQ      0x1e4e ; althold_run + 38
        0x00001e3e:    1a28        (.      SUBS     r0,r5,r0
        0x00001e40:    f003f947    ..G.    BL       __aeabi_ui2f ; 0x50d2
        0x00001e44:    4924        $I      LDR      r1,[pc,#144] ; [0x1ed8] = 0x49742400
        0x00001e46:    f002ff47    ..G.    BL       __aeabi_fdiv ; 0x4cd8
        0x00001e4a:    4604        .F      MOV      r4,r0
        0x00001e4c:    e000        ..      B        0x1e50 ; althold_run + 40
        0x00001e4e:    2400        .$      MOVS     r4,#0
        0x00001e50:    60bd        .`      STR      r5,[r7,#8]
        0x00001e52:    4816        .H      LDR      r0,[pc,#88] ; [0x1eac] = 0x20000504
        0x00001e54:    491a        .I      LDR      r1,[pc,#104] ; [0x1ec0] = 0x42340000
        0x00001e56:    380c        .8      SUBS     r0,r0,#0xc
        0x00001e58:    f002fbb4    ....    BL       get_desired_leans_angles ; 0x45c4
        0x00001e5c:    4813        .H      LDR      r0,[pc,#76] ; [0x1eac] = 0x20000504
        0x00001e5e:    380c        .8      SUBS     r0,r0,#0xc
        0x00001e60:    f7fffea6    ....    BL       update_simple_mode ; 0x1bb0
        0x00001e64:    f002fc9e    ....    BL       get_desired_climb_rate ; 0x47a4
        0x00001e68:    9001        ..      STR      r0,[sp,#4]
        0x00001e6a:    4a11        .J      LDR      r2,[pc,#68] ; [0x1eb0] = 0x437a0000
        0x00001e6c:    4911        .I      LDR      r1,[pc,#68] ; [0x1eb4] = 0xc37a0000
        0x00001e6e:    f7fffacb    ....    BL       constrain_float ; 0x1408
        0x00001e72:    4602        .F      MOV      r2,r0
        0x00001e74:    9001        ..      STR      r0,[sp,#4]
        0x00001e76:    4d0c        .M      LDR      r5,[pc,#48] ; [0x1ea8] = 0x2000017c
        0x00001e78:    78ab        .x      LDRB     r3,[r5,#2]
        0x00001e7a:    2b00        .+      CMP      r3,#0
        0x00001e7c:    d005        ..      BEQ      0x1e8a ; althold_run + 98
        0x00001e7e:    2001        .       MOVS     r0,#1
        0x00001e80:    05c0        ..      LSLS     r0,r0,#23
        0x00001e82:    4282        .B      CMP      r2,r0
        0x00001e84:    db01        ..      BLT      0x1e8a ; althold_run + 98
        0x00001e86:    2001        .       MOVS     r0,#1
        0x00001e88:    e000        ..      B        0x1e8c ; althold_run + 100
        0x00001e8a:    2000        .       MOVS     r0,#0
        0x00001e8c:    7829        )x      LDRB     r1,[r5,#0]
        0x00001e8e:    4f07        .O      LDR      r7,[pc,#28] ; [0x1eac] = 0x20000504
        0x00001e90:    2900        .)      CMP      r1,#0
        0x00001e92:    d023        #.      BEQ      0x1edc ; althold_run + 180
        0x00001e94:    7a6d        mz      LDRB     r5,[r5,#9]
        0x00001e96:    2d00        .-      CMP      r5,#0
        0x00001e98:    d020         .      BEQ      0x1edc ; althold_run + 180
        0x00001e9a:    2901        .)      CMP      r1,#1
        0x00001e9c:    d01e        ..      BEQ      0x1edc ; althold_run + 180
        0x00001e9e:    783d        =x      LDRB     r5,[r7,#0]
        0x00001ea0:    4305        .C      ORRS     r5,r5,r0
        0x00001ea2:    d01d        ..      BEQ      0x1ee0 ; althold_run + 184
        0x00001ea4:    2001        .       MOVS     r0,#1
        0x00001ea6:    e020         .      B        0x1eea ; althold_run + 194
    $d
        0x00001ea8:    2000017c    |..     DCD    536871292
        0x00001eac:    20000504    ...     DCD    536872196
        0x00001eb0:    437a0000    ..zC    DCD    1132068864
        0x00001eb4:    c37a0000    ..z.    DCD    3279552512
        0x00001eb8:    20000024    $..     DCD    536870948
        0x00001ebc:    200005a8    ...     DCD    536872360
        0x00001ec0:    42340000    ..4B    DCD    1110704128
        0x00001ec4:    200004ec    ...     DCD    536872172
        0x00001ec8:    42480000    ..HB    DCD    1112014848
        0x00001ecc:    3a83126f    o..:    DCD    981668463
        0x00001ed0:    41c80000    ...A    DCD    1103626240
        0x00001ed4:    43480000    ..HC    DCD    1128792064
        0x00001ed8:    49742400    .$tI    DCD    1232348160
    $t
        0x00001edc:    2000        .       MOVS     r0,#0
        0x00001ede:    e004        ..      B        0x1eea ; althold_run + 194
        0x00001ee0:    2b00        .+      CMP      r3,#0
        0x00001ee2:    d001        ..      BEQ      0x1ee8 ; althold_run + 192
        0x00001ee4:    2003        .       MOVS     r0,#3
        0x00001ee6:    e000        ..      B        0x1eea ; althold_run + 194
        0x00001ee8:    2002        .       MOVS     r0,#2
        0x00001eea:    4d65        eM      LDR      r5,[pc,#404] ; [0x2080] = 0x200004f8
        0x00001eec:    2800        .(      CMP      r0,#0
        0x00001eee:    d00d        ..      BEQ      0x1f0c ; althold_run + 228
        0x00001ef0:    2801        .(      CMP      r0,#1
        0x00001ef2:    d028        (.      BEQ      0x1f46 ; althold_run + 286
        0x00001ef4:    2802        .(      CMP      r0,#2
        0x00001ef6:    d063        c.      BEQ      0x1fc0 ; althold_run + 408
        0x00001ef8:    2803        .(      CMP      r0,#3
        0x00001efa:    d123        #.      BNE      0x1f44 ; althold_run + 284
        0x00001efc:    2001        .       MOVS     r0,#1
        0x00001efe:    05c0        ..      LSLS     r0,r0,#23
        0x00001f00:    4282        .B      CMP      r2,r0
        0x00001f02:    da49        I.      BGE      0x1f98 ; althold_run + 368
        0x00001f04:    2001        .       MOVS     r0,#1
        0x00001f06:    f000f943    ..C.    BL       set_motor_state ; 0x2190
        0x00001f0a:    e048        H.      B        0x1f9e ; althold_run + 374
        0x00001f0c:    2900        .)      CMP      r1,#0
        0x00001f0e:    d002        ..      BEQ      0x1f16 ; althold_run + 238
        0x00001f10:    2901        .)      CMP      r1,#1
        0x00001f12:    d004        ..      BEQ      0x1f1e ; althold_run + 246
        0x00001f14:    e006        ..      B        0x1f24 ; althold_run + 252
        0x00001f16:    2000        .       MOVS     r0,#0
        0x00001f18:    f000f93a    ..:.    BL       set_motor_state ; 0x2190
        0x00001f1c:    e002        ..      B        0x1f24 ; althold_run + 252
        0x00001f1e:    2001        .       MOVS     r0,#1
        0x00001f20:    f000f936    ..6.    BL       set_motor_state ; 0x2190
        0x00001f24:    f7fffeda    ....    BL       get_smoothing_gain ; 0x1cdc
        0x00001f28:    4603        .F      MOV      r3,r0
        0x00001f2a:    9400        ..      STR      r4,[sp,#0]
        0x00001f2c:    4628        (F      MOV      r0,r5
        0x00001f2e:    c807        ..      LDM      r0,{r0-r2}
        0x00001f30:    f7fffd34    ..4.    BL       attitude_angle_euler_controller ; 0x199c
        0x00001f34:    f7fffd9e    ....    BL       reset_rate_controller ; 0x1a74
        0x00001f38:    60ae        .`      STR      r6,[r5,#8]
        0x00001f3a:    2000        .       MOVS     r0,#0
        0x00001f3c:    f000fc31    ..1.    BL       relax_alt_controller ; 0x27a2
        0x00001f40:    f000fb58    ..X.    BL       position_z_controller ; 0x25f4
        0x00001f44:    bdfe        ..      POP      {r1-r7,pc}
        0x00001f46:    2002        .       MOVS     r0,#2
        0x00001f48:    f000f922    ..".    BL       set_motor_state ; 0x2190
        0x00001f4c:    7838        8x      LDRB     r0,[r7,#0]
        0x00001f4e:    2800        .(      CMP      r0,#0
        0x00001f50:    d10b        ..      BNE      0x1f6a ; althold_run + 322
        0x00001f52:    2100        .!      MOVS     r1,#0
        0x00001f54:    4a4b        KJ      LDR      r2,[pc,#300] ; [0x2084] = 0x447a0000
        0x00001f56:    4608        .F      MOV      r0,r1
        0x00001f58:    f7fffa56    ..V.    BL       constrain_float ; 0x1408
        0x00001f5c:    f7ffff51    ..Q.    BL       takeoff_timer_start ; 0x1e02
        0x00001f60:    2000        .       MOVS     r0,#0
        0x00001f62:    f7feffec    ....    BL       set_land_complete ; 0xf3e
        0x00001f66:    f000f929    ..).    BL       poscontrol_init_takeoff ; 0x21bc
        0x00001f6a:    a902        ..      ADD      r1,sp,#8
        0x00001f6c:    a801        ..      ADD      r0,sp,#4
        0x00001f6e:    f7fffeb8    ....    BL       takeoff_get_climb_rates ; 0x1ce2
        0x00001f72:    f7fffeb3    ....    BL       get_smoothing_gain ; 0x1cdc
        0x00001f76:    4603        .F      MOV      r3,r0
        0x00001f78:    9400        ..      STR      r4,[sp,#0]
        0x00001f7a:    cd07        ..      LDM      r5!,{r0-r2}
        0x00001f7c:    f7fffd0e    ....    BL       attitude_angle_euler_controller ; 0x199c
        0x00001f80:    2200        ."      MOVS     r2,#0
        0x00001f82:    4621        !F      MOV      r1,r4
        0x00001f84:    9801        ..      LDR      r0,[sp,#4]
        0x00001f86:    f000fb58    ..X.    BL       set_alt_target_from_climb_rate_ff ; 0x263a
        0x00001f8a:    4621        !F      MOV      r1,r4
        0x00001f8c:    9802        ..      LDR      r0,[sp,#8]
        0x00001f8e:    f000fb4b    ..K.    BL       add_takeoff_climb_rate ; 0x2628
        0x00001f92:    f000fb2f    ../.    BL       position_z_controller ; 0x25f4
        0x00001f96:    bdfe        ..      POP      {r1-r7,pc}
        0x00001f98:    2002        .       MOVS     r0,#2
        0x00001f9a:    f000f8f9    ....    BL       set_motor_state ; 0x2190
        0x00001f9e:    f7fffe9d    ....    BL       get_smoothing_gain ; 0x1cdc
        0x00001fa2:    4603        .F      MOV      r3,r0
        0x00001fa4:    9400        ..      STR      r4,[sp,#0]
        0x00001fa6:    4628        (F      MOV      r0,r5
        0x00001fa8:    c807        ..      LDM      r0,{r0-r2}
        0x00001faa:    f7fffcf7    ....    BL       attitude_angle_euler_controller ; 0x199c
        0x00001fae:    f7fffd61    ..a.    BL       reset_rate_controller ; 0x1a74
        0x00001fb2:    60ae        .`      STR      r6,[r5,#8]
        0x00001fb4:    2000        .       MOVS     r0,#0
        0x00001fb6:    f000fbf4    ....    BL       relax_alt_controller ; 0x27a2
        0x00001fba:    f000fb1b    ....    BL       position_z_controller ; 0x25f4
        0x00001fbe:    bdfe        ..      POP      {r1-r7,pc}
        0x00001fc0:    2002        .       MOVS     r0,#2
        0x00001fc2:    f000f8e5    ....    BL       set_motor_state ; 0x2190
        0x00001fc6:    f7fffe89    ....    BL       get_smoothing_gain ; 0x1cdc
        0x00001fca:    4603        .F      MOV      r3,r0
        0x00001fcc:    9400        ..      STR      r4,[sp,#0]
        0x00001fce:    cd07        ..      LDM      r5!,{r0-r2}
        0x00001fd0:    f7fffce4    ....    BL       attitude_angle_euler_controller ; 0x199c
        0x00001fd4:    2200        ."      MOVS     r2,#0
        0x00001fd6:    4621        !F      MOV      r1,r4
        0x00001fd8:    9801        ..      LDR      r0,[sp,#4]
        0x00001fda:    f000fb2e    ....    BL       set_alt_target_from_climb_rate_ff ; 0x263a
        0x00001fde:    f000fb09    ....    BL       position_z_controller ; 0x25f4
        0x00001fe2:    bdfe        ..      POP      {r1-r7,pc}
    stabilize_run
        0x00001fe4:    b5f8        ..      PUSH     {r3-r7,lr}
        0x00001fe6:    f7feffe7    ....    BL       sys_micro ; 0xfb8
        0x00001fea:    4604        .F      MOV      r4,r0
        0x00001fec:    4d26        &M      LDR      r5,[pc,#152] ; [0x2088] = 0x20000024
        0x00001fee:    6868        hh      LDR      r0,[r5,#4]
        0x00001ff0:    2800        .(      CMP      r0,#0
        0x00001ff2:    d006        ..      BEQ      0x2002 ; stabilize_run + 30
        0x00001ff4:    1a20         .      SUBS     r0,r4,r0
        0x00001ff6:    f003f86c    ..l.    BL       __aeabi_ui2f ; 0x50d2
        0x00001ffa:    4924        $I      LDR      r1,[pc,#144] ; [0x208c] = 0x49742400
        0x00001ffc:    f002fe6c    ..l.    BL       __aeabi_fdiv ; 0x4cd8
        0x00002000:    e000        ..      B        0x2004 ; stabilize_run + 32
        0x00002002:    2000        .       MOVS     r0,#0
        0x00002004:    4606        .F      MOV      r6,r0
        0x00002006:    606c        l`      STR      r4,[r5,#4]
        0x00002008:    4821        !H      LDR      r0,[pc,#132] ; [0x2090] = 0x2000017c
        0x0000200a:    7800        .x      LDRB     r0,[r0,#0]
        0x0000200c:    2800        .(      CMP      r0,#0
        0x0000200e:    d01c        ..      BEQ      0x204a ; stabilize_run + 102
        0x00002010:    2801        .(      CMP      r0,#1
        0x00002012:    d01e        ..      BEQ      0x2052 ; stabilize_run + 110
        0x00002014:    2002        .       MOVS     r0,#2
        0x00002016:    f000f8bb    ....    BL       set_motor_state ; 0x2190
        0x0000201a:    f002fb89    ....    BL       get_desired_throttle_expo ; 0x4730
        0x0000201e:    4605        .F      MOV      r5,r0
        0x00002020:    491c        .I      LDR      r1,[pc,#112] ; [0x2094] = 0x42340000
        0x00002022:    4817        .H      LDR      r0,[pc,#92] ; [0x2080] = 0x200004f8
        0x00002024:    f002face    ....    BL       get_desired_leans_angles ; 0x45c4
        0x00002028:    f7fffe58    ..X.    BL       get_smoothing_gain ; 0x1cdc
        0x0000202c:    4c14        .L      LDR      r4,[pc,#80] ; [0x2080] = 0x200004f8
        0x0000202e:    4603        .F      MOV      r3,r0
        0x00002030:    9600        ..      STR      r6,[sp,#0]
        0x00002032:    cc07        ..      LDM      r4!,{r0-r2}
        0x00002034:    f7fffcb2    ....    BL       attitude_angle_euler_controller ; 0x199c
        0x00002038:    2200        ."      MOVS     r2,#0
        0x0000203a:    2101        .!      MOVS     r1,#1
        0x0000203c:    4628        (F      MOV      r0,r5
        0x0000203e:    f7fffd0f    ....    BL       attitude_throttle_controller ; 0x1a60
        0x00002042:    2000        .       MOVS     r0,#0
        0x00002044:    f7feff7b    ..{.    BL       set_land_complete ; 0xf3e
        0x00002048:    bdf8        ..      POP      {r3-r7,pc}
        0x0000204a:    2000        .       MOVS     r0,#0
        0x0000204c:    f000f8a0    ....    BL       set_motor_state ; 0x2190
        0x00002050:    bdf8        ..      POP      {r3-r7,pc}
        0x00002052:    2001        .       MOVS     r0,#1
        0x00002054:    f000f89c    ....    BL       set_motor_state ; 0x2190
        0x00002058:    bdf8        ..      POP      {r3-r7,pc}
    update_flight_mode
        0x0000205a:    b510        ..      PUSH     {r4,lr}
        0x0000205c:    480a        .H      LDR      r0,[pc,#40] ; [0x2088] = 0x20000024
        0x0000205e:    7800        .x      LDRB     r0,[r0,#0]
        0x00002060:    0003        ..      MOVS     r3,r0
        0x00002062:    f003fb3d    ..=.    BL       __ARM_common_switch8 ; 0x56e0
    $d
        0x00002066:    0304        ..      DCW    772
        0x00002068:    05090506    ....    DCD    84477190
    $t
        0x0000206c:    f7ffffba    ....    BL       stabilize_run ; 0x1fe4
        0x00002070:    bd10        ..      POP      {r4,pc}
        0x00002072:    f7fffed9    ....    BL       althold_run ; 0x1e28
        0x00002076:    bd10        ..      POP      {r4,pc}
        0x00002078:    f7fffe00    ....    BL       acro_run ; 0x1c7c
        0x0000207c:    bd10        ..      POP      {r4,pc}
    $d
        0x0000207e:    0000        ..      DCW    0
        0x00002080:    200004f8    ...     DCD    536872184
        0x00002084:    447a0000    ..zD    DCD    1148846080
        0x00002088:    20000024    $..     DCD    536870948
        0x0000208c:    49742400    .$tI    DCD    1232348160
        0x00002090:    2000017c    |..     DCD    536871292
        0x00002094:    42340000    ..4B    DCD    1110704128
    $t
    .text
    motor_logic
        0x00002098:    b5fe        ..      PUSH     {r1-r7,lr}
        0x0000209a:    4c42        BL      LDR      r4,[pc,#264] ; [0x21a4] = 0x20000514
        0x0000209c:    2201        ."      MOVS     r2,#1
        0x0000209e:    7860        `x      LDRB     r0,[r4,#1]
        0x000020a0:    4d41        AM      LDR      r5,[pc,#260] ; [0x21a8] = 0x2000016c
        0x000020a2:    2100        .!      MOVS     r1,#0
        0x000020a4:    2800        .(      CMP      r0,#0
        0x000020a6:    d04c        L.      BEQ      0x2142 ; motor_logic + 170
        0x000020a8:    2801        .(      CMP      r0,#1
        0x000020aa:    d041        A.      BEQ      0x2130 ; motor_logic + 152
        0x000020ac:    2802        .(      CMP      r0,#2
        0x000020ae:    d13e        >.      BNE      0x212e ; motor_logic + 150
        0x000020b0:    7621        !v      STRB     r1,[r4,#0x18]
        0x000020b2:    7661        av      STRB     r1,[r4,#0x19]
        0x000020b4:    7022        "p      STRB     r2,[r4,#0]
        0x000020b6:    4e3e        >N      LDR      r6,[pc,#248] ; [0x21b0] = 0x20000044
        0x000020b8:    4b3c        <K      LDR      r3,[pc,#240] ; [0x21ac] = 0x3c23d70a
        0x000020ba:    6962        bi      LDR      r2,[r4,#0x14]
        0x000020bc:    6870        ph      LDR      r0,[r6,#4]
        0x000020be:    429a        .B      CMP      r2,r3
        0x000020c0:    dd05        ..      BLE      0x20ce ; motor_logic + 54
        0x000020c2:    6921        !i      LDR      r1,[r4,#0x10]
        0x000020c4:    f7fff904    ....    BL       LPF_1st ; 0x12d0
        0x000020c8:    6120         a      STR      r0,[r4,#0x10]
        0x000020ca:    6070        p`      STR      r0,[r6,#4]
        0x000020cc:    e003        ..      B        0x20d6 ; motor_logic + 62
        0x000020ce:    0040        @.      LSLS     r0,r0,#1
        0x000020d0:    0e00        ..      LSRS     r0,r0,#24
        0x000020d2:    d000        ..      BEQ      0x20d6 ; motor_logic + 62
        0x000020d4:    6071        q`      STR      r1,[r6,#4]
        0x000020d6:    68a6        .h      LDR      r6,[r4,#8]
        0x000020d8:    6927        'i      LDR      r7,[r4,#0x10]
        0x000020da:    4631        1F      MOV      r1,r6
        0x000020dc:    4638        8F      MOV      r0,r7
        0x000020de:    f002fd65    ..e.    BL       __aeabi_fadd ; 0x4bac
        0x000020e2:    9001        ..      STR      r0,[sp,#4]
        0x000020e4:    6861        ah      LDR      r1,[r4,#4]
        0x000020e6:    9100        ..      STR      r1,[sp,#0]
        0x000020e8:    f002fdb1    ....    BL       __aeabi_fsub ; 0x4c4e
        0x000020ec:    68e4        .h      LDR      r4,[r4,#0xc]
        0x000020ee:    4621        !F      MOV      r1,r4
        0x000020f0:    f002fd5c    ..\.    BL       __aeabi_fadd ; 0x4bac
        0x000020f4:    60e8        .`      STR      r0,[r5,#0xc]
        0x000020f6:    4631        1F      MOV      r1,r6
        0x000020f8:    4638        8F      MOV      r0,r7
        0x000020fa:    f002fda8    ....    BL       __aeabi_fsub ; 0x4c4e
        0x000020fe:    4606        .F      MOV      r6,r0
        0x00002100:    9900        ..      LDR      r1,[sp,#0]
        0x00002102:    f002fd53    ..S.    BL       __aeabi_fadd ; 0x4bac
        0x00002106:    4621        !F      MOV      r1,r4
        0x00002108:    f002fd50    ..P.    BL       __aeabi_fadd ; 0x4bac
        0x0000210c:    60a8        .`      STR      r0,[r5,#8]
        0x0000210e:    9900        ..      LDR      r1,[sp,#0]
        0x00002110:    9801        ..      LDR      r0,[sp,#4]
        0x00002112:    f002fd4b    ..K.    BL       __aeabi_fadd ; 0x4bac
        0x00002116:    4621        !F      MOV      r1,r4
        0x00002118:    f002fd99    ....    BL       __aeabi_fsub ; 0x4c4e
        0x0000211c:    6068        h`      STR      r0,[r5,#4]
        0x0000211e:    4630        0F      MOV      r0,r6
        0x00002120:    9900        ..      LDR      r1,[sp,#0]
        0x00002122:    f002fd94    ....    BL       __aeabi_fsub ; 0x4c4e
        0x00002126:    4621        !F      MOV      r1,r4
        0x00002128:    f002fd91    ....    BL       __aeabi_fsub ; 0x4c4e
        0x0000212c:    6028        (`      STR      r0,[r5,#0]
        0x0000212e:    bdfe        ..      POP      {r1-r7,pc}
        0x00002130:    7622        "v      STRB     r2,[r4,#0x18]
        0x00002132:    7662        bv      STRB     r2,[r4,#0x19]
        0x00002134:    7022        "p      STRB     r2,[r4,#0]
        0x00002136:    481f        .H      LDR      r0,[pc,#124] ; [0x21b4] = 0x3da3d70a
        0x00002138:    60e8        .`      STR      r0,[r5,#0xc]
        0x0000213a:    60a8        .`      STR      r0,[r5,#8]
        0x0000213c:    6068        h`      STR      r0,[r5,#4]
        0x0000213e:    6028        (`      STR      r0,[r5,#0]
        0x00002140:    bdfe        ..      POP      {r1-r7,pc}
        0x00002142:    7622        "v      STRB     r2,[r4,#0x18]
        0x00002144:    7662        bv      STRB     r2,[r4,#0x19]
        0x00002146:    7021        !p      STRB     r1,[r4,#0]
        0x00002148:    60e9        .`      STR      r1,[r5,#0xc]
        0x0000214a:    60a9        .`      STR      r1,[r5,#8]
        0x0000214c:    6069        i`      STR      r1,[r5,#4]
        0x0000214e:    6029        )`      STR      r1,[r5,#0]
        0x00002150:    bdfe        ..      POP      {r1-r7,pc}
    motors_output
        0x00002152:    b510        ..      PUSH     {r4,lr}
        0x00002154:    f7ffffa0    ....    BL       motor_logic ; 0x2098
        0x00002158:    4812        .H      LDR      r0,[pc,#72] ; [0x21a4] = 0x20000514
        0x0000215a:    7800        .x      LDRB     r0,[r0,#0]
        0x0000215c:    2800        .(      CMP      r0,#0
        0x0000215e:    d003        ..      BEQ      0x2168 ; motors_output + 22
        0x00002160:    4811        .H      LDR      r0,[pc,#68] ; [0x21a8] = 0x2000016c
        0x00002162:    f7fefd8f    ....    BL       motor_update ; 0xc84
        0x00002166:    bd10        ..      POP      {r4,pc}
        0x00002168:    4813        .H      LDR      r0,[pc,#76] ; [0x21b8] = 0x2000017c
        0x0000216a:    7800        .x      LDRB     r0,[r0,#0]
        0x0000216c:    2803        .(      CMP      r0,#3
        0x0000216e:    d0fa        ..      BEQ      0x2166 ; motors_output + 20
        0x00002170:    f7fefdad    ....    BL       motor_stop ; 0xcce
        0x00002174:    bd10        ..      POP      {r4,pc}
    set_motor_roll
        0x00002176:    490b        .I      LDR      r1,[pc,#44] ; [0x21a4] = 0x20000514
        0x00002178:    6048        H`      STR      r0,[r1,#4]
        0x0000217a:    4770        pG      BX       lr
    set_motor_pitch
        0x0000217c:    4909        .I      LDR      r1,[pc,#36] ; [0x21a4] = 0x20000514
        0x0000217e:    6088        .`      STR      r0,[r1,#8]
        0x00002180:    4770        pG      BX       lr
    set_motor_yaw
        0x00002182:    4908        .I      LDR      r1,[pc,#32] ; [0x21a4] = 0x20000514
        0x00002184:    60c8        .`      STR      r0,[r1,#0xc]
        0x00002186:    4770        pG      BX       lr
    set_motor_throttle
        0x00002188:    4a06        .J      LDR      r2,[pc,#24] ; [0x21a4] = 0x20000514
        0x0000218a:    6110        .a      STR      r0,[r2,#0x10]
        0x0000218c:    6151        Qa      STR      r1,[r2,#0x14]
        0x0000218e:    4770        pG      BX       lr
    set_motor_state
        0x00002190:    4904        .I      LDR      r1,[pc,#16] ; [0x21a4] = 0x20000514
        0x00002192:    784a        Jx      LDRB     r2,[r1,#1]
        0x00002194:    4282        .B      CMP      r2,r0
        0x00002196:    d000        ..      BEQ      0x219a ; set_motor_state + 10
        0x00002198:    7048        Hp      STRB     r0,[r1,#1]
        0x0000219a:    4770        pG      BX       lr
    get_throttle_hover
        0x0000219c:    4804        .H      LDR      r0,[pc,#16] ; [0x21b0] = 0x20000044
        0x0000219e:    6800        .h      LDR      r0,[r0,#0]
        0x000021a0:    4770        pG      BX       lr
    $d
        0x000021a2:    0000        ..      DCW    0
        0x000021a4:    20000514    ...     DCD    536872212
        0x000021a8:    2000016c    l..     DCD    536871276
        0x000021ac:    3c23d70a    ..#<    DCD    1008981770
        0x000021b0:    20000044    D..     DCD    536870980
        0x000021b4:    3da3d70a    ...=    DCD    1034147594
        0x000021b8:    2000017c    |..     DCD    536871292
    $t
    .text
    poscontrol_init_takeoff
        0x000021bc:    b510        ..      PUSH     {r4,lr}
        0x000021be:    f001fb6c    ..l.    BL       get_inav_alt ; 0x389a
        0x000021c2:    49fe        .I      LDR      r1,[pc,#1016] ; [0x25bc] = 0x20000530
        0x000021c4:    6088        .`      STR      r0,[r1,#8]
        0x000021c6:    49fe        .I      LDR      r1,[pc,#1016] ; [0x25c0] = 0x2000004e
        0x000021c8:    22ff        ."      MOVS     r2,#0xff
        0x000021ca:    8808        ..      LDRH     r0,[r1,#0]
        0x000021cc:    3201        .2      ADDS     r2,#1
        0x000021ce:    4310        .C      ORRS     r0,r0,r2
        0x000021d0:    8008        ..      STRH     r0,[r1,#0]
        0x000021d2:    f7ffffe3    ....    BL       get_throttle_hover ; 0x219c
        0x000021d6:    4604        .F      MOV      r4,r0
        0x000021d8:    48fa        .H      LDR      r0,[pc,#1000] ; [0x25c4] = 0x200007b4
        0x000021da:    f002f9a7    ....    BL       norm_input_dz ; 0x452c
        0x000021de:    217f        .!      MOVS     r1,#0x7f
        0x000021e0:    05c9        ..      LSLS     r1,r1,#23
        0x000021e2:    f002fce3    ....    BL       __aeabi_fadd ; 0x4bac
        0x000021e6:    2100        .!      MOVS     r1,#0
        0x000021e8:    43c9        .C      MVNS     r1,r1
        0x000021ea:    f002fdb3    ....    BL       __ARM_scalbnf ; 0x4d54
        0x000021ee:    4621        !F      MOV      r1,r4
        0x000021f0:    f002fd2d    ..-.    BL       __aeabi_fsub ; 0x4c4e
        0x000021f4:    49f4        .I      LDR      r1,[pc,#976] ; [0x25c8] = 0x447a0000
        0x000021f6:    f002fd32    ..2.    BL       __aeabi_fmul ; 0x4c5e
        0x000021fa:    49f4        .I      LDR      r1,[pc,#976] ; [0x25cc] = 0x2000048c
        0x000021fc:    63c8        .c      STR      r0,[r1,#0x3c]
        0x000021fe:    bd10        ..      POP      {r4,pc}
    accel_to_throttle
        0x00002200:    b5f1        ..      PUSH     {r0,r4-r7,lr}
        0x00002202:    b088        ..      SUB      sp,sp,#0x20
        0x00002204:    a801        ..      ADD      r0,sp,#4
        0x00002206:    f001fb68    ..h.    BL       get_inav_accel ; 0x38da
        0x0000220a:    9801        ..      LDR      r0,[sp,#4]
        0x0000220c:    9a02        ..      LDR      r2,[sp,#8]
        0x0000220e:    9903        ..      LDR      r1,[sp,#0xc]
        0x00002210:    9205        ..      STR      r2,[sp,#0x14]
        0x00002212:    9106        ..      STR      r1,[sp,#0x18]
        0x00002214:    9004        ..      STR      r0,[sp,#0x10]
        0x00002216:    4aea        .J      LDR      r2,[pc,#936] ; [0x25c0] = 0x2000004e
        0x00002218:    2403        .$      MOVS     r4,#3
        0x0000221a:    4bed        .K      LDR      r3,[pc,#948] ; [0x25d0] = 0x2000018c
        0x0000221c:    0224        $.      LSLS     r4,r4,#8
        0x0000221e:    2733        3'      MOVS     r7,#0x33
        0x00002220:    8810        ..      LDRH     r0,[r2,#0]
        0x00002222:    4de6        .M      LDR      r5,[pc,#920] ; [0x25bc] = 0x20000530
        0x00002224:    191c        ..      ADDS     r4,r3,r4
        0x00002226:    013f        ?.      LSLS     r7,r7,#4
        0x00002228:    19db        ..      ADDS     r3,r3,r7
        0x0000222a:    0646        F.      LSLS     r6,r0,#25
        0x0000222c:    3524        $5      ADDS     r5,r5,#0x24
        0x0000222e:    9307        ..      STR      r3,[sp,#0x1c]
        0x00002230:    2e00        ..      CMP      r6,#0
        0x00002232:    da05        ..      BGE      0x2240 ; accel_to_throttle + 64
        0x00002234:    2100        .!      MOVS     r1,#0
        0x00002236:    6229        )b      STR      r1,[r5,#0x20]
        0x00002238:    2140        @!      MOVS     r1,#0x40
        0x0000223a:    4388        .C      BICS     r0,r0,r1
        0x0000223c:    8010        ..      STRH     r0,[r2,#0]
        0x0000223e:    e003        ..      B        0x2248 ; accel_to_throttle + 72
        0x00002240:    9808        ..      LDR      r0,[sp,#0x20]
        0x00002242:    f002fd04    ....    BL       __aeabi_fsub ; 0x4c4e
        0x00002246:    6228        (b      STR      r0,[r5,#0x20]
        0x00002248:    6a29        )j      LDR      r1,[r5,#0x20]
        0x0000224a:    9807        ..      LDR      r0,[sp,#0x1c]
        0x0000224c:    f7fff942    ..B.    BL       set_pid_input ; 0x14d4
        0x00002250:    6d67        gm      LDR      r7,[r4,#0x54]
        0x00002252:    9807        ..      LDR      r0,[sp,#0x1c]
        0x00002254:    f7fff991    ....    BL       get_integrator ; 0x157a
        0x00002258:    4606        .F      MOV      r6,r0
        0x0000225a:    f7ffff9f    ....    BL       get_throttle_hover ; 0x219c
        0x0000225e:    49da        .I      LDR      r1,[pc,#872] ; [0x25c8] = 0x447a0000
        0x00002260:    f002fcfd    ....    BL       __aeabi_fmul ; 0x4c5e
        0x00002264:    6c21        !l      LDR      r1,[r4,#0x40]
        0x00002266:    f002ffb7    ....    BL       __aeabi_cfrcmple ; 0x51d8
        0x0000226a:    d205        ..      BCS      0x2278 ; accel_to_throttle + 120
        0x0000226c:    f7ffff96    ....    BL       get_throttle_hover ; 0x219c
        0x00002270:    49d5        .I      LDR      r1,[pc,#852] ; [0x25c8] = 0x447a0000
        0x00002272:    f002fcf4    ....    BL       __aeabi_fmul ; 0x4c5e
        0x00002276:    6420         d      STR      r0,[r4,#0x40]
        0x00002278:    2001        .       MOVS     r0,#1
        0x0000227a:    05c0        ..      LSLS     r0,r0,#23
        0x0000227c:    49d5        .I      LDR      r1,[pc,#852] ; [0x25d4] = 0x80800000
        0x0000227e:    4286        .B      CMP      r6,r0
        0x00002280:    db02        ..      BLT      0x2288 ; accel_to_throttle + 136
        0x00002282:    6a2a        *j      LDR      r2,[r5,#0x20]
        0x00002284:    428a        .B      CMP      r2,r1
        0x00002286:    d204        ..      BCS      0x2292 ; accel_to_throttle + 146
        0x00002288:    428e        .B      CMP      r6,r1
        0x0000228a:    d306        ..      BCC      0x229a ; accel_to_throttle + 154
        0x0000228c:    6a29        )j      LDR      r1,[r5,#0x20]
        0x0000228e:    4281        .B      CMP      r1,r0
        0x00002290:    db03        ..      BLT      0x229a ; accel_to_throttle + 154
        0x00002292:    9807        ..      LDR      r0,[sp,#0x1c]
        0x00002294:    f7fff940    ..@.    BL       get_i_output ; 0x1518
        0x00002298:    4606        .F      MOV      r6,r0
        0x0000229a:    6de4        .m      LDR      r4,[r4,#0x5c]
        0x0000229c:    f7ffff7e    ..~.    BL       get_throttle_hover ; 0x219c
        0x000022a0:    4605        .F      MOV      r5,r0
        0x000022a2:    4631        1F      MOV      r1,r6
        0x000022a4:    4638        8F      MOV      r0,r7
        0x000022a6:    f002fc81    ....    BL       __aeabi_fadd ; 0x4bac
        0x000022aa:    4621        !F      MOV      r1,r4
        0x000022ac:    f002fc7e    ..~.    BL       __aeabi_fadd ; 0x4bac
        0x000022b0:    49c5        .I      LDR      r1,[pc,#788] ; [0x25c8] = 0x447a0000
        0x000022b2:    f002fd11    ....    BL       __aeabi_fdiv ; 0x4cd8
        0x000022b6:    4629        )F      MOV      r1,r5
        0x000022b8:    f002fc78    ..x.    BL       __aeabi_fadd ; 0x4bac
        0x000022bc:    4ac6        .J      LDR      r2,[pc,#792] ; [0x25d8] = 0x3d71a9fc
        0x000022be:    2101        .!      MOVS     r1,#1
        0x000022c0:    f7fffbce    ....    BL       attitude_throttle_controller ; 0x1a60
        0x000022c4:    b009        ..      ADD      sp,sp,#0x24
        0x000022c6:    bdf0        ..      POP      {r4-r7,pc}
    rate_to_accel_z
        0x000022c8:    b5fe        ..      PUSH     {r1-r7,lr}
        0x000022ca:    4668        hF      MOV      r0,sp
        0x000022cc:    f001faed    ....    BL       get_inav_velocity ; 0x38aa
        0x000022d0:    f7fefe72    ..r.    BL       sys_micro ; 0xfb8
        0x000022d4:    4605        .F      MOV      r5,r0
        0x000022d6:    4eba        .N      LDR      r6,[pc,#744] ; [0x25c0] = 0x2000004e
        0x000022d8:    1eb6        ..      SUBS     r6,r6,#2
        0x000022da:    6a70        pj      LDR      r0,[r6,#0x24]
        0x000022dc:    2800        .(      CMP      r0,#0
        0x000022de:    d007        ..      BEQ      0x22f0 ; rate_to_accel_z + 40
        0x000022e0:    1a28        (.      SUBS     r0,r5,r0
        0x000022e2:    f002fef6    ....    BL       __aeabi_ui2f ; 0x50d2
        0x000022e6:    49bd        .I      LDR      r1,[pc,#756] ; [0x25dc] = 0x49742400
        0x000022e8:    f002fcf6    ....    BL       __aeabi_fdiv ; 0x4cd8
        0x000022ec:    4604        .F      MOV      r4,r0
        0x000022ee:    e000        ..      B        0x22f2 ; rate_to_accel_z + 42
        0x000022f0:    2400        .$      MOVS     r4,#0
        0x000022f2:    6275        ub      STR      r5,[r6,#0x24]
        0x000022f4:    4db2        .M      LDR      r5,[pc,#712] ; [0x25c0] = 0x2000004e
        0x000022f6:    4fb1        .O      LDR      r7,[pc,#708] ; [0x25bc] = 0x20000530
        0x000022f8:    8828        (.      LDRH     r0,[r5,#0]
        0x000022fa:    0681        ..      LSLS     r1,r0,#26
        0x000022fc:    d503        ..      BPL      0x2306 ; rate_to_accel_z + 62
        0x000022fe:    4639        9F      MOV      r1,r7
        0x00002300:    3154        T1      ADDS     r1,r1,#0x54
        0x00002302:    697a        zi      LDR      r2,[r7,#0x14]
        0x00002304:    608a        .`      STR      r2,[r1,#8]
        0x00002306:    2101        .!      MOVS     r1,#1
        0x00002308:    05c9        ..      LSLS     r1,r1,#23
        0x0000230a:    428c        .B      CMP      r4,r1
        0x0000230c:    db13        ..      BLT      0x2336 ; rate_to_accel_z + 110
        0x0000230e:    05c1        ..      LSLS     r1,r0,#23
        0x00002310:    d40c        ..      BMI      0x232c ; rate_to_accel_z + 100
        0x00002312:    48aa        .H      LDR      r0,[pc,#680] ; [0x25bc] = 0x20000530
        0x00002314:    3054        T0      ADDS     r0,r0,#0x54
        0x00002316:    6881        .h      LDR      r1,[r0,#8]
        0x00002318:    6978        xi      LDR      r0,[r7,#0x14]
        0x0000231a:    f002fc98    ....    BL       __aeabi_fsub ; 0x4c4e
        0x0000231e:    4621        !F      MOV      r1,r4
        0x00002320:    f002fcda    ....    BL       __aeabi_fdiv ; 0x4cd8
        0x00002324:    49a5        .I      LDR      r1,[pc,#660] ; [0x25bc] = 0x20000530
        0x00002326:    3160        `1      ADDS     r1,r1,#0x60
        0x00002328:    6088        .`      STR      r0,[r1,#8]
        0x0000232a:    e008        ..      B        0x233e ; rate_to_accel_z + 118
        0x0000232c:    21ff        .!      MOVS     r1,#0xff
        0x0000232e:    3101        .1      ADDS     r1,#1
        0x00002330:    4388        .C      BICS     r0,r0,r1
        0x00002332:    8028        (.      STRH     r0,[r5,#0]
        0x00002334:    e003        ..      B        0x233e ; rate_to_accel_z + 118
        0x00002336:    49a1        .I      LDR      r1,[pc,#644] ; [0x25bc] = 0x20000530
        0x00002338:    2000        .       MOVS     r0,#0
        0x0000233a:    3160        `1      ADDS     r1,r1,#0x60
        0x0000233c:    6088        .`      STR      r0,[r1,#8]
        0x0000233e:    499f        .I      LDR      r1,[pc,#636] ; [0x25bc] = 0x20000530
        0x00002340:    6978        xi      LDR      r0,[r7,#0x14]
        0x00002342:    3154        T1      ADDS     r1,r1,#0x54
        0x00002344:    6088        .`      STR      r0,[r1,#8]
        0x00002346:    8829        ).      LDRH     r1,[r5,#0]
        0x00002348:    4ca5        .L      LDR      r4,[pc,#660] ; [0x25e0] = 0x20000554
        0x0000234a:    068a        ..      LSLS     r2,r1,#26
        0x0000234c:    d506        ..      BPL      0x235c ; rate_to_accel_z + 148
        0x0000234e:    2000        .       MOVS     r0,#0
        0x00002350:    6160        `a      STR      r0,[r4,#0x14]
        0x00002352:    6230        0b      STR      r0,[r6,#0x20]
        0x00002354:    2020                MOVS     r0,#0x20
        0x00002356:    4381        .C      BICS     r1,r1,r0
        0x00002358:    8029        ).      STRH     r1,[r5,#0]
        0x0000235a:    e009        ..      B        0x2370 ; rate_to_accel_z + 168
        0x0000235c:    9902        ..      LDR      r1,[sp,#8]
        0x0000235e:    f002fc76    ..v.    BL       __aeabi_fsub ; 0x4c4e
        0x00002362:    4601        .F      MOV      r1,r0
        0x00002364:    4a9c        .J      LDR      r2,[pc,#624] ; [0x25d8] = 0x3d71a9fc
        0x00002366:    6a30        0j      LDR      r0,[r6,#0x20]
        0x00002368:    f7feffb2    ....    BL       LPF_1st ; 0x12d0
        0x0000236c:    6160        `a      STR      r0,[r4,#0x14]
        0x0000236e:    6230        0b      STR      r0,[r6,#0x20]
        0x00002370:    4896        .H      LDR      r0,[pc,#600] ; [0x25cc] = 0x2000048c
        0x00002372:    6961        ai      LDR      r1,[r4,#0x14]
        0x00002374:    3880        .8      SUBS     r0,r0,#0x80
        0x00002376:    6a00        .j      LDR      r0,[r0,#0x20]
        0x00002378:    f002fc71    ..q.    BL       __aeabi_fmul ; 0x4c5e
        0x0000237c:    4601        .F      MOV      r1,r0
        0x0000237e:    4898        .H      LDR      r0,[pc,#608] ; [0x25e0] = 0x20000554
        0x00002380:    303c        <0      ADDS     r0,r0,#0x3c
        0x00002382:    6880        .h      LDR      r0,[r0,#8]
        0x00002384:    f002fc12    ....    BL       __aeabi_fadd ; 0x4bac
        0x00002388:    6238        8b      STR      r0,[r7,#0x20]
        0x0000238a:    f7ffff39    ..9.    BL       accel_to_throttle ; 0x2200
        0x0000238e:    bdfe        ..      POP      {r1-r7,pc}
    sqrt_controller
        0x00002390:    b5f8        ..      PUSH     {r3-r7,lr}
        0x00002392:    4605        .F      MOV      r5,r0
        0x00002394:    460f        .F      MOV      r7,r1
        0x00002396:    4616        .F      MOV      r6,r2
        0x00002398:    20ff        .       MOVS     r0,#0xff
        0x0000239a:    05c0        ..      LSLS     r0,r0,#23
        0x0000239c:    42c6        .B      CMN      r6,r0
        0x0000239e:    d226        &.      BCS      0x23ee ; sqrt_controller + 94
        0x000023a0:    0070        p.      LSLS     r0,r6,#1
        0x000023a2:    0e00        ..      LSRS     r0,r0,#24
        0x000023a4:    d023        #.      BEQ      0x23ee ; sqrt_controller + 94
        0x000023a6:    0078        x.      LSLS     r0,r7,#1
        0x000023a8:    0e00        ..      LSRS     r0,r0,#24
        0x000023aa:    d020         .      BEQ      0x23ee ; sqrt_controller + 94
        0x000023ac:    4639        9F      MOV      r1,r7
        0x000023ae:    4638        8F      MOV      r0,r7
        0x000023b0:    f002fc55    ..U.    BL       __aeabi_fmul ; 0x4c5e
        0x000023b4:    4601        .F      MOV      r1,r0
        0x000023b6:    4630        0F      MOV      r0,r6
        0x000023b8:    f002fc8e    ....    BL       __aeabi_fdiv ; 0x4cd8
        0x000023bc:    4604        .F      MOV      r4,r0
        0x000023be:    4621        !F      MOV      r1,r4
        0x000023c0:    4628        (F      MOV      r0,r5
        0x000023c2:    f002ff09    ....    BL       __aeabi_cfrcmple ; 0x51d8
        0x000023c6:    d217        ..      BCS      0x23f8 ; sqrt_controller + 104
        0x000023c8:    2100        .!      MOVS     r1,#0
        0x000023ca:    43c9        .C      MVNS     r1,r1
        0x000023cc:    4620         F      MOV      r0,r4
        0x000023ce:    f002fcc1    ....    BL       __ARM_scalbnf ; 0x4d54
        0x000023d2:    4629        )F      MOV      r1,r5
        0x000023d4:    f002fc3f    ..?.    BL       __aeabi_frsub ; 0x4c56
        0x000023d8:    4604        .F      MOV      r4,r0
        0x000023da:    2101        .!      MOVS     r1,#1
        0x000023dc:    4630        0F      MOV      r0,r6
        0x000023de:    f002fcb9    ....    BL       __ARM_scalbnf ; 0x4d54
        0x000023e2:    4621        !F      MOV      r1,r4
        0x000023e4:    f002fc3b    ..;.    BL       __aeabi_fmul ; 0x4c5e
        0x000023e8:    f004fbb4    ....    BL       sqrtf ; 0x6b54
        0x000023ec:    bdf8        ..      POP      {r3-r7,pc}
        0x000023ee:    4639        9F      MOV      r1,r7
        0x000023f0:    4628        (F      MOV      r0,r5
        0x000023f2:    f002fc34    ..4.    BL       __aeabi_fmul ; 0x4c5e
        0x000023f6:    bdf8        ..      POP      {r3-r7,pc}
        0x000023f8:    2101        .!      MOVS     r1,#1
        0x000023fa:    4620         F      MOV      r0,r4
        0x000023fc:    07c9        ..      LSLS     r1,r1,#31
        0x000023fe:    4048        H@      EORS     r0,r0,r1
        0x00002400:    4629        )F      MOV      r1,r5
        0x00002402:    f002fee9    ....    BL       __aeabi_cfrcmple ; 0x51d8
        0x00002406:    d216        ..      BCS      0x2436 ; sqrt_controller + 166
        0x00002408:    2100        .!      MOVS     r1,#0
        0x0000240a:    43c9        .C      MVNS     r1,r1
        0x0000240c:    4620         F      MOV      r0,r4
        0x0000240e:    f002fca1    ....    BL       __ARM_scalbnf ; 0x4d54
        0x00002412:    4601        .F      MOV      r1,r0
        0x00002414:    2201        ."      MOVS     r2,#1
        0x00002416:    4628        (F      MOV      r0,r5
        0x00002418:    07d2        ..      LSLS     r2,r2,#31
        0x0000241a:    4050        P@      EORS     r0,r0,r2
        0x0000241c:    f002fc17    ....    BL       __aeabi_fsub ; 0x4c4e
        0x00002420:    4604        .F      MOV      r4,r0
        0x00002422:    2101        .!      MOVS     r1,#1
        0x00002424:    4630        0F      MOV      r0,r6
        0x00002426:    f002fc95    ....    BL       __ARM_scalbnf ; 0x4d54
        0x0000242a:    4621        !F      MOV      r1,r4
        0x0000242c:    f002fc17    ....    BL       __aeabi_fmul ; 0x4c5e
        0x00002430:    f004fb90    ....    BL       sqrtf ; 0x6b54
        0x00002434:    bdf8        ..      POP      {r3-r7,pc}
        0x00002436:    4639        9F      MOV      r1,r7
        0x00002438:    4628        (F      MOV      r0,r5
        0x0000243a:    f002fc10    ....    BL       __aeabi_fmul ; 0x4c5e
        0x0000243e:    bdf8        ..      POP      {r3-r7,pc}
    pos_to_rate_z
        0x00002440:    b5fe        ..      PUSH     {r1-r7,lr}
        0x00002442:    4c5f        _L      LDR      r4,[pc,#380] ; [0x25c0] = 0x2000004e
        0x00002444:    4f66        fO      LDR      r7,[pc,#408] ; [0x25e0] = 0x20000554
        0x00002446:    1ea4        ..      SUBS     r4,r4,#2
        0x00002448:    4626        &F      MOV      r6,r4
        0x0000244a:    4d5c        \M      LDR      r5,[pc,#368] ; [0x25bc] = 0x20000530
        0x0000244c:    f001fa25    ..%.    BL       get_inav_alt ; 0x389a
        0x00002450:    9000        ..      STR      r0,[sp,#0]
        0x00002452:    7820         x      LDRB     r0,[r4,#0]
        0x00002454:    0840        @.      LSRS     r0,r0,#1
        0x00002456:    0040        @.      LSLS     r0,r0,#1
        0x00002458:    21fd        .!      MOVS     r1,#0xfd
        0x0000245a:    4008        .@      ANDS     r0,r0,r1
        0x0000245c:    7020         p      STRB     r0,[r4,#0]
        0x0000245e:    68a8        .h      LDR      r0,[r5,#8]
        0x00002460:    9900        ..      LDR      r1,[sp,#0]
        0x00002462:    f002fbf4    ....    BL       __aeabi_fsub ; 0x4c4e
        0x00002466:    60b8        .`      STR      r0,[r7,#8]
        0x00002468:    6871        qh      LDR      r1,[r6,#4]
        0x0000246a:    f002feb5    ....    BL       __aeabi_cfrcmple ; 0x51d8
        0x0000246e:    d20b        ..      BCS      0x2488 ; pos_to_rate_z + 72
        0x00002470:    6871        qh      LDR      r1,[r6,#4]
        0x00002472:    9102        ..      STR      r1,[sp,#8]
        0x00002474:    9800        ..      LDR      r0,[sp,#0]
        0x00002476:    f002fb99    ....    BL       __aeabi_fadd ; 0x4bac
        0x0000247a:    60a8        .`      STR      r0,[r5,#8]
        0x0000247c:    9802        ..      LDR      r0,[sp,#8]
        0x0000247e:    60b8        .`      STR      r0,[r7,#8]
        0x00002480:    7820         x      LDRB     r0,[r4,#0]
        0x00002482:    2101        .!      MOVS     r1,#1
        0x00002484:    4308        .C      ORRS     r0,r0,r1
        0x00002486:    7020         p      STRB     r0,[r4,#0]
        0x00002488:    2101        .!      MOVS     r1,#1
        0x0000248a:    68b0        .h      LDR      r0,[r6,#8]
        0x0000248c:    07c9        ..      LSLS     r1,r1,#31
        0x0000248e:    4048        H@      EORS     r0,r0,r1
        0x00002490:    68b9        .h      LDR      r1,[r7,#8]
        0x00002492:    f002fea1    ....    BL       __aeabi_cfrcmple ; 0x51d8
        0x00002496:    d20e        ..      BCS      0x24b6 ; pos_to_rate_z + 118
        0x00002498:    68b1        .h      LDR      r1,[r6,#8]
        0x0000249a:    9101        ..      STR      r1,[sp,#4]
        0x0000249c:    9800        ..      LDR      r0,[sp,#0]
        0x0000249e:    f002fbd6    ....    BL       __aeabi_fsub ; 0x4c4e
        0x000024a2:    60a8        .`      STR      r0,[r5,#8]
        0x000024a4:    2001        .       MOVS     r0,#1
        0x000024a6:    9901        ..      LDR      r1,[sp,#4]
        0x000024a8:    07c0        ..      LSLS     r0,r0,#31
        0x000024aa:    4041        A@      EORS     r1,r1,r0
        0x000024ac:    60b9        .`      STR      r1,[r7,#8]
        0x000024ae:    7820         x      LDRB     r0,[r4,#0]
        0x000024b0:    2102        .!      MOVS     r1,#2
        0x000024b2:    4308        .C      ORRS     r0,r0,r1
        0x000024b4:    7020         p      STRB     r0,[r4,#0]
        0x000024b6:    484b        KH      LDR      r0,[pc,#300] ; [0x25e4] = 0x2000038c
        0x000024b8:    6972        ri      LDR      r2,[r6,#0x14]
        0x000024ba:    6901        .i      LDR      r1,[r0,#0x10]
        0x000024bc:    68b8        .h      LDR      r0,[r7,#8]
        0x000024be:    f7ffff67    ..g.    BL       sqrt_controller ; 0x2390
        0x000024c2:    6168        ha      STR      r0,[r5,#0x14]
        0x000024c4:    7821        !x      LDRB     r1,[r4,#0]
        0x000024c6:    22fb        ."      MOVS     r2,#0xfb
        0x000024c8:    4011        .@      ANDS     r1,r1,r2
        0x000024ca:    22f7        ."      MOVS     r2,#0xf7
        0x000024cc:    4011        .@      ANDS     r1,r1,r2
        0x000024ce:    7021        !p      STRB     r1,[r4,#0]
        0x000024d0:    6931        1i      LDR      r1,[r6,#0x10]
        0x000024d2:    f002fe77    ..w.    BL       __aeabi_cfcmpeq ; 0x51c4
        0x000024d6:    d205        ..      BCS      0x24e4 ; pos_to_rate_z + 164
        0x000024d8:    6930        0i      LDR      r0,[r6,#0x10]
        0x000024da:    6168        ha      STR      r0,[r5,#0x14]
        0x000024dc:    7820         x      LDRB     r0,[r4,#0]
        0x000024de:    2108        .!      MOVS     r1,#8
        0x000024e0:    4308        .C      ORRS     r0,r0,r1
        0x000024e2:    7020         p      STRB     r0,[r4,#0]
        0x000024e4:    6968        hi      LDR      r0,[r5,#0x14]
        0x000024e6:    68f1        .h      LDR      r1,[r6,#0xc]
        0x000024e8:    f002fe76    ..v.    BL       __aeabi_cfrcmple ; 0x51d8
        0x000024ec:    d205        ..      BCS      0x24fa ; pos_to_rate_z + 186
        0x000024ee:    68f0        .h      LDR      r0,[r6,#0xc]
        0x000024f0:    6168        ha      STR      r0,[r5,#0x14]
        0x000024f2:    7820         x      LDRB     r0,[r4,#0]
        0x000024f4:    2104        .!      MOVS     r1,#4
        0x000024f6:    4308        .C      ORRS     r0,r0,r1
        0x000024f8:    7020         p      STRB     r0,[r4,#0]
        0x000024fa:    4831        1H      LDR      r0,[pc,#196] ; [0x25c0] = 0x2000004e
        0x000024fc:    8800        ..      LDRH     r0,[r0,#0]
        0x000024fe:    0580        ..      LSLS     r0,r0,#22
        0x00002500:    d506        ..      BPL      0x2510 ; pos_to_rate_z + 208
        0x00002502:    4837        7H      LDR      r0,[pc,#220] ; [0x25e0] = 0x20000554
        0x00002504:    3024        $0      ADDS     r0,r0,#0x24
        0x00002506:    6881        .h      LDR      r1,[r0,#8]
        0x00002508:    6968        hi      LDR      r0,[r5,#0x14]
        0x0000250a:    f002fb4f    ..O.    BL       __aeabi_fadd ; 0x4bac
        0x0000250e:    6168        ha      STR      r0,[r5,#0x14]
        0x00002510:    f7fffeda    ....    BL       rate_to_accel_z ; 0x22c8
        0x00002514:    bdfe        ..      POP      {r1-r7,pc}
    calc_leash_length
        0x00002516:    b5f7        ..      PUSH     {r0-r2,r4-r7,lr}
        0x00002518:    460c        .F      MOV      r4,r1
        0x0000251a:    4617        .F      MOV      r7,r2
        0x0000251c:    2001        .       MOVS     r0,#1
        0x0000251e:    05c0        ..      LSLS     r0,r0,#23
        0x00002520:    4284        .B      CMP      r4,r0
        0x00002522:    da00        ..      BGE      0x2526 ; calc_leash_length + 16
        0x00002524:    4c30        0L      LDR      r4,[pc,#192] ; [0x25e8] = 0x42480000
        0x00002526:    4e31        1N      LDR      r6,[pc,#196] ; [0x25ec] = 0x42c80000
        0x00002528:    4287        .B      CMP      r7,r0
        0x0000252a:    da01        ..      BGE      0x2530 ; calc_leash_length + 26
        0x0000252c:    4630        0F      MOV      r0,r6
        0x0000252e:    bdfe        ..      POP      {r1-r7,pc}
        0x00002530:    4639        9F      MOV      r1,r7
        0x00002532:    4620         F      MOV      r0,r4
        0x00002534:    f002fbd0    ....    BL       __aeabi_fdiv ; 0x4cd8
        0x00002538:    9900        ..      LDR      r1,[sp,#0]
        0x0000253a:    f002fe4d    ..M.    BL       __aeabi_cfrcmple ; 0x51d8
        0x0000253e:    d804        ..      BHI      0x254a ; calc_leash_length + 52
        0x00002540:    4639        9F      MOV      r1,r7
        0x00002542:    9800        ..      LDR      r0,[sp,#0]
        0x00002544:    f002fbc8    ....    BL       __aeabi_fdiv ; 0x4cd8
        0x00002548:    e01a        ..      B        0x2580 ; calc_leash_length + 106
        0x0000254a:    2101        .!      MOVS     r1,#1
        0x0000254c:    4620         F      MOV      r0,r4
        0x0000254e:    f002fc01    ....    BL       __ARM_scalbnf ; 0x4d54
        0x00002552:    9900        ..      LDR      r1,[sp,#0]
        0x00002554:    4605        .F      MOV      r5,r0
        0x00002556:    4608        .F      MOV      r0,r1
        0x00002558:    f002fb81    ....    BL       __aeabi_fmul ; 0x4c5e
        0x0000255c:    4629        )F      MOV      r1,r5
        0x0000255e:    f002fbbb    ....    BL       __aeabi_fdiv ; 0x4cd8
        0x00002562:    4605        .F      MOV      r5,r0
        0x00002564:    2101        .!      MOVS     r1,#1
        0x00002566:    4638        8F      MOV      r0,r7
        0x00002568:    f002fbf4    ....    BL       __ARM_scalbnf ; 0x4d54
        0x0000256c:    4639        9F      MOV      r1,r7
        0x0000256e:    f002fb76    ..v.    BL       __aeabi_fmul ; 0x4c5e
        0x00002572:    4601        .F      MOV      r1,r0
        0x00002574:    4620         F      MOV      r0,r4
        0x00002576:    f002fbaf    ....    BL       __aeabi_fdiv ; 0x4cd8
        0x0000257a:    4629        )F      MOV      r1,r5
        0x0000257c:    f002fb16    ....    BL       __aeabi_fadd ; 0x4bac
        0x00002580:    42b0        .B      CMP      r0,r6
        0x00002582:    dad4        ..      BGE      0x252e ; calc_leash_length + 24
        0x00002584:    4630        0F      MOV      r0,r6
        0x00002586:    bdfe        ..      POP      {r1-r7,pc}
    calc_leash_length_z
        0x00002588:    b570        p.      PUSH     {r4-r6,lr}
        0x0000258a:    4e0d        .N      LDR      r6,[pc,#52] ; [0x25c0] = 0x2000004e
        0x0000258c:    7830        0x      LDRB     r0,[r6,#0]
        0x0000258e:    07c0        ..      LSLS     r0,r0,#31
        0x00002590:    d02f        /.      BEQ      0x25f2 ; calc_leash_length_z + 106
        0x00002592:    4d14        .M      LDR      r5,[pc,#80] ; [0x25e4] = 0x2000038c
        0x00002594:    1eb4        ..      SUBS     r4,r6,#2
        0x00002596:    692a        *i      LDR      r2,[r5,#0x10]
        0x00002598:    6961        ai      LDR      r1,[r4,#0x14]
        0x0000259a:    68e0        .h      LDR      r0,[r4,#0xc]
        0x0000259c:    f7ffffbb    ....    BL       calc_leash_length ; 0x2516
        0x000025a0:    6060        ``      STR      r0,[r4,#4]
        0x000025a2:    2101        .!      MOVS     r1,#1
        0x000025a4:    6920         i      LDR      r0,[r4,#0x10]
        0x000025a6:    07c9        ..      LSLS     r1,r1,#31
        0x000025a8:    4048        H@      EORS     r0,r0,r1
        0x000025aa:    692a        *i      LDR      r2,[r5,#0x10]
        0x000025ac:    6961        ai      LDR      r1,[r4,#0x14]
        0x000025ae:    f7ffffb2    ....    BL       calc_leash_length ; 0x2516
        0x000025b2:    60a0        .`      STR      r0,[r4,#8]
        0x000025b4:    8830        0.      LDRH     r0,[r6,#0]
        0x000025b6:    0840        @.      LSRS     r0,r0,#1
        0x000025b8:    0040        @.      LSLS     r0,r0,#1
        0x000025ba:    e019        ..      B        0x25f0 ; calc_leash_length_z + 104
    $d
        0x000025bc:    20000530    0..     DCD    536872240
        0x000025c0:    2000004e    N..     DCD    536870990
        0x000025c4:    200007b4    ...     DCD    536872884
        0x000025c8:    447a0000    ..zD    DCD    1148846080
        0x000025cc:    2000048c    ...     DCD    536872076
        0x000025d0:    2000018c    ...     DCD    536871308
        0x000025d4:    80800000    ....    DCD    2155872256
        0x000025d8:    3d71a9fc    ..q=    DCD    1030859260
        0x000025dc:    49742400    .$tI    DCD    1232348160
        0x000025e0:    20000554    T..     DCD    536872276
        0x000025e4:    2000038c    ...     DCD    536871820
        0x000025e8:    42480000    ..HB    DCD    1112014848
        0x000025ec:    42c80000    ...B    DCD    1120403456
    $t
        0x000025f0:    8030        0.      STRH     r0,[r6,#0]
        0x000025f2:    bd70        p.      POP      {r4-r6,pc}
    position_z_controller
        0x000025f4:    b510        ..      PUSH     {r4,lr}
        0x000025f6:    f7fefced    ....    BL       sys_milli ; 0xfd4
        0x000025fa:    4aad        .J      LDR      r2,[pc,#692] ; [0x28b0] = 0x2000004c
        0x000025fc:    69d1        .i      LDR      r1,[r2,#0x1c]
        0x000025fe:    2900        .)      CMP      r1,#0
        0x00002600:    d001        ..      BEQ      0x2606 ; position_z_controller + 18
        0x00002602:    1a41        A.      SUBS     r1,r0,r1
        0x00002604:    e000        ..      B        0x2608 ; position_z_controller + 20
        0x00002606:    2100        .!      MOVS     r1,#0
        0x00002608:    61d0        .a      STR      r0,[r2,#0x1c]
        0x0000260a:    29c8        .)      CMP      r1,#0xc8
        0x0000260c:    d907        ..      BLS      0x261e ; position_z_controller + 42
        0x0000260e:    49a8        .I      LDR      r1,[pc,#672] ; [0x28b0] = 0x2000004c
        0x00002610:    2240        @"      MOVS     r2,#0x40
        0x00002612:    1c89        ..      ADDS     r1,r1,#2
        0x00002614:    8808        ..      LDRH     r0,[r1,#0]
        0x00002616:    4310        .C      ORRS     r0,r0,r2
        0x00002618:    2220         "      MOVS     r2,#0x20
        0x0000261a:    4310        .C      ORRS     r0,r0,r2
        0x0000261c:    8008        ..      STRH     r0,[r1,#0]
        0x0000261e:    f7ffffb3    ....    BL       calc_leash_length_z ; 0x2588
        0x00002622:    f7ffff0d    ....    BL       pos_to_rate_z ; 0x2440
        0x00002626:    bd10        ..      POP      {r4,pc}
    add_takeoff_climb_rate
        0x00002628:    b510        ..      PUSH     {r4,lr}
        0x0000262a:    f002fb18    ....    BL       __aeabi_fmul ; 0x4c5e
        0x0000262e:    4ca1        .L      LDR      r4,[pc,#644] ; [0x28b4] = 0x20000530
        0x00002630:    68a1        .h      LDR      r1,[r4,#8]
        0x00002632:    f002fabb    ....    BL       __aeabi_fadd ; 0x4bac
        0x00002636:    60a0        .`      STR      r0,[r4,#8]
        0x00002638:    bd10        ..      POP      {r4,pc}
    set_alt_target_from_climb_rate_ff
        0x0000263a:    b5f7        ..      PUSH     {r0-r2,r4-r7,lr}
        0x0000263c:    b084        ..      SUB      sp,sp,#0x10
        0x0000263e:    4e9d        .N      LDR      r6,[pc,#628] ; [0x28b4] = 0x20000530
        0x00002640:    4f9b        .O      LDR      r7,[pc,#620] ; [0x28b0] = 0x2000004c
        0x00002642:    3648        H6      ADDS     r6,r6,#0x48
        0x00002644:    697c        |i      LDR      r4,[r7,#0x14]
        0x00002646:    68b0        .h      LDR      r0,[r6,#8]
        0x00002648:    6939        9i      LDR      r1,[r7,#0x10]
        0x0000264a:    f002fdbb    ....    BL       __aeabi_cfcmpeq ; 0x51c4
        0x0000264e:    d20e        ..      BCS      0x266e ; set_alt_target_from_climb_rate_ff + 52
        0x00002650:    693d        =i      LDR      r5,[r7,#0x10]
        0x00002652:    0068        h.      LSLS     r0,r5,#1
        0x00002654:    0e00        ..      LSRS     r0,r0,#24
        0x00002656:    d00a        ..      BEQ      0x266e ; set_alt_target_from_climb_rate_ff + 52
        0x00002658:    2101        .!      MOVS     r1,#1
        0x0000265a:    68b0        .h      LDR      r0,[r6,#8]
        0x0000265c:    f002fb7a    ..z.    BL       __ARM_scalbnf ; 0x4d54
        0x00002660:    4629        )F      MOV      r1,r5
        0x00002662:    f002fb39    ..9.    BL       __aeabi_fdiv ; 0x4cd8
        0x00002666:    4621        !F      MOV      r1,r4
        0x00002668:    f002faf9    ....    BL       __aeabi_fmul ; 0x4c5e
        0x0000266c:    4604        .F      MOV      r4,r0
        0x0000266e:    68b0        .h      LDR      r0,[r6,#8]
        0x00002670:    68f9        .h      LDR      r1,[r7,#0xc]
        0x00002672:    f002fdb1    ....    BL       __aeabi_cfrcmple ; 0x51d8
        0x00002676:    d20e        ..      BCS      0x2696 ; set_alt_target_from_climb_rate_ff + 92
        0x00002678:    6938        8i      LDR      r0,[r7,#0x10]
        0x0000267a:    0040        @.      LSLS     r0,r0,#1
        0x0000267c:    0e00        ..      LSRS     r0,r0,#24
        0x0000267e:    d00a        ..      BEQ      0x2696 ; set_alt_target_from_climb_rate_ff + 92
        0x00002680:    2101        .!      MOVS     r1,#1
        0x00002682:    68b0        .h      LDR      r0,[r6,#8]
        0x00002684:    f002fb66    ..f.    BL       __ARM_scalbnf ; 0x4d54
        0x00002688:    68f9        .h      LDR      r1,[r7,#0xc]
        0x0000268a:    f002fb25    ..%.    BL       __aeabi_fdiv ; 0x4cd8
        0x0000268e:    4621        !F      MOV      r1,r4
        0x00002690:    f002fae5    ....    BL       __aeabi_fmul ; 0x4c5e
        0x00002694:    4604        .F      MOV      r4,r0
        0x00002696:    4a88        .J      LDR      r2,[pc,#544] ; [0x28b8] = 0x443b8000
        0x00002698:    2100        .!      MOVS     r1,#0
        0x0000269a:    4620         F      MOV      r0,r4
        0x0000269c:    f7fefeb4    ....    BL       constrain_float ; 0x1408
        0x000026a0:    9001        ..      STR      r0,[sp,#4]
        0x000026a2:    9801        ..      LDR      r0,[sp,#4]
        0x000026a4:    9000        ..      STR      r0,[sp,#0]
        0x000026a6:    68b1        .h      LDR      r1,[r6,#8]
        0x000026a8:    9804        ..      LDR      r0,[sp,#0x10]
        0x000026aa:    f002fad4    ....    BL       __aeabi_frsub ; 0x4c56
        0x000026ae:    0040        @.      LSLS     r0,r0,#1
        0x000026b0:    0840        @.      LSRS     r0,r0,#1
        0x000026b2:    2101        .!      MOVS     r1,#1
        0x000026b4:    f002fb4e    ..N.    BL       __ARM_scalbnf ; 0x4d54
        0x000026b8:    9900        ..      LDR      r1,[sp,#0]
        0x000026ba:    f002fad0    ....    BL       __aeabi_fmul ; 0x4c5e
        0x000026be:    f002fd3c    ..<.    BL       __aeabi_f2d ; 0x513a
        0x000026c2:    f004fa23    ..#.    BL       sqrt ; 0x6b0c
        0x000026c6:    4604        .F      MOV      r4,r0
        0x000026c8:    460d        .F      MOV      r5,r1
        0x000026ca:    9801        ..      LDR      r0,[sp,#4]
        0x000026cc:    f002fd35    ..5.    BL       __aeabi_f2d ; 0x513a
        0x000026d0:    4622        "F      MOV      r2,r4
        0x000026d2:    462b        +F      MOV      r3,r5
        0x000026d4:    9102        ..      STR      r1,[sp,#8]
        0x000026d6:    9003        ..      STR      r0,[sp,#0xc]
        0x000026d8:    f002fd44    ..D.    BL       __aeabi_cdcmpeq ; 0x5164
        0x000026dc:    d202        ..      BCS      0x26e4 ; set_alt_target_from_climb_rate_ff + 170
        0x000026de:    9902        ..      LDR      r1,[sp,#8]
        0x000026e0:    9803        ..      LDR      r0,[sp,#0xc]
        0x000026e2:    e00f        ..      B        0x2704 ; set_alt_target_from_climb_rate_ff + 202
        0x000026e4:    68b1        .h      LDR      r1,[r6,#8]
        0x000026e6:    9804        ..      LDR      r0,[sp,#0x10]
        0x000026e8:    f002fab5    ....    BL       __aeabi_frsub ; 0x4c56
        0x000026ec:    0040        @.      LSLS     r0,r0,#1
        0x000026ee:    0840        @.      LSRS     r0,r0,#1
        0x000026f0:    2101        .!      MOVS     r1,#1
        0x000026f2:    f002fb2f    ../.    BL       __ARM_scalbnf ; 0x4d54
        0x000026f6:    9900        ..      LDR      r1,[sp,#0]
        0x000026f8:    f002fab1    ....    BL       __aeabi_fmul ; 0x4c5e
        0x000026fc:    f002fd1d    ....    BL       __aeabi_f2d ; 0x513a
        0x00002700:    f004fa04    ....    BL       sqrt ; 0x6b0c
        0x00002704:    f002fd42    ..B.    BL       __aeabi_d2f ; 0x518c
        0x00002708:    4604        .F      MOV      r4,r0
        0x0000270a:    9905        ..      LDR      r1,[sp,#0x14]
        0x0000270c:    9800        ..      LDR      r0,[sp,#0]
        0x0000270e:    f002faa6    ....    BL       __aeabi_fmul ; 0x4c5e
        0x00002712:    69b9        .i      LDR      r1,[r7,#0x18]
        0x00002714:    f002fa4a    ..J.    BL       __aeabi_fadd ; 0x4bac
        0x00002718:    61b8        .a      STR      r0,[r7,#0x18]
        0x0000271a:    4601        .F      MOV      r1,r0
        0x0000271c:    4620         F      MOV      r0,r4
        0x0000271e:    f002fd51    ..Q.    BL       __aeabi_cfcmpeq ; 0x51c4
        0x00002722:    d201        ..      BCS      0x2728 ; set_alt_target_from_climb_rate_ff + 238
        0x00002724:    4620         F      MOV      r0,r4
        0x00002726:    e000        ..      B        0x272a ; set_alt_target_from_climb_rate_ff + 240
        0x00002728:    69b8        .i      LDR      r0,[r7,#0x18]
        0x0000272a:    61b8        .a      STR      r0,[r7,#0x18]
        0x0000272c:    9905        ..      LDR      r1,[sp,#0x14]
        0x0000272e:    f002fa96    ....    BL       __aeabi_fmul ; 0x4c5e
        0x00002732:    4604        .F      MOV      r4,r0
        0x00002734:    68b7        .h      LDR      r7,[r6,#8]
        0x00002736:    4621        !F      MOV      r1,r4
        0x00002738:    4638        8F      MOV      r0,r7
        0x0000273a:    f002fa37    ..7.    BL       __aeabi_fadd ; 0x4bac
        0x0000273e:    4605        .F      MOV      r5,r0
        0x00002740:    4621        !F      MOV      r1,r4
        0x00002742:    4638        8F      MOV      r0,r7
        0x00002744:    f002fa83    ....    BL       __aeabi_fsub ; 0x4c4e
        0x00002748:    4601        .F      MOV      r1,r0
        0x0000274a:    462a        *F      MOV      r2,r5
        0x0000274c:    9804        ..      LDR      r0,[sp,#0x10]
        0x0000274e:    f7fefe5b    ..[.    BL       constrain_float ; 0x1408
        0x00002752:    60b0        .`      STR      r0,[r6,#8]
        0x00002754:    4a56        VJ      LDR      r2,[pc,#344] ; [0x28b0] = 0x2000004c
        0x00002756:    2301        .#      MOVS     r3,#1
        0x00002758:    1c92        ..      ADDS     r2,r2,#2
        0x0000275a:    8811        ..      LDRH     r1,[r2,#0]
        0x0000275c:    025b        [.      LSLS     r3,r3,#9
        0x0000275e:    4319        .C      ORRS     r1,r1,r3
        0x00002760:    8011        ..      STRH     r1,[r2,#0]
        0x00002762:    22ff        ."      MOVS     r2,#0xff
        0x00002764:    05d2        ..      LSLS     r2,r2,#23
        0x00002766:    4955        UI      LDR      r1,[pc,#340] ; [0x28bc] = 0x20000514
        0x00002768:    42d0        .B      CMN      r0,r2
        0x0000276a:    d305        ..      BCC      0x2778 ; set_alt_target_from_climb_rate_ff + 318
        0x0000276c:    7e0a        .~      LDRB     r2,[r1,#0x18]
        0x0000276e:    2a00        .*      CMP      r2,#0
        0x00002770:    d00d        ..      BEQ      0x278e ; set_alt_target_from_climb_rate_ff + 340
        0x00002772:    9a06        ..      LDR      r2,[sp,#0x18]
        0x00002774:    2a00        .*      CMP      r2,#0
        0x00002776:    d10a        ..      BNE      0x278e ; set_alt_target_from_climb_rate_ff + 340
        0x00002778:    2201        ."      MOVS     r2,#1
        0x0000277a:    05d2        ..      LSLS     r2,r2,#23
        0x0000277c:    4290        .B      CMP      r0,r2
        0x0000277e:    db0e        ..      BLT      0x279e ; set_alt_target_from_climb_rate_ff + 356
        0x00002780:    7e49        I~      LDRB     r1,[r1,#0x19]
        0x00002782:    2900        .)      CMP      r1,#0
        0x00002784:    d10b        ..      BNE      0x279e ; set_alt_target_from_climb_rate_ff + 356
        0x00002786:    494a        JI      LDR      r1,[pc,#296] ; [0x28b0] = 0x2000004c
        0x00002788:    7809        .x      LDRB     r1,[r1,#0]
        0x0000278a:    07c9        ..      LSLS     r1,r1,#31
        0x0000278c:    d107        ..      BNE      0x279e ; set_alt_target_from_climb_rate_ff + 356
        0x0000278e:    9905        ..      LDR      r1,[sp,#0x14]
        0x00002790:    f002fa65    ..e.    BL       __aeabi_fmul ; 0x4c5e
        0x00002794:    4c47        GL      LDR      r4,[pc,#284] ; [0x28b4] = 0x20000530
        0x00002796:    68a1        .h      LDR      r1,[r4,#8]
        0x00002798:    f002fa08    ....    BL       __aeabi_fadd ; 0x4bac
        0x0000279c:    60a0        .`      STR      r0,[r4,#8]
        0x0000279e:    b007        ..      ADD      sp,sp,#0x1c
        0x000027a0:    bdf0        ..      POP      {r4-r7,pc}
    relax_alt_controller
        0x000027a2:    b5fe        ..      PUSH     {r1-r7,lr}
        0x000027a4:    4607        .F      MOV      r7,r0
        0x000027a6:    f001f878    ..x.    BL       get_inav_alt ; 0x389a
        0x000027aa:    4d42        BM      LDR      r5,[pc,#264] ; [0x28b4] = 0x20000530
        0x000027ac:    60a8        .`      STR      r0,[r5,#8]
        0x000027ae:    2600        .&      MOVS     r6,#0
        0x000027b0:    4628        (F      MOV      r0,r5
        0x000027b2:    3048        H0      ADDS     r0,r0,#0x48
        0x000027b4:    6086        .`      STR      r6,[r0,#8]
        0x000027b6:    4c3e        >L      LDR      r4,[pc,#248] ; [0x28b0] = 0x2000004c
        0x000027b8:    2101        .!      MOVS     r1,#1
        0x000027ba:    1ca4        ..      ADDS     r4,r4,#2
        0x000027bc:    8820         .      LDRH     r0,[r4,#0]
        0x000027be:    0249        I.      LSLS     r1,r1,#9
        0x000027c0:    4388        .C      BICS     r0,r0,r1
        0x000027c2:    8020         .      STRH     r0,[r4,#0]
        0x000027c4:    4668        hF      MOV      r0,sp
        0x000027c6:    f001f870    ..p.    BL       get_inav_velocity ; 0x38aa
        0x000027ca:    9802        ..      LDR      r0,[sp,#8]
        0x000027cc:    6168        ha      STR      r0,[r5,#0x14]
        0x000027ce:    4668        hF      MOV      r0,sp
        0x000027d0:    f001f86b    ..k.    BL       get_inav_velocity ; 0x38aa
        0x000027d4:    4629        )F      MOV      r1,r5
        0x000027d6:    3154        T1      ADDS     r1,r1,#0x54
        0x000027d8:    9802        ..      LDR      r0,[sp,#8]
        0x000027da:    6088        .`      STR      r0,[r1,#8]
        0x000027dc:    4608        .F      MOV      r0,r1
        0x000027de:    300c        .0      ADDS     r0,r0,#0xc
        0x000027e0:    6086        .`      STR      r6,[r0,#8]
        0x000027e2:    1ea0        ..      SUBS     r0,r4,#2
        0x000027e4:    6186        .a      STR      r6,[r0,#0x18]
        0x000027e6:    4668        hF      MOV      r0,sp
        0x000027e8:    f001f877    ..w.    BL       get_inav_accel ; 0x38da
        0x000027ec:    9802        ..      LDR      r0,[sp,#8]
        0x000027ee:    6228        (b      STR      r0,[r5,#0x20]
        0x000027f0:    8820         .      LDRH     r0,[r4,#0]
        0x000027f2:    2140        @!      MOVS     r1,#0x40
        0x000027f4:    4308        .C      ORRS     r0,r0,r1
        0x000027f6:    8020         .      STRH     r0,[r4,#0]
        0x000027f8:    f7fffcd0    ....    BL       get_throttle_hover ; 0x219c
        0x000027fc:    4639        9F      MOV      r1,r7
        0x000027fe:    f002fa2a    ..*.    BL       __aeabi_frsub ; 0x4c56
        0x00002802:    492f        /I      LDR      r1,[pc,#188] ; [0x28c0] = 0x447a0000
        0x00002804:    f002fa2b    ..+.    BL       __aeabi_fmul ; 0x4c5e
        0x00002808:    492e        .I      LDR      r1,[pc,#184] ; [0x28c4] = 0x2000048c
        0x0000280a:    63c8        .c      STR      r0,[r1,#0x3c]
        0x0000280c:    bdfe        ..      POP      {r1-r7,pc}
    set_speed_z
        0x0000280e:    b5f8        ..      PUSH     {r3-r7,lr}
        0x00002810:    460e        .F      MOV      r6,r1
        0x00002812:    0045        E.      LSLS     r5,r0,#1
        0x00002814:    086d        m.      LSRS     r5,r5,#1
        0x00002816:    2001        .       MOVS     r0,#1
        0x00002818:    07c0        ..      LSLS     r0,r0,#31
        0x0000281a:    4045        E@      EORS     r5,r5,r0
        0x0000281c:    4c24        $L      LDR      r4,[pc,#144] ; [0x28b0] = 0x2000004c
        0x0000281e:    4628        (F      MOV      r0,r5
        0x00002820:    6921        !i      LDR      r1,[r4,#0x10]
        0x00002822:    f002fa18    ....    BL       __aeabi_frsub ; 0x4c56
        0x00002826:    0040        @.      LSLS     r0,r0,#1
        0x00002828:    277f        .'      MOVS     r7,#0x7f
        0x0000282a:    0840        @.      LSRS     r0,r0,#1
        0x0000282c:    05ff        ..      LSLS     r7,r7,#23
        0x0000282e:    42b8        .B      CMP      r0,r7
        0x00002830:    dc07        ..      BGT      0x2842 ; set_speed_z + 52
        0x00002832:    4631        1F      MOV      r1,r6
        0x00002834:    68e0        .h      LDR      r0,[r4,#0xc]
        0x00002836:    f002fa0a    ....    BL       __aeabi_fsub ; 0x4c4e
        0x0000283a:    0040        @.      LSLS     r0,r0,#1
        0x0000283c:    0840        @.      LSRS     r0,r0,#1
        0x0000283e:    42b8        .B      CMP      r0,r7
        0x00002840:    dd09        ..      BLE      0x2856 ; set_speed_z + 72
        0x00002842:    6125        %a      STR      r5,[r4,#0x10]
        0x00002844:    60e6        .`      STR      r6,[r4,#0xc]
        0x00002846:    481a        .H      LDR      r0,[pc,#104] ; [0x28b0] = 0x2000004c
        0x00002848:    2201        ."      MOVS     r2,#1
        0x0000284a:    1c80        ..      ADDS     r0,r0,#2
        0x0000284c:    8801        ..      LDRH     r1,[r0,#0]
        0x0000284e:    4311        .C      ORRS     r1,r1,r2
        0x00002850:    8001        ..      STRH     r1,[r0,#0]
        0x00002852:    f7fffe99    ....    BL       calc_leash_length_z ; 0x2588
        0x00002856:    bdf8        ..      POP      {r3-r7,pc}
    set_accel_z
        0x00002858:    b570        p.      PUSH     {r4-r6,lr}
        0x0000285a:    4604        .F      MOV      r4,r0
        0x0000285c:    4d14        .M      LDR      r5,[pc,#80] ; [0x28b0] = 0x2000004c
        0x0000285e:    4620         F      MOV      r0,r4
        0x00002860:    6969        ii      LDR      r1,[r5,#0x14]
        0x00002862:    f002f9f8    ....    BL       __aeabi_frsub ; 0x4c56
        0x00002866:    0040        @.      LSLS     r0,r0,#1
        0x00002868:    217f        .!      MOVS     r1,#0x7f
        0x0000286a:    0840        @.      LSRS     r0,r0,#1
        0x0000286c:    05c9        ..      LSLS     r1,r1,#23
        0x0000286e:    4288        .B      CMP      r0,r1
        0x00002870:    dd07        ..      BLE      0x2882 ; set_accel_z + 42
        0x00002872:    616c        la      STR      r4,[r5,#0x14]
        0x00002874:    1ca8        ..      ADDS     r0,r5,#2
        0x00002876:    8801        ..      LDRH     r1,[r0,#0]
        0x00002878:    2201        ."      MOVS     r2,#1
        0x0000287a:    4311        .C      ORRS     r1,r1,r2
        0x0000287c:    8001        ..      STRH     r1,[r0,#0]
        0x0000287e:    f7fffe83    ....    BL       calc_leash_length_z ; 0x2588
        0x00002882:    bd70        p.      POP      {r4-r6,pc}
    is_active_z
        0x00002884:    b510        ..      PUSH     {r4,lr}
        0x00002886:    f7fefba5    ....    BL       sys_milli ; 0xfd4
        0x0000288a:    4909        .I      LDR      r1,[pc,#36] ; [0x28b0] = 0x2000004c
        0x0000288c:    69c9        .i      LDR      r1,[r1,#0x1c]
        0x0000288e:    1a40        @.      SUBS     r0,r0,r1
        0x00002890:    28c8        .(      CMP      r0,#0xc8
        0x00002892:    d801        ..      BHI      0x2898 ; is_active_z + 20
        0x00002894:    2001        .       MOVS     r0,#1
        0x00002896:    bd10        ..      POP      {r4,pc}
        0x00002898:    2000        .       MOVS     r0,#0
        0x0000289a:    bd10        ..      POP      {r4,pc}
    set_alt_target_to_current_alt
        0x0000289c:    b510        ..      PUSH     {r4,lr}
        0x0000289e:    f000fffc    ....    BL       get_inav_alt ; 0x389a
        0x000028a2:    4904        .I      LDR      r1,[pc,#16] ; [0x28b4] = 0x20000530
        0x000028a4:    6088        .`      STR      r0,[r1,#8]
        0x000028a6:    bd10        ..      POP      {r4,pc}
    set_desired_vel_z
        0x000028a8:    4902        .I      LDR      r1,[pc,#8] ; [0x28b4] = 0x20000530
        0x000028aa:    6148        Ha      STR      r0,[r1,#0x14]
        0x000028ac:    4770        pG      BX       lr
    $d
        0x000028ae:    0000        ..      DCW    0
        0x000028b0:    2000004c    L..     DCD    536870988
        0x000028b4:    20000530    0..     DCD    536872240
        0x000028b8:    443b8000    ..;D    DCD    1144750080
        0x000028bc:    20000514    ...     DCD    536872212
        0x000028c0:    447a0000    ..zD    DCD    1148846080
        0x000028c4:    2000048c    ...     DCD    536872076
    $t
    .text
    scheduler_init
        0x000028c8:    b510        ..      PUSH     {r4,lr}
        0x000028ca:    49ff        .I      LDR      r1,[pc,#1020] ; [0x2cc8] = 0x2000059c
        0x000028cc:    2000        .       MOVS     r0,#0
        0x000028ce:    7008        .p      STRB     r0,[r1,#0]
        0x000028d0:    7048        Hp      STRB     r0,[r1,#1]
        0x000028d2:    7088        .p      STRB     r0,[r1,#2]
        0x000028d4:    70c8        .p      STRB     r0,[r1,#3]
        0x000028d6:    7108        .q      STRB     r0,[r1,#4]
        0x000028d8:    7148        Hq      STRB     r0,[r1,#5]
        0x000028da:    7188        .q      STRB     r0,[r1,#6]
        0x000028dc:    71c8        .q      STRB     r0,[r1,#7]
        0x000028de:    7208        .r      STRB     r0,[r1,#8]
        0x000028e0:    48fa        .H      LDR      r0,[pc,#1000] ; [0x2ccc] = 0x20000020
        0x000028e2:    217d        }!      MOVS     r1,#0x7d
        0x000028e4:    6800        .h      LDR      r0,[r0,#0]
        0x000028e6:    00c9        ..      LSLS     r1,r1,#3
        0x000028e8:    4348        HC      MULS     r0,r1,r0
        0x000028ea:    f7fefb44    ..D.    BL       systick_config ; 0xf76
        0x000028ee:    2800        .(      CMP      r0,#0
        0x000028f0:    d102        ..      BNE      0x28f8 ; scheduler_init + 48
        0x000028f2:    a0f7        ..      ADR      r0,{pc}+0x3de ; 0x2cd0
        0x000028f4:    f002feb4    ....    BL       __0printf$5 ; 0x5660
        0x000028f8:    4cfb        .L      LDR      r4,[pc,#1004] ; [0x2ce8] = 0x40010020
        0x000028fa:    22ff        ."      MOVS     r2,#0xff
        0x000028fc:    2101        .!      MOVS     r1,#1
        0x000028fe:    3291        .2      ADDS     r2,r2,#0x91
        0x00002900:    06c9        ..      LSLS     r1,r1,#27
        0x00002902:    4620         F      MOV      r0,r4
        0x00002904:    f001fbc2    ....    BL       TIMER_Open ; 0x408c
        0x00002908:    6821        !h      LDR      r1,[r4,#0]
        0x0000290a:    0622        ".      LSLS     r2,r4,#24
        0x0000290c:    4311        .C      ORRS     r1,r1,r2
        0x0000290e:    6021        !`      STR      r1,[r4,#0]
        0x00002910:    49f6        .I      LDR      r1,[pc,#984] ; [0x2cec] = 0xe000e100
        0x00002912:    1510        ..      ASRS     r0,r2,#20
        0x00002914:    6008        .`      STR      r0,[r1,#0]
        0x00002916:    49f6        .I      LDR      r1,[pc,#984] ; [0x2cf0] = 0xe000e408
        0x00002918:    680a        .h      LDR      r2,[r1,#0]
        0x0000291a:    20ff        .       MOVS     r0,#0xff
        0x0000291c:    0200        ..      LSLS     r0,r0,#8
        0x0000291e:    4382        .C      BICS     r2,r2,r0
        0x00002920:    2001        .       MOVS     r0,#1
        0x00002922:    03c0        ..      LSLS     r0,r0,#15
        0x00002924:    4302        .C      ORRS     r2,r2,r0
        0x00002926:    600a        .`      STR      r2,[r1,#0]
        0x00002928:    6820         h      LDR      r0,[r4,#0]
        0x0000292a:    06c9        ..      LSLS     r1,r1,#27
        0x0000292c:    4388        .C      BICS     r0,r0,r1
        0x0000292e:    6020         `      STR      r0,[r4,#0]
        0x00002930:    bd10        ..      POP      {r4,pc}
    time_slice
        0x00002932:    b5fe        ..      PUSH     {r1-r7,lr}
        0x00002934:    4bef        .K      LDR      r3,[pc,#956] ; [0x2cf4] = 0x20000074
        0x00002936:    8818        ..      LDRH     r0,[r3,#0]
        0x00002938:    1c40        @.      ADDS     r0,r0,#1
        0x0000293a:    b286        ..      UXTH     r6,r0
        0x0000293c:    801e        ..      STRH     r6,[r3,#0]
        0x0000293e:    8858        X.      LDRH     r0,[r3,#2]
        0x00002940:    1c40        @.      ADDS     r0,r0,#1
        0x00002942:    b284        ..      UXTH     r4,r0
        0x00002944:    805c        \.      STRH     r4,[r3,#2]
        0x00002946:    8898        ..      LDRH     r0,[r3,#4]
        0x00002948:    1c40        @.      ADDS     r0,r0,#1
        0x0000294a:    b285        ..      UXTH     r5,r0
        0x0000294c:    809d        ..      STRH     r5,[r3,#4]
        0x0000294e:    88d8        ..      LDRH     r0,[r3,#6]
        0x00002950:    1c40        @.      ADDS     r0,r0,#1
        0x00002952:    b280        ..      UXTH     r0,r0
        0x00002954:    80d8        ..      STRH     r0,[r3,#6]
        0x00002956:    4686        .F      MOV      lr,r0
        0x00002958:    8918        ..      LDRH     r0,[r3,#8]
        0x0000295a:    1c40        @.      ADDS     r0,r0,#1
        0x0000295c:    b280        ..      UXTH     r0,r0
        0x0000295e:    8118        ..      STRH     r0,[r3,#8]
        0x00002960:    9002        ..      STR      r0,[sp,#8]
        0x00002962:    8958        X.      LDRH     r0,[r3,#0xa]
        0x00002964:    1c40        @.      ADDS     r0,r0,#1
        0x00002966:    b280        ..      UXTH     r0,r0
        0x00002968:    8158        X.      STRH     r0,[r3,#0xa]
        0x0000296a:    9001        ..      STR      r0,[sp,#4]
        0x0000296c:    8998        ..      LDRH     r0,[r3,#0xc]
        0x0000296e:    1c40        @.      ADDS     r0,r0,#1
        0x00002970:    b280        ..      UXTH     r0,r0
        0x00002972:    8198        ..      STRH     r0,[r3,#0xc]
        0x00002974:    9000        ..      STR      r0,[sp,#0]
        0x00002976:    89d8        ..      LDRH     r0,[r3,#0xe]
        0x00002978:    1c40        @.      ADDS     r0,r0,#1
        0x0000297a:    b280        ..      UXTH     r0,r0
        0x0000297c:    81d8        ..      STRH     r0,[r3,#0xe]
        0x0000297e:    4684        .F      MOV      r12,r0
        0x00002980:    27ff        .'      MOVS     r7,#0xff
        0x00002982:    3791        .7      ADDS     r7,r7,#0x91
        0x00002984:    2000        .       MOVS     r0,#0
        0x00002986:    2101        .!      MOVS     r1,#1
        0x00002988:    4acf        .J      LDR      r2,[pc,#828] ; [0x2cc8] = 0x2000059c
        0x0000298a:    42be        .B      CMP      r6,r7
        0x0000298c:    d301        ..      BCC      0x2992 ; time_slice + 96
        0x0000298e:    7011        .p      STRB     r1,[r2,#0]
        0x00002990:    8018        ..      STRH     r0,[r3,#0]
        0x00002992:    2c50        P,      CMP      r4,#0x50
        0x00002994:    d301        ..      BCC      0x299a ; time_slice + 104
        0x00002996:    7051        Qp      STRB     r1,[r2,#1]
        0x00002998:    8058        X.      STRH     r0,[r3,#2]
        0x0000299a:    2d28        (-      CMP      r5,#0x28
        0x0000299c:    d301        ..      BCC      0x29a2 ; time_slice + 112
        0x0000299e:    7091        .p      STRB     r1,[r2,#2]
        0x000029a0:    8098        ..      STRH     r0,[r3,#4]
        0x000029a2:    4674        tF      MOV      r4,lr
        0x000029a4:    2c14        .,      CMP      r4,#0x14
        0x000029a6:    d301        ..      BCC      0x29ac ; time_slice + 122
        0x000029a8:    70d1        .p      STRB     r1,[r2,#3]
        0x000029aa:    80d8        ..      STRH     r0,[r3,#6]
        0x000029ac:    9c02        ..      LDR      r4,[sp,#8]
        0x000029ae:    2c08        .,      CMP      r4,#8
        0x000029b0:    d301        ..      BCC      0x29b6 ; time_slice + 132
        0x000029b2:    7111        .q      STRB     r1,[r2,#4]
        0x000029b4:    8118        ..      STRH     r0,[r3,#8]
        0x000029b6:    9c01        ..      LDR      r4,[sp,#4]
        0x000029b8:    2c05        .,      CMP      r4,#5
        0x000029ba:    d301        ..      BCC      0x29c0 ; time_slice + 142
        0x000029bc:    7151        Qq      STRB     r1,[r2,#5]
        0x000029be:    8158        X.      STRH     r0,[r3,#0xa]
        0x000029c0:    9c00        ..      LDR      r4,[sp,#0]
        0x000029c2:    2c02        .,      CMP      r4,#2
        0x000029c4:    d301        ..      BCC      0x29ca ; time_slice + 152
        0x000029c6:    7191        .q      STRB     r1,[r2,#6]
        0x000029c8:    8198        ..      STRH     r0,[r3,#0xc]
        0x000029ca:    4664        dF      MOV      r4,r12
        0x000029cc:    2c04        .,      CMP      r4,#4
        0x000029ce:    d301        ..      BCC      0x29d4 ; time_slice + 162
        0x000029d0:    7211        .r      STRB     r1,[r2,#8]
        0x000029d2:    81d8        ..      STRH     r0,[r3,#0xe]
        0x000029d4:    bdfe        ..      POP      {r1-r7,pc}
    TMR1_IRQHandler
        0x000029d6:    b500        ..      PUSH     {lr}
        0x000029d8:    49c6        .I      LDR      r1,[pc,#792] ; [0x2cf4] = 0x20000074
        0x000029da:    6908        .i      LDR      r0,[r1,#0x10]
        0x000029dc:    1c40        @.      ADDS     r0,r0,#1
        0x000029de:    6108        .a      STR      r0,[r1,#0x10]
        0x000029e0:    2208        ."      MOVS     r2,#8
        0x000029e2:    42d0        .B      CMN      r0,r2
        0x000029e4:    d301        ..      BCC      0x29ea ; TMR1_IRQHandler + 20
        0x000029e6:    2000        .       MOVS     r0,#0
        0x000029e8:    6108        .a      STR      r0,[r1,#0x10]
        0x000029ea:    f7ffffa2    ....    BL       time_slice ; 0x2932
        0x000029ee:    49be        .I      LDR      r1,[pc,#760] ; [0x2ce8] = 0x40010020
        0x000029f0:    2001        .       MOVS     r0,#1
        0x000029f2:    6088        .`      STR      r0,[r1,#8]
        0x000029f4:    bd00        ..      POP      {pc}
    sched_1Hzloop
        0x000029f6:    48b4        .H      LDR      r0,[pc,#720] ; [0x2cc8] = 0x2000059c
        0x000029f8:    7801        .x      LDRB     r1,[r0,#0]
        0x000029fa:    2900        .)      CMP      r1,#0
        0x000029fc:    d001        ..      BEQ      0x2a02 ; sched_1Hzloop + 12
        0x000029fe:    2100        .!      MOVS     r1,#0
        0x00002a00:    7001        .p      STRB     r1,[r0,#0]
        0x00002a02:    4770        pG      BX       lr
    sched_10Hzloop
        0x00002a04:    b510        ..      PUSH     {r4,lr}
        0x00002a06:    4cb0        .L      LDR      r4,[pc,#704] ; [0x2cc8] = 0x2000059c
        0x00002a08:    78a0        .x      LDRB     r0,[r4,#2]
        0x00002a0a:    2800        .(      CMP      r0,#0
        0x00002a0c:    d003        ..      BEQ      0x2a16 ; sched_10Hzloop + 18
        0x00002a0e:    f001ff0a    ....    BL       check_motor_armed ; 0x4826
        0x00002a12:    2000        .       MOVS     r0,#0
        0x00002a14:    70a0        .p      STRB     r0,[r4,#2]
        0x00002a16:    bd10        ..      POP      {r4,pc}
    sched_20Hzloop
        0x00002a18:    b510        ..      PUSH     {r4,lr}
        0x00002a1a:    4cab        .L      LDR      r4,[pc,#684] ; [0x2cc8] = 0x2000059c
        0x00002a1c:    78e0        .x      LDRB     r0,[r4,#3]
        0x00002a1e:    2800        .(      CMP      r0,#0
        0x00002a20:    d005        ..      BEQ      0x2a2e ; sched_20Hzloop + 22
        0x00002a22:    f000ff1b    ....    BL       update_home_pos ; 0x385c
        0x00002a26:    f001fd62    ..b.    BL       switch_handle ; 0x44ee
        0x00002a2a:    2000        .       MOVS     r0,#0
        0x00002a2c:    70e0        .p      STRB     r0,[r4,#3]
        0x00002a2e:    bd10        ..      POP      {r4,pc}
    sched_50Hzloop
        0x00002a30:    b5f0        ..      PUSH     {r4-r7,lr}
        0x00002a32:    b097        ..      SUB      sp,sp,#0x5c
        0x00002a34:    a812        ..      ADD      r0,sp,#0x48
        0x00002a36:    f000fd51    ..Q.    BL       get_inertial_vel ; 0x34dc
        0x00002a3a:    48a3        .H      LDR      r0,[pc,#652] ; [0x2cc8] = 0x2000059c
        0x00002a3c:    7900        .y      LDRB     r0,[r0,#4]
        0x00002a3e:    2800        .(      CMP      r0,#0
        0x00002a40:    d07d        }.      BEQ      0x2b3e ; sched_50Hzloop + 270
        0x00002a42:    f001fc52    ..R.    BL       rc_channel_read ; 0x42ea
        0x00002a46:    f000ff08    ....    BL       inertial_nav_update ; 0x385a
        0x00002a4a:    49ab        .I      LDR      r1,[pc,#684] ; [0x2cf8] = 0x2000017c
        0x00002a4c:    200a        .       MOVS     r0,#0xa
        0x00002a4e:    5608        .V      LDRSB    r0,[r1,r0]
        0x00002a50:    2800        .(      CMP      r0,#0
        0x00002a52:    d011        ..      BEQ      0x2a78 ; sched_50Hzloop + 72
        0x00002a54:    28ff        .(      CMP      r0,#0xff
        0x00002a56:    d00f        ..      BEQ      0x2a78 ; sched_50Hzloop + 72
        0x00002a58:    2801        .(      CMP      r0,#1
        0x00002a5a:    d057        W.      BEQ      0x2b0c ; sched_50Hzloop + 220
        0x00002a5c:    4ca7        .L      LDR      r4,[pc,#668] ; [0x2cfc] = 0x200005e4
        0x00002a5e:    2802        .(      CMP      r0,#2
        0x00002a60:    d06e        n.      BEQ      0x2b40 ; sched_50Hzloop + 272
        0x00002a62:    2803        .(      CMP      r0,#3
        0x00002a64:    d06d        m.      BEQ      0x2b42 ; sched_50Hzloop + 274
        0x00002a66:    2804        .(      CMP      r0,#4
        0x00002a68:    d06c        l.      BEQ      0x2b44 ; sched_50Hzloop + 276
        0x00002a6a:    2805        .(      CMP      r0,#5
        0x00002a6c:    d06b        k.      BEQ      0x2b46 ; sched_50Hzloop + 278
        0x00002a6e:    2806        .(      CMP      r0,#6
        0x00002a70:    d06a        j.      BEQ      0x2b48 ; sched_50Hzloop + 280
        0x00002a72:    2807        .(      CMP      r0,#7
        0x00002a74:    d069        i.      BEQ      0x2b4a ; sched_50Hzloop + 282
        0x00002a76:    e234        4.      B        0x2ee2 ; sched_50Hzloop + 1202
        0x00002a78:    4ca1        .L      LDR      r4,[pc,#644] ; [0x2d00] = 0x200004f8
        0x00002a7a:    2101        .!      MOVS     r1,#1
        0x00002a7c:    68a0        .h      LDR      r0,[r4,#8]
        0x00002a7e:    f002f969    ..i.    BL       __ARM_scalbnf ; 0x4d54
        0x00002a82:    49a0        .I      LDR      r1,[pc,#640] ; [0x2d04] = 0x43480000
        0x00002a84:    f002f8e3    ....    BL       __aeabi_fsub ; 0x4c4e
        0x00002a88:    f002fb2a    ..*.    BL       __aeabi_f2iz ; 0x50e0
        0x00002a8c:    b205        ..      SXTH     r5,r0
        0x00002a8e:    2101        .!      MOVS     r1,#1
        0x00002a90:    6860        `h      LDR      r0,[r4,#4]
        0x00002a92:    f002f95f    .._.    BL       __ARM_scalbnf ; 0x4d54
        0x00002a96:    499b        .I      LDR      r1,[pc,#620] ; [0x2d04] = 0x43480000
        0x00002a98:    f002f8d9    ....    BL       __aeabi_fsub ; 0x4c4e
        0x00002a9c:    f002fb20    .. .    BL       __aeabi_f2iz ; 0x50e0
        0x00002aa0:    b206        ..      SXTH     r6,r0
        0x00002aa2:    2101        .!      MOVS     r1,#1
        0x00002aa4:    6820         h      LDR      r0,[r4,#0]
        0x00002aa6:    f002f955    ..U.    BL       __ARM_scalbnf ; 0x4d54
        0x00002aaa:    4996        .I      LDR      r1,[pc,#600] ; [0x2d04] = 0x43480000
        0x00002aac:    f002f8cf    ....    BL       __aeabi_fsub ; 0x4c4e
        0x00002ab0:    f002fb16    ....    BL       __aeabi_f2iz ; 0x50e0
        0x00002ab4:    b200        ..      SXTH     r0,r0
        0x00002ab6:    4c94        .L      LDR      r4,[pc,#592] ; [0x2d08] = 0x200005b4
        0x00002ab8:    9011        ..      STR      r0,[sp,#0x44]
        0x00002aba:    2101        .!      MOVS     r1,#1
        0x00002abc:    68a0        .h      LDR      r0,[r4,#8]
        0x00002abe:    f002f949    ..I.    BL       __ARM_scalbnf ; 0x4d54
        0x00002ac2:    4990        .I      LDR      r1,[pc,#576] ; [0x2d04] = 0x43480000
        0x00002ac4:    f002f872    ..r.    BL       __aeabi_fadd ; 0x4bac
        0x00002ac8:    f002fb0a    ....    BL       __aeabi_f2iz ; 0x50e0
        0x00002acc:    b200        ..      SXTH     r0,r0
        0x00002ace:    9010        ..      STR      r0,[sp,#0x40]
        0x00002ad0:    2101        .!      MOVS     r1,#1
        0x00002ad2:    6860        `h      LDR      r0,[r4,#4]
        0x00002ad4:    f002f93e    ..>.    BL       __ARM_scalbnf ; 0x4d54
        0x00002ad8:    498a        .I      LDR      r1,[pc,#552] ; [0x2d04] = 0x43480000
        0x00002ada:    f002f867    ..g.    BL       __aeabi_fadd ; 0x4bac
        0x00002ade:    f002faff    ....    BL       __aeabi_f2iz ; 0x50e0
        0x00002ae2:    b207        ..      SXTH     r7,r0
        0x00002ae4:    2101        .!      MOVS     r1,#1
        0x00002ae6:    6820         h      LDR      r0,[r4,#0]
        0x00002ae8:    f002f934    ..4.    BL       __ARM_scalbnf ; 0x4d54
        0x00002aec:    4985        .I      LDR      r1,[pc,#532] ; [0x2d04] = 0x43480000
        0x00002aee:    f002f85d    ..].    BL       __aeabi_fadd ; 0x4bac
        0x00002af2:    f002faf5    ....    BL       __aeabi_f2iz ; 0x50e0
        0x00002af6:    b201        ..      SXTH     r1,r0
        0x00002af8:    9811        ..      LDR      r0,[sp,#0x44]
        0x00002afa:    9601        ..      STR      r6,[sp,#4]
        0x00002afc:    9000        ..      STR      r0,[sp,#0]
        0x00002afe:    9502        ..      STR      r5,[sp,#8]
        0x00002b00:    463a        :F      MOV      r2,r7
        0x00002b02:    a082        ..      ADR      r0,{pc}+0x20a ; 0x2d0c
        0x00002b04:    9b10        ..      LDR      r3,[sp,#0x40]
        0x00002b06:    f002fdab    ....    BL       __0printf$5 ; 0x5660
        0x00002b0a:    e1ea        ..      B        0x2ee2 ; sched_50Hzloop + 1202
        0x00002b0c:    4c84        .L      LDR      r4,[pc,#528] ; [0x2d20] = 0x200004ec
        0x00002b0e:    4985        .I      LDR      r1,[pc,#532] ; [0x2d24] = 0x41200000
        0x00002b10:    68a0        .h      LDR      r0,[r4,#8]
        0x00002b12:    f002f8a4    ....    BL       __aeabi_fmul ; 0x4c5e
        0x00002b16:    f002fae3    ....    BL       __aeabi_f2iz ; 0x50e0
        0x00002b1a:    b205        ..      SXTH     r5,r0
        0x00002b1c:    4981        .I      LDR      r1,[pc,#516] ; [0x2d24] = 0x41200000
        0x00002b1e:    6860        `h      LDR      r0,[r4,#4]
        0x00002b20:    f002f89d    ....    BL       __aeabi_fmul ; 0x4c5e
        0x00002b24:    f002fadc    ....    BL       __aeabi_f2iz ; 0x50e0
        0x00002b28:    b206        ..      SXTH     r6,r0
        0x00002b2a:    497e        ~I      LDR      r1,[pc,#504] ; [0x2d24] = 0x41200000
        0x00002b2c:    6820         h      LDR      r0,[r4,#0]
        0x00002b2e:    f002f896    ....    BL       __aeabi_fmul ; 0x4c5e
        0x00002b32:    f002fad5    ....    BL       __aeabi_f2iz ; 0x50e0
        0x00002b36:    b204        ..      SXTH     r4,r0
        0x00002b38:    497a        zI      LDR      r1,[pc,#488] ; [0x2d24] = 0x41200000
        0x00002b3a:    9814        ..      LDR      r0,[sp,#0x50]
        0x00002b3c:    e006        ..      B        0x2b4c ; sched_50Hzloop + 284
        0x00002b3e:    e1d3        ..      B        0x2ee8 ; sched_50Hzloop + 1208
        0x00002b40:    e021        !.      B        0x2b86 ; sched_50Hzloop + 342
        0x00002b42:    e07e        ~.      B        0x2c42 ; sched_50Hzloop + 530
        0x00002b44:    e100        ..      B        0x2d48 ; sched_50Hzloop + 792
        0x00002b46:    e12f        /.      B        0x2da8 ; sched_50Hzloop + 888
        0x00002b48:    e14a        J.      B        0x2de0 ; sched_50Hzloop + 944
        0x00002b4a:    e197        ..      B        0x2e7c ; sched_50Hzloop + 1100
        0x00002b4c:    f002f887    ....    BL       __aeabi_fmul ; 0x4c5e
        0x00002b50:    f002fac6    ....    BL       __aeabi_f2iz ; 0x50e0
        0x00002b54:    b207        ..      SXTH     r7,r0
        0x00002b56:    4973        sI      LDR      r1,[pc,#460] ; [0x2d24] = 0x41200000
        0x00002b58:    9813        ..      LDR      r0,[sp,#0x4c]
        0x00002b5a:    f002f880    ....    BL       __aeabi_fmul ; 0x4c5e
        0x00002b5e:    f002fabf    ....    BL       __aeabi_f2iz ; 0x50e0
        0x00002b62:    b200        ..      SXTH     r0,r0
        0x00002b64:    9011        ..      STR      r0,[sp,#0x44]
        0x00002b66:    496f        oI      LDR      r1,[pc,#444] ; [0x2d24] = 0x41200000
        0x00002b68:    9812        ..      LDR      r0,[sp,#0x48]
        0x00002b6a:    f002f878    ..x.    BL       __aeabi_fmul ; 0x4c5e
        0x00002b6e:    f002fab7    ....    BL       __aeabi_f2iz ; 0x50e0
        0x00002b72:    b201        ..      SXTH     r1,r0
        0x00002b74:    9502        ..      STR      r5,[sp,#8]
        0x00002b76:    463b        ;F      MOV      r3,r7
        0x00002b78:    9601        ..      STR      r6,[sp,#4]
        0x00002b7a:    9400        ..      STR      r4,[sp,#0]
        0x00002b7c:    a063        c.      ADR      r0,{pc}+0x190 ; 0x2d0c
        0x00002b7e:    9a11        ..      LDR      r2,[sp,#0x44]
        0x00002b80:    f002fd6e    ..n.    BL       __0printf$5 ; 0x5660
        0x00002b84:    e1ad        ..      B        0x2ee2 ; sched_50Hzloop + 1202
        0x00002b86:    4967        gI      LDR      r1,[pc,#412] ; [0x2d24] = 0x41200000
        0x00002b88:    69e0        .i      LDR      r0,[r4,#0x1c]
        0x00002b8a:    f002f868    ..h.    BL       __aeabi_fmul ; 0x4c5e
        0x00002b8e:    f002faa7    ....    BL       __aeabi_f2iz ; 0x50e0
        0x00002b92:    b206        ..      SXTH     r6,r0
        0x00002b94:    4964        dI      LDR      r1,[pc,#400] ; [0x2d28] = 0x41f00000
        0x00002b96:    69a0        .i      LDR      r0,[r4,#0x18]
        0x00002b98:    f002f861    ..a.    BL       __aeabi_fmul ; 0x4c5e
        0x00002b9c:    4959        YI      LDR      r1,[pc,#356] ; [0x2d04] = 0x43480000
        0x00002b9e:    f002f856    ..V.    BL       __aeabi_fsub ; 0x4c4e
        0x00002ba2:    f002fa9d    ....    BL       __aeabi_f2iz ; 0x50e0
        0x00002ba6:    b205        ..      SXTH     r5,r0
        0x00002ba8:    495f        _I      LDR      r1,[pc,#380] ; [0x2d28] = 0x41f00000
        0x00002baa:    6960        `i      LDR      r0,[r4,#0x14]
        0x00002bac:    f002f857    ..W.    BL       __aeabi_fmul ; 0x4c5e
        0x00002bb0:    4954        TI      LDR      r1,[pc,#336] ; [0x2d04] = 0x43480000
        0x00002bb2:    f002f84c    ..L.    BL       __aeabi_fsub ; 0x4c4e
        0x00002bb6:    f002fa93    ....    BL       __aeabi_f2iz ; 0x50e0
        0x00002bba:    b207        ..      SXTH     r7,r0
        0x00002bbc:    200a        .       MOVS     r0,#0xa
        0x00002bbe:    2130        0!      MOVS     r1,#0x30
        0x00002bc0:    5e20         ^      LDRSH    r0,[r4,r0]
        0x00002bc2:    5e61        a^      LDRSH    r1,[r4,r1]
        0x00002bc4:    1a40        @.      SUBS     r0,r0,r1
        0x00002bc6:    f002fa79    ..y.    BL       __aeabi_i2f ; 0x50bc
        0x00002bca:    4958        XI      LDR      r1,[pc,#352] ; [0x2d2c] = 0x20000000
        0x00002bcc:    6809        .h      LDR      r1,[r1,#0]
        0x00002bce:    9116        ..      STR      r1,[sp,#0x58]
        0x00002bd0:    f002f845    ..E.    BL       __aeabi_fmul ; 0x4c5e
        0x00002bd4:    4953        SI      LDR      r1,[pc,#332] ; [0x2d24] = 0x41200000
        0x00002bd6:    f002f842    ..B.    BL       __aeabi_fmul ; 0x4c5e
        0x00002bda:    f002fa81    ....    BL       __aeabi_f2iz ; 0x50e0
        0x00002bde:    b200        ..      SXTH     r0,r0
        0x00002be0:    9011        ..      STR      r0,[sp,#0x44]
        0x00002be2:    2008        .       MOVS     r0,#8
        0x00002be4:    212e        .!      MOVS     r1,#0x2e
        0x00002be6:    5e20         ^      LDRSH    r0,[r4,r0]
        0x00002be8:    5e61        a^      LDRSH    r1,[r4,r1]
        0x00002bea:    1a40        @.      SUBS     r0,r0,r1
        0x00002bec:    f002fa66    ..f.    BL       __aeabi_i2f ; 0x50bc
        0x00002bf0:    9916        ..      LDR      r1,[sp,#0x58]
        0x00002bf2:    f002f834    ..4.    BL       __aeabi_fmul ; 0x4c5e
        0x00002bf6:    494c        LI      LDR      r1,[pc,#304] ; [0x2d28] = 0x41f00000
        0x00002bf8:    f002f831    ..1.    BL       __aeabi_fmul ; 0x4c5e
        0x00002bfc:    4941        AI      LDR      r1,[pc,#260] ; [0x2d04] = 0x43480000
        0x00002bfe:    f001ffd5    ....    BL       __aeabi_fadd ; 0x4bac
        0x00002c02:    f002fa6d    ..m.    BL       __aeabi_f2iz ; 0x50e0
        0x00002c06:    b200        ..      SXTH     r0,r0
        0x00002c08:    9010        ..      STR      r0,[sp,#0x40]
        0x00002c0a:    2006        .       MOVS     r0,#6
        0x00002c0c:    212c        ,!      MOVS     r1,#0x2c
        0x00002c0e:    5e20         ^      LDRSH    r0,[r4,r0]
        0x00002c10:    5e61        a^      LDRSH    r1,[r4,r1]
        0x00002c12:    1a40        @.      SUBS     r0,r0,r1
        0x00002c14:    f002fa52    ..R.    BL       __aeabi_i2f ; 0x50bc
        0x00002c18:    9916        ..      LDR      r1,[sp,#0x58]
        0x00002c1a:    f002f820    .. .    BL       __aeabi_fmul ; 0x4c5e
        0x00002c1e:    4942        BI      LDR      r1,[pc,#264] ; [0x2d28] = 0x41f00000
        0x00002c20:    f002f81d    ....    BL       __aeabi_fmul ; 0x4c5e
        0x00002c24:    4937        7I      LDR      r1,[pc,#220] ; [0x2d04] = 0x43480000
        0x00002c26:    f001ffc1    ....    BL       __aeabi_fadd ; 0x4bac
        0x00002c2a:    f002fa59    ..Y.    BL       __aeabi_f2iz ; 0x50e0
        0x00002c2e:    b201        ..      SXTH     r1,r0
        0x00002c30:    9602        ..      STR      r6,[sp,#8]
        0x00002c32:    9501        ..      STR      r5,[sp,#4]
        0x00002c34:    9700        ..      STR      r7,[sp,#0]
        0x00002c36:    a035        5.      ADR      r0,{pc}+0xd6 ; 0x2d0c
        0x00002c38:    9b11        ..      LDR      r3,[sp,#0x44]
        0x00002c3a:    9a10        ..      LDR      r2,[sp,#0x40]
        0x00002c3c:    f002fd10    ....    BL       __0printf$5 ; 0x5660
        0x00002c40:    e14f        O.      B        0x2ee2 ; sched_50Hzloop + 1202
        0x00002c42:    4c2e        .L      LDR      r4,[pc,#184] ; [0x2cfc] = 0x200005e4
        0x00002c44:    492f        /I      LDR      r1,[pc,#188] ; [0x2d04] = 0x43480000
        0x00002c46:    3480        .4      ADDS     r4,r4,#0x80
        0x00002c48:    6b20         k      LDR      r0,[r4,#0x30]
        0x00002c4a:    f002f800    ....    BL       __aeabi_fsub ; 0x4c4e
        0x00002c4e:    f002fa47    ..G.    BL       __aeabi_f2iz ; 0x50e0
        0x00002c52:    b205        ..      SXTH     r5,r0
        0x00002c54:    492b        +I      LDR      r1,[pc,#172] ; [0x2d04] = 0x43480000
        0x00002c56:    6ae0        .j      LDR      r0,[r4,#0x2c]
        0x00002c58:    f001fff9    ....    BL       __aeabi_fsub ; 0x4c4e
        0x00002c5c:    f002fa40    ..@.    BL       __aeabi_f2iz ; 0x50e0
        0x00002c60:    b200        ..      SXTH     r0,r0
        0x00002c62:    9011        ..      STR      r0,[sp,#0x44]
        0x00002c64:    4927        'I      LDR      r1,[pc,#156] ; [0x2d04] = 0x43480000
        0x00002c66:    6aa0        .j      LDR      r0,[r4,#0x28]
        0x00002c68:    f001fff1    ....    BL       __aeabi_fsub ; 0x4c4e
        0x00002c6c:    f002fa38    ..8.    BL       __aeabi_f2iz ; 0x50e0
        0x00002c70:    b206        ..      SXTH     r6,r0
        0x00002c72:    201e        .       MOVS     r0,#0x1e
        0x00002c74:    5e20         ^      LDRSH    r0,[r4,r0]
        0x00002c76:    f002fa21    ..!.    BL       __aeabi_i2f ; 0x50bc
        0x00002c7a:    492d        -I      LDR      r1,[pc,#180] ; [0x2d30] = 0x20000004
        0x00002c7c:    6809        .h      LDR      r1,[r1,#0]
        0x00002c7e:    9115        ..      STR      r1,[sp,#0x54]
        0x00002c80:    f001ffed    ....    BL       __aeabi_fmul ; 0x4c5e
        0x00002c84:    491f        .I      LDR      r1,[pc,#124] ; [0x2d04] = 0x43480000
        0x00002c86:    f001ff91    ....    BL       __aeabi_fadd ; 0x4bac
        0x00002c8a:    f002fa29    ..).    BL       __aeabi_f2iz ; 0x50e0
        0x00002c8e:    b207        ..      SXTH     r7,r0
        0x00002c90:    201c        .       MOVS     r0,#0x1c
        0x00002c92:    5e20         ^      LDRSH    r0,[r4,r0]
        0x00002c94:    f002fa12    ....    BL       __aeabi_i2f ; 0x50bc
        0x00002c98:    9915        ..      LDR      r1,[sp,#0x54]
        0x00002c9a:    f001ffe0    ....    BL       __aeabi_fmul ; 0x4c5e
        0x00002c9e:    4919        .I      LDR      r1,[pc,#100] ; [0x2d04] = 0x43480000
        0x00002ca0:    f001ff84    ....    BL       __aeabi_fadd ; 0x4bac
        0x00002ca4:    f002fa1c    ....    BL       __aeabi_f2iz ; 0x50e0
        0x00002ca8:    b200        ..      SXTH     r0,r0
        0x00002caa:    9010        ..      STR      r0,[sp,#0x40]
        0x00002cac:    201a        .       MOVS     r0,#0x1a
        0x00002cae:    5e20         ^      LDRSH    r0,[r4,r0]
        0x00002cb0:    f002fa04    ....    BL       __aeabi_i2f ; 0x50bc
        0x00002cb4:    9915        ..      LDR      r1,[sp,#0x54]
        0x00002cb6:    f001ffd2    ....    BL       __aeabi_fmul ; 0x4c5e
        0x00002cba:    4912        .I      LDR      r1,[pc,#72] ; [0x2d04] = 0x43480000
        0x00002cbc:    f001ff76    ..v.    BL       __aeabi_fadd ; 0x4bac
        0x00002cc0:    f002fa0e    ....    BL       __aeabi_f2iz ; 0x50e0
        0x00002cc4:    b201        ..      SXTH     r1,r0
        0x00002cc6:    e035        5.      B        0x2d34 ; sched_50Hzloop + 772
    $d
        0x00002cc8:    2000059c    ...     DCD    536872348
        0x00002ccc:    20000020     ..     DCD    536870944
        0x00002cd0:    74737973    syst    DCD    1953724787
        0x00002cd4:    206b6369    ick     DCD    543908713
        0x00002cd8:    74696e69    init    DCD    1953066601
        0x00002cdc:    63757320     suc    DCD    1668641568
        0x00002ce0:    73736563    cess    DCD    1936942435
        0x00002ce4:    0000000a    ....    DCD    10
        0x00002ce8:    40010020     ..@    DCD    1073807392
        0x00002cec:    e000e100    ....    DCD    3758153984
        0x00002cf0:    e000e408    ....    DCD    3758154760
        0x00002cf4:    20000074    t..     DCD    536871028
        0x00002cf8:    2000017c    |..     DCD    536871292
        0x00002cfc:    200005e4    ...     DCD    536872420
        0x00002d00:    200004f8    ...     DCD    536872184
        0x00002d04:    43480000    ..HC    DCD    1128792064
        0x00002d08:    200005b4    ...     DCD    536872372
        0x00002d0c:    252c6425    %d,%    DCD    623666213
        0x00002d10:    64252c64    d,%d    DCD    1680157796
        0x00002d14:    2c64252c    ,%d,    DCD    744760620
        0x00002d18:    252c6425    %d,%    DCD    623666213
        0x00002d1c:    000a2c64    d,..    DCD    666724
        0x00002d20:    200004ec    ...     DCD    536872172
        0x00002d24:    41200000    .. A    DCD    1092616192
        0x00002d28:    41f00000    ...A    DCD    1106247680
        0x00002d2c:    20000000    ...     DCD    536870912
        0x00002d30:    20000004    ...     DCD    536870916
    $t
        0x00002d34:    9811        ..      LDR      r0,[sp,#0x44]
        0x00002d36:    9001        ..      STR      r0,[sp,#4]
        0x00002d38:    463b        ;F      MOV      r3,r7
        0x00002d3a:    9600        ..      STR      r6,[sp,#0]
        0x00002d3c:    9502        ..      STR      r5,[sp,#8]
        0x00002d3e:    4887        .H      LDR      r0,[pc,#540] ; [0x2f5c] = 0x2d0c
        0x00002d40:    9a10        ..      LDR      r2,[sp,#0x40]
        0x00002d42:    f002fc8d    ....    BL       __0printf$5 ; 0x5660
        0x00002d46:    e0cc        ..      B        0x2ee2 ; sched_50Hzloop + 1202
        0x00002d48:    4c85        .L      LDR      r4,[pc,#532] ; [0x2f60] = 0x2000016c
        0x00002d4a:    4986        .I      LDR      r1,[pc,#536] ; [0x2f64] = 0x43fa0000
        0x00002d4c:    6820         h      LDR      r0,[r4,#0]
        0x00002d4e:    f001ff86    ....    BL       __aeabi_fmul ; 0x4c5e
        0x00002d52:    4985        .I      LDR      r1,[pc,#532] ; [0x2f68] = 0x43960000
        0x00002d54:    f001ff7b    ..{.    BL       __aeabi_fsub ; 0x4c4e
        0x00002d58:    f002f9c2    ....    BL       __aeabi_f2iz ; 0x50e0
        0x00002d5c:    b205        ..      SXTH     r5,r0
        0x00002d5e:    4981        .I      LDR      r1,[pc,#516] ; [0x2f64] = 0x43fa0000
        0x00002d60:    6860        `h      LDR      r0,[r4,#4]
        0x00002d62:    f001ff7c    ..|.    BL       __aeabi_fmul ; 0x4c5e
        0x00002d66:    4980        .I      LDR      r1,[pc,#512] ; [0x2f68] = 0x43960000
        0x00002d68:    f001ff71    ..q.    BL       __aeabi_fsub ; 0x4c4e
        0x00002d6c:    f002f9b8    ....    BL       __aeabi_f2iz ; 0x50e0
        0x00002d70:    b206        ..      SXTH     r6,r0
        0x00002d72:    497c        |I      LDR      r1,[pc,#496] ; [0x2f64] = 0x43fa0000
        0x00002d74:    68a0        .h      LDR      r0,[r4,#8]
        0x00002d76:    f001ff72    ..r.    BL       __aeabi_fmul ; 0x4c5e
        0x00002d7a:    497b        {I      LDR      r1,[pc,#492] ; [0x2f68] = 0x43960000
        0x00002d7c:    f001ff67    ..g.    BL       __aeabi_fsub ; 0x4c4e
        0x00002d80:    f002f9ae    ....    BL       __aeabi_f2iz ; 0x50e0
        0x00002d84:    b207        ..      SXTH     r7,r0
        0x00002d86:    4977        wI      LDR      r1,[pc,#476] ; [0x2f64] = 0x43fa0000
        0x00002d88:    68e0        .h      LDR      r0,[r4,#0xc]
        0x00002d8a:    f001ff68    ..h.    BL       __aeabi_fmul ; 0x4c5e
        0x00002d8e:    4976        vI      LDR      r1,[pc,#472] ; [0x2f68] = 0x43960000
        0x00002d90:    f001ff5d    ..].    BL       __aeabi_fsub ; 0x4c4e
        0x00002d94:    f002f9a4    ....    BL       __aeabi_f2iz ; 0x50e0
        0x00002d98:    b201        ..      SXTH     r1,r0
        0x00002d9a:    4633        3F      MOV      r3,r6
        0x00002d9c:    463a        :F      MOV      r2,r7
        0x00002d9e:    a073        s.      ADR      r0,{pc}+0x1ce ; 0x2f6c
        0x00002da0:    9500        ..      STR      r5,[sp,#0]
        0x00002da2:    f002fc5d    ..].    BL       __0printf$5 ; 0x5660
        0x00002da6:    e09c        ..      B        0x2ee2 ; sched_50Hzloop + 1202
        0x00002da8:    4c75        uL      LDR      r4,[pc,#468] ; [0x2f80] = 0x2000079c
        0x00002daa:    2105        .!      MOVS     r1,#5
        0x00002dac:    8ca0        ..      LDRH     r0,[r4,#0x24]
        0x00002dae:    f001fec1    ....    BL       __aeabi_uidiv ; 0x4b34
        0x00002db2:    b205        ..      SXTH     r5,r0
        0x00002db4:    8b20         .      LDRH     r0,[r4,#0x18]
        0x00002db6:    2105        .!      MOVS     r1,#5
        0x00002db8:    f001febc    ....    BL       __aeabi_uidiv ; 0x4b34
        0x00002dbc:    b206        ..      SXTH     r6,r0
        0x00002dbe:    89a0        ..      LDRH     r0,[r4,#0xc]
        0x00002dc0:    2105        .!      MOVS     r1,#5
        0x00002dc2:    f001feb7    ....    BL       __aeabi_uidiv ; 0x4b34
        0x00002dc6:    b207        ..      SXTH     r7,r0
        0x00002dc8:    8820         .      LDRH     r0,[r4,#0]
        0x00002dca:    2105        .!      MOVS     r1,#5
        0x00002dcc:    f001feb2    ....    BL       __aeabi_uidiv ; 0x4b34
        0x00002dd0:    b201        ..      SXTH     r1,r0
        0x00002dd2:    4633        3F      MOV      r3,r6
        0x00002dd4:    463a        :F      MOV      r2,r7
        0x00002dd6:    a065        e.      ADR      r0,{pc}+0x196 ; 0x2f6c
        0x00002dd8:    9500        ..      STR      r5,[sp,#0]
        0x00002dda:    f002fc41    ..A.    BL       __0printf$5 ; 0x5660
        0x00002dde:    e080        ..      B        0x2ee2 ; sched_50Hzloop + 1202
        0x00002de0:    4868        hH      LDR      r0,[pc,#416] ; [0x2f84] = 0x20000790
        0x00002de2:    4969        iI      LDR      r1,[pc,#420] ; [0x2f88] = 0x42c80000
        0x00002de4:    6880        .h      LDR      r0,[r0,#8]
        0x00002de6:    f001ff3a    ..:.    BL       __aeabi_fmul ; 0x4c5e
        0x00002dea:    f002f979    ..y.    BL       __aeabi_f2iz ; 0x50e0
        0x00002dee:    b200        ..      SXTH     r0,r0
        0x00002df0:    9005        ..      STR      r0,[sp,#0x14]
        0x00002df2:    4966        fI      LDR      r1,[pc,#408] ; [0x2f8c] = 0x411ce80a
        0x00002df4:    69e0        .i      LDR      r0,[r4,#0x1c]
        0x00002df6:    f001ff2a    ..*.    BL       __aeabi_fsub ; 0x4c4e
        0x00002dfa:    4963        cI      LDR      r1,[pc,#396] ; [0x2f88] = 0x42c80000
        0x00002dfc:    f001ff2f    ../.    BL       __aeabi_fmul ; 0x4c5e
        0x00002e00:    f002f96e    ..n.    BL       __aeabi_f2iz ; 0x50e0
        0x00002e04:    b204        ..      SXTH     r4,r0
        0x00002e06:    4862        bH      LDR      r0,[pc,#392] ; [0x2f90] = 0x200000f0
        0x00002e08:    495f        _I      LDR      r1,[pc,#380] ; [0x2f88] = 0x42c80000
        0x00002e0a:    6880        .h      LDR      r0,[r0,#8]
        0x00002e0c:    f001ff27    ..'.    BL       __aeabi_fmul ; 0x4c5e
        0x00002e10:    f002f966    ..f.    BL       __aeabi_f2iz ; 0x50e0
        0x00002e14:    b205        ..      SXTH     r5,r0
        0x00002e16:    a809        ..      ADD      r0,sp,#0x24
        0x00002e18:    f000fd5f    .._.    BL       get_inav_accel ; 0x38da
        0x00002e1c:    a809        ..      ADD      r0,sp,#0x24
        0x00002e1e:    c807        ..      LDM      r0,{r0-r2}
        0x00002e20:    ab0f        ..      ADD      r3,sp,#0x3c
        0x00002e22:    c307        ..      STM      r3!,{r0-r2}
        0x00002e24:    4610        .F      MOV      r0,r2
        0x00002e26:    f002f95b    ..[.    BL       __aeabi_f2iz ; 0x50e0
        0x00002e2a:    b206        ..      SXTH     r6,r0
        0x00002e2c:    a806        ..      ADD      r0,sp,#0x18
        0x00002e2e:    f000fd3c    ..<.    BL       get_inav_velocity ; 0x38aa
        0x00002e32:    a806        ..      ADD      r0,sp,#0x18
        0x00002e34:    c807        ..      LDM      r0,{r0-r2}
        0x00002e36:    ab0c        ..      ADD      r3,sp,#0x30
        0x00002e38:    c307        ..      STM      r3!,{r0-r2}
        0x00002e3a:    4610        .F      MOV      r0,r2
        0x00002e3c:    f002f950    ..P.    BL       __aeabi_f2iz ; 0x50e0
        0x00002e40:    b200        ..      SXTH     r0,r0
        0x00002e42:    9004        ..      STR      r0,[sp,#0x10]
        0x00002e44:    f000fd29    ..).    BL       get_inav_alt ; 0x389a
        0x00002e48:    f002f94a    ..J.    BL       __aeabi_f2iz ; 0x50e0
        0x00002e4c:    b207        ..      SXTH     r7,r0
        0x00002e4e:    484d        MH      LDR      r0,[pc,#308] ; [0x2f84] = 0x20000790
        0x00002e50:    6881        .h      LDR      r1,[r0,#8]
        0x00002e52:    4850        PH      LDR      r0,[pc,#320] ; [0x2f94] = 0x20000134
        0x00002e54:    6940        @i      LDR      r0,[r0,#0x14]
        0x00002e56:    f001fefa    ....    BL       __aeabi_fsub ; 0x4c4e
        0x00002e5a:    494b        KI      LDR      r1,[pc,#300] ; [0x2f88] = 0x42c80000
        0x00002e5c:    f001feff    ....    BL       __aeabi_fmul ; 0x4c5e
        0x00002e60:    f002f93e    ..>.    BL       __aeabi_f2iz ; 0x50e0
        0x00002e64:    b201        ..      SXTH     r1,r0
        0x00002e66:    9805        ..      LDR      r0,[sp,#0x14]
        0x00002e68:    9003        ..      STR      r0,[sp,#0xc]
        0x00002e6a:    9600        ..      STR      r6,[sp,#0]
        0x00002e6c:    9501        ..      STR      r5,[sp,#4]
        0x00002e6e:    9402        ..      STR      r4,[sp,#8]
        0x00002e70:    463a        :F      MOV      r2,r7
        0x00002e72:    a049        I.      ADR      r0,{pc}+0x126 ; 0x2f98
        0x00002e74:    9b04        ..      LDR      r3,[sp,#0x10]
        0x00002e76:    f002fbf3    ....    BL       __0printf$5 ; 0x5660
        0x00002e7a:    e032        2.      B        0x2ee2 ; sched_50Hzloop + 1202
        0x00002e7c:    a809        ..      ADD      r0,sp,#0x24
        0x00002e7e:    f000fd2c    ..,.    BL       get_inav_accel ; 0x38da
        0x00002e82:    a809        ..      ADD      r0,sp,#0x24
        0x00002e84:    c807        ..      LDM      r0,{r0-r2}
        0x00002e86:    ab0f        ..      ADD      r3,sp,#0x3c
        0x00002e88:    c307        ..      STM      r3!,{r0-r2}
        0x00002e8a:    4610        .F      MOV      r0,r2
        0x00002e8c:    f002f928    ..(.    BL       __aeabi_f2iz ; 0x50e0
        0x00002e90:    b205        ..      SXTH     r5,r0
        0x00002e92:    a806        ..      ADD      r0,sp,#0x18
        0x00002e94:    f000fd09    ....    BL       get_inav_velocity ; 0x38aa
        0x00002e98:    a806        ..      ADD      r0,sp,#0x18
        0x00002e9a:    c807        ..      LDM      r0,{r0-r2}
        0x00002e9c:    ab0c        ..      ADD      r3,sp,#0x30
        0x00002e9e:    c307        ..      STM      r3!,{r0-r2}
        0x00002ea0:    4610        .F      MOV      r0,r2
        0x00002ea2:    f002f91d    ....    BL       __aeabi_f2iz ; 0x50e0
        0x00002ea6:    b200        ..      SXTH     r0,r0
        0x00002ea8:    9005        ..      STR      r0,[sp,#0x14]
        0x00002eaa:    f000fcf6    ....    BL       get_inav_alt ; 0x389a
        0x00002eae:    f002f917    ....    BL       __aeabi_f2iz ; 0x50e0
        0x00002eb2:    4c41        AL      LDR      r4,[pc,#260] ; [0x2fb8] = 0x20000530
        0x00002eb4:    b206        ..      SXTH     r6,r0
        0x00002eb6:    6a20         j      LDR      r0,[r4,#0x20]
        0x00002eb8:    f002f912    ....    BL       __aeabi_f2iz ; 0x50e0
        0x00002ebc:    b200        ..      SXTH     r0,r0
        0x00002ebe:    9004        ..      STR      r0,[sp,#0x10]
        0x00002ec0:    6960        `i      LDR      r0,[r4,#0x14]
        0x00002ec2:    f002f90d    ....    BL       __aeabi_f2iz ; 0x50e0
        0x00002ec6:    b207        ..      SXTH     r7,r0
        0x00002ec8:    68a0        .h      LDR      r0,[r4,#8]
        0x00002eca:    f002f909    ....    BL       __aeabi_f2iz ; 0x50e0
        0x00002ece:    b201        ..      SXTH     r1,r0
        0x00002ed0:    9805        ..      LDR      r0,[sp,#0x14]
        0x00002ed2:    9001        ..      STR      r0,[sp,#4]
        0x00002ed4:    9600        ..      STR      r6,[sp,#0]
        0x00002ed6:    9502        ..      STR      r5,[sp,#8]
        0x00002ed8:    463a        :F      MOV      r2,r7
        0x00002eda:    a038        8.      ADR      r0,{pc}+0xe2 ; 0x2fbc
        0x00002edc:    9b04        ..      LDR      r3,[sp,#0x10]
        0x00002ede:    f002fbbf    ....    BL       __0printf$5 ; 0x5660
        0x00002ee2:    483d        =H      LDR      r0,[pc,#244] ; [0x2fd8] = 0x2000059c
        0x00002ee4:    2100        .!      MOVS     r1,#0
        0x00002ee6:    7101        .q      STRB     r1,[r0,#4]
        0x00002ee8:    b017        ..      ADD      sp,sp,#0x5c
        0x00002eea:    bdf0        ..      POP      {r4-r7,pc}
    sched_80Hzloop
        0x00002eec:    b510        ..      PUSH     {r4,lr}
        0x00002eee:    4c3a        :L      LDR      r4,[pc,#232] ; [0x2fd8] = 0x2000059c
        0x00002ef0:    7960        `y      LDRB     r0,[r4,#5]
        0x00002ef2:    2800        .(      CMP      r0,#0
        0x00002ef4:    d003        ..      BEQ      0x2efe ; sched_80Hzloop + 18
        0x00002ef6:    f7fdfd64    ..d.    BL       fbm320_timer_procedure ; 0x9c2
        0x00002efa:    2000        .       MOVS     r0,#0
        0x00002efc:    7160        `q      STRB     r0,[r4,#5]
        0x00002efe:    bd10        ..      POP      {r4,pc}
    low_priority_loop
        0x00002f00:    b510        ..      PUSH     {r4,lr}
        0x00002f02:    f7fffff3    ....    BL       sched_80Hzloop ; 0x2eec
        0x00002f06:    f7fffd93    ....    BL       sched_50Hzloop ; 0x2a30
        0x00002f0a:    f7fffd85    ....    BL       sched_20Hzloop ; 0x2a18
        0x00002f0e:    f7fffd79    ..y.    BL       sched_10Hzloop ; 0x2a04
        0x00002f12:    f7fffd70    ..p.    BL       sched_1Hzloop ; 0x29f6
        0x00002f16:    bd10        ..      POP      {r4,pc}
    fast_loop
        0x00002f18:    b570        p.      PUSH     {r4-r6,lr}
        0x00002f1a:    f7fef84d    ..M.    BL       sys_micro ; 0xfb8
        0x00002f1e:    4c2f        /L      LDR      r4,[pc,#188] ; [0x2fdc] = 0x20000074
        0x00002f20:    6160        `a      STR      r0,[r4,#0x14]
        0x00002f22:    4d2d        -M      LDR      r5,[pc,#180] ; [0x2fd8] = 0x2000059c
        0x00002f24:    7a28        (z      LDRB     r0,[r5,#8]
        0x00002f26:    2800        .(      CMP      r0,#0
        0x00002f28:    d010        ..      BEQ      0x2f4c ; fast_loop + 52
        0x00002f2a:    f000f984    ....    BL       inertial_sensor_read ; 0x3236
        0x00002f2e:    f7fefd0f    ....    BL       attitude_angle_rate_controller ; 0x1950
        0x00002f32:    f7fff90e    ....    BL       motors_output ; 0x2152
        0x00002f36:    f000f927    ..'.    BL       AHRS_Update ; 0x3188
        0x00002f3a:    f7fff88e    ....    BL       update_flight_mode ; 0x205a
        0x00002f3e:    2000        .       MOVS     r0,#0
        0x00002f40:    7228        (r      STRB     r0,[r5,#8]
        0x00002f42:    f7fef839    ..9.    BL       sys_micro ; 0xfb8
        0x00002f46:    6961        ai      LDR      r1,[r4,#0x14]
        0x00002f48:    1a40        @.      SUBS     r0,r0,r1
        0x00002f4a:    6160        `a      STR      r0,[r4,#0x14]
        0x00002f4c:    bd70        p.      POP      {r4-r6,pc}
    scheduler_run
        0x00002f4e:    b510        ..      PUSH     {r4,lr}
        0x00002f50:    f7ffffe2    ....    BL       fast_loop ; 0x2f18
        0x00002f54:    f7ffffd4    ....    BL       low_priority_loop ; 0x2f00
        0x00002f58:    bd10        ..      POP      {r4,pc}
    $d
        0x00002f5a:    0000        ..      DCW    0
        0x00002f5c:    00002d0c    .-..    DCD    11532
        0x00002f60:    2000016c    l..     DCD    536871276
        0x00002f64:    43fa0000    ...C    DCD    1140457472
        0x00002f68:    43960000    ...C    DCD    1133903872
        0x00002f6c:    202c6425    %d,     DCD    539780133
        0x00002f70:    202c6425    %d,     DCD    539780133
        0x00002f74:    202c6425    %d,     DCD    539780133
        0x00002f78:    0a2c6425    %d,.    DCD    170681381
        0x00002f7c:    00000000    ....    DCD    0
        0x00002f80:    2000079c    ...     DCD    536872860
        0x00002f84:    20000790    ...     DCD    536872848
        0x00002f88:    42c80000    ...B    DCD    1120403456
        0x00002f8c:    411ce80a    ...A    DCD    1092413450
        0x00002f90:    200000f0    ...     DCD    536871152
        0x00002f94:    20000134    4..     DCD    536871220
        0x00002f98:    202c6425    %d,     DCD    539780133
        0x00002f9c:    202c6425    %d,     DCD    539780133
        0x00002fa0:    202c6425    %d,     DCD    539780133
        0x00002fa4:    202c6425    %d,     DCD    539780133
        0x00002fa8:    202c6425    %d,     DCD    539780133
        0x00002fac:    202c6425    %d,     DCD    539780133
        0x00002fb0:    0a2c6425    %d,.    DCD    170681381
        0x00002fb4:    00000000    ....    DCD    0
        0x00002fb8:    20000530    0..     DCD    536872240
        0x00002fbc:    202c6425    %d,     DCD    539780133
        0x00002fc0:    202c6425    %d,     DCD    539780133
        0x00002fc4:    202c6425    %d,     DCD    539780133
        0x00002fc8:    202c6425    %d,     DCD    539780133
        0x00002fcc:    202c6425    %d,     DCD    539780133
        0x00002fd0:    202c6425    %d,     DCD    539780133
        0x00002fd4:    0000000a    ....    DCD    10
        0x00002fd8:    2000059c    ...     DCD    536872348
        0x00002fdc:    20000074    t..     DCD    536871028
    $t
    .text
    AHRS_GetQ
        0x00002fe0:    b5f0        ..      PUSH     {r4-r7,lr}
        0x00002fe2:    b08b        ..      SUB      sp,sp,#0x2c
        0x00002fe4:    f7fdffe8    ....    BL       sys_micro ; 0xfb8
        0x00002fe8:    4605        .F      MOV      r5,r0
        0x00002fea:    4c7b        {L      LDR      r4,[pc,#492] ; [0x31d8] = 0x2000008c
        0x00002fec:    6960        `i      LDR      r0,[r4,#0x14]
        0x00002fee:    2800        .(      CMP      r0,#0
        0x00002ff0:    d006        ..      BEQ      0x3000 ; AHRS_GetQ + 32
        0x00002ff2:    1a28        (.      SUBS     r0,r5,r0
        0x00002ff4:    f002f86d    ..m.    BL       __aeabi_ui2f ; 0x50d2
        0x00002ff8:    4978        xI      LDR      r1,[pc,#480] ; [0x31dc] = 0x49742400
        0x00002ffa:    f001fe6d    ..m.    BL       __aeabi_fdiv ; 0x4cd8
        0x00002ffe:    e000        ..      B        0x3002 ; AHRS_GetQ + 34
        0x00003000:    2000        .       MOVS     r0,#0
        0x00003002:    9003        ..      STR      r0,[sp,#0xc]
        0x00003004:    6165        ea      STR      r5,[r4,#0x14]
        0x00003006:    4d76        vM      LDR      r5,[pc,#472] ; [0x31e0] = 0x200005e4
        0x00003008:    69e8        .i      LDR      r0,[r5,#0x1c]
        0x0000300a:    4601        .F      MOV      r1,r0
        0x0000300c:    f001fe27    ..'.    BL       __aeabi_fmul ; 0x4c5e
        0x00003010:    4606        .F      MOV      r6,r0
        0x00003012:    69a8        .i      LDR      r0,[r5,#0x18]
        0x00003014:    4601        .F      MOV      r1,r0
        0x00003016:    f001fe22    ..".    BL       __aeabi_fmul ; 0x4c5e
        0x0000301a:    4607        .F      MOV      r7,r0
        0x0000301c:    6968        hi      LDR      r0,[r5,#0x14]
        0x0000301e:    4601        .F      MOV      r1,r0
        0x00003020:    f001fe1d    ....    BL       __aeabi_fmul ; 0x4c5e
        0x00003024:    4639        9F      MOV      r1,r7
        0x00003026:    f001fdc1    ....    BL       __aeabi_fadd ; 0x4bac
        0x0000302a:    4631        1F      MOV      r1,r6
        0x0000302c:    f001fdbe    ....    BL       __aeabi_fadd ; 0x4bac
        0x00003030:    f7fef9b4    ....    BL       Q_rsqrt ; 0x139c
        0x00003034:    4606        .F      MOV      r6,r0
        0x00003036:    4631        1F      MOV      r1,r6
        0x00003038:    6968        hi      LDR      r0,[r5,#0x14]
        0x0000303a:    f001fe10    ....    BL       __aeabi_fmul ; 0x4c5e
        0x0000303e:    9009        ..      STR      r0,[sp,#0x24]
        0x00003040:    4631        1F      MOV      r1,r6
        0x00003042:    69a8        .i      LDR      r0,[r5,#0x18]
        0x00003044:    f001fe0b    ....    BL       __aeabi_fmul ; 0x4c5e
        0x00003048:    9008        ..      STR      r0,[sp,#0x20]
        0x0000304a:    4631        1F      MOV      r1,r6
        0x0000304c:    69e8        .i      LDR      r0,[r5,#0x1c]
        0x0000304e:    f001fe06    ....    BL       __aeabi_fmul ; 0x4c5e
        0x00003052:    4607        .F      MOV      r7,r0
        0x00003054:    4960        `I      LDR      r1,[pc,#384] ; [0x31d8] = 0x2000008c
        0x00003056:    4668        hF      MOV      r0,sp
        0x00003058:    3118        .1      ADDS     r1,r1,#0x18
        0x0000305a:    f7fefa99    ....    BL       Quaternion_vectorGravity ; 0x1590
        0x0000305e:    4668        hF      MOV      r0,sp
        0x00003060:    c807        ..      LDM      r0,{r0-r2}
        0x00003062:    ab04        ..      ADD      r3,sp,#0x10
        0x00003064:    c307        ..      STM      r3!,{r0-r2}
        0x00003066:    4638        8F      MOV      r0,r7
        0x00003068:    9905        ..      LDR      r1,[sp,#0x14]
        0x0000306a:    f001fdf8    ....    BL       __aeabi_fmul ; 0x4c5e
        0x0000306e:    4605        .F      MOV      r5,r0
        0x00003070:    9906        ..      LDR      r1,[sp,#0x18]
        0x00003072:    9808        ..      LDR      r0,[sp,#0x20]
        0x00003074:    f001fdf3    ....    BL       __aeabi_fmul ; 0x4c5e
        0x00003078:    4629        )F      MOV      r1,r5
        0x0000307a:    f001fde8    ....    BL       __aeabi_fsub ; 0x4c4e
        0x0000307e:    4605        .F      MOV      r5,r0
        0x00003080:    9906        ..      LDR      r1,[sp,#0x18]
        0x00003082:    9809        ..      LDR      r0,[sp,#0x24]
        0x00003084:    f001fdeb    ....    BL       __aeabi_fmul ; 0x4c5e
        0x00003088:    4606        .F      MOV      r6,r0
        0x0000308a:    4638        8F      MOV      r0,r7
        0x0000308c:    9904        ..      LDR      r1,[sp,#0x10]
        0x0000308e:    f001fde6    ....    BL       __aeabi_fmul ; 0x4c5e
        0x00003092:    4631        1F      MOV      r1,r6
        0x00003094:    f001fddb    ....    BL       __aeabi_fsub ; 0x4c4e
        0x00003098:    4606        .F      MOV      r6,r0
        0x0000309a:    9904        ..      LDR      r1,[sp,#0x10]
        0x0000309c:    9808        ..      LDR      r0,[sp,#0x20]
        0x0000309e:    f001fdde    ....    BL       __aeabi_fmul ; 0x4c5e
        0x000030a2:    4607        .F      MOV      r7,r0
        0x000030a4:    9905        ..      LDR      r1,[sp,#0x14]
        0x000030a6:    9809        ..      LDR      r0,[sp,#0x24]
        0x000030a8:    f001fdd9    ....    BL       __aeabi_fmul ; 0x4c5e
        0x000030ac:    4639        9F      MOV      r1,r7
        0x000030ae:    f001fdce    ....    BL       __aeabi_fsub ; 0x4c4e
        0x000030b2:    900a        ..      STR      r0,[sp,#0x28]
        0x000030b4:    6861        ah      LDR      r1,[r4,#4]
        0x000030b6:    4628        (F      MOV      r0,r5
        0x000030b8:    460f        .F      MOV      r7,r1
        0x000030ba:    f001fdd0    ....    BL       __aeabi_fmul ; 0x4c5e
        0x000030be:    68a1        .h      LDR      r1,[r4,#8]
        0x000030c0:    f001fd74    ..t.    BL       __aeabi_fadd ; 0x4bac
        0x000030c4:    60a0        .`      STR      r0,[r4,#8]
        0x000030c6:    4639        9F      MOV      r1,r7
        0x000030c8:    4630        0F      MOV      r0,r6
        0x000030ca:    f001fdc8    ....    BL       __aeabi_fmul ; 0x4c5e
        0x000030ce:    68e1        .h      LDR      r1,[r4,#0xc]
        0x000030d0:    f001fd6c    ..l.    BL       __aeabi_fadd ; 0x4bac
        0x000030d4:    60e0        .`      STR      r0,[r4,#0xc]
        0x000030d6:    4639        9F      MOV      r1,r7
        0x000030d8:    980a        ..      LDR      r0,[sp,#0x28]
        0x000030da:    f001fdc0    ....    BL       __aeabi_fmul ; 0x4c5e
        0x000030de:    6921        !i      LDR      r1,[r4,#0x10]
        0x000030e0:    f001fd64    ..d.    BL       __aeabi_fadd ; 0x4bac
        0x000030e4:    6120         a      STR      r0,[r4,#0x10]
        0x000030e6:    4628        (F      MOV      r0,r5
        0x000030e8:    f7fef971    ..q.    BL       VariableParameter ; 0x13ce
        0x000030ec:    6821        !h      LDR      r1,[r4,#0]
        0x000030ee:    f001fdb6    ....    BL       __aeabi_fmul ; 0x4c5e
        0x000030f2:    4629        )F      MOV      r1,r5
        0x000030f4:    f001fdb3    ....    BL       __aeabi_fmul ; 0x4c5e
        0x000030f8:    4d39        9M      LDR      r5,[pc,#228] ; [0x31e0] = 0x200005e4
        0x000030fa:    4607        .F      MOV      r7,r0
        0x000030fc:    3580        .5      ADDS     r5,r5,#0x80
        0x000030fe:    6aa8        .j      LDR      r0,[r5,#0x28]
        0x00003100:    f7fef968    ..h.    BL       Rad ; 0x13d4
        0x00003104:    4639        9F      MOV      r1,r7
        0x00003106:    f001fd51    ..Q.    BL       __aeabi_fadd ; 0x4bac
        0x0000310a:    68a1        .h      LDR      r1,[r4,#8]
        0x0000310c:    f001fd4e    ..N.    BL       __aeabi_fadd ; 0x4bac
        0x00003110:    9007        ..      STR      r0,[sp,#0x1c]
        0x00003112:    4630        0F      MOV      r0,r6
        0x00003114:    f7fef95b    ..[.    BL       VariableParameter ; 0x13ce
        0x00003118:    6821        !h      LDR      r1,[r4,#0]
        0x0000311a:    f001fda0    ....    BL       __aeabi_fmul ; 0x4c5e
        0x0000311e:    4631        1F      MOV      r1,r6
        0x00003120:    f001fd9d    ....    BL       __aeabi_fmul ; 0x4c5e
        0x00003124:    4606        .F      MOV      r6,r0
        0x00003126:    6ae8        .j      LDR      r0,[r5,#0x2c]
        0x00003128:    f7fef954    ..T.    BL       Rad ; 0x13d4
        0x0000312c:    4631        1F      MOV      r1,r6
        0x0000312e:    f001fd3d    ..=.    BL       __aeabi_fadd ; 0x4bac
        0x00003132:    68e1        .h      LDR      r1,[r4,#0xc]
        0x00003134:    f001fd3a    ..:.    BL       __aeabi_fadd ; 0x4bac
        0x00003138:    4606        .F      MOV      r6,r0
        0x0000313a:    980a        ..      LDR      r0,[sp,#0x28]
        0x0000313c:    f7fef947    ..G.    BL       VariableParameter ; 0x13ce
        0x00003140:    6821        !h      LDR      r1,[r4,#0]
        0x00003142:    f001fd8c    ....    BL       __aeabi_fmul ; 0x4c5e
        0x00003146:    990a        ..      LDR      r1,[sp,#0x28]
        0x00003148:    f001fd89    ....    BL       __aeabi_fmul ; 0x4c5e
        0x0000314c:    4607        .F      MOV      r7,r0
        0x0000314e:    6b28        (k      LDR      r0,[r5,#0x30]
        0x00003150:    f7fef940    ..@.    BL       Rad ; 0x13d4
        0x00003154:    4639        9F      MOV      r1,r7
        0x00003156:    f001fd29    ..).    BL       __aeabi_fadd ; 0x4bac
        0x0000315a:    6921        !i      LDR      r1,[r4,#0x10]
        0x0000315c:    f001fd26    ..&.    BL       __aeabi_fadd ; 0x4bac
        0x00003160:    4604        .F      MOV      r4,r0
        0x00003162:    2100        .!      MOVS     r1,#0
        0x00003164:    43c9        .C      MVNS     r1,r1
        0x00003166:    9803        ..      LDR      r0,[sp,#0xc]
        0x00003168:    f001fdf4    ....    BL       __ARM_scalbnf ; 0x4d54
        0x0000316c:    9000        ..      STR      r0,[sp,#0]
        0x0000316e:    481a        .H      LDR      r0,[pc,#104] ; [0x31d8] = 0x2000008c
        0x00003170:    4623        #F      MOV      r3,r4
        0x00003172:    4632        2F      MOV      r2,r6
        0x00003174:    3018        .0      ADDS     r0,r0,#0x18
        0x00003176:    9907        ..      LDR      r1,[sp,#0x1c]
        0x00003178:    f7fefb4e    ..N.    BL       Quaternion_RungeKutta ; 0x1818
        0x0000317c:    4816        .H      LDR      r0,[pc,#88] ; [0x31d8] = 0x2000008c
        0x0000317e:    3018        .0      ADDS     r0,r0,#0x18
        0x00003180:    f7fefb14    ....    BL       Quaternion_Normalize ; 0x17ac
        0x00003184:    b00b        ..      ADD      sp,sp,#0x2c
        0x00003186:    bdf0        ..      POP      {r4-r7,pc}
    AHRS_Update
        0x00003188:    b570        p.      PUSH     {r4-r6,lr}
        0x0000318a:    2400        .$      MOVS     r4,#0
        0x0000318c:    f7ffff28    ..(.    BL       AHRS_GetQ ; 0x2fe0
        0x00003190:    4a11        .J      LDR      r2,[pc,#68] ; [0x31d8] = 0x2000008c
        0x00003192:    4914        .I      LDR      r1,[pc,#80] ; [0x31e4] = 0x200005a8
        0x00003194:    3228        (2      ADDS     r2,r2,#0x28
        0x00003196:    4610        .F      MOV      r0,r2
        0x00003198:    3810        .8      SUBS     r0,r0,#0x10
        0x0000319a:    f7fefaef    ....    BL       Quaternion_ToAngE ; 0x177c
        0x0000319e:    490e        .I      LDR      r1,[pc,#56] ; [0x31d8] = 0x2000008c
        0x000031a0:    4d10        .M      LDR      r5,[pc,#64] ; [0x31e4] = 0x200005a8
        0x000031a2:    3128        (1      ADDS     r1,r1,#0x28
        0x000031a4:    350c        .5      ADDS     r5,r5,#0xc
        0x000031a6:    00a0        ..      LSLS     r0,r4,#2
        0x000031a8:    580a        .X      LDR      r2,[r1,r0]
        0x000031aa:    1940        @.      ADDS     r0,r0,r5
        0x000031ac:    60c2        .`      STR      r2,[r0,#0xc]
        0x000031ae:    1c64        d.      ADDS     r4,r4,#1
        0x000031b0:    2c09        .,      CMP      r4,#9
        0x000031b2:    dbf8        ..      BLT      0x31a6 ; AHRS_Update + 30
        0x000031b4:    4c0b        .L      LDR      r4,[pc,#44] ; [0x31e4] = 0x200005a8
        0x000031b6:    68a0        .h      LDR      r0,[r4,#8]
        0x000031b8:    f7fef919    ....    BL       Degree ; 0x13ee
        0x000031bc:    2601        .&      MOVS     r6,#1
        0x000031be:    07f6        ..      LSLS     r6,r6,#31
        0x000031c0:    4070        p@      EORS     r0,r0,r6
        0x000031c2:    60a8        .`      STR      r0,[r5,#8]
        0x000031c4:    6860        `h      LDR      r0,[r4,#4]
        0x000031c6:    f7fef912    ....    BL       Degree ; 0x13ee
        0x000031ca:    4070        p@      EORS     r0,r0,r6
        0x000031cc:    6028        (`      STR      r0,[r5,#0]
        0x000031ce:    6820         h      LDR      r0,[r4,#0]
        0x000031d0:    f7fef90d    ....    BL       Degree ; 0x13ee
        0x000031d4:    6068        h`      STR      r0,[r5,#4]
        0x000031d6:    bd70        p.      POP      {r4-r6,pc}
    $d
        0x000031d8:    2000008c    ...     DCD    536871052
        0x000031dc:    49742400    .$tI    DCD    1232348160
        0x000031e0:    200005e4    ...     DCD    536872420
        0x000031e4:    200005a8    ...     DCD    536872360
    $t
    .text
    inertial_sensor_init
        0x000031e8:    b570        p.      PUSH     {r4-r6,lr}
        0x000031ea:    4cc5        .L      LDR      r4,[pc,#788] ; [0x3500] = 0x41f00000
        0x000031ec:    4dc5        .M      LDR      r5,[pc,#788] ; [0x3504] = 0x42c80000
        0x000031ee:    4622        "F      MOV      r2,r4
        0x000031f0:    4629        )F      MOV      r1,r5
        0x000031f2:    48c5        .H      LDR      r0,[pc,#788] ; [0x3508] = 0x20000618
        0x000031f4:    f7fdffcc    ....    BL       LPF2pSetCutoffFreq ; 0x1190
        0x000031f8:    48c3        .H      LDR      r0,[pc,#780] ; [0x3508] = 0x20000618
        0x000031fa:    4622        "F      MOV      r2,r4
        0x000031fc:    4629        )F      MOV      r1,r5
        0x000031fe:    3020         0      ADDS     r0,r0,#0x20
        0x00003200:    f7fdffc6    ....    BL       LPF2pSetCutoffFreq ; 0x1190
        0x00003204:    48c0        .H      LDR      r0,[pc,#768] ; [0x3508] = 0x20000618
        0x00003206:    4622        "F      MOV      r2,r4
        0x00003208:    4629        )F      MOV      r1,r5
        0x0000320a:    3040        @0      ADDS     r0,r0,#0x40
        0x0000320c:    f7fdffc0    ....    BL       LPF2pSetCutoffFreq ; 0x1190
        0x00003210:    48bd        .H      LDR      r0,[pc,#756] ; [0x3508] = 0x20000618
        0x00003212:    4622        "F      MOV      r2,r4
        0x00003214:    4629        )F      MOV      r1,r5
        0x00003216:    3094        .0      ADDS     r0,r0,#0x94
        0x00003218:    f7fdffba    ....    BL       LPF2pSetCutoffFreq ; 0x1190
        0x0000321c:    48ba        .H      LDR      r0,[pc,#744] ; [0x3508] = 0x20000618
        0x0000321e:    4622        "F      MOV      r2,r4
        0x00003220:    4629        )F      MOV      r1,r5
        0x00003222:    30b4        .0      ADDS     r0,r0,#0xb4
        0x00003224:    f7fdffb4    ....    BL       LPF2pSetCutoffFreq ; 0x1190
        0x00003228:    48b7        .H      LDR      r0,[pc,#732] ; [0x3508] = 0x20000618
        0x0000322a:    4622        "F      MOV      r2,r4
        0x0000322c:    4629        )F      MOV      r1,r5
        0x0000322e:    30d4        .0      ADDS     r0,r0,#0xd4
        0x00003230:    f7fdffae    ....    BL       LPF2pSetCutoffFreq ; 0x1190
        0x00003234:    bd70        p.      POP      {r4-r6,pc}
    inertial_sensor_read
        0x00003236:    b570        p.      PUSH     {r4-r6,lr}
        0x00003238:    48b3        .H      LDR      r0,[pc,#716] ; [0x3508] = 0x20000618
        0x0000323a:    3834        48      SUBS     r0,r0,#0x34
        0x0000323c:    f7fdf899    ....    BL       bmi160_read_raw ; 0x372
        0x00003240:    4db1        .M      LDR      r5,[pc,#708] ; [0x3508] = 0x20000618
        0x00003242:    3d34        4=      SUBS     r5,r5,#0x34
        0x00003244:    88e8        ..      LDRH     r0,[r5,#6]
        0x00003246:    8da9        ..      LDRH     r1,[r5,#0x2c]
        0x00003248:    1a40        @.      SUBS     r0,r0,r1
        0x0000324a:    b200        ..      SXTH     r0,r0
        0x0000324c:    81a8        ..      STRH     r0,[r5,#0xc]
        0x0000324e:    8929        ).      LDRH     r1,[r5,#8]
        0x00003250:    8dea        ..      LDRH     r2,[r5,#0x2e]
        0x00003252:    1a89        ..      SUBS     r1,r1,r2
        0x00003254:    81e9        ..      STRH     r1,[r5,#0xe]
        0x00003256:    8969        i.      LDRH     r1,[r5,#0xa]
        0x00003258:    8e2a        *.      LDRH     r2,[r5,#0x30]
        0x0000325a:    1a89        ..      SUBS     r1,r1,r2
        0x0000325c:    8229        ).      STRH     r1,[r5,#0x10]
        0x0000325e:    462c        ,F      MOV      r4,r5
        0x00003260:    3480        .4      ADDS     r4,r4,#0x80
        0x00003262:    4621        !F      MOV      r1,r4
        0x00003264:    3140        @1      ADDS     r1,r1,#0x40
        0x00003266:    8b62        b.      LDRH     r2,[r4,#0x1a]
        0x00003268:    880b        ..      LDRH     r3,[r1,#0]
        0x0000326a:    1ad2        ..      SUBS     r2,r2,r3
        0x0000326c:    8422        ".      STRH     r2,[r4,#0x20]
        0x0000326e:    8ba2        ..      LDRH     r2,[r4,#0x1c]
        0x00003270:    884b        K.      LDRH     r3,[r1,#2]
        0x00003272:    1ad2        ..      SUBS     r2,r2,r3
        0x00003274:    8462        b.      STRH     r2,[r4,#0x22]
        0x00003276:    8be2        ..      LDRH     r2,[r4,#0x1e]
        0x00003278:    8889        ..      LDRH     r1,[r1,#4]
        0x0000327a:    1a51        Q.      SUBS     r1,r2,r1
        0x0000327c:    84a1        ..      STRH     r1,[r4,#0x24]
        0x0000327e:    f001ff1d    ....    BL       __aeabi_i2f ; 0x50bc
        0x00003282:    4ea2        .N      LDR      r6,[pc,#648] ; [0x350c] = 0x20000000
        0x00003284:    6831        1h      LDR      r1,[r6,#0]
        0x00003286:    f001fcea    ....    BL       __aeabi_fmul ; 0x4c5e
        0x0000328a:    4601        .F      MOV      r1,r0
        0x0000328c:    489e        .H      LDR      r0,[pc,#632] ; [0x3508] = 0x20000618
        0x0000328e:    f7fdffd9    ....    BL       LPF2pApply ; 0x1244
        0x00003292:    6168        ha      STR      r0,[r5,#0x14]
        0x00003294:    200e        .       MOVS     r0,#0xe
        0x00003296:    5e28        (^      LDRSH    r0,[r5,r0]
        0x00003298:    f001ff10    ....    BL       __aeabi_i2f ; 0x50bc
        0x0000329c:    6831        1h      LDR      r1,[r6,#0]
        0x0000329e:    f001fcde    ....    BL       __aeabi_fmul ; 0x4c5e
        0x000032a2:    4601        .F      MOV      r1,r0
        0x000032a4:    4620         F      MOV      r0,r4
        0x000032a6:    382c        ,8      SUBS     r0,r0,#0x2c
        0x000032a8:    f7fdffcc    ....    BL       LPF2pApply ; 0x1244
        0x000032ac:    61a8        .a      STR      r0,[r5,#0x18]
        0x000032ae:    2010        .       MOVS     r0,#0x10
        0x000032b0:    5e28        (^      LDRSH    r0,[r5,r0]
        0x000032b2:    f001ff03    ....    BL       __aeabi_i2f ; 0x50bc
        0x000032b6:    6831        1h      LDR      r1,[r6,#0]
        0x000032b8:    f001fcd1    ....    BL       __aeabi_fmul ; 0x4c5e
        0x000032bc:    4601        .F      MOV      r1,r0
        0x000032be:    4620         F      MOV      r0,r4
        0x000032c0:    380c        .8      SUBS     r0,r0,#0xc
        0x000032c2:    f7fdffbf    ....    BL       LPF2pApply ; 0x1244
        0x000032c6:    61e8        .a      STR      r0,[r5,#0x1c]
        0x000032c8:    2020                MOVS     r0,#0x20
        0x000032ca:    5e20         ^      LDRSH    r0,[r4,r0]
        0x000032cc:    f001fef6    ....    BL       __aeabi_i2f ; 0x50bc
        0x000032d0:    4d8f        .M      LDR      r5,[pc,#572] ; [0x3510] = 0x20000004
        0x000032d2:    6829        )h      LDR      r1,[r5,#0]
        0x000032d4:    f001fcc3    ....    BL       __aeabi_fmul ; 0x4c5e
        0x000032d8:    4601        .F      MOV      r1,r0
        0x000032da:    4620         F      MOV      r0,r4
        0x000032dc:    3048        H0      ADDS     r0,r0,#0x48
        0x000032de:    f7fdffb1    ....    BL       LPF2pApply ; 0x1244
        0x000032e2:    62a0        .b      STR      r0,[r4,#0x28]
        0x000032e4:    2022        "       MOVS     r0,#0x22
        0x000032e6:    5e20         ^      LDRSH    r0,[r4,r0]
        0x000032e8:    f001fee8    ....    BL       __aeabi_i2f ; 0x50bc
        0x000032ec:    6829        )h      LDR      r1,[r5,#0]
        0x000032ee:    f001fcb6    ....    BL       __aeabi_fmul ; 0x4c5e
        0x000032f2:    4601        .F      MOV      r1,r0
        0x000032f4:    4620         F      MOV      r0,r4
        0x000032f6:    3068        h0      ADDS     r0,r0,#0x68
        0x000032f8:    f7fdffa4    ....    BL       LPF2pApply ; 0x1244
        0x000032fc:    62e0        .b      STR      r0,[r4,#0x2c]
        0x000032fe:    2024        $       MOVS     r0,#0x24
        0x00003300:    5e20         ^      LDRSH    r0,[r4,r0]
        0x00003302:    f001fedb    ....    BL       __aeabi_i2f ; 0x50bc
        0x00003306:    6829        )h      LDR      r1,[r5,#0]
        0x00003308:    f001fca9    ....    BL       __aeabi_fmul ; 0x4c5e
        0x0000330c:    4601        .F      MOV      r1,r0
        0x0000330e:    4620         F      MOV      r0,r4
        0x00003310:    3088        .0      ADDS     r0,r0,#0x88
        0x00003312:    f7fdff97    ....    BL       LPF2pApply ; 0x1244
        0x00003316:    6320         c      STR      r0,[r4,#0x30]
        0x00003318:    497e        ~I      LDR      r1,[pc,#504] ; [0x3514] = 0x2000017c
        0x0000331a:    2001        .       MOVS     r0,#1
        0x0000331c:    71c8        .q      STRB     r0,[r1,#7]
        0x0000331e:    bd70        p.      POP      {r4-r6,pc}
    gyro_caloffest
        0x00003320:    b5f8        ..      PUSH     {r3-r7,lr}
        0x00003322:    4604        .F      MOV      r4,r0
        0x00003324:    460e        .F      MOV      r6,r1
        0x00003326:    4617        .F      MOV      r7,r2
        0x00003328:    4618        .F      MOV      r0,r3
        0x0000332a:    f001fed2    ....    BL       __aeabi_ui2f ; 0x50d2
        0x0000332e:    4605        .F      MOV      r5,r0
        0x00003330:    4601        .F      MOV      r1,r0
        0x00003332:    4620         F      MOV      r0,r4
        0x00003334:    f001fcd0    ....    BL       __aeabi_fdiv ; 0x4cd8
        0x00003338:    f001fed2    ....    BL       __aeabi_f2iz ; 0x50e0
        0x0000333c:    4c72        rL      LDR      r4,[pc,#456] ; [0x3508] = 0x20000618
        0x0000333e:    348c        .4      ADDS     r4,r4,#0x8c
        0x00003340:    8020         .      STRH     r0,[r4,#0]
        0x00003342:    4629        )F      MOV      r1,r5
        0x00003344:    4630        0F      MOV      r0,r6
        0x00003346:    f001fcc7    ....    BL       __aeabi_fdiv ; 0x4cd8
        0x0000334a:    f001fec9    ....    BL       __aeabi_f2iz ; 0x50e0
        0x0000334e:    8060        `.      STRH     r0,[r4,#2]
        0x00003350:    4629        )F      MOV      r1,r5
        0x00003352:    4638        8F      MOV      r0,r7
        0x00003354:    f001fcc0    ....    BL       __aeabi_fdiv ; 0x4cd8
        0x00003358:    f001fec2    ....    BL       __aeabi_f2iz ; 0x50e0
        0x0000335c:    80a0        ..      STRH     r0,[r4,#4]
        0x0000335e:    bdf8        ..      POP      {r3-r7,pc}
    gyro_offset
        0x00003360:    b5f0        ..      PUSH     {r4-r7,lr}
        0x00003362:    b089        ..      SUB      sp,sp,#0x24
        0x00003364:    2400        .$      MOVS     r4,#0
        0x00003366:    2500        .%      MOVS     r5,#0
        0x00003368:    2600        .&      MOVS     r6,#0
        0x0000336a:    2000        .       MOVS     r0,#0
        0x0000336c:    9008        ..      STR      r0,[sp,#0x20]
        0x0000336e:    9006        ..      STR      r0,[sp,#0x18]
        0x00003370:    9007        ..      STR      r0,[sp,#0x1c]
        0x00003372:    9003        ..      STR      r0,[sp,#0xc]
        0x00003374:    9004        ..      STR      r0,[sp,#0x10]
        0x00003376:    9005        ..      STR      r0,[sp,#0x14]
        0x00003378:    4967        gI      LDR      r1,[pc,#412] ; [0x3518] = 0x200000d8
        0x0000337a:    7008        .p      STRB     r0,[r1,#0]
        0x0000337c:    4f67        gO      LDR      r7,[pc,#412] ; [0x351c] = 0x16e360
        0x0000337e:    4868        hH      LDR      r0,[pc,#416] ; [0x3520] = 0x40010000
        0x00003380:    4639        9F      MOV      r1,r7
        0x00003382:    f000feb3    ....    BL       TIMER_Delay ; 0x40ec
        0x00003386:    4639        9F      MOV      r1,r7
        0x00003388:    4865        eH      LDR      r0,[pc,#404] ; [0x3520] = 0x40010000
        0x0000338a:    f000feaf    ....    BL       TIMER_Delay ; 0x40ec
        0x0000338e:    4f5e        ^O      LDR      r7,[pc,#376] ; [0x3508] = 0x20000618
        0x00003390:    374c        L7      ADDS     r7,r7,#0x4c
        0x00003392:    e066        f.      B        0x3462 ; gyro_offset + 258
        0x00003394:    2c64        d,      CMP      r4,#0x64
        0x00003396:    d234        4.      BCS      0x3402 ; gyro_offset + 162
        0x00003398:    485b        [H      LDR      r0,[pc,#364] ; [0x3508] = 0x20000618
        0x0000339a:    3834        48      SUBS     r0,r0,#0x34
        0x0000339c:    f7fcffe9    ....    BL       bmi160_read_raw ; 0x372
        0x000033a0:    221a        ."      MOVS     r2,#0x1a
        0x000033a2:    5eba        .^      LDRSH    r2,[r7,r2]
        0x000033a4:    9803        ..      LDR      r0,[sp,#0xc]
        0x000033a6:    4694        .F      MOV      r12,r2
        0x000033a8:    1880        ..      ADDS     r0,r0,r2
        0x000033aa:    9003        ..      STR      r0,[sp,#0xc]
        0x000033ac:    201c        .       MOVS     r0,#0x1c
        0x000033ae:    5e38        8^      LDRSH    r0,[r7,r0]
        0x000033b0:    9904        ..      LDR      r1,[sp,#0x10]
        0x000033b2:    1809        ..      ADDS     r1,r1,r0
        0x000033b4:    9104        ..      STR      r1,[sp,#0x10]
        0x000033b6:    211e        .!      MOVS     r1,#0x1e
        0x000033b8:    5e79        y^      LDRSH    r1,[r7,r1]
        0x000033ba:    9b05        ..      LDR      r3,[sp,#0x14]
        0x000033bc:    185b        [.      ADDS     r3,r3,r1
        0x000033be:    9305        ..      STR      r3,[sp,#0x14]
        0x000033c0:    466a        jF      MOV      r2,sp
        0x000033c2:    2318        .#      MOVS     r3,#0x18
        0x000033c4:    5ed3        .^      LDRSH    r3,[r2,r3]
        0x000033c6:    4662        bF      MOV      r2,r12
        0x000033c8:    1aaa        ..      SUBS     r2,r5,r2
        0x000033ca:    d501        ..      BPL      0x33d0 ; gyro_offset + 112
        0x000033cc:    4662        bF      MOV      r2,r12
        0x000033ce:    1b52        R.      SUBS     r2,r2,r5
        0x000033d0:    189b        ..      ADDS     r3,r3,r2
        0x000033d2:    466a        jF      MOV      r2,sp
        0x000033d4:    8313        ..      STRH     r3,[r2,#0x18]
        0x000033d6:    231a        .#      MOVS     r3,#0x1a
        0x000033d8:    5ed3        .^      LDRSH    r3,[r2,r3]
        0x000033da:    1a32        2.      SUBS     r2,r6,r0
        0x000033dc:    d500        ..      BPL      0x33e0 ; gyro_offset + 128
        0x000033de:    1b82        ..      SUBS     r2,r0,r6
        0x000033e0:    189a        ..      ADDS     r2,r3,r2
        0x000033e2:    466d        mF      MOV      r5,sp
        0x000033e4:    836a        j.      STRH     r2,[r5,#0x1a]
        0x000033e6:    231c        .#      MOVS     r3,#0x1c
        0x000033e8:    9a08        ..      LDR      r2,[sp,#0x20]
        0x000033ea:    5eeb        .^      LDRSH    r3,[r5,r3]
        0x000033ec:    1a52        R.      SUBS     r2,r2,r1
        0x000033ee:    d501        ..      BPL      0x33f4 ; gyro_offset + 148
        0x000033f0:    9a08        ..      LDR      r2,[sp,#0x20]
        0x000033f2:    1a8a        ..      SUBS     r2,r1,r2
        0x000033f4:    189a        ..      ADDS     r2,r3,r2
        0x000033f6:    466b        kF      MOV      r3,sp
        0x000033f8:    839a        ..      STRH     r2,[r3,#0x1c]
        0x000033fa:    4665        eF      MOV      r5,r12
        0x000033fc:    4606        .F      MOV      r6,r0
        0x000033fe:    9108        ..      STR      r1,[sp,#0x20]
        0x00003400:    e02d        -.      B        0x345e ; gyro_offset + 254
        0x00003402:    4669        iF      MOV      r1,sp
        0x00003404:    2018        .       MOVS     r0,#0x18
        0x00003406:    5e08        .^      LDRSH    r0,[r1,r0]
        0x00003408:    2864        d(      CMP      r0,#0x64
        0x0000340a:    da07        ..      BGE      0x341c ; gyro_offset + 188
        0x0000340c:    201a        .       MOVS     r0,#0x1a
        0x0000340e:    5e08        .^      LDRSH    r0,[r1,r0]
        0x00003410:    2864        d(      CMP      r0,#0x64
        0x00003412:    da03        ..      BGE      0x341c ; gyro_offset + 188
        0x00003414:    201c        .       MOVS     r0,#0x1c
        0x00003416:    5e08        .^      LDRSH    r0,[r1,r0]
        0x00003418:    2864        d(      CMP      r0,#0x64
        0x0000341a:    db0d        ..      BLT      0x3438 ; gyro_offset + 216
        0x0000341c:    2400        .$      MOVS     r4,#0
        0x0000341e:    2000        .       MOVS     r0,#0
        0x00003420:    2100        .!      MOVS     r1,#0
        0x00003422:    0043        C.      LSLS     r3,r0,#1
        0x00003424:    aa06        ..      ADD      r2,sp,#0x18
        0x00003426:    52d1        .R      STRH     r1,[r2,r3]
        0x00003428:    0083        ..      LSLS     r3,r0,#2
        0x0000342a:    aa03        ..      ADD      r2,sp,#0xc
        0x0000342c:    50d1        .P      STR      r1,[r2,r3]
        0x0000342e:    1c40        @.      ADDS     r0,r0,#1
        0x00003430:    b2c0        ..      UXTB     r0,r0
        0x00003432:    2803        .(      CMP      r0,#3
        0x00003434:    d3f5        ..      BCC      0x3422 ; gyro_offset + 194
        0x00003436:    e012        ..      B        0x345e ; gyro_offset + 254
        0x00003438:    9805        ..      LDR      r0,[sp,#0x14]
        0x0000343a:    f001fe3f    ..?.    BL       __aeabi_i2f ; 0x50bc
        0x0000343e:    9002        ..      STR      r0,[sp,#8]
        0x00003440:    9804        ..      LDR      r0,[sp,#0x10]
        0x00003442:    f001fe3b    ..;.    BL       __aeabi_i2f ; 0x50bc
        0x00003446:    9001        ..      STR      r0,[sp,#4]
        0x00003448:    9803        ..      LDR      r0,[sp,#0xc]
        0x0000344a:    f001fe37    ..7.    BL       __aeabi_i2f ; 0x50bc
        0x0000344e:    23c8        .#      MOVS     r3,#0xc8
        0x00003450:    9a02        ..      LDR      r2,[sp,#8]
        0x00003452:    9901        ..      LDR      r1,[sp,#4]
        0x00003454:    f7ffff64    ..d.    BL       gyro_caloffest ; 0x3320
        0x00003458:    482f        /H      LDR      r0,[pc,#188] ; [0x3518] = 0x200000d8
        0x0000345a:    2101        .!      MOVS     r1,#1
        0x0000345c:    7001        .p      STRB     r1,[r0,#0]
        0x0000345e:    1c64        d.      ADDS     r4,r4,#1
        0x00003460:    b2e4        ..      UXTB     r4,r4
        0x00003462:    482d        -H      LDR      r0,[pc,#180] ; [0x3518] = 0x200000d8
        0x00003464:    7800        .x      LDRB     r0,[r0,#0]
        0x00003466:    2800        .(      CMP      r0,#0
        0x00003468:    d094        ..      BEQ      0x3394 ; gyro_offset + 52
        0x0000346a:    b009        ..      ADD      sp,sp,#0x24
        0x0000346c:    bdf0        ..      POP      {r4-r7,pc}
    accel_offset
        0x0000346e:    b5f8        ..      PUSH     {r3-r7,lr}
        0x00003470:    2500        .%      MOVS     r5,#0
        0x00003472:    2600        .&      MOVS     r6,#0
        0x00003474:    2700        .'      MOVS     r7,#0
        0x00003476:    2400        .$      MOVS     r4,#0
        0x00003478:    4823        #H      LDR      r0,[pc,#140] ; [0x3508] = 0x20000618
        0x0000347a:    2100        .!      MOVS     r1,#0
        0x0000347c:    3834        48      SUBS     r0,r0,#0x34
        0x0000347e:    8581        ..      STRH     r1,[r0,#0x2c]
        0x00003480:    85c1        ..      STRH     r1,[r0,#0x2e]
        0x00003482:    8601        ..      STRH     r1,[r0,#0x30]
        0x00003484:    4820         H      LDR      r0,[pc,#128] ; [0x3508] = 0x20000618
        0x00003486:    3834        48      SUBS     r0,r0,#0x34
        0x00003488:    f7fcff73    ..s.    BL       bmi160_read_raw ; 0x372
        0x0000348c:    4925        %I      LDR      r1,[pc,#148] ; [0x3524] = 0x2710
        0x0000348e:    4824        $H      LDR      r0,[pc,#144] ; [0x3520] = 0x40010000
        0x00003490:    f000fe2c    ..,.    BL       TIMER_Delay ; 0x40ec
        0x00003494:    481c        .H      LDR      r0,[pc,#112] ; [0x3508] = 0x20000618
        0x00003496:    2106        .!      MOVS     r1,#6
        0x00003498:    3834        48      SUBS     r0,r0,#0x34
        0x0000349a:    5e41        A^      LDRSH    r1,[r0,r1]
        0x0000349c:    194d        M.      ADDS     r5,r1,r5
        0x0000349e:    2108        .!      MOVS     r1,#8
        0x000034a0:    5e41        A^      LDRSH    r1,[r0,r1]
        0x000034a2:    198e        ..      ADDS     r6,r1,r6
        0x000034a4:    210a        .!      MOVS     r1,#0xa
        0x000034a6:    5e41        A^      LDRSH    r1,[r0,r1]
        0x000034a8:    19cf        ..      ADDS     r7,r1,r7
        0x000034aa:    1c64        d.      ADDS     r4,r4,#1
        0x000034ac:    b2e4        ..      UXTB     r4,r4
        0x000034ae:    2c32        2,      CMP      r4,#0x32
        0x000034b0:    d3e8        ..      BCC      0x3484 ; accel_offset + 22
        0x000034b2:    4621        !F      MOV      r1,r4
        0x000034b4:    4628        (F      MOV      r0,r5
        0x000034b6:    f001fb53    ..S.    BL       __aeabi_idiv ; 0x4b60
        0x000034ba:    4d13        .M      LDR      r5,[pc,#76] ; [0x3508] = 0x20000618
        0x000034bc:    3d34        4=      SUBS     r5,r5,#0x34
        0x000034be:    85a8        ..      STRH     r0,[r5,#0x2c]
        0x000034c0:    4621        !F      MOV      r1,r4
        0x000034c2:    4630        0F      MOV      r0,r6
        0x000034c4:    f001fb4c    ..L.    BL       __aeabi_idiv ; 0x4b60
        0x000034c8:    85e8        ..      STRH     r0,[r5,#0x2e]
        0x000034ca:    4621        !F      MOV      r1,r4
        0x000034cc:    4638        8F      MOV      r0,r7
        0x000034ce:    f001fb47    ..G.    BL       __aeabi_idiv ; 0x4b60
        0x000034d2:    2101        .!      MOVS     r1,#1
        0x000034d4:    0349        I.      LSLS     r1,r1,#13
        0x000034d6:    1a08        ..      SUBS     r0,r1,r0
        0x000034d8:    8628        (.      STRH     r0,[r5,#0x30]
        0x000034da:    bdf8        ..      POP      {r3-r7,pc}
    get_inertial_vel
        0x000034dc:    b50e        ..      PUSH     {r1-r3,lr}
        0x000034de:    490a        .I      LDR      r1,[pc,#40] ; [0x3508] = 0x20000618
        0x000034e0:    2201        ."      MOVS     r2,#1
        0x000034e2:    314c        L1      ADDS     r1,r1,#0x4c
        0x000034e4:    6a8b        .j      LDR      r3,[r1,#0x28]
        0x000034e6:    07d2        ..      LSLS     r2,r2,#31
        0x000034e8:    4053        S@      EORS     r3,r3,r2
        0x000034ea:    9300        ..      STR      r3,[sp,#0]
        0x000034ec:    6acb        .j      LDR      r3,[r1,#0x2c]
        0x000034ee:    9301        ..      STR      r3,[sp,#4]
        0x000034f0:    6b09        .k      LDR      r1,[r1,#0x30]
        0x000034f2:    4051        Q@      EORS     r1,r1,r2
        0x000034f4:    9102        ..      STR      r1,[sp,#8]
        0x000034f6:    4669        iF      MOV      r1,sp
        0x000034f8:    c90e        ..      LDM      r1,{r1-r3}
        0x000034fa:    c00e        ..      STM      r0!,{r1-r3}
        0x000034fc:    bd0e        ..      POP      {r1-r3,pc}
    $d
        0x000034fe:    0000        ..      DCW    0
        0x00003500:    41f00000    ...A    DCD    1106247680
        0x00003504:    42c80000    ...B    DCD    1120403456
        0x00003508:    20000618    ...     DCD    536872472
        0x0000350c:    20000000    ...     DCD    536870912
        0x00003510:    20000004    ...     DCD    536870916
        0x00003514:    2000017c    |..     DCD    536871292
        0x00003518:    200000d8    ...     DCD    536871128
        0x0000351c:    0016e360    `...    DCD    1500000
        0x00003520:    40010000    ...@    DCD    1073807360
        0x00003524:    00002710    .'..    DCD    10000
    $t
    .text
    inertial_nav_init
        0x00003528:    48f8        .H      LDR      r0,[pc,#992] ; [0x390c] = 0x20000790
        0x0000352a:    2100        .!      MOVS     r1,#0
        0x0000352c:    6001        .`      STR      r1,[r0,#0]
        0x0000352e:    6041        A`      STR      r1,[r0,#4]
        0x00003530:    6081        .`      STR      r1,[r0,#8]
        0x00003532:    4770        pG      BX       lr
    inertial_filter_correct
        0x00003534:    b5f8        ..      PUSH     {r3-r7,lr}
        0x00003536:    4607        .F      MOV      r7,r0
        0x00003538:    460e        .F      MOV      r6,r1
        0x0000353a:    4614        .F      MOV      r4,r2
        0x0000353c:    461d        .F      MOV      r5,r3
        0x0000353e:    4638        8F      MOV      r0,r7
        0x00003540:    f002f903    ....    BL       __ARM_isfinitef ; 0x574a
        0x00003544:    2800        .(      CMP      r0,#0
        0x00003546:    d023        #.      BEQ      0x3590 ; inertial_filter_correct + 92
        0x00003548:    9806        ..      LDR      r0,[sp,#0x18]
        0x0000354a:    f002f8fe    ....    BL       __ARM_isfinitef ; 0x574a
        0x0000354e:    2800        .(      CMP      r0,#0
        0x00003550:    d01e        ..      BEQ      0x3590 ; inertial_filter_correct + 92
        0x00003552:    4630        0F      MOV      r0,r6
        0x00003554:    f002f8f9    ....    BL       __ARM_isfinitef ; 0x574a
        0x00003558:    2800        .(      CMP      r0,#0
        0x0000355a:    d019        ..      BEQ      0x3590 ; inertial_filter_correct + 92
        0x0000355c:    4638        8F      MOV      r0,r7
        0x0000355e:    9906        ..      LDR      r1,[sp,#0x18]
        0x00003560:    f001fb7d    ..}.    BL       __aeabi_fmul ; 0x4c5e
        0x00003564:    4631        1F      MOV      r1,r6
        0x00003566:    f001fb7a    ..z.    BL       __aeabi_fmul ; 0x4c5e
        0x0000356a:    4607        .F      MOV      r7,r0
        0x0000356c:    00ae        ..      LSLS     r6,r5,#2
        0x0000356e:    59a0        .Y      LDR      r0,[r4,r6]
        0x00003570:    4639        9F      MOV      r1,r7
        0x00003572:    f001fb1b    ....    BL       __aeabi_fadd ; 0x4bac
        0x00003576:    51a0        .Q      STR      r0,[r4,r6]
        0x00003578:    2d00        .-      CMP      r5,#0
        0x0000357a:    d00a        ..      BEQ      0x3592 ; inertial_filter_correct + 94
        0x0000357c:    2d01        .-      CMP      r5,#1
        0x0000357e:    d107        ..      BNE      0x3590 ; inertial_filter_correct + 92
        0x00003580:    4639        9F      MOV      r1,r7
        0x00003582:    9806        ..      LDR      r0,[sp,#0x18]
        0x00003584:    f001fb6b    ..k.    BL       __aeabi_fmul ; 0x4c5e
        0x00003588:    68a1        .h      LDR      r1,[r4,#8]
        0x0000358a:    f001fb0f    ....    BL       __aeabi_fadd ; 0x4bac
        0x0000358e:    60a0        .`      STR      r0,[r4,#8]
        0x00003590:    bdf8        ..      POP      {r3-r7,pc}
        0x00003592:    4639        9F      MOV      r1,r7
        0x00003594:    9806        ..      LDR      r0,[sp,#0x18]
        0x00003596:    f001fb62    ..b.    BL       __aeabi_fmul ; 0x4c5e
        0x0000359a:    6861        ah      LDR      r1,[r4,#4]
        0x0000359c:    f001fb06    ....    BL       __aeabi_fadd ; 0x4bac
        0x000035a0:    6060        ``      STR      r0,[r4,#4]
        0x000035a2:    9906        ..      LDR      r1,[sp,#0x18]
        0x000035a4:    4608        .F      MOV      r0,r1
        0x000035a6:    f001fb5a    ..Z.    BL       __aeabi_fmul ; 0x4c5e
        0x000035aa:    4639        9F      MOV      r1,r7
        0x000035ac:    f001fb57    ..W.    BL       __aeabi_fmul ; 0x4c5e
        0x000035b0:    f001fdc3    ....    BL       __aeabi_f2d ; 0x513a
        0x000035b4:    2200        ."      MOVS     r2,#0
        0x000035b6:    4bd6        .K      LDR      r3,[pc,#856] ; [0x3910] = 0x40080000
        0x000035b8:    f001fcf2    ....    BL       __aeabi_ddiv ; 0x4fa0
        0x000035bc:    f001fde6    ....    BL       __aeabi_d2f ; 0x518c
        0x000035c0:    68a1        .h      LDR      r1,[r4,#8]
        0x000035c2:    f001faf3    ....    BL       __aeabi_fadd ; 0x4bac
        0x000035c6:    60a0        .`      STR      r0,[r4,#8]
        0x000035c8:    bdf8        ..      POP      {r3-r7,pc}
    inertial_filter_predict
        0x000035ca:    b5f7        ..      PUSH     {r0-r2,r4-r7,lr}
        0x000035cc:    b082        ..      SUB      sp,sp,#8
        0x000035ce:    460e        .F      MOV      r6,r1
        0x000035d0:    4614        .F      MOV      r4,r2
        0x000035d2:    9802        ..      LDR      r0,[sp,#8]
        0x000035d4:    f002f8b9    ....    BL       __ARM_isfinitef ; 0x574a
        0x000035d8:    2800        .(      CMP      r0,#0
        0x000035da:    d02b        +.      BEQ      0x3634 ; inertial_filter_predict + 106
        0x000035dc:    4620         F      MOV      r0,r4
        0x000035de:    f002f8b4    ....    BL       __ARM_isfinitef ; 0x574a
        0x000035e2:    2800        .(      CMP      r0,#0
        0x000035e4:    d100        ..      BNE      0x35e8 ; inertial_filter_predict + 30
        0x000035e6:    2400        .$      MOVS     r4,#0
        0x000035e8:    4621        !F      MOV      r1,r4
        0x000035ea:    9802        ..      LDR      r0,[sp,#8]
        0x000035ec:    f001fb37    ..7.    BL       __aeabi_fmul ; 0x4c5e
        0x000035f0:    9001        ..      STR      r0,[sp,#4]
        0x000035f2:    9902        ..      LDR      r1,[sp,#8]
        0x000035f4:    f001fb33    ..3.    BL       __aeabi_fmul ; 0x4c5e
        0x000035f8:    f001fd9f    ....    BL       __aeabi_f2d ; 0x513a
        0x000035fc:    2200        ."      MOVS     r2,#0
        0x000035fe:    43d2        .C      MVNS     r2,r2
        0x00003600:    f001fd46    ..F.    BL       __ARM_scalbn ; 0x5090
        0x00003604:    6877        wh      LDR      r7,[r6,#4]
        0x00003606:    4604        .F      MOV      r4,r0
        0x00003608:    460d        .F      MOV      r5,r1
        0x0000360a:    4639        9F      MOV      r1,r7
        0x0000360c:    9802        ..      LDR      r0,[sp,#8]
        0x0000360e:    f001fb26    ..&.    BL       __aeabi_fmul ; 0x4c5e
        0x00003612:    f001fd92    ....    BL       __aeabi_f2d ; 0x513a
        0x00003616:    4622        "F      MOV      r2,r4
        0x00003618:    462b        +F      MOV      r3,r5
        0x0000361a:    f001fba7    ....    BL       __aeabi_dadd ; 0x4d6c
        0x0000361e:    f001fdb5    ....    BL       __aeabi_d2f ; 0x518c
        0x00003622:    6831        1h      LDR      r1,[r6,#0]
        0x00003624:    f001fac2    ....    BL       __aeabi_fadd ; 0x4bac
        0x00003628:    6030        0`      STR      r0,[r6,#0]
        0x0000362a:    4639        9F      MOV      r1,r7
        0x0000362c:    9801        ..      LDR      r0,[sp,#4]
        0x0000362e:    f001fabd    ....    BL       __aeabi_fadd ; 0x4bac
        0x00003632:    6070        p`      STR      r0,[r6,#4]
        0x00003634:    b005        ..      ADD      sp,sp,#0x14
        0x00003636:    bdf0        ..      POP      {r4-r7,pc}
    position_z_update
        0x00003638:    b5f0        ..      PUSH     {r4-r7,lr}
        0x0000363a:    b08b        ..      SUB      sp,sp,#0x2c
        0x0000363c:    2400        .$      MOVS     r4,#0
        0x0000363e:    9406        ..      STR      r4,[sp,#0x18]
        0x00003640:    9407        ..      STR      r4,[sp,#0x1c]
        0x00003642:    9408        ..      STR      r4,[sp,#0x20]
        0x00003644:    a0b3        ..      ADR      r0,{pc}+0x2d0 ; 0x3914
        0x00003646:    6800        .h      LDR      r0,[r0,#0]
        0x00003648:    9005        ..      STR      r0,[sp,#0x14]
        0x0000364a:    f7fdfcb5    ....    BL       sys_micro ; 0xfb8
        0x0000364e:    4606        .F      MOV      r6,r0
        0x00003650:    4db1        .M      LDR      r5,[pc,#708] ; [0x3918] = 0x200000dc
        0x00003652:    68e8        .h      LDR      r0,[r5,#0xc]
        0x00003654:    2800        .(      CMP      r0,#0
        0x00003656:    d006        ..      BEQ      0x3666 ; position_z_update + 46
        0x00003658:    1a30        0.      SUBS     r0,r6,r0
        0x0000365a:    f001fd3a    ..:.    BL       __aeabi_ui2f ; 0x50d2
        0x0000365e:    49af        .I      LDR      r1,[pc,#700] ; [0x391c] = 0x49742400
        0x00003660:    f001fb3a    ..:.    BL       __aeabi_fdiv ; 0x4cd8
        0x00003664:    e000        ..      B        0x3668 ; position_z_update + 48
        0x00003666:    2000        .       MOVS     r0,#0
        0x00003668:    9004        ..      STR      r0,[sp,#0x10]
        0x0000366a:    60ee        .`      STR      r6,[r5,#0xc]
        0x0000366c:    4eac        .N      LDR      r6,[pc,#688] ; [0x3920] = 0x2000017c
        0x0000366e:    7a30        0z      LDRB     r0,[r6,#8]
        0x00003670:    2800        .(      CMP      r0,#0
        0x00003672:    d07c        |.      BEQ      0x376e ; position_z_update + 310
        0x00003674:    9804        ..      LDR      r0,[sp,#0x10]
        0x00003676:    0040        @.      LSLS     r0,r0,#1
        0x00003678:    0e00        ..      LSRS     r0,r0,#24
        0x0000367a:    d078        x.      BEQ      0x376e ; position_z_update + 310
        0x0000367c:    21ff        .!      MOVS     r1,#0xff
        0x0000367e:    6828        (h      LDR      r0,[r5,#0]
        0x00003680:    0589        ..      LSLS     r1,r1,#22
        0x00003682:    4288        .B      CMP      r0,r1
        0x00003684:    da08        ..      BGE      0x3698 ; position_z_update + 96
        0x00003686:    f001fd58    ..X.    BL       __aeabi_f2d ; 0x513a
        0x0000368a:    4aa6        .J      LDR      r2,[pc,#664] ; [0x3924] = 0xb851eb85
        0x0000368c:    4ba6        .K      LDR      r3,[pc,#664] ; [0x3928] = 0x3fcb851e
        0x0000368e:    f001fb6d    ..m.    BL       __aeabi_dadd ; 0x4d6c
        0x00003692:    f001fd7b    ..{.    BL       __aeabi_d2f ; 0x518c
        0x00003696:    6028        (`      STR      r0,[r5,#0]
        0x00003698:    489f        .H      LDR      r0,[pc,#636] ; [0x3918] = 0x200000dc
        0x0000369a:    49a4        .I      LDR      r1,[pc,#656] ; [0x392c] = 0x3d4ccccd
        0x0000369c:    6880        .h      LDR      r0,[r0,#8]
        0x0000369e:    4288        .B      CMP      r0,r1
        0x000036a0:    db0a        ..      BLT      0x36b8 ; position_z_update + 128
        0x000036a2:    4d9d        .M      LDR      r5,[pc,#628] ; [0x3918] = 0x200000dc
        0x000036a4:    f001fd49    ..I.    BL       __aeabi_f2d ; 0x513a
        0x000036a8:    4a9e        .J      LDR      r2,[pc,#632] ; [0x3924] = 0xb851eb85
        0x000036aa:    4ba1        .K      LDR      r3,[pc,#644] ; [0x3930] = 0x3f847ae1
        0x000036ac:    4252        RB      RSBS     r2,r2,#0
        0x000036ae:    f001fc01    ....    BL       __aeabi_dsub ; 0x4eb4
        0x000036b2:    f001fd6b    ..k.    BL       __aeabi_d2f ; 0x518c
        0x000036b6:    60a8        .`      STR      r0,[r5,#8]
        0x000036b8:    7970        py      LDRB     r0,[r6,#5]
        0x000036ba:    2800        .(      CMP      r0,#0
        0x000036bc:    d016        ..      BEQ      0x36ec ; position_z_update + 180
        0x000036be:    4893        .H      LDR      r0,[pc,#588] ; [0x390c] = 0x20000790
        0x000036c0:    6881        .h      LDR      r1,[r0,#8]
        0x000036c2:    489c        .H      LDR      r0,[pc,#624] ; [0x3934] = 0x20000134
        0x000036c4:    6940        @i      LDR      r0,[r0,#0x14]
        0x000036c6:    f001fac2    ....    BL       __aeabi_fsub ; 0x4c4e
        0x000036ca:    4601        .F      MOV      r1,r0
        0x000036cc:    4892        .H      LDR      r0,[pc,#584] ; [0x3918] = 0x200000dc
        0x000036ce:    6902        .i      LDR      r2,[r0,#0x10]
        0x000036d0:    0052        R.      LSLS     r2,r2,#1
        0x000036d2:    0e12        ..      LSRS     r2,r2,#24
        0x000036d4:    d100        ..      BNE      0x36d8 ; position_z_update + 160
        0x000036d6:    6101        .a      STR      r1,[r0,#0x10]
        0x000036d8:    6900        .i      LDR      r0,[r0,#0x10]
        0x000036da:    f001fab8    ....    BL       __aeabi_fsub ; 0x4c4e
        0x000036de:    498b        .I      LDR      r1,[pc,#556] ; [0x390c] = 0x20000790
        0x000036e0:    3960        `9      SUBS     r1,r1,#0x60
        0x000036e2:    6809        .h      LDR      r1,[r1,#0]
        0x000036e4:    f001fab3    ....    BL       __aeabi_fsub ; 0x4c4e
        0x000036e8:    9009        ..      STR      r0,[sp,#0x24]
        0x000036ea:    7174        tq      STRB     r4,[r6,#5]
        0x000036ec:    488c        .H      LDR      r0,[pc,#560] ; [0x3920] = 0x2000017c
        0x000036ee:    79c0        .y      LDRB     r0,[r0,#7]
        0x000036f0:    2800        .(      CMP      r0,#0
        0x000036f2:    d04b        K.      BEQ      0x378c ; position_z_update + 340
        0x000036f4:    4d85        .M      LDR      r5,[pc,#532] ; [0x390c] = 0x20000790
        0x000036f6:    4e90        .N      LDR      r6,[pc,#576] ; [0x3938] = 0x200005e4
        0x000036f8:    3d48        H=      SUBS     r5,r5,#0x48
        0x000036fa:    6829        )h      LDR      r1,[r5,#0]
        0x000036fc:    6970        pi      LDR      r0,[r6,#0x14]
        0x000036fe:    f001faa6    ....    BL       __aeabi_fsub ; 0x4c4e
        0x00003702:    9001        ..      STR      r0,[sp,#4]
        0x00003704:    6869        ih      LDR      r1,[r5,#4]
        0x00003706:    69b0        .i      LDR      r0,[r6,#0x18]
        0x00003708:    f001faa1    ....    BL       __aeabi_fsub ; 0x4c4e
        0x0000370c:    9002        ..      STR      r0,[sp,#8]
        0x0000370e:    68a9        .h      LDR      r1,[r5,#8]
        0x00003710:    69f0        .i      LDR      r0,[r6,#0x1c]
        0x00003712:    f001fa9c    ....    BL       __aeabi_fsub ; 0x4c4e
        0x00003716:    9003        ..      STR      r0,[sp,#0xc]
        0x00003718:    2500        .%      MOVS     r5,#0
        0x0000371a:    4f7f        .O      LDR      r7,[pc,#508] ; [0x3918] = 0x200000dc
        0x0000371c:    3714        .7      ADDS     r7,r7,#0x14
        0x0000371e:    2000        .       MOVS     r0,#0
        0x00003720:    00ae        ..      LSLS     r6,r5,#2
        0x00003722:    51b8        .Q      STR      r0,[r7,r6]
        0x00003724:    2400        .$      MOVS     r4,#0
        0x00003726:    a805        ..      ADD      r0,sp,#0x14
        0x00003728:    5740        @W      LDRSB    r0,[r0,r5]
        0x0000372a:    f001fcc7    ....    BL       __aeabi_i2f ; 0x50bc
        0x0000372e:    900a        ..      STR      r0,[sp,#0x28]
        0x00003730:    980a        ..      LDR      r0,[sp,#0x28]
        0x00003732:    9000        ..      STR      r0,[sp,#0]
        0x00003734:    200c        .       MOVS     r0,#0xc
        0x00003736:    4981        .I      LDR      r1,[pc,#516] ; [0x393c] = 0x200005b4
        0x00003738:    4360        `C      MULS     r0,r4,r0
        0x0000373a:    1840        @.      ADDS     r0,r0,r1
        0x0000373c:    1980        ..      ADDS     r0,r0,r6
        0x0000373e:    00a2        ..      LSLS     r2,r4,#2
        0x00003740:    a901        ..      ADD      r1,sp,#4
        0x00003742:    68c0        .h      LDR      r0,[r0,#0xc]
        0x00003744:    5889        .X      LDR      r1,[r1,r2]
        0x00003746:    f001fa8a    ....    BL       __aeabi_fmul ; 0x4c5e
        0x0000374a:    9900        ..      LDR      r1,[sp,#0]
        0x0000374c:    f001fa87    ....    BL       __aeabi_fmul ; 0x4c5e
        0x00003750:    59b9        .Y      LDR      r1,[r7,r6]
        0x00003752:    f001fa2b    ..+.    BL       __aeabi_fadd ; 0x4bac
        0x00003756:    51b8        .Q      STR      r0,[r7,r6]
        0x00003758:    1c64        d.      ADDS     r4,r4,#1
        0x0000375a:    b2e4        ..      UXTB     r4,r4
        0x0000375c:    2c03        .,      CMP      r4,#3
        0x0000375e:    d3e7        ..      BCC      0x3730 ; position_z_update + 248
        0x00003760:    1c6d        m.      ADDS     r5,r5,#1
        0x00003762:    b2ed        ..      UXTB     r5,r5
        0x00003764:    2d03        .-      CMP      r5,#3
        0x00003766:    d3da        ..      BCC      0x371e ; position_z_update + 230
        0x00003768:    4975        uI      LDR      r1,[pc,#468] ; [0x3940] = 0x411ce80a
        0x0000376a:    68b8        .h      LDR      r0,[r7,#8]
        0x0000376c:    e000        ..      B        0x3770 ; position_z_update + 312
        0x0000376e:    e072        r.      B        0x3856 ; position_z_update + 542
        0x00003770:    f001fa1c    ....    BL       __aeabi_fadd ; 0x4bac
        0x00003774:    60b8        .`      STR      r0,[r7,#8]
        0x00003776:    4965        eI      LDR      r1,[pc,#404] ; [0x390c] = 0x20000790
        0x00003778:    3960        `9      SUBS     r1,r1,#0x60
        0x0000377a:    6889        .h      LDR      r1,[r1,#8]
        0x0000377c:    f001fa67    ..g.    BL       __aeabi_fsub ; 0x4c4e
        0x00003780:    4962        bI      LDR      r1,[pc,#392] ; [0x390c] = 0x20000790
        0x00003782:    3954        T9      SUBS     r1,r1,#0x54
        0x00003784:    6088        .`      STR      r0,[r1,#8]
        0x00003786:    4866        fH      LDR      r0,[pc,#408] ; [0x3920] = 0x2000017c
        0x00003788:    2100        .!      MOVS     r1,#0
        0x0000378a:    71c1        .q      STRB     r1,[r0,#7]
        0x0000378c:    4862        bH      LDR      r0,[pc,#392] ; [0x3918] = 0x200000dc
        0x0000378e:    6801        .h      LDR      r1,[r0,#0]
        0x00003790:    9809        ..      LDR      r0,[sp,#0x24]
        0x00003792:    460c        .F      MOV      r4,r1
        0x00003794:    f001fa63    ..c.    BL       __aeabi_fmul ; 0x4c5e
        0x00003798:    4621        !F      MOV      r1,r4
        0x0000379a:    f001fa60    ..`.    BL       __aeabi_fmul ; 0x4c5e
        0x0000379e:    9908        ..      LDR      r1,[sp,#0x20]
        0x000037a0:    f001fa59    ..Y.    BL       __aeabi_frsub ; 0x4c56
        0x000037a4:    9008        ..      STR      r0,[sp,#0x20]
        0x000037a6:    2500        .%      MOVS     r5,#0
        0x000037a8:    2600        .&      MOVS     r6,#0
        0x000037aa:    2400        .$      MOVS     r4,#0
        0x000037ac:    4963        cI      LDR      r1,[pc,#396] ; [0x393c] = 0x200005b4
        0x000037ae:    4628        (F      MOV      r0,r5
        0x000037b0:    220c        ."      MOVS     r2,#0xc
        0x000037b2:    4350        PC      MULS     r0,r2,r0
        0x000037b4:    1847        G.      ADDS     r7,r0,r1
        0x000037b6:    00a0        ..      LSLS     r0,r4,#2
        0x000037b8:    1839        9.      ADDS     r1,r7,r0
        0x000037ba:    68ca        .h      LDR      r2,[r1,#0xc]
        0x000037bc:    a906        ..      ADD      r1,sp,#0x18
        0x000037be:    5809        .X      LDR      r1,[r1,r0]
        0x000037c0:    4610        .F      MOV      r0,r2
        0x000037c2:    f001fa4c    ..L.    BL       __aeabi_fmul ; 0x4c5e
        0x000037c6:    4631        1F      MOV      r1,r6
        0x000037c8:    f001f9f0    ....    BL       __aeabi_fadd ; 0x4bac
        0x000037cc:    4606        .F      MOV      r6,r0
        0x000037ce:    1c64        d.      ADDS     r4,r4,#1
        0x000037d0:    b2e4        ..      UXTB     r4,r4
        0x000037d2:    2c03        .,      CMP      r4,#3
        0x000037d4:    d3ef        ..      BCC      0x37b6 ; position_z_update + 382
        0x000037d6:    a805        ..      ADD      r0,sp,#0x14
        0x000037d8:    5740        @W      LDRSB    r0,[r0,r5]
        0x000037da:    f001fc6f    ..o.    BL       __aeabi_i2f ; 0x50bc
        0x000037de:    4604        .F      MOV      r4,r0
        0x000037e0:    484d        MH      LDR      r0,[pc,#308] ; [0x3918] = 0x200000dc
        0x000037e2:    6881        .h      LDR      r1,[r0,#8]
        0x000037e4:    4630        0F      MOV      r0,r6
        0x000037e6:    f001fa3a    ..:.    BL       __aeabi_fmul ; 0x4c5e
        0x000037ea:    9904        ..      LDR      r1,[sp,#0x10]
        0x000037ec:    f001fa37    ..7.    BL       __aeabi_fmul ; 0x4c5e
        0x000037f0:    4621        !F      MOV      r1,r4
        0x000037f2:    f001fa34    ..4.    BL       __aeabi_fmul ; 0x4c5e
        0x000037f6:    4e45        EN      LDR      r6,[pc,#276] ; [0x390c] = 0x20000790
        0x000037f8:    00ac        ..      LSLS     r4,r5,#2
        0x000037fa:    3e48        H>      SUBS     r6,r6,#0x48
        0x000037fc:    5931        1Y      LDR      r1,[r6,r4]
        0x000037fe:    f001f9d5    ....    BL       __aeabi_fadd ; 0x4bac
        0x00003802:    5130        0Q      STR      r0,[r6,r4]
        0x00003804:    1c6d        m.      ADDS     r5,r5,#1
        0x00003806:    b2ed        ..      UXTB     r5,r5
        0x00003808:    2d03        .-      CMP      r5,#3
        0x0000380a:    d3cd        ..      BCC      0x37a8 ; position_z_update + 368
        0x0000380c:    4634        4F      MOV      r4,r6
        0x0000380e:    3c18        .<      SUBS     r4,r4,#0x18
        0x00003810:    4621        !F      MOV      r1,r4
        0x00003812:    68a2        .h      LDR      r2,[r4,#8]
        0x00003814:    9804        ..      LDR      r0,[sp,#0x10]
        0x00003816:    f7fffed8    ....    BL       inertial_filter_predict ; 0x35ca
        0x0000381a:    4d3f        ?M      LDR      r5,[pc,#252] ; [0x3918] = 0x200000dc
        0x0000381c:    2300        .#      MOVS     r3,#0
        0x0000381e:    6828        (h      LDR      r0,[r5,#0]
        0x00003820:    9000        ..      STR      r0,[sp,#0]
        0x00003822:    4622        "F      MOV      r2,r4
        0x00003824:    9904        ..      LDR      r1,[sp,#0x10]
        0x00003826:    9809        ..      LDR      r0,[sp,#0x24]
        0x00003828:    f7fffe84    ....    BL       inertial_filter_correct ; 0x3534
        0x0000382c:    6868        hh      LDR      r0,[r5,#4]
        0x0000382e:    9000        ..      STR      r0,[sp,#0]
        0x00003830:    4620         F      MOV      r0,r4
        0x00003832:    300c        .0      ADDS     r0,r0,#0xc
        0x00003834:    6880        .h      LDR      r0,[r0,#8]
        0x00003836:    2302        .#      MOVS     r3,#2
        0x00003838:    4622        "F      MOV      r2,r4
        0x0000383a:    9904        ..      LDR      r1,[sp,#0x10]
        0x0000383c:    f7fffe7a    ..z.    BL       inertial_filter_correct ; 0x3534
        0x00003840:    4620         F      MOV      r0,r4
        0x00003842:    3824        $8      SUBS     r0,r0,#0x24
        0x00003844:    6821        !h      LDR      r1,[r4,#0]
        0x00003846:    6081        .`      STR      r1,[r0,#8]
        0x00003848:    6861        ah      LDR      r1,[r4,#4]
        0x0000384a:    6141        Aa      STR      r1,[r0,#0x14]
        0x0000384c:    68a1        .h      LDR      r1,[r4,#8]
        0x0000384e:    6201        .b      STR      r1,[r0,#0x20]
        0x00003850:    4833        3H      LDR      r0,[pc,#204] ; [0x3920] = 0x2000017c
        0x00003852:    2101        .!      MOVS     r1,#1
        0x00003854:    7241        Ar      STRB     r1,[r0,#9]
        0x00003856:    b00b        ..      ADD      sp,sp,#0x2c
        0x00003858:    bdf0        ..      POP      {r4-r7,pc}
    inertial_nav_update
        0x0000385a:    e6ed        ..      B        position_z_update ; 0x3638
    update_home_pos
        0x0000385c:    b570        p.      PUSH     {r4-r6,lr}
        0x0000385e:    4c30        0L      LDR      r4,[pc,#192] ; [0x3920] = 0x2000017c
        0x00003860:    7a20         z      LDRB     r0,[r4,#8]
        0x00003862:    2800        .(      CMP      r0,#0
        0x00003864:    d118        ..      BNE      0x3898 ; update_home_pos + 60
        0x00003866:    79a0        .y      LDRB     r0,[r4,#6]
        0x00003868:    2800        .(      CMP      r0,#0
        0x0000386a:    d015        ..      BEQ      0x3898 ; update_home_pos + 60
        0x0000386c:    4d27        'M      LDR      r5,[pc,#156] ; [0x390c] = 0x20000790
        0x0000386e:    4e31        1N      LDR      r6,[pc,#196] ; [0x3934] = 0x20000134
        0x00003870:    68a9        .h      LDR      r1,[r5,#8]
        0x00003872:    6970        pi      LDR      r0,[r6,#0x14]
        0x00003874:    f001f9eb    ....    BL       __aeabi_fsub ; 0x4c4e
        0x00003878:    4602        .F      MOV      r2,r0
        0x0000387a:    4628        (F      MOV      r0,r5
        0x0000387c:    2300        .#      MOVS     r3,#0
        0x0000387e:    210f        .!      MOVS     r1,#0xf
        0x00003880:    383c        <8      SUBS     r0,r0,#0x3c
        0x00003882:    f7fdfd39    ..9.    BL       Moving_Average ; 0x12f8
        0x00003886:    492f        /I      LDR      r1,[pc,#188] ; [0x3944] = 0x3f4ccccd
        0x00003888:    4288        .B      CMP      r0,r1
        0x0000388a:    da01        ..      BGE      0x3890 ; update_home_pos + 52
        0x0000388c:    2001        .       MOVS     r0,#1
        0x0000388e:    7220         r      STRB     r0,[r4,#8]
        0x00003890:    6970        pi      LDR      r0,[r6,#0x14]
        0x00003892:    60a8        .`      STR      r0,[r5,#8]
        0x00003894:    2000        .       MOVS     r0,#0
        0x00003896:    71a0        .q      STRB     r0,[r4,#6]
        0x00003898:    bd70        p.      POP      {r4-r6,pc}
    get_inav_alt
        0x0000389a:    b510        ..      PUSH     {r4,lr}
        0x0000389c:    481b        .H      LDR      r0,[pc,#108] ; [0x390c] = 0x20000790
        0x0000389e:    492a        *I      LDR      r1,[pc,#168] ; [0x3948] = 0xc2c80000
        0x000038a0:    3884        .8      SUBS     r0,r0,#0x84
        0x000038a2:    6880        .h      LDR      r0,[r0,#8]
        0x000038a4:    f001f9db    ....    BL       __aeabi_fmul ; 0x4c5e
        0x000038a8:    bd10        ..      POP      {r4,pc}
    get_inav_velocity
        0x000038aa:    b5fe        ..      PUSH     {r1-r7,lr}
        0x000038ac:    4604        .F      MOV      r4,r0
        0x000038ae:    4d17        .M      LDR      r5,[pc,#92] ; [0x390c] = 0x20000790
        0x000038b0:    4e26        &N      LDR      r6,[pc,#152] ; [0x394c] = 0x42c80000
        0x000038b2:    3d84        .=      SUBS     r5,r5,#0x84
        0x000038b4:    4631        1F      MOV      r1,r6
        0x000038b6:    68e8        .h      LDR      r0,[r5,#0xc]
        0x000038b8:    f001f9d1    ....    BL       __aeabi_fmul ; 0x4c5e
        0x000038bc:    9000        ..      STR      r0,[sp,#0]
        0x000038be:    4631        1F      MOV      r1,r6
        0x000038c0:    6928        (i      LDR      r0,[r5,#0x10]
        0x000038c2:    f001f9cc    ....    BL       __aeabi_fmul ; 0x4c5e
        0x000038c6:    9001        ..      STR      r0,[sp,#4]
        0x000038c8:    491f        .I      LDR      r1,[pc,#124] ; [0x3948] = 0xc2c80000
        0x000038ca:    6968        hi      LDR      r0,[r5,#0x14]
        0x000038cc:    f001f9c7    ....    BL       __aeabi_fmul ; 0x4c5e
        0x000038d0:    9002        ..      STR      r0,[sp,#8]
        0x000038d2:    4668        hF      MOV      r0,sp
        0x000038d4:    c807        ..      LDM      r0,{r0-r2}
        0x000038d6:    c407        ..      STM      r4!,{r0-r2}
        0x000038d8:    bdfe        ..      POP      {r1-r7,pc}
    get_inav_accel
        0x000038da:    b5fe        ..      PUSH     {r1-r7,lr}
        0x000038dc:    4604        .F      MOV      r4,r0
        0x000038de:    4d0b        .M      LDR      r5,[pc,#44] ; [0x390c] = 0x20000790
        0x000038e0:    4e1a        .N      LDR      r6,[pc,#104] ; [0x394c] = 0x42c80000
        0x000038e2:    3d84        .=      SUBS     r5,r5,#0x84
        0x000038e4:    4631        1F      MOV      r1,r6
        0x000038e6:    69a8        .i      LDR      r0,[r5,#0x18]
        0x000038e8:    f001f9b9    ....    BL       __aeabi_fmul ; 0x4c5e
        0x000038ec:    9000        ..      STR      r0,[sp,#0]
        0x000038ee:    4631        1F      MOV      r1,r6
        0x000038f0:    69e8        .i      LDR      r0,[r5,#0x1c]
        0x000038f2:    f001f9b4    ....    BL       __aeabi_fmul ; 0x4c5e
        0x000038f6:    9001        ..      STR      r0,[sp,#4]
        0x000038f8:    4913        .I      LDR      r1,[pc,#76] ; [0x3948] = 0xc2c80000
        0x000038fa:    6a28        (j      LDR      r0,[r5,#0x20]
        0x000038fc:    f001f9af    ....    BL       __aeabi_fmul ; 0x4c5e
        0x00003900:    9002        ..      STR      r0,[sp,#8]
        0x00003902:    4668        hF      MOV      r0,sp
        0x00003904:    c807        ..      LDM      r0,{r0-r2}
        0x00003906:    c407        ..      STM      r4!,{r0-r2}
        0x00003908:    bdfe        ..      POP      {r1-r7,pc}
    $d
        0x0000390a:    0000        ..      DCW    0
        0x0000390c:    20000790    ...     DCD    536872848
        0x00003910:    40080000    ...@    DCD    1074266112
        0x00003914:    00ff01ff    ....    DCD    16712191
        0x00003918:    200000dc    ...     DCD    536871132
        0x0000391c:    49742400    .$tI    DCD    1232348160
        0x00003920:    2000017c    |..     DCD    536871292
        0x00003924:    b851eb85    ..Q.    DCD    3092376453
        0x00003928:    3fcb851e    ...?    DCD    1070302494
        0x0000392c:    3d4ccccd    ..L=    DCD    1028443341
        0x00003930:    3f847ae1    .z.?    DCD    1065646817
        0x00003934:    20000134    4..     DCD    536871220
        0x00003938:    200005e4    ...     DCD    536872420
        0x0000393c:    200005b4    ...     DCD    536872372
        0x00003940:    411ce80a    ...A    DCD    1092413450
        0x00003944:    3f4ccccd    ..L?    DCD    1061997773
        0x00003948:    c2c80000    ....    DCD    3267887104
        0x0000394c:    42c80000    ...B    DCD    1120403456
    $t
    .text
    I2C_Init
        0x00003950:    b510        ..      PUSH     {r4,lr}
        0x00003952:    f000fa0f    ....    BL       I2C_Open ; 0x3d74
        0x00003956:    bd10        ..      POP      {r4,pc}
    I2C_WriteByte
        0x00003958:    b5f7        ..      PUSH     {r0-r2,r4-r7,lr}
        0x0000395a:    4617        .F      MOV      r7,r2
        0x0000395c:    4d94        .M      LDR      r5,[pc,#592] ; [0x3bb0] = 0x40020000
        0x0000395e:    263c        <&      MOVS     r6,#0x3c
        0x00003960:    2400        .$      MOVS     r4,#0
        0x00003962:    6828        (h      LDR      r0,[r5,#0]
        0x00003964:    43b0        .C      BICS     r0,r0,r6
        0x00003966:    3028        (0      ADDS     r0,r0,#0x28
        0x00003968:    6028        (`      STR      r0,[r5,#0]
        0x0000396a:    6828        (h      LDR      r0,[r5,#0]
        0x0000396c:    0700        ..      LSLS     r0,r0,#28
        0x0000396e:    d5fc        ..      BPL      0x396a ; I2C_WriteByte + 18
        0x00003970:    9800        ..      LDR      r0,[sp,#0]
        0x00003972:    60a8        .`      STR      r0,[r5,#8]
        0x00003974:    6828        (h      LDR      r0,[r5,#0]
        0x00003976:    43b0        .C      BICS     r0,r0,r6
        0x00003978:    3008        .0      ADDS     r0,r0,#8
        0x0000397a:    6028        (`      STR      r0,[r5,#0]
        0x0000397c:    6828        (h      LDR      r0,[r5,#0]
        0x0000397e:    0700        ..      LSLS     r0,r0,#28
        0x00003980:    d5fc        ..      BPL      0x397c ; I2C_WriteByte + 36
        0x00003982:    68e8        .h      LDR      r0,[r5,#0xc]
        0x00003984:    2818        .(      CMP      r0,#0x18
        0x00003986:    d011        ..      BEQ      0x39ac ; I2C_WriteByte + 84
        0x00003988:    2401        .$      MOVS     r4,#1
        0x0000398a:    2c00        .,      CMP      r4,#0
        0x0000398c:    d00b        ..      BEQ      0x39a6 ; I2C_WriteByte + 78
        0x0000398e:    68ea        .h      LDR      r2,[r5,#0xc]
        0x00003990:    4621        !F      MOV      r1,r4
        0x00003992:    a088        ..      ADR      r0,{pc}+0x222 ; 0x3bb4
        0x00003994:    f001fe64    ..d.    BL       __0printf$5 ; 0x5660
        0x00003998:    6828        (h      LDR      r0,[r5,#0]
        0x0000399a:    43b0        .C      BICS     r0,r0,r6
        0x0000399c:    3018        .0      ADDS     r0,r0,#0x18
        0x0000399e:    6028        (`      STR      r0,[r5,#0]
        0x000039a0:    2064        d       MOVS     r0,#0x64
        0x000039a2:    f000f99b    ....    BL       CLK_SysTickDelay ; 0x3cdc
        0x000039a6:    2c00        .,      CMP      r4,#0
        0x000039a8:    d1da        ..      BNE      0x3960 ; I2C_WriteByte + 8
        0x000039aa:    bdfe        ..      POP      {r1-r7,pc}
        0x000039ac:    9801        ..      LDR      r0,[sp,#4]
        0x000039ae:    b2c0        ..      UXTB     r0,r0
        0x000039b0:    60a8        .`      STR      r0,[r5,#8]
        0x000039b2:    6828        (h      LDR      r0,[r5,#0]
        0x000039b4:    43b0        .C      BICS     r0,r0,r6
        0x000039b6:    3008        .0      ADDS     r0,r0,#8
        0x000039b8:    6028        (`      STR      r0,[r5,#0]
        0x000039ba:    6828        (h      LDR      r0,[r5,#0]
        0x000039bc:    0700        ..      LSLS     r0,r0,#28
        0x000039be:    d5fc        ..      BPL      0x39ba ; I2C_WriteByte + 98
        0x000039c0:    68e8        .h      LDR      r0,[r5,#0xc]
        0x000039c2:    2828        ((      CMP      r0,#0x28
        0x000039c4:    d001        ..      BEQ      0x39ca ; I2C_WriteByte + 114
        0x000039c6:    2402        .$      MOVS     r4,#2
        0x000039c8:    e7df        ..      B        0x398a ; I2C_WriteByte + 50
        0x000039ca:    60af        .`      STR      r7,[r5,#8]
        0x000039cc:    6828        (h      LDR      r0,[r5,#0]
        0x000039ce:    43b0        .C      BICS     r0,r0,r6
        0x000039d0:    3008        .0      ADDS     r0,r0,#8
        0x000039d2:    6028        (`      STR      r0,[r5,#0]
        0x000039d4:    6828        (h      LDR      r0,[r5,#0]
        0x000039d6:    0700        ..      LSLS     r0,r0,#28
        0x000039d8:    d5fc        ..      BPL      0x39d4 ; I2C_WriteByte + 124
        0x000039da:    68e8        .h      LDR      r0,[r5,#0xc]
        0x000039dc:    2828        ((      CMP      r0,#0x28
        0x000039de:    d001        ..      BEQ      0x39e4 ; I2C_WriteByte + 140
        0x000039e0:    2404        .$      MOVS     r4,#4
        0x000039e2:    e7d2        ..      B        0x398a ; I2C_WriteByte + 50
        0x000039e4:    6828        (h      LDR      r0,[r5,#0]
        0x000039e6:    43b0        .C      BICS     r0,r0,r6
        0x000039e8:    3018        .0      ADDS     r0,r0,#0x18
        0x000039ea:    6028        (`      STR      r0,[r5,#0]
        0x000039ec:    e7cd        ..      B        0x398a ; I2C_WriteByte + 50
    I2C_ReadByte
        0x000039ee:    b5f3        ..      PUSH     {r0,r1,r4-r7,lr}
        0x000039f0:    b081        ..      SUB      sp,sp,#4
        0x000039f2:    4607        .F      MOV      r7,r0
        0x000039f4:    2000        .       MOVS     r0,#0
        0x000039f6:    9000        ..      STR      r0,[sp,#0]
        0x000039f8:    4d6d        mM      LDR      r5,[pc,#436] ; [0x3bb0] = 0x40020000
        0x000039fa:    263c        <&      MOVS     r6,#0x3c
        0x000039fc:    2400        .$      MOVS     r4,#0
        0x000039fe:    2164        d!      MOVS     r1,#0x64
        0x00003a00:    4873        sH      LDR      r0,[pc,#460] ; [0x3bd0] = 0x40010000
        0x00003a02:    f000fb73    ..s.    BL       TIMER_Delay ; 0x40ec
        0x00003a06:    6828        (h      LDR      r0,[r5,#0]
        0x00003a08:    43b0        .C      BICS     r0,r0,r6
        0x00003a0a:    3028        (0      ADDS     r0,r0,#0x28
        0x00003a0c:    6028        (`      STR      r0,[r5,#0]
        0x00003a0e:    6828        (h      LDR      r0,[r5,#0]
        0x00003a10:    0700        ..      LSLS     r0,r0,#28
        0x00003a12:    d5fc        ..      BPL      0x3a0e ; I2C_ReadByte + 32
        0x00003a14:    60af        .`      STR      r7,[r5,#8]
        0x00003a16:    6828        (h      LDR      r0,[r5,#0]
        0x00003a18:    43b0        .C      BICS     r0,r0,r6
        0x00003a1a:    3008        .0      ADDS     r0,r0,#8
        0x00003a1c:    6028        (`      STR      r0,[r5,#0]
        0x00003a1e:    6828        (h      LDR      r0,[r5,#0]
        0x00003a20:    0700        ..      LSLS     r0,r0,#28
        0x00003a22:    d5fc        ..      BPL      0x3a1e ; I2C_ReadByte + 48
        0x00003a24:    68e8        .h      LDR      r0,[r5,#0xc]
        0x00003a26:    2818        .(      CMP      r0,#0x18
        0x00003a28:    d012        ..      BEQ      0x3a50 ; I2C_ReadByte + 98
        0x00003a2a:    2401        .$      MOVS     r4,#1
        0x00003a2c:    2c00        .,      CMP      r4,#0
        0x00003a2e:    d00b        ..      BEQ      0x3a48 ; I2C_ReadByte + 90
        0x00003a30:    68ea        .h      LDR      r2,[r5,#0xc]
        0x00003a32:    4621        !F      MOV      r1,r4
        0x00003a34:    a05f        _.      ADR      r0,{pc}+0x180 ; 0x3bb4
        0x00003a36:    f001fe13    ....    BL       __0printf$5 ; 0x5660
        0x00003a3a:    6828        (h      LDR      r0,[r5,#0]
        0x00003a3c:    43b0        .C      BICS     r0,r0,r6
        0x00003a3e:    3018        .0      ADDS     r0,r0,#0x18
        0x00003a40:    6028        (`      STR      r0,[r5,#0]
        0x00003a42:    200a        .       MOVS     r0,#0xa
        0x00003a44:    f000f94a    ..J.    BL       CLK_SysTickDelay ; 0x3cdc
        0x00003a48:    2c00        .,      CMP      r4,#0
        0x00003a4a:    d1d7        ..      BNE      0x39fc ; I2C_ReadByte + 14
        0x00003a4c:    9800        ..      LDR      r0,[sp,#0]
        0x00003a4e:    bdfe        ..      POP      {r1-r7,pc}
        0x00003a50:    9802        ..      LDR      r0,[sp,#8]
        0x00003a52:    b2c0        ..      UXTB     r0,r0
        0x00003a54:    60a8        .`      STR      r0,[r5,#8]
        0x00003a56:    6828        (h      LDR      r0,[r5,#0]
        0x00003a58:    43b0        .C      BICS     r0,r0,r6
        0x00003a5a:    3008        .0      ADDS     r0,r0,#8
        0x00003a5c:    6028        (`      STR      r0,[r5,#0]
        0x00003a5e:    6828        (h      LDR      r0,[r5,#0]
        0x00003a60:    0700        ..      LSLS     r0,r0,#28
        0x00003a62:    d5fc        ..      BPL      0x3a5e ; I2C_ReadByte + 112
        0x00003a64:    68e8        .h      LDR      r0,[r5,#0xc]
        0x00003a66:    2828        ((      CMP      r0,#0x28
        0x00003a68:    d001        ..      BEQ      0x3a6e ; I2C_ReadByte + 128
        0x00003a6a:    2403        .$      MOVS     r4,#3
        0x00003a6c:    e7de        ..      B        0x3a2c ; I2C_ReadByte + 62
        0x00003a6e:    6828        (h      LDR      r0,[r5,#0]
        0x00003a70:    43b0        .C      BICS     r0,r0,r6
        0x00003a72:    3028        (0      ADDS     r0,r0,#0x28
        0x00003a74:    6028        (`      STR      r0,[r5,#0]
        0x00003a76:    6828        (h      LDR      r0,[r5,#0]
        0x00003a78:    0700        ..      LSLS     r0,r0,#28
        0x00003a7a:    d5fc        ..      BPL      0x3a76 ; I2C_ReadByte + 136
        0x00003a7c:    68e8        .h      LDR      r0,[r5,#0xc]
        0x00003a7e:    2810        .(      CMP      r0,#0x10
        0x00003a80:    d001        ..      BEQ      0x3a86 ; I2C_ReadByte + 152
        0x00003a82:    2404        .$      MOVS     r4,#4
        0x00003a84:    e7d2        ..      B        0x3a2c ; I2C_ReadByte + 62
        0x00003a86:    4638        8F      MOV      r0,r7
        0x00003a88:    2101        .!      MOVS     r1,#1
        0x00003a8a:    4308        .C      ORRS     r0,r0,r1
        0x00003a8c:    60a8        .`      STR      r0,[r5,#8]
        0x00003a8e:    6828        (h      LDR      r0,[r5,#0]
        0x00003a90:    43b0        .C      BICS     r0,r0,r6
        0x00003a92:    3008        .0      ADDS     r0,r0,#8
        0x00003a94:    6028        (`      STR      r0,[r5,#0]
        0x00003a96:    6828        (h      LDR      r0,[r5,#0]
        0x00003a98:    0700        ..      LSLS     r0,r0,#28
        0x00003a9a:    d5fc        ..      BPL      0x3a96 ; I2C_ReadByte + 168
        0x00003a9c:    68e8        .h      LDR      r0,[r5,#0xc]
        0x00003a9e:    2840        @(      CMP      r0,#0x40
        0x00003aa0:    d001        ..      BEQ      0x3aa6 ; I2C_ReadByte + 184
        0x00003aa2:    2405        .$      MOVS     r4,#5
        0x00003aa4:    e7c2        ..      B        0x3a2c ; I2C_ReadByte + 62
        0x00003aa6:    6828        (h      LDR      r0,[r5,#0]
        0x00003aa8:    43b0        .C      BICS     r0,r0,r6
        0x00003aaa:    3008        .0      ADDS     r0,r0,#8
        0x00003aac:    6028        (`      STR      r0,[r5,#0]
        0x00003aae:    6828        (h      LDR      r0,[r5,#0]
        0x00003ab0:    0700        ..      LSLS     r0,r0,#28
        0x00003ab2:    d5fc        ..      BPL      0x3aae ; I2C_ReadByte + 192
        0x00003ab4:    68a8        .h      LDR      r0,[r5,#8]
        0x00003ab6:    b2c0        ..      UXTB     r0,r0
        0x00003ab8:    9000        ..      STR      r0,[sp,#0]
        0x00003aba:    68e8        .h      LDR      r0,[r5,#0xc]
        0x00003abc:    2858        X(      CMP      r0,#0x58
        0x00003abe:    d001        ..      BEQ      0x3ac4 ; I2C_ReadByte + 214
        0x00003ac0:    2406        .$      MOVS     r4,#6
        0x00003ac2:    e7b3        ..      B        0x3a2c ; I2C_ReadByte + 62
        0x00003ac4:    6828        (h      LDR      r0,[r5,#0]
        0x00003ac6:    43b0        .C      BICS     r0,r0,r6
        0x00003ac8:    3018        .0      ADDS     r0,r0,#0x18
        0x00003aca:    6028        (`      STR      r0,[r5,#0]
        0x00003acc:    e7ae        ..      B        0x3a2c ; I2C_ReadByte + 62
    I2C_SequentialRead
        0x00003ace:    b5ff        ..      PUSH     {r0-r7,lr}
        0x00003ad0:    b081        ..      SUB      sp,sp,#4
        0x00003ad2:    4616        .F      MOV      r6,r2
        0x00003ad4:    4f36        6O      LDR      r7,[pc,#216] ; [0x3bb0] = 0x40020000
        0x00003ad6:    253c        <%      MOVS     r5,#0x3c
        0x00003ad8:    2400        .$      MOVS     r4,#0
        0x00003ada:    6838        8h      LDR      r0,[r7,#0]
        0x00003adc:    43a8        .C      BICS     r0,r0,r5
        0x00003ade:    3028        (0      ADDS     r0,r0,#0x28
        0x00003ae0:    6038        8`      STR      r0,[r7,#0]
        0x00003ae2:    6838        8h      LDR      r0,[r7,#0]
        0x00003ae4:    0700        ..      LSLS     r0,r0,#28
        0x00003ae6:    d5fc        ..      BPL      0x3ae2 ; I2C_SequentialRead + 20
        0x00003ae8:    9801        ..      LDR      r0,[sp,#4]
        0x00003aea:    60b8        .`      STR      r0,[r7,#8]
        0x00003aec:    6838        8h      LDR      r0,[r7,#0]
        0x00003aee:    43a8        .C      BICS     r0,r0,r5
        0x00003af0:    3008        .0      ADDS     r0,r0,#8
        0x00003af2:    6038        8`      STR      r0,[r7,#0]
        0x00003af4:    6838        8h      LDR      r0,[r7,#0]
        0x00003af6:    0700        ..      LSLS     r0,r0,#28
        0x00003af8:    d5fc        ..      BPL      0x3af4 ; I2C_SequentialRead + 38
        0x00003afa:    68f8        .h      LDR      r0,[r7,#0xc]
        0x00003afc:    2818        .(      CMP      r0,#0x18
        0x00003afe:    d00e        ..      BEQ      0x3b1e ; I2C_SequentialRead + 80
        0x00003b00:    2401        .$      MOVS     r4,#1
        0x00003b02:    2c00        .,      CMP      r4,#0
        0x00003b04:    d006        ..      BEQ      0x3b14 ; I2C_SequentialRead + 70
        0x00003b06:    6838        8h      LDR      r0,[r7,#0]
        0x00003b08:    43a8        .C      BICS     r0,r0,r5
        0x00003b0a:    3018        .0      ADDS     r0,r0,#0x18
        0x00003b0c:    6038        8`      STR      r0,[r7,#0]
        0x00003b0e:    2064        d       MOVS     r0,#0x64
        0x00003b10:    f000f8e4    ....    BL       CLK_SysTickDelay ; 0x3cdc
        0x00003b14:    2c00        .,      CMP      r4,#0
        0x00003b16:    d1df        ..      BNE      0x3ad8 ; I2C_SequentialRead + 10
        0x00003b18:    9804        ..      LDR      r0,[sp,#0x10]
        0x00003b1a:    b005        ..      ADD      sp,sp,#0x14
        0x00003b1c:    bdf0        ..      POP      {r4-r7,pc}
        0x00003b1e:    9802        ..      LDR      r0,[sp,#8]
        0x00003b20:    b2c0        ..      UXTB     r0,r0
        0x00003b22:    60b8        .`      STR      r0,[r7,#8]
        0x00003b24:    6838        8h      LDR      r0,[r7,#0]
        0x00003b26:    43a8        .C      BICS     r0,r0,r5
        0x00003b28:    3008        .0      ADDS     r0,r0,#8
        0x00003b2a:    6038        8`      STR      r0,[r7,#0]
        0x00003b2c:    6838        8h      LDR      r0,[r7,#0]
        0x00003b2e:    0700        ..      LSLS     r0,r0,#28
        0x00003b30:    d5fc        ..      BPL      0x3b2c ; I2C_SequentialRead + 94
        0x00003b32:    68f8        .h      LDR      r0,[r7,#0xc]
        0x00003b34:    2828        ((      CMP      r0,#0x28
        0x00003b36:    d001        ..      BEQ      0x3b3c ; I2C_SequentialRead + 110
        0x00003b38:    2403        .$      MOVS     r4,#3
        0x00003b3a:    e7e2        ..      B        0x3b02 ; I2C_SequentialRead + 52
        0x00003b3c:    6838        8h      LDR      r0,[r7,#0]
        0x00003b3e:    43a8        .C      BICS     r0,r0,r5
        0x00003b40:    3028        (0      ADDS     r0,r0,#0x28
        0x00003b42:    6038        8`      STR      r0,[r7,#0]
        0x00003b44:    6838        8h      LDR      r0,[r7,#0]
        0x00003b46:    0700        ..      LSLS     r0,r0,#28
        0x00003b48:    d5fc        ..      BPL      0x3b44 ; I2C_SequentialRead + 118
        0x00003b4a:    68f8        .h      LDR      r0,[r7,#0xc]
        0x00003b4c:    2810        .(      CMP      r0,#0x10
        0x00003b4e:    d001        ..      BEQ      0x3b54 ; I2C_SequentialRead + 134
        0x00003b50:    2404        .$      MOVS     r4,#4
        0x00003b52:    e7d6        ..      B        0x3b02 ; I2C_SequentialRead + 52
        0x00003b54:    9801        ..      LDR      r0,[sp,#4]
        0x00003b56:    2101        .!      MOVS     r1,#1
        0x00003b58:    4308        .C      ORRS     r0,r0,r1
        0x00003b5a:    60b8        .`      STR      r0,[r7,#8]
        0x00003b5c:    6838        8h      LDR      r0,[r7,#0]
        0x00003b5e:    43a8        .C      BICS     r0,r0,r5
        0x00003b60:    3008        .0      ADDS     r0,r0,#8
        0x00003b62:    6038        8`      STR      r0,[r7,#0]
        0x00003b64:    6838        8h      LDR      r0,[r7,#0]
        0x00003b66:    0700        ..      LSLS     r0,r0,#28
        0x00003b68:    d5fc        ..      BPL      0x3b64 ; I2C_SequentialRead + 150
        0x00003b6a:    68f8        .h      LDR      r0,[r7,#0xc]
        0x00003b6c:    2840        @(      CMP      r0,#0x40
        0x00003b6e:    d001        ..      BEQ      0x3b74 ; I2C_SequentialRead + 166
        0x00003b70:    2405        .$      MOVS     r4,#5
        0x00003b72:    e7c6        ..      B        0x3b02 ; I2C_SequentialRead + 52
        0x00003b74:    2000        .       MOVS     r0,#0
        0x00003b76:    9a04        ..      LDR      r2,[sp,#0x10]
        0x00003b78:    1e52        R.      SUBS     r2,r2,#1
        0x00003b7a:    e009        ..      B        0x3b90 ; I2C_SequentialRead + 194
        0x00003b7c:    6839        9h      LDR      r1,[r7,#0]
        0x00003b7e:    43a9        .C      BICS     r1,r1,r5
        0x00003b80:    310c        .1      ADDS     r1,r1,#0xc
        0x00003b82:    6039        9`      STR      r1,[r7,#0]
        0x00003b84:    6839        9h      LDR      r1,[r7,#0]
        0x00003b86:    0709        ..      LSLS     r1,r1,#28
        0x00003b88:    d5fc        ..      BPL      0x3b84 ; I2C_SequentialRead + 182
        0x00003b8a:    68b9        .h      LDR      r1,[r7,#8]
        0x00003b8c:    5431        1T      STRB     r1,[r6,r0]
        0x00003b8e:    1c40        @.      ADDS     r0,r0,#1
        0x00003b90:    4290        .B      CMP      r0,r2
        0x00003b92:    d3f3        ..      BCC      0x3b7c ; I2C_SequentialRead + 174
        0x00003b94:    6839        9h      LDR      r1,[r7,#0]
        0x00003b96:    43a9        .C      BICS     r1,r1,r5
        0x00003b98:    3108        .1      ADDS     r1,r1,#8
        0x00003b9a:    6039        9`      STR      r1,[r7,#0]
        0x00003b9c:    6839        9h      LDR      r1,[r7,#0]
        0x00003b9e:    0709        ..      LSLS     r1,r1,#28
        0x00003ba0:    d5fc        ..      BPL      0x3b9c ; I2C_SequentialRead + 206
        0x00003ba2:    68b9        .h      LDR      r1,[r7,#8]
        0x00003ba4:    5431        1T      STRB     r1,[r6,r0]
        0x00003ba6:    6838        8h      LDR      r0,[r7,#0]
        0x00003ba8:    43a8        .C      BICS     r0,r0,r5
        0x00003baa:    3018        .0      ADDS     r0,r0,#0x18
        0x00003bac:    6038        8`      STR      r0,[r7,#0]
        0x00003bae:    e7a8        ..      B        0x3b02 ; I2C_SequentialRead + 52
    $d
        0x00003bb0:    40020000    ...@    DCD    1073872896
        0x00003bb4:    6f727245    Erro    DCD    1869771333
        0x00003bb8:    25203a72    r: %    DCD    622869106
        0x00003bbc:    20aca364    d..     DCD    548184932
        0x00003bc0:    20433249    I2C     DCD    541274697
        0x00003bc4:    74617473    stat    DCD    1952543859
        0x00003bc8:    203a7375    us:     DCD    540701557
        0x00003bcc:    000a5825    %X..    DCD    677925
        0x00003bd0:    40010000    ...@    DCD    1073807360
    $t
    .text
    uart_console_init
        0x00003bd4:    b510        ..      PUSH     {r4,lr}
        0x00003bd6:    f000faf1    ....    BL       UART_Open ; 0x41bc
        0x00003bda:    bd10        ..      POP      {r4,pc}
    .text
    SPI1_Init
        0x00003bdc:    b508        ..      PUSH     {r3,lr}
        0x00003bde:    4828        (H      LDR      r0,[pc,#160] ; [0x3c80] = 0x186a0
        0x00003be0:    9000        ..      STR      r0,[sp,#0]
        0x00003be2:    2308        .#      MOVS     r3,#8
        0x00003be4:    2204        ."      MOVS     r2,#4
        0x00003be6:    2100        .!      MOVS     r1,#0
        0x00003be8:    4826        &H      LDR      r0,[pc,#152] ; [0x3c84] = 0x40030100
        0x00003bea:    f000fa17    ....    BL       SPI_Open ; 0x401c
        0x00003bee:    4926        &I      LDR      r1,[pc,#152] ; [0x3c88] = 0xc350
        0x00003bf0:    4826        &H      LDR      r0,[pc,#152] ; [0x3c8c] = 0x40010000
        0x00003bf2:    f000fa7b    ..{.    BL       TIMER_Delay ; 0x40ec
        0x00003bf6:    bd08        ..      POP      {r3,pc}
    SPI_WriteReg
        0x00003bf8:    b570        p.      PUSH     {r4-r6,lr}
        0x00003bfa:    460d        .F      MOV      r5,r1
        0x00003bfc:    4c21        !L      LDR      r4,[pc,#132] ; [0x3c84] = 0x40030100
        0x00003bfe:    2201        ."      MOVS     r2,#1
        0x00003c00:    60a2        .`      STR      r2,[r4,#8]
        0x00003c02:    f001fd1d    ....    BL       SPI_RW ; 0x5640
        0x00003c06:    4628        (F      MOV      r0,r5
        0x00003c08:    f001fd1a    ....    BL       SPI_RW ; 0x5640
        0x00003c0c:    2000        .       MOVS     r0,#0
        0x00003c0e:    60a0        .`      STR      r0,[r4,#8]
        0x00003c10:    bd70        p.      POP      {r4-r6,pc}
    SPI_WriteBuf
        0x00003c12:    b5f8        ..      PUSH     {r3-r7,lr}
        0x00003c14:    460d        .F      MOV      r5,r1
        0x00003c16:    4616        .F      MOV      r6,r2
        0x00003c18:    4f1a        .O      LDR      r7,[pc,#104] ; [0x3c84] = 0x40030100
        0x00003c1a:    2101        .!      MOVS     r1,#1
        0x00003c1c:    60b9        .`      STR      r1,[r7,#8]
        0x00003c1e:    f001fd0f    ....    BL       SPI_RW ; 0x5640
        0x00003c22:    2400        .$      MOVS     r4,#0
        0x00003c24:    e005        ..      B        0x3c32 ; SPI_WriteBuf + 32
        0x00003c26:    7828        (x      LDRB     r0,[r5,#0]
        0x00003c28:    1c6d        m.      ADDS     r5,r5,#1
        0x00003c2a:    f001fd09    ....    BL       SPI_RW ; 0x5640
        0x00003c2e:    1c64        d.      ADDS     r4,r4,#1
        0x00003c30:    b2e4        ..      UXTB     r4,r4
        0x00003c32:    42b4        .B      CMP      r4,r6
        0x00003c34:    d3f7        ..      BCC      0x3c26 ; SPI_WriteBuf + 20
        0x00003c36:    2000        .       MOVS     r0,#0
        0x00003c38:    60b8        .`      STR      r0,[r7,#8]
        0x00003c3a:    bdf8        ..      POP      {r3-r7,pc}
    SPI_ReadReg
        0x00003c3c:    b510        ..      PUSH     {r4,lr}
        0x00003c3e:    4c11        .L      LDR      r4,[pc,#68] ; [0x3c84] = 0x40030100
        0x00003c40:    2101        .!      MOVS     r1,#1
        0x00003c42:    60a1        .`      STR      r1,[r4,#8]
        0x00003c44:    f001fcfc    ....    BL       SPI_RW ; 0x5640
        0x00003c48:    2000        .       MOVS     r0,#0
        0x00003c4a:    f001fcf9    ....    BL       SPI_RW ; 0x5640
        0x00003c4e:    2100        .!      MOVS     r1,#0
        0x00003c50:    60a1        .`      STR      r1,[r4,#8]
        0x00003c52:    bd10        ..      POP      {r4,pc}
    SPI_ReadBuf
        0x00003c54:    b5f8        ..      PUSH     {r3-r7,lr}
        0x00003c56:    460d        .F      MOV      r5,r1
        0x00003c58:    4616        .F      MOV      r6,r2
        0x00003c5a:    4f0a        .O      LDR      r7,[pc,#40] ; [0x3c84] = 0x40030100
        0x00003c5c:    2101        .!      MOVS     r1,#1
        0x00003c5e:    60b9        .`      STR      r1,[r7,#8]
        0x00003c60:    f001fcee    ....    BL       SPI_RW ; 0x5640
        0x00003c64:    2400        .$      MOVS     r4,#0
        0x00003c66:    e005        ..      B        0x3c74 ; SPI_ReadBuf + 32
        0x00003c68:    2000        .       MOVS     r0,#0
        0x00003c6a:    f001fce9    ....    BL       SPI_RW ; 0x5640
        0x00003c6e:    5528        (U      STRB     r0,[r5,r4]
        0x00003c70:    1c64        d.      ADDS     r4,r4,#1
        0x00003c72:    b2e4        ..      UXTB     r4,r4
        0x00003c74:    42b4        .B      CMP      r4,r6
        0x00003c76:    d3f7        ..      BCC      0x3c68 ; SPI_ReadBuf + 20
        0x00003c78:    2000        .       MOVS     r0,#0
        0x00003c7a:    60b8        .`      STR      r0,[r7,#8]
        0x00003c7c:    bdf8        ..      POP      {r3-r7,pc}
    $d
        0x00003c7e:    0000        ..      DCW    0
        0x00003c80:    000186a0    ....    DCD    100000
        0x00003c84:    40030100    ...@    DCD    1073938688
        0x00003c88:    0000c350    P...    DCD    50000
        0x00003c8c:    40010000    ...@    DCD    1073807360
    $t
    .text
    CLK_GetHCLKFreq
        0x00003c90:    b510        ..      PUSH     {r4,lr}
        0x00003c92:    f7fdfa3d    ..=.    BL       SystemCoreClockUpdate ; 0x1110
        0x00003c96:    4831        1H      LDR      r0,[pc,#196] ; [0x3d5c] = 0x2000001c
        0x00003c98:    6800        .h      LDR      r0,[r0,#0]
        0x00003c9a:    bd10        ..      POP      {r4,pc}
    CLK_SetModuleClock
        0x00003c9c:    b510        ..      PUSH     {r4,lr}
        0x00003c9e:    0e42        B.      LSRS     r2,r0,#25
        0x00003ca0:    0712        ..      LSLS     r2,r2,#28
        0x00003ca2:    d00d        ..      BEQ      0x3cc0 ; CLK_SetModuleClock + 36
        0x00003ca4:    0042        B.      LSLS     r2,r0,#1
        0x00003ca6:    0f92        ..      LSRS     r2,r2,#30
        0x00003ca8:    4b2d        -K      LDR      r3,[pc,#180] ; [0x3d60] = 0x50000210
        0x00003caa:    0092        ..      LSLS     r2,r2,#2
        0x00003cac:    18d2        ..      ADDS     r2,r2,r3
        0x00003cae:    6813        .h      LDR      r3,[r2,#0]
        0x00003cb0:    00c4        ..      LSLS     r4,r0,#3
        0x00003cb2:    0f24        $.      LSRS     r4,r4,#28
        0x00003cb4:    01c0        ..      LSLS     r0,r0,#7
        0x00003cb6:    0ec0        ..      LSRS     r0,r0,#27
        0x00003cb8:    4084        .@      LSLS     r4,r4,r0
        0x00003cba:    43a3        .C      BICS     r3,r3,r4
        0x00003cbc:    430b        .C      ORRS     r3,r3,r1
        0x00003cbe:    6013        .`      STR      r3,[r2,#0]
        0x00003cc0:    bd10        ..      POP      {r4,pc}
    CLK_EnableModuleClock
        0x00003cc2:    0fc1        ..      LSRS     r1,r0,#31
        0x00003cc4:    008a        ..      LSLS     r2,r1,#2
        0x00003cc6:    4926        &I      LDR      r1,[pc,#152] ; [0x3d60] = 0x50000210
        0x00003cc8:    3910        .9      SUBS     r1,r1,#0x10
        0x00003cca:    1851        Q.      ADDS     r1,r2,r1
        0x00003ccc:    684a        Jh      LDR      r2,[r1,#4]
        0x00003cce:    06c3        ..      LSLS     r3,r0,#27
        0x00003cd0:    0edb        ..      LSRS     r3,r3,#27
        0x00003cd2:    2001        .       MOVS     r0,#1
        0x00003cd4:    4098        .@      LSLS     r0,r0,r3
        0x00003cd6:    4302        .C      ORRS     r2,r2,r0
        0x00003cd8:    604a        J`      STR      r2,[r1,#4]
        0x00003cda:    4770        pG      BX       lr
    CLK_SysTickDelay
        0x00003cdc:    4921        !I      LDR      r1,[pc,#132] ; [0x3d64] = 0x20000020
        0x00003cde:    6809        .h      LDR      r1,[r1,#0]
        0x00003ce0:    4348        HC      MULS     r0,r1,r0
        0x00003ce2:    4921        !I      LDR      r1,[pc,#132] ; [0x3d68] = 0xe000e000
        0x00003ce4:    6148        Ha      STR      r0,[r1,#0x14]
        0x00003ce6:    2200        ."      MOVS     r2,#0
        0x00003ce8:    618a        .a      STR      r2,[r1,#0x18]
        0x00003cea:    2005        .       MOVS     r0,#5
        0x00003cec:    6108        .a      STR      r0,[r1,#0x10]
        0x00003cee:    6908        .i      LDR      r0,[r1,#0x10]
        0x00003cf0:    03c0        ..      LSLS     r0,r0,#15
        0x00003cf2:    d5fc        ..      BPL      0x3cee ; CLK_SysTickDelay + 18
        0x00003cf4:    610a        .a      STR      r2,[r1,#0x10]
        0x00003cf6:    4770        pG      BX       lr
    CLK_InitHIRC
        0x00003cf8:    b510        ..      PUSH     {r4,lr}
        0x00003cfa:    4819        .H      LDR      r0,[pc,#100] ; [0x3d60] = 0x50000210
        0x00003cfc:    3810        .8      SUBS     r0,r0,#0x10
        0x00003cfe:    6801        .h      LDR      r1,[r0,#0]
        0x00003d00:    220f        ."      MOVS     r2,#0xf
        0x00003d02:    0312        ..      LSLS     r2,r2,#12
        0x00003d04:    4391        .C      BICS     r1,r1,r2
        0x00003d06:    6001        .`      STR      r1,[r0,#0]
        0x00003d08:    6801        .h      LDR      r1,[r0,#0]
        0x00003d0a:    2203        ."      MOVS     r2,#3
        0x00003d0c:    0392        ..      LSLS     r2,r2,#14
        0x00003d0e:    4311        .C      ORRS     r1,r1,r2
        0x00003d10:    6001        .`      STR      r1,[r0,#0]
        0x00003d12:    1191        ..      ASRS     r1,r2,#6
        0x00003d14:    4a15        .J      LDR      r2,[pc,#84] ; [0x3d6c] = 0x50000040
        0x00003d16:    6091        .`      STR      r1,[r2,#8]
        0x00003d18:    4915        .I      LDR      r1,[pc,#84] ; [0x3d70] = 0x5000c000
        0x00003d1a:    680a        .h      LDR      r2,[r1,#0]
        0x00003d1c:    2401        .$      MOVS     r4,#1
        0x00003d1e:    4322        "C      ORRS     r2,r2,r4
        0x00003d20:    600a        .`      STR      r2,[r1,#0]
        0x00003d22:    2204        ."      MOVS     r2,#4
        0x00003d24:    60ca        .`      STR      r2,[r1,#0xc]
        0x00003d26:    2300        .#      MOVS     r3,#0
        0x00003d28:    604b        K`      STR      r3,[r1,#4]
        0x00003d2a:    610c        .a      STR      r4,[r1,#0x10]
        0x00003d2c:    690a        .i      LDR      r2,[r1,#0x10]
        0x00003d2e:    07d2        ..      LSLS     r2,r2,#31
        0x00003d30:    d1fc        ..      BNE      0x3d2c ; CLK_InitHIRC + 52
        0x00003d32:    688c        .h      LDR      r4,[r1,#8]
        0x00003d34:    22ff        ."      MOVS     r2,#0xff
        0x00003d36:    0412        ..      LSLS     r2,r2,#16
        0x00003d38:    4611        .F      MOV      r1,r2
        0x00003d3a:    43a1        .C      BICS     r1,r1,r4
        0x00003d3c:    6804        .h      LDR      r4,[r0,#0]
        0x00003d3e:    4394        .C      BICS     r4,r4,r2
        0x00003d40:    6004        .`      STR      r4,[r0,#0]
        0x00003d42:    6802        .h      LDR      r2,[r0,#0]
        0x00003d44:    430a        .C      ORRS     r2,r2,r1
        0x00003d46:    6002        .`      STR      r2,[r0,#0]
        0x00003d48:    6801        .h      LDR      r1,[r0,#0]
        0x00003d4a:    22ff        ."      MOVS     r2,#0xff
        0x00003d4c:    0092        ..      LSLS     r2,r2,#2
        0x00003d4e:    4391        .C      BICS     r1,r1,r2
        0x00003d50:    6001        .`      STR      r1,[r0,#0]
        0x00003d52:    68c1        .h      LDR      r1,[r0,#0xc]
        0x00003d54:    06c9        ..      LSLS     r1,r1,#27
        0x00003d56:    d5fc        ..      BPL      0x3d52 ; CLK_InitHIRC + 90
        0x00003d58:    6103        .a      STR      r3,[r0,#0x10]
        0x00003d5a:    bd10        ..      POP      {r4,pc}
    $d
        0x00003d5c:    2000001c    ...     DCD    536870940
        0x00003d60:    50000210    ...P    DCD    1342177808
        0x00003d64:    20000020     ..     DCD    536870944
        0x00003d68:    e000e000    ....    DCD    3758153728
        0x00003d6c:    50000040    @..P    DCD    1342177344
        0x00003d70:    5000c000    ...P    DCD    1342226432
    $t
    .text
    I2C_Open
        0x00003d74:    b570        p.      PUSH     {r4-r6,lr}
        0x00003d76:    4604        .F      MOV      r4,r0
        0x00003d78:    4d0b        .M      LDR      r5,[pc,#44] ; [0x3da8] = 0x2000001c
        0x00003d7a:    0088        ..      LSLS     r0,r1,#2
        0x00003d7c:    682a        *h      LDR      r2,[r5,#0]
        0x00003d7e:    1852        R.      ADDS     r2,r2,r1
        0x00003d80:    4601        .F      MOV      r1,r0
        0x00003d82:    4610        .F      MOV      r0,r2
        0x00003d84:    f000fed6    ....    BL       __aeabi_uidiv ; 0x4b34
        0x00003d88:    1e40        @.      SUBS     r0,r0,#1
        0x00003d8a:    28ff        .(      CMP      r0,#0xff
        0x00003d8c:    d900        ..      BLS      0x3d90 ; I2C_Open + 28
        0x00003d8e:    20ff        .       MOVS     r0,#0xff
        0x00003d90:    6120         a      STR      r0,[r4,#0x10]
        0x00003d92:    6821        !h      LDR      r1,[r4,#0]
        0x00003d94:    2240        @"      MOVS     r2,#0x40
        0x00003d96:    4311        .C      ORRS     r1,r1,r2
        0x00003d98:    6021        !`      STR      r1,[r4,#0]
        0x00003d9a:    1c40        @.      ADDS     r0,r0,#1
        0x00003d9c:    0081        ..      LSLS     r1,r0,#2
        0x00003d9e:    6828        (h      LDR      r0,[r5,#0]
        0x00003da0:    f000fec8    ....    BL       __aeabi_uidiv ; 0x4b34
        0x00003da4:    bd70        p.      POP      {r4-r6,pc}
    $d
        0x00003da6:    0000        ..      DCW    0
        0x00003da8:    2000001c    ...     DCD    536870940
    $t
    .text
    PWM_ConfigOutputChannel
        0x00003dac:    b5ff        ..      PUSH     {r0-r7,lr}
        0x00003dae:    b083        ..      SUB      sp,sp,#0xc
        0x00003db0:    4611        .F      MOV      r1,r2
        0x00003db2:    461c        .F      MOV      r4,r3
        0x00003db4:    4849        IH      LDR      r0,[pc,#292] ; [0x3edc] = 0x2000001c
        0x00003db6:    6800        .h      LDR      r0,[r0,#0]
        0x00003db8:    9002        ..      STR      r0,[sp,#8]
        0x00003dba:    f000febb    ....    BL       __aeabi_uidiv ; 0x4b34
        0x00003dbe:    9001        ..      STR      r0,[sp,#4]
        0x00003dc0:    2601        .&      MOVS     r6,#1
        0x00003dc2:    27ff        .'      MOVS     r7,#0xff
        0x00003dc4:    4d46        FM      LDR      r5,[pc,#280] ; [0x3ee0] = 0xffff
        0x00003dc6:    e01c        ..      B        0x3e02 ; PWM_ConfigOutputChannel + 86
        0x00003dc8:    4631        1F      MOV      r1,r6
        0x00003dca:    9801        ..      LDR      r0,[sp,#4]
        0x00003dcc:    f000feb2    ....    BL       __aeabi_uidiv ; 0x4b34
        0x00003dd0:    2101        .!      MOVS     r1,#1
        0x00003dd2:    0609        ..      LSLS     r1,r1,#24
        0x00003dd4:    4288        .B      CMP      r0,r1
        0x00003dd6:    d812        ..      BHI      0x3dfe ; PWM_ConfigOutputChannel + 82
        0x00003dd8:    1941        A.      ADDS     r1,r0,r5
        0x00003dda:    0209        ..      LSLS     r1,r1,#8
        0x00003ddc:    0e0f        ..      LSRS     r7,r1,#24
        0x00003dde:    2f03        ./      CMP      r7,#3
        0x00003de0:    d200        ..      BCS      0x3de4 ; PWM_ConfigOutputChannel + 56
        0x00003de2:    2702        .'      MOVS     r7,#2
        0x00003de4:    4639        9F      MOV      r1,r7
        0x00003de6:    f000fea5    ....    BL       __aeabi_uidiv ; 0x4b34
        0x00003dea:    2101        .!      MOVS     r1,#1
        0x00003dec:    0409        ..      LSLS     r1,r1,#16
        0x00003dee:    4288        .B      CMP      r0,r1
        0x00003df0:    d805        ..      BHI      0x3dfe ; PWM_ConfigOutputChannel + 82
        0x00003df2:    2801        .(      CMP      r0,#1
        0x00003df4:    d001        ..      BEQ      0x3dfa ; PWM_ConfigOutputChannel + 78
        0x00003df6:    b285        ..      UXTH     r5,r0
        0x00003df8:    e005        ..      B        0x3e06 ; PWM_ConfigOutputChannel + 90
        0x00003dfa:    2501        .%      MOVS     r5,#1
        0x00003dfc:    e003        ..      B        0x3e06 ; PWM_ConfigOutputChannel + 90
        0x00003dfe:    0670        p.      LSLS     r0,r6,#25
        0x00003e00:    0e06        ..      LSRS     r6,r0,#24
        0x00003e02:    2e11        ..      CMP      r6,#0x11
        0x00003e04:    d3e0        ..      BCC      0x3dc8 ; PWM_ConfigOutputChannel + 28
        0x00003e06:    4639        9F      MOV      r1,r7
        0x00003e08:    4371        qC      MULS     r1,r6,r1
        0x00003e0a:    4369        iC      MULS     r1,r5,r1
        0x00003e0c:    9802        ..      LDR      r0,[sp,#8]
        0x00003e0e:    f000fe91    ....    BL       __aeabi_uidiv ; 0x4b34
        0x00003e12:    9000        ..      STR      r0,[sp,#0]
        0x00003e14:    1e7f        ..      SUBS     r7,r7,#1
        0x00003e16:    b2ff        ..      UXTB     r7,r7
        0x00003e18:    1e6d        m.      SUBS     r5,r5,#1
        0x00003e1a:    b2ad        ..      UXTH     r5,r5
        0x00003e1c:    2e01        ..      CMP      r6,#1
        0x00003e1e:    d037        7.      BEQ      0x3e90 ; PWM_ConfigOutputChannel + 228
        0x00003e20:    2e02        ..      CMP      r6,#2
        0x00003e22:    d037        7.      BEQ      0x3e94 ; PWM_ConfigOutputChannel + 232
        0x00003e24:    2e04        ..      CMP      r6,#4
        0x00003e26:    d037        7.      BEQ      0x3e98 ; PWM_ConfigOutputChannel + 236
        0x00003e28:    2e08        ..      CMP      r6,#8
        0x00003e2a:    d037        7.      BEQ      0x3e9c ; PWM_ConfigOutputChannel + 240
        0x00003e2c:    2103        .!      MOVS     r1,#3
        0x00003e2e:    4a2d        -J      LDR      r2,[pc,#180] ; [0x3ee4] = 0x40040000
        0x00003e30:    6813        .h      LDR      r3,[r2,#0]
        0x00003e32:    9804        ..      LDR      r0,[sp,#0x10]
        0x00003e34:    26ff        .&      MOVS     r6,#0xff
        0x00003e36:    0840        @.      LSRS     r0,r0,#1
        0x00003e38:    00c0        ..      LSLS     r0,r0,#3
        0x00003e3a:    4086        .@      LSLS     r6,r6,r0
        0x00003e3c:    43b3        .C      BICS     r3,r3,r6
        0x00003e3e:    4087        .@      LSLS     r7,r7,r0
        0x00003e40:    433b        ;C      ORRS     r3,r3,r7
        0x00003e42:    6013        .`      STR      r3,[r2,#0]
        0x00003e44:    6853        Sh      LDR      r3,[r2,#4]
        0x00003e46:    9804        ..      LDR      r0,[sp,#0x10]
        0x00003e48:    2607        .&      MOVS     r6,#7
        0x00003e4a:    0080        ..      LSLS     r0,r0,#2
        0x00003e4c:    4086        .@      LSLS     r6,r6,r0
        0x00003e4e:    43b3        .C      BICS     r3,r3,r6
        0x00003e50:    4081        .@      LSLS     r1,r1,r0
        0x00003e52:    430b        .C      ORRS     r3,r3,r1
        0x00003e54:    6053        S`      STR      r3,[r2,#4]
        0x00003e56:    6891        .h      LDR      r1,[r2,#8]
        0x00003e58:    2308        .#      MOVS     r3,#8
        0x00003e5a:    4083        .@      LSLS     r3,r3,r0
        0x00003e5c:    4319        .C      ORRS     r1,r1,r3
        0x00003e5e:    6091        .`      STR      r1,[r2,#8]
        0x00003e60:    4920         I      LDR      r1,[pc,#128] ; [0x3ee4] = 0x40040000
        0x00003e62:    3140        @1      ADDS     r1,r1,#0x40
        0x00003e64:    68ca        .h      LDR      r2,[r1,#0xc]
        0x00003e66:    0052        R.      LSLS     r2,r2,#1
        0x00003e68:    0852        R.      LSRS     r2,r2,#1
        0x00003e6a:    60ca        .`      STR      r2,[r1,#0xc]
        0x00003e6c:    9903        ..      LDR      r1,[sp,#0xc]
        0x00003e6e:    2700        .'      MOVS     r7,#0
        0x00003e70:    1846        F.      ADDS     r6,r0,r1
        0x00003e72:    2c00        .,      CMP      r4,#0
        0x00003e74:    d014        ..      BEQ      0x3ea0 ; PWM_ConfigOutputChannel + 244
        0x00003e76:    1c68        h.      ADDS     r0,r5,#1
        0x00003e78:    4360        `C      MULS     r0,r4,r0
        0x00003e7a:    2164        d!      MOVS     r1,#0x64
        0x00003e7c:    f000fe5a    ..Z.    BL       __aeabi_uidiv ; 0x4b34
        0x00003e80:    1e40        @.      SUBS     r0,r0,#1
        0x00003e82:    62f0        .b      STR      r0,[r6,#0x2c]
        0x00003e84:    2c00        .,      CMP      r4,#0
        0x00003e86:    d00d        ..      BEQ      0x3ea4 ; PWM_ConfigOutputChannel + 248
        0x00003e88:    60f5        .`      STR      r5,[r6,#0xc]
        0x00003e8a:    9800        ..      LDR      r0,[sp,#0]
        0x00003e8c:    b007        ..      ADD      sp,sp,#0x1c
        0x00003e8e:    bdf0        ..      POP      {r4-r7,pc}
        0x00003e90:    2104        .!      MOVS     r1,#4
        0x00003e92:    e7cc        ..      B        0x3e2e ; PWM_ConfigOutputChannel + 130
        0x00003e94:    2100        .!      MOVS     r1,#0
        0x00003e96:    e7ca        ..      B        0x3e2e ; PWM_ConfigOutputChannel + 130
        0x00003e98:    2101        .!      MOVS     r1,#1
        0x00003e9a:    e7c8        ..      B        0x3e2e ; PWM_ConfigOutputChannel + 130
        0x00003e9c:    2102        .!      MOVS     r1,#2
        0x00003e9e:    e7c6        ..      B        0x3e2e ; PWM_ConfigOutputChannel + 130
        0x00003ea0:    62f7        .b      STR      r7,[r6,#0x2c]
        0x00003ea2:    e7ef        ..      B        0x3e84 ; PWM_ConfigOutputChannel + 216
        0x00003ea4:    60f7        .`      STR      r7,[r6,#0xc]
        0x00003ea6:    e7f0        ..      B        0x3e8a ; PWM_ConfigOutputChannel + 222
    PWM_Start
        0x00003ea8:    b530        0.      PUSH     {r4,r5,lr}
        0x00003eaa:    2200        ."      MOVS     r2,#0
        0x00003eac:    2000        .       MOVS     r0,#0
        0x00003eae:    2401        .$      MOVS     r4,#1
        0x00003eb0:    4623        #F      MOV      r3,r4
        0x00003eb2:    4083        .@      LSLS     r3,r3,r0
        0x00003eb4:    420b        .B      TST      r3,r1
        0x00003eb6:    d003        ..      BEQ      0x3ec0 ; PWM_Start + 24
        0x00003eb8:    0085        ..      LSLS     r5,r0,#2
        0x00003eba:    4623        #F      MOV      r3,r4
        0x00003ebc:    40ab        .@      LSLS     r3,r3,r5
        0x00003ebe:    431a        .C      ORRS     r2,r2,r3
        0x00003ec0:    1c40        @.      ADDS     r0,r0,#1
        0x00003ec2:    2808        .(      CMP      r0,#8
        0x00003ec4:    d3f4        ..      BCC      0x3eb0 ; PWM_Start + 8
        0x00003ec6:    4907        .I      LDR      r1,[pc,#28] ; [0x3ee4] = 0x40040000
        0x00003ec8:    6888        .h      LDR      r0,[r1,#8]
        0x00003eca:    4310        .C      ORRS     r0,r0,r2
        0x00003ecc:    6088        .`      STR      r0,[r1,#8]
        0x00003ece:    bd30        0.      POP      {r4,r5,pc}
    PWM_EnableOutput
        0x00003ed0:    4804        .H      LDR      r0,[pc,#16] ; [0x3ee4] = 0x40040000
        0x00003ed2:    3040        @0      ADDS     r0,r0,#0x40
        0x00003ed4:    69c2        .i      LDR      r2,[r0,#0x1c]
        0x00003ed6:    430a        .C      ORRS     r2,r2,r1
        0x00003ed8:    61c2        .a      STR      r2,[r0,#0x1c]
        0x00003eda:    4770        pG      BX       lr
    $d
        0x00003edc:    2000001c    ...     DCD    536870940
        0x00003ee0:    0000ffff    ....    DCD    65535
        0x00003ee4:    40040000    ...@    DCD    1074003968
    $t
    .text
    stackDump
        0x00003ee8:    b510        ..      PUSH     {r4,lr}
        0x00003eea:    4604        .F      MOV      r4,r0
        0x00003eec:    a01b        ..      ADR      r0,{pc}+0x70 ; 0x3f5c
        0x00003eee:    6821        !h      LDR      r1,[r4,#0]
        0x00003ef0:    f001fbb6    ....    BL       __0printf$5 ; 0x5660
        0x00003ef4:    a01c        ..      ADR      r0,{pc}+0x74 ; 0x3f68
        0x00003ef6:    6861        ah      LDR      r1,[r4,#4]
        0x00003ef8:    f001fbb2    ....    BL       __0printf$5 ; 0x5660
        0x00003efc:    a01d        ..      ADR      r0,{pc}+0x78 ; 0x3f74
        0x00003efe:    68a1        .h      LDR      r1,[r4,#8]
        0x00003f00:    f001fbae    ....    BL       __0printf$5 ; 0x5660
        0x00003f04:    a01e        ..      ADR      r0,{pc}+0x7c ; 0x3f80
        0x00003f06:    68e1        .h      LDR      r1,[r4,#0xc]
        0x00003f08:    f001fbaa    ....    BL       __0printf$5 ; 0x5660
        0x00003f0c:    a01f        ..      ADR      r0,{pc}+0x80 ; 0x3f8c
        0x00003f0e:    6921        !i      LDR      r1,[r4,#0x10]
        0x00003f10:    f001fba6    ....    BL       __0printf$5 ; 0x5660
        0x00003f14:    a020         .      ADR      r0,{pc}+0x84 ; 0x3f98
        0x00003f16:    6961        ai      LDR      r1,[r4,#0x14]
        0x00003f18:    f001fba2    ....    BL       __0printf$5 ; 0x5660
        0x00003f1c:    a021        !.      ADR      r0,{pc}+0x88 ; 0x3fa4
        0x00003f1e:    69a1        .i      LDR      r1,[r4,#0x18]
        0x00003f20:    f001fb9e    ....    BL       __0printf$5 ; 0x5660
        0x00003f24:    a022        ".      ADR      r0,{pc}+0x8c ; 0x3fb0
        0x00003f26:    69e1        .i      LDR      r1,[r4,#0x1c]
        0x00003f28:    f001fb9a    ....    BL       __0printf$5 ; 0x5660
        0x00003f2c:    bd10        ..      POP      {r4,pc}
    Hard_Fault_Handler
    __tagsym$$used
        0x00003f2e:    4604        .F      MOV      r4,r0
        0x00003f30:    a022        ".      ADR      r0,{pc}+0x8c ; 0x3fbc
        0x00003f32:    f001fb95    ....    BL       __0printf$5 ; 0x5660
        0x00003f36:    4620         F      MOV      r0,r4
        0x00003f38:    f7ffffd6    ....    BL       stackDump ; 0x3ee8
        0x00003f3c:    e7fe        ..      B        0x3f3c ; Hard_Fault_Handler + 14
    SendChar_ToUART
        0x00003f3e:    4925        %I      LDR      r1,[pc,#148] ; [0x3fd4] = 0x40050000
        0x00003f40:    6008        .`      STR      r0,[r1,#0]
        0x00003f42:    6988        .i      LDR      r0,[r1,#0x18]
        0x00003f44:    00c0        ..      LSLS     r0,r0,#3
        0x00003f46:    d5fc        ..      BPL      0x3f42 ; SendChar_ToUART + 4
        0x00003f48:    4770        pG      BX       lr
    SendChar
        0x00003f4a:    e7f8        ..      B        SendChar_ToUART ; 0x3f3e
    fputc
        0x00003f4c:    b500        ..      PUSH     {lr}
        0x00003f4e:    4602        .F      MOV      r2,r0
        0x00003f50:    4610        .F      MOV      r0,r2
        0x00003f52:    f7fffffa    ....    BL       SendChar ; 0x3f4a
        0x00003f56:    4610        .F      MOV      r0,r2
        0x00003f58:    bd00        ..      POP      {pc}
    $d
        0x00003f5a:    0000        ..      DCW    0
        0x00003f5c:    20203072    r0      DCD    538980466
        0x00003f60:    7830203d    = 0x    DCD    2016419901
        0x00003f64:    000a7825    %x..    DCD    686117
        0x00003f68:    20203172    r1      DCD    538980722
        0x00003f6c:    7830203d    = 0x    DCD    2016419901
        0x00003f70:    000a7825    %x..    DCD    686117
        0x00003f74:    20203272    r2      DCD    538980978
        0x00003f78:    7830203d    = 0x    DCD    2016419901
        0x00003f7c:    000a7825    %x..    DCD    686117
        0x00003f80:    20203372    r3      DCD    538981234
        0x00003f84:    7830203d    = 0x    DCD    2016419901
        0x00003f88:    000a7825    %x..    DCD    686117
        0x00003f8c:    20323172    r12     DCD    540160370
        0x00003f90:    7830203d    = 0x    DCD    2016419901
        0x00003f94:    000a7825    %x..    DCD    686117
        0x00003f98:    2020726c    lr      DCD    538997356
        0x00003f9c:    7830203d    = 0x    DCD    2016419901
        0x00003fa0:    000a7825    %x..    DCD    686117
        0x00003fa4:    20206370    pc      DCD    538993520
        0x00003fa8:    7830203d    = 0x    DCD    2016419901
        0x00003fac:    000a7825    %x..    DCD    686117
        0x00003fb0:    20727370    psr     DCD    544371568
        0x00003fb4:    7830203d    = 0x    DCD    2016419901
        0x00003fb8:    000a7825    %x..    DCD    686117
        0x00003fbc:    48206e49    In H    DCD    1210084937
        0x00003fc0:    20647261    ard     DCD    543453793
        0x00003fc4:    6c756146    Faul    DCD    1819631942
        0x00003fc8:    61482074    t Ha    DCD    1632116852
        0x00003fcc:    656c646e    ndle    DCD    1701602414
        0x00003fd0:    00000a72    r...    DCD    2674
        0x00003fd4:    40050000    ...@    DCD    1074069504
    $t
    .text
    SPI_SetBusClock
        0x00003fd8:    b570        p.      PUSH     {r4-r6,lr}
        0x00003fda:    4606        .F      MOV      r6,r0
        0x00003fdc:    460c        .F      MOV      r4,r1
        0x00003fde:    f7fffe57    ..W.    BL       CLK_GetHCLKFreq ; 0x3c90
        0x00003fe2:    4605        .F      MOV      r5,r0
        0x00003fe4:    42ac        .B      CMP      r4,r5
        0x00003fe6:    d900        ..      BLS      0x3fea ; SPI_SetBusClock + 18
        0x00003fe8:    462c        ,F      MOV      r4,r5
        0x00003fea:    2c00        .,      CMP      r4,#0
        0x00003fec:    d014        ..      BEQ      0x4018 ; SPI_SetBusClock + 64
        0x00003fee:    4811        .H      LDR      r0,[pc,#68] ; [0x4034] = 0x2000001c
        0x00003ff0:    0061        a.      LSLS     r1,r4,#1
        0x00003ff2:    6800        .h      LDR      r0,[r0,#0]
        0x00003ff4:    1900        ..      ADDS     r0,r0,r4
        0x00003ff6:    f000fd9d    ....    BL       __aeabi_uidiv ; 0x4b34
        0x00003ffa:    1e40        @.      SUBS     r0,r0,#1
        0x00003ffc:    28ff        .(      CMP      r0,#0xff
        0x00003ffe:    d900        ..      BLS      0x4002 ; SPI_SetBusClock + 42
        0x00004000:    20ff        .       MOVS     r0,#0xff
        0x00004002:    6871        qh      LDR      r1,[r6,#4]
        0x00004004:    0a09        ..      LSRS     r1,r1,#8
        0x00004006:    0209        ..      LSLS     r1,r1,#8
        0x00004008:    4301        .C      ORRS     r1,r1,r0
        0x0000400a:    6071        q`      STR      r1,[r6,#4]
        0x0000400c:    1c40        @.      ADDS     r0,r0,#1
        0x0000400e:    0041        A.      LSLS     r1,r0,#1
        0x00004010:    4628        (F      MOV      r0,r5
        0x00004012:    f000fd8f    ....    BL       __aeabi_uidiv ; 0x4b34
        0x00004016:    bd70        p.      POP      {r4-r6,pc}
        0x00004018:    2000        .       MOVS     r0,#0
        0x0000401a:    bd70        p.      POP      {r4-r6,pc}
    SPI_Open
        0x0000401c:    b430        0.      PUSH     {r4,r5}
        0x0000401e:    9c02        ..      LDR      r4,[sp,#8]
        0x00004020:    2b20         +      CMP      r3,#0x20
        0x00004022:    d100        ..      BNE      0x4026 ; SPI_Open + 10
        0x00004024:    2300        .#      MOVS     r3,#0
        0x00004026:    00db        ..      LSLS     r3,r3,#3
        0x00004028:    430b        .C      ORRS     r3,r3,r1
        0x0000402a:    4313        .C      ORRS     r3,r3,r2
        0x0000402c:    6003        .`      STR      r3,[r0,#0]
        0x0000402e:    4621        !F      MOV      r1,r4
        0x00004030:    bc30        0.      POP      {r4,r5}
        0x00004032:    e7d1        ..      B        SPI_SetBusClock ; 0x3fd8
    $d
        0x00004034:    2000001c    ...     DCD    536870940
    $t
    .text
    TIMER_GetModuleClock
        0x00004038:    4a5a        ZJ      LDR      r2,[pc,#360] ; [0x41a4] = 0x40010000
        0x0000403a:    495b        [I      LDR      r1,[pc,#364] ; [0x41a8] = 0x50000200
        0x0000403c:    4290        .B      CMP      r0,r2
        0x0000403e:    d103        ..      BNE      0x4048 ; TIMER_GetModuleClock + 16
        0x00004040:    6948        Hi      LDR      r0,[r1,#0x14]
        0x00004042:    0540        @.      LSLS     r0,r0,#21
        0x00004044:    0f40        @.      LSRS     r0,r0,#29
        0x00004046:    e00a        ..      B        0x405e ; TIMER_GetModuleClock + 38
        0x00004048:    4a56        VJ      LDR      r2,[pc,#344] ; [0x41a4] = 0x40010000
        0x0000404a:    3220         2      ADDS     r2,r2,#0x20
        0x0000404c:    4290        .B      CMP      r0,r2
        0x0000404e:    d103        ..      BNE      0x4058 ; TIMER_GetModuleClock + 32
        0x00004050:    6948        Hi      LDR      r0,[r1,#0x14]
        0x00004052:    0440        @.      LSLS     r0,r0,#17
        0x00004054:    0f40        @.      LSRS     r0,r0,#29
        0x00004056:    e002        ..      B        0x405e ; TIMER_GetModuleClock + 38
        0x00004058:    6948        Hi      LDR      r0,[r1,#0x14]
        0x0000405a:    0340        @.      LSLS     r0,r0,#13
        0x0000405c:    0f40        @.      LSRS     r0,r0,#29
        0x0000405e:    0780        ..      LSLS     r0,r0,#30
        0x00004060:    0f80        ..      LSRS     r0,r0,#30
        0x00004062:    2800        .(      CMP      r0,#0
        0x00004064:    d003        ..      BEQ      0x406e ; TIMER_GetModuleClock + 54
        0x00004066:    2100        .!      MOVS     r1,#0
        0x00004068:    2802        .(      CMP      r0,#2
        0x0000406a:    d007        ..      BEQ      0x407c ; TIMER_GetModuleClock + 68
        0x0000406c:    e000        ..      B        0x4070 ; TIMER_GetModuleClock + 56
        0x0000406e:    2101        .!      MOVS     r1,#1
        0x00004070:    2200        ."      MOVS     r2,#0
        0x00004072:    4311        .C      ORRS     r1,r1,r2
        0x00004074:    d004        ..      BEQ      0x4080 ; TIMER_GetModuleClock + 72
        0x00004076:    484d        MH      LDR      r0,[pc,#308] ; [0x41ac] = 0x2000001c
        0x00004078:    6800        .h      LDR      r0,[r0,#0]
        0x0000407a:    4770        pG      BX       lr
        0x0000407c:    2201        ."      MOVS     r2,#1
        0x0000407e:    e7f8        ..      B        0x4072 ; TIMER_GetModuleClock + 58
        0x00004080:    2801        .(      CMP      r0,#1
        0x00004082:    d001        ..      BEQ      0x4088 ; TIMER_GetModuleClock + 80
        0x00004084:    484a        JH      LDR      r0,[pc,#296] ; [0x41b0] = 0x3d0900
        0x00004086:    4770        pG      BX       lr
        0x00004088:    484a        JH      LDR      r0,[pc,#296] ; [0x41b4] = 0x2710
        0x0000408a:    4770        pG      BX       lr
    TIMER_Open
        0x0000408c:    b5f8        ..      PUSH     {r3-r7,lr}
        0x0000408e:    4605        .F      MOV      r5,r0
        0x00004090:    460f        .F      MOV      r7,r1
        0x00004092:    4613        .F      MOV      r3,r2
        0x00004094:    4628        (F      MOV      r0,r5
        0x00004096:    f7ffffcf    ....    BL       TIMER_GetModuleClock ; 0x4038
        0x0000409a:    4604        .F      MOV      r4,r0
        0x0000409c:    2600        .&      MOVS     r6,#0
        0x0000409e:    0860        `.      LSRS     r0,r4,#1
        0x000040a0:    4298        .B      CMP      r0,r3
        0x000040a2:    d201        ..      BCS      0x40a8 ; TIMER_Open + 28
        0x000040a4:    2102        .!      MOVS     r1,#2
        0x000040a6:    e011        ..      B        0x40cc ; TIMER_Open + 64
        0x000040a8:    2101        .!      MOVS     r1,#1
        0x000040aa:    0649        I.      LSLS     r1,r1,#25
        0x000040ac:    428c        .B      CMP      r4,r1
        0x000040ae:    d302        ..      BCC      0x40b6 ; TIMER_Open + 42
        0x000040b0:    2603        .&      MOVS     r6,#3
        0x000040b2:    08a4        ..      LSRS     r4,r4,#2
        0x000040b4:    e005        ..      B        0x40c2 ; TIMER_Open + 54
        0x000040b6:    2101        .!      MOVS     r1,#1
        0x000040b8:    0609        ..      LSLS     r1,r1,#24
        0x000040ba:    428c        .B      CMP      r4,r1
        0x000040bc:    d301        ..      BCC      0x40c2 ; TIMER_Open + 54
        0x000040be:    2601        .&      MOVS     r6,#1
        0x000040c0:    4604        .F      MOV      r4,r0
        0x000040c2:    4619        .F      MOV      r1,r3
        0x000040c4:    4620         F      MOV      r0,r4
        0x000040c6:    f000fd35    ..5.    BL       __aeabi_uidiv ; 0x4b34
        0x000040ca:    4601        .F      MOV      r1,r0
        0x000040cc:    6828        (h      LDR      r0,[r5,#0]
        0x000040ce:    0a00        ..      LSRS     r0,r0,#8
        0x000040d0:    0200        ..      LSLS     r0,r0,#8
        0x000040d2:    4330        0C      ORRS     r0,r0,r6
        0x000040d4:    6028        (`      STR      r0,[r5,#0]
        0x000040d6:    6828        (h      LDR      r0,[r5,#0]
        0x000040d8:    2203        ."      MOVS     r2,#3
        0x000040da:    06d2        ..      LSLS     r2,r2,#27
        0x000040dc:    4390        .C      BICS     r0,r0,r2
        0x000040de:    4338        8C      ORRS     r0,r0,r7
        0x000040e0:    6028        (`      STR      r0,[r5,#0]
        0x000040e2:    6069        i`      STR      r1,[r5,#4]
        0x000040e4:    4620         F      MOV      r0,r4
        0x000040e6:    f000fd25    ..%.    BL       __aeabi_uidiv ; 0x4b34
        0x000040ea:    bdf8        ..      POP      {r3-r7,pc}
    TIMER_Delay
        0x000040ec:    b5f8        ..      PUSH     {r3-r7,lr}
        0x000040ee:    4605        .F      MOV      r5,r0
        0x000040f0:    460f        .F      MOV      r7,r1
        0x000040f2:    4628        (F      MOV      r0,r5
        0x000040f4:    f7ffffa0    ....    BL       TIMER_GetModuleClock ; 0x4038
        0x000040f8:    4606        .F      MOV      r6,r0
        0x000040fa:    2000        .       MOVS     r0,#0
        0x000040fc:    9000        ..      STR      r0,[sp,#0]
        0x000040fe:    482b        +H      LDR      r0,[pc,#172] ; [0x41ac] = 0x2000001c
        0x00004100:    4631        1F      MOV      r1,r6
        0x00004102:    6800        .h      LDR      r0,[r0,#0]
        0x00004104:    f000fd16    ....    BL       __aeabi_uidiv ; 0x4b34
        0x00004108:    4604        .F      MOV      r4,r0
        0x0000410a:    2000        .       MOVS     r0,#0
        0x0000410c:    6028        (`      STR      r0,[r5,#0]
        0x0000410e:    6168        ha      STR      r0,[r5,#0x14]
        0x00004110:    2f32        2/      CMP      r7,#0x32
        0x00004112:    d200        ..      BCS      0x4116 ; TIMER_Delay + 42
        0x00004114:    2732        2'      MOVS     r7,#0x32
        0x00004116:    4827        'H      LDR      r0,[pc,#156] ; [0x41b4] = 0x2710
        0x00004118:    4286        .B      CMP      r6,r0
        0x0000411a:    d108        ..      BNE      0x412e ; TIMER_Delay + 66
        0x0000411c:    4638        8F      MOV      r0,r7
        0x0000411e:    2164        d!      MOVS     r1,#0x64
        0x00004120:    3063        c0      ADDS     r0,r0,#0x63
        0x00004122:    f000fd07    ....    BL       __aeabi_uidiv ; 0x4b34
        0x00004126:    2164        d!      MOVS     r1,#0x64
        0x00004128:    4348        HC      MULS     r0,r1,r0
        0x0000412a:    4607        .F      MOV      r7,r0
        0x0000412c:    e007        ..      B        0x413e ; TIMER_Delay + 82
        0x0000412e:    4638        8F      MOV      r0,r7
        0x00004130:    210a        .!      MOVS     r1,#0xa
        0x00004132:    3009        .0      ADDS     r0,r0,#9
        0x00004134:    f000fcfe    ....    BL       __aeabi_uidiv ; 0x4b34
        0x00004138:    210a        .!      MOVS     r1,#0xa
        0x0000413a:    4348        HC      MULS     r0,r1,r0
        0x0000413c:    4607        .F      MOV      r7,r0
        0x0000413e:    2001        .       MOVS     r0,#1
        0x00004140:    0640        @.      LSLS     r0,r0,#25
        0x00004142:    4286        .B      CMP      r6,r0
        0x00004144:    d303        ..      BCC      0x414e ; TIMER_Delay + 98
        0x00004146:    2003        .       MOVS     r0,#3
        0x00004148:    9000        ..      STR      r0,[sp,#0]
        0x0000414a:    08b6        ..      LSRS     r6,r6,#2
        0x0000414c:    e006        ..      B        0x415c ; TIMER_Delay + 112
        0x0000414e:    2001        .       MOVS     r0,#1
        0x00004150:    0600        ..      LSLS     r0,r0,#24
        0x00004152:    4286        .B      CMP      r6,r0
        0x00004154:    d302        ..      BCC      0x415c ; TIMER_Delay + 112
        0x00004156:    2001        .       MOVS     r0,#1
        0x00004158:    9000        ..      STR      r0,[sp,#0]
        0x0000415a:    0876        v.      LSRS     r6,r6,#1
        0x0000415c:    4630        0F      MOV      r0,r6
        0x0000415e:    f000ffb8    ....    BL       __aeabi_ui2f ; 0x50d2
        0x00004162:    4606        .F      MOV      r6,r0
        0x00004164:    4638        8F      MOV      r0,r7
        0x00004166:    f000ffb4    ....    BL       __aeabi_ui2f ; 0x50d2
        0x0000416a:    4631        1F      MOV      r1,r6
        0x0000416c:    f000fd77    ..w.    BL       __aeabi_fmul ; 0x4c5e
        0x00004170:    f000ffe3    ....    BL       __aeabi_f2d ; 0x513a
        0x00004174:    2200        ."      MOVS     r2,#0
        0x00004176:    4b10        .K      LDR      r3,[pc,#64] ; [0x41b8] = 0x412e8480
        0x00004178:    f000ff12    ....    BL       __aeabi_ddiv ; 0x4fa0
        0x0000417c:    f001f806    ....    BL       __aeabi_d2f ; 0x518c
        0x00004180:    f000ffc7    ....    BL       __aeabi_f2uiz ; 0x5112
        0x00004184:    6068        h`      STR      r0,[r5,#4]
        0x00004186:    2101        .!      MOVS     r1,#1
        0x00004188:    9800        ..      LDR      r0,[sp,#0]
        0x0000418a:    0789        ..      LSLS     r1,r1,#30
        0x0000418c:    4308        .C      ORRS     r0,r0,r1
        0x0000418e:    6028        (`      STR      r0,[r5,#0]
        0x00004190:    2c00        .,      CMP      r4,#0
        0x00004192:    d003        ..      BEQ      0x419c ; TIMER_Delay + 176
        0x00004194:    bf00        ..      NOP      
        0x00004196:    1e64        d.      SUBS     r4,r4,#1
        0x00004198:    2c00        .,      CMP      r4,#0
        0x0000419a:    d1fb        ..      BNE      0x4194 ; TIMER_Delay + 168
        0x0000419c:    6828        (h      LDR      r0,[r5,#0]
        0x0000419e:    0180        ..      LSLS     r0,r0,#6
        0x000041a0:    d4fc        ..      BMI      0x419c ; TIMER_Delay + 176
        0x000041a2:    bdf8        ..      POP      {r3-r7,pc}
    $d
        0x000041a4:    40010000    ...@    DCD    1073807360
        0x000041a8:    50000200    ...P    DCD    1342177792
        0x000041ac:    2000001c    ...     DCD    536870940
        0x000041b0:    003d0900    ..=.    DCD    4000000
        0x000041b4:    00002710    .'..    DCD    10000
        0x000041b8:    412e8480    ...A    DCD    1093567616
    $t
    .text
    UART_Open
        0x000041bc:    b570        p.      PUSH     {r4-r6,lr}
        0x000041be:    4604        .F      MOV      r4,r0
        0x000041c0:    460d        .F      MOV      r5,r1
        0x000041c2:    2003        .       MOVS     r0,#3
        0x000041c4:    60e0        .`      STR      r0,[r4,#0xc]
        0x000041c6:    2000        .       MOVS     r0,#0
        0x000041c8:    60a0        .`      STR      r0,[r4,#8]
        0x000041ca:    f7fffd61    ..a.    BL       CLK_GetHCLKFreq ; 0x3c90
        0x000041ce:    2d00        .-      CMP      r5,#0
        0x000041d0:    d008        ..      BEQ      0x41e4 ; UART_Open + 40
        0x000041d2:    0069        i.      LSLS     r1,r5,#1
        0x000041d4:    1b40        @.      SUBS     r0,r0,r5
        0x000041d6:    f000fcad    ....    BL       __aeabi_uidiv ; 0x4b34
        0x000041da:    4903        .I      LDR      r1,[pc,#12] ; [0x41e8] = 0xffff
        0x000041dc:    4288        .B      CMP      r0,r1
        0x000041de:    d900        ..      BLS      0x41e2 ; UART_Open + 38
        0x000041e0:    4608        .F      MOV      r0,r1
        0x000041e2:    6260        `b      STR      r0,[r4,#0x24]
        0x000041e4:    bd70        p.      POP      {r4-r6,pc}
    $d
        0x000041e6:    0000        ..      DCW    0
        0x000041e8:    0000ffff    ....    DCD    65535
    $t
    .text
    set_rc_channel_reversed
        0x000041ec:    7201        .r      STRB     r1,[r0,#8]
        0x000041ee:    4770        pG      BX       lr
    set_rc_channel_deadzone
        0x000041f0:    8141        A.      STRH     r1,[r0,#0xa]
        0x000041f2:    4770        pG      BX       lr
    set_rc_channel_neutral
        0x000041f4:    80c1        ..      STRH     r1,[r0,#6]
        0x000041f6:    4770        pG      BX       lr
    set_rc_channel_min
        0x000041f8:    8081        ..      STRH     r1,[r0,#4]
        0x000041fa:    4770        pG      BX       lr
    set_rc_channel_max
        0x000041fc:    8041        A.      STRH     r1,[r0,#2]
        0x000041fe:    4770        pG      BX       lr
    setting_rc_channel_all
        0x00004200:    b570        p.      PUSH     {r4-r6,lr}
        0x00004202:    2200        ."      MOVS     r2,#0
        0x00004204:    2501        .%      MOVS     r5,#1
        0x00004206:    4cfe        .L      LDR      r4,[pc,#1016] ; [0x4600] = 0x2000079c
        0x00004208:    032d        -.      LSLS     r5,r5,#12
        0x0000420a:    106e        n.      ASRS     r6,r5,#1
        0x0000420c:    200c        .       MOVS     r0,#0xc
        0x0000420e:    4350        PC      MULS     r0,r2,r0
        0x00004210:    1903        ..      ADDS     r3,r0,r4
        0x00004212:    4629        )F      MOV      r1,r5
        0x00004214:    4618        .F      MOV      r0,r3
        0x00004216:    f7fffff1    ....    BL       set_rc_channel_max ; 0x41fc
        0x0000421a:    4618        .F      MOV      r0,r3
        0x0000421c:    2100        .!      MOVS     r1,#0
        0x0000421e:    f7ffffeb    ....    BL       set_rc_channel_min ; 0x41f8
        0x00004222:    4618        .F      MOV      r0,r3
        0x00004224:    4631        1F      MOV      r1,r6
        0x00004226:    f7ffffe5    ....    BL       set_rc_channel_neutral ; 0x41f4
        0x0000422a:    4618        .F      MOV      r0,r3
        0x0000422c:    2132        2!      MOVS     r1,#0x32
        0x0000422e:    f7ffffdf    ....    BL       set_rc_channel_deadzone ; 0x41f0
        0x00004232:    1c52        R.      ADDS     r2,r2,#1
        0x00004234:    b2d2        ..      UXTB     r2,r2
        0x00004236:    2a04        .*      CMP      r2,#4
        0x00004238:    d3e8        ..      BCC      0x420c ; setting_rc_channel_all + 12
        0x0000423a:    48f1        .H      LDR      r0,[pc,#964] ; [0x4600] = 0x2000079c
        0x0000423c:    2100        .!      MOVS     r1,#0
        0x0000423e:    300c        .0      ADDS     r0,r0,#0xc
        0x00004240:    f7ffffd4    ....    BL       set_rc_channel_reversed ; 0x41ec
        0x00004244:    48ee        .H      LDR      r0,[pc,#952] ; [0x4600] = 0x2000079c
        0x00004246:    2100        .!      MOVS     r1,#0
        0x00004248:    3024        $0      ADDS     r0,r0,#0x24
        0x0000424a:    f7ffffcf    ....    BL       set_rc_channel_reversed ; 0x41ec
        0x0000424e:    2100        .!      MOVS     r1,#0
        0x00004250:    48eb        .H      LDR      r0,[pc,#940] ; [0x4600] = 0x2000079c
        0x00004252:    f7ffffcb    ....    BL       set_rc_channel_reversed ; 0x41ec
        0x00004256:    48ea        .H      LDR      r0,[pc,#936] ; [0x4600] = 0x2000079c
        0x00004258:    2101        .!      MOVS     r1,#1
        0x0000425a:    3018        .0      ADDS     r0,r0,#0x18
        0x0000425c:    f7ffffc6    ....    BL       set_rc_channel_reversed ; 0x41ec
        0x00004260:    bd70        p.      POP      {r4-r6,pc}
    set_roll_code
        0x00004262:    b510        ..      PUSH     {r4,lr}
        0x00004264:    2100        .!      MOVS     r1,#0
        0x00004266:    4ce7        .L      LDR      r4,[pc,#924] ; [0x4604] = 0x20000103
        0x00004268:    5c42        B\      LDRB     r2,[r0,r1]
        0x0000426a:    5462        bT      STRB     r2,[r4,r1]
        0x0000426c:    1c49        I.      ADDS     r1,r1,#1
        0x0000426e:    b2c9        ..      UXTB     r1,r1
        0x00004270:    2903        .)      CMP      r1,#3
        0x00004272:    d3f9        ..      BCC      0x4268 ; set_roll_code + 6
        0x00004274:    78a3        .x      LDRB     r3,[r4,#2]
        0x00004276:    7862        bx      LDRB     r2,[r4,#1]
        0x00004278:    7821        !x      LDRB     r1,[r4,#0]
        0x0000427a:    a0e3        ..      ADR      r0,{pc}+0x38e ; 0x4608
        0x0000427c:    f001f9f0    ....    BL       __0printf$5 ; 0x5660
        0x00004280:    bd10        ..      POP      {r4,pc}
    auto_code_matching
        0x00004282:    b510        ..      PUSH     {r4,lr}
        0x00004284:    48de        .H      LDR      r0,[pc,#888] ; [0x4600] = 0x2000079c
        0x00004286:    2111        .!      MOVS     r1,#0x11
        0x00004288:    3030        00      ADDS     r0,r0,#0x30
        0x0000428a:    f000fbbf    ....    BL       ucRF_DumpRxData ; 0x4a0c
        0x0000428e:    48dc        .H      LDR      r0,[pc,#880] ; [0x4600] = 0x2000079c
        0x00004290:    3030        00      ADDS     r0,r0,#0x30
        0x00004292:    7801        .x      LDRB     r1,[r0,#0]
        0x00004294:    29aa        .)      CMP      r1,#0xaa
        0x00004296:    d108        ..      BNE      0x42aa ; auto_code_matching + 40
        0x00004298:    7841        Ax      LDRB     r1,[r0,#1]
        0x0000429a:    29aa        .)      CMP      r1,#0xaa
        0x0000429c:    d105        ..      BNE      0x42aa ; auto_code_matching + 40
        0x0000429e:    7bc1        .{      LDRB     r1,[r0,#0xf]
        0x000042a0:    29ce        .)      CMP      r1,#0xce
        0x000042a2:    d102        ..      BNE      0x42aa ; auto_code_matching + 40
        0x000042a4:    7c01        .|      LDRB     r1,[r0,#0x10]
        0x000042a6:    29ed        .)      CMP      r1,#0xed
        0x000042a8:    d001        ..      BEQ      0x42ae ; auto_code_matching + 44
        0x000042aa:    2000        .       MOVS     r0,#0
        0x000042ac:    bd10        ..      POP      {r4,pc}
        0x000042ae:    1c80        ..      ADDS     r0,r0,#2
        0x000042b0:    f7ffffd7    ....    BL       set_roll_code ; 0x4262
        0x000042b4:    49db        .I      LDR      r1,[pc,#876] ; [0x4624] = 0x2000017c
        0x000042b6:    2001        .       MOVS     r0,#1
        0x000042b8:    70c8        .p      STRB     r0,[r1,#3]
        0x000042ba:    bd10        ..      POP      {r4,pc}
    rc_channel_init
        0x000042bc:    b510        ..      PUSH     {r4,lr}
        0x000042be:    2405        .$      MOVS     r4,#5
        0x000042c0:    f7fffc8c    ....    BL       SPI1_Init ; 0x3bdc
        0x000042c4:    f000fbbe    ....    BL       RF_Init ; 0x4a44
        0x000042c8:    f000fb76    ..v.    BL       RF_RxMode ; 0x49b8
        0x000042cc:    a0d6        ..      ADR      r0,{pc}+0x35c ; 0x4628
        0x000042ce:    f001f9c7    ....    BL       __0printf$5 ; 0x5660
        0x000042d2:    e005        ..      B        0x42e0 ; rc_channel_init + 36
        0x000042d4:    f7ffffd5    ....    BL       auto_code_matching ; 0x4282
        0x000042d8:    2800        .(      CMP      r0,#0
        0x000042da:    d103        ..      BNE      0x42e4 ; rc_channel_init + 40
        0x000042dc:    1e64        d.      SUBS     r4,r4,#1
        0x000042de:    b2e4        ..      UXTB     r4,r4
        0x000042e0:    2c00        .,      CMP      r4,#0
        0x000042e2:    d1f7        ..      BNE      0x42d4 ; rc_channel_init + 24
        0x000042e4:    f7ffff8c    ....    BL       setting_rc_channel_all ; 0x4200
        0x000042e8:    bd10        ..      POP      {r4,pc}
    rc_channel_read
        0x000042ea:    b570        p.      PUSH     {r4-r6,lr}
        0x000042ec:    4dc5        .M      LDR      r5,[pc,#788] ; [0x4604] = 0x20000103
        0x000042ee:    2111        .!      MOVS     r1,#0x11
        0x000042f0:    1eed        ..      SUBS     r5,r5,#3
        0x000042f2:    7828        (x      LDRB     r0,[r5,#0]
        0x000042f4:    1a08        ..      SUBS     r0,r1,r0
        0x000042f6:    b2c6        ..      UXTB     r6,r0
        0x000042f8:    f7fcfe6c    ..l.    BL       sys_milli ; 0xfd4
        0x000042fc:    49c9        .I      LDR      r1,[pc,#804] ; [0x4624] = 0x2000017c
        0x000042fe:    78c9        .x      LDRB     r1,[r1,#3]
        0x00004300:    2900        .)      CMP      r1,#0
        0x00004302:    d018        ..      BEQ      0x4336 ; rc_channel_read + 76
        0x00004304:    68a9        .h      LDR      r1,[r5,#8]
        0x00004306:    1a40        @.      SUBS     r0,r0,r1
        0x00004308:    21ff        .!      MOVS     r1,#0xff
        0x0000430a:    31f5        .1      ADDS     r1,r1,#0xf5
        0x0000430c:    4288        .B      CMP      r0,r1
        0x0000430e:    d902        ..      BLS      0x4316 ; rc_channel_read + 44
        0x00004310:    2001        .       MOVS     r0,#1
        0x00004312:    f7fcfe25    ..%.    BL       set_radio_lost ; 0xf60
        0x00004316:    48ba        .H      LDR      r0,[pc,#744] ; [0x4600] = 0x2000079c
        0x00004318:    2111        .!      MOVS     r1,#0x11
        0x0000431a:    3030        00      ADDS     r0,r0,#0x30
        0x0000431c:    f000fc3b    ..;.    BL       __aeabi_memclr ; 0x4b96
        0x00004320:    4cb7        .L      LDR      r4,[pc,#732] ; [0x4600] = 0x2000079c
        0x00004322:    7828        (x      LDRB     r0,[r5,#0]
        0x00004324:    3430        04      ADDS     r4,r4,#0x30
        0x00004326:    1820         .      ADDS     r0,r4,r0
        0x00004328:    4631        1F      MOV      r1,r6
        0x0000432a:    f000fb6f    ..o.    BL       ucRF_DumpRxData ; 0x4a0c
        0x0000432e:    7820         x      LDRB     r0,[r4,#0]
        0x00004330:    28aa        .(      CMP      r0,#0xaa
        0x00004332:    d004        ..      BEQ      0x433e ; rc_channel_read + 84
        0x00004334:    e00c        ..      B        0x4350 ; rc_channel_read + 102
        0x00004336:    f7ffffa4    ....    BL       auto_code_matching ; 0x4282
        0x0000433a:    2000        .       MOVS     r0,#0
        0x0000433c:    bd70        p.      POP      {r4-r6,pc}
        0x0000433e:    7860        `x      LDRB     r0,[r4,#1]
        0x00004340:    28aa        .(      CMP      r0,#0xaa
        0x00004342:    d105        ..      BNE      0x4350 ; rc_channel_read + 102
        0x00004344:    7be0        .{      LDRB     r0,[r4,#0xf]
        0x00004346:    28ce        .(      CMP      r0,#0xce
        0x00004348:    d102        ..      BNE      0x4350 ; rc_channel_read + 102
        0x0000434a:    7c20         |      LDRB     r0,[r4,#0x10]
        0x0000434c:    28ed        .(      CMP      r0,#0xed
        0x0000434e:    d001        ..      BEQ      0x4354 ; rc_channel_read + 106
        0x00004350:    2000        .       MOVS     r0,#0
        0x00004352:    bd70        p.      POP      {r4-r6,pc}
        0x00004354:    2000        .       MOVS     r0,#0
        0x00004356:    49ab        .I      LDR      r1,[pc,#684] ; [0x4604] = 0x20000103
        0x00004358:    1822        ".      ADDS     r2,r4,r0
        0x0000435a:    7892        .x      LDRB     r2,[r2,#2]
        0x0000435c:    5c0b        .\      LDRB     r3,[r1,r0]
        0x0000435e:    429a        .B      CMP      r2,r3
        0x00004360:    d001        ..      BEQ      0x4366 ; rc_channel_read + 124
        0x00004362:    2000        .       MOVS     r0,#0
        0x00004364:    bd70        p.      POP      {r4-r6,pc}
        0x00004366:    1c40        @.      ADDS     r0,r0,#1
        0x00004368:    b2c0        ..      UXTB     r0,r0
        0x0000436a:    2803        .(      CMP      r0,#3
        0x0000436c:    d3f4        ..      BCC      0x4358 ; rc_channel_read + 110
        0x0000436e:    f7fcfe31    ..1.    BL       sys_milli ; 0xfd4
        0x00004372:    60a8        .`      STR      r0,[r5,#8]
        0x00004374:    2000        .       MOVS     r0,#0
        0x00004376:    f7fcfdf3    ....    BL       set_radio_lost ; 0xf60
        0x0000437a:    79a0        .y      LDRB     r0,[r4,#6]
        0x0000437c:    0201        ..      LSLS     r1,r0,#8
        0x0000437e:    79e0        .y      LDRB     r0,[r4,#7]
        0x00004380:    4301        .C      ORRS     r1,r1,r0
        0x00004382:    489f        .H      LDR      r0,[pc,#636] ; [0x4600] = 0x2000079c
        0x00004384:    8001        ..      STRH     r1,[r0,#0]
        0x00004386:    7a21        !z      LDRB     r1,[r4,#8]
        0x00004388:    7a62        bz      LDRB     r2,[r4,#9]
        0x0000438a:    0209        ..      LSLS     r1,r1,#8
        0x0000438c:    4311        .C      ORRS     r1,r1,r2
        0x0000438e:    8181        ..      STRH     r1,[r0,#0xc]
        0x00004390:    7aa1        .z      LDRB     r1,[r4,#0xa]
        0x00004392:    7ae2        .z      LDRB     r2,[r4,#0xb]
        0x00004394:    0209        ..      LSLS     r1,r1,#8
        0x00004396:    4311        .C      ORRS     r1,r1,r2
        0x00004398:    8301        ..      STRH     r1,[r0,#0x18]
        0x0000439a:    7b21        !{      LDRB     r1,[r4,#0xc]
        0x0000439c:    7b62        b{      LDRB     r2,[r4,#0xd]
        0x0000439e:    0209        ..      LSLS     r1,r1,#8
        0x000043a0:    4311        .C      ORRS     r1,r1,r2
        0x000043a2:    8481        ..      STRH     r1,[r0,#0x24]
        0x000043a4:    7ba0        .{      LDRB     r0,[r4,#0xe]
        0x000043a6:    4997        .I      LDR      r1,[pc,#604] ; [0x4604] = 0x20000103
        0x000043a8:    07c2        ..      LSLS     r2,r0,#31
        0x000043aa:    0fd2        ..      LSRS     r2,r2,#31
        0x000043ac:    3109        .1      ADDS     r1,r1,#9
        0x000043ae:    700a        .p      STRB     r2,[r1,#0]
        0x000043b0:    0782        ..      LSLS     r2,r0,#30
        0x000043b2:    0fd2        ..      LSRS     r2,r2,#31
        0x000043b4:    704a        Jp      STRB     r2,[r1,#1]
        0x000043b6:    0742        B.      LSLS     r2,r0,#29
        0x000043b8:    0fd2        ..      LSRS     r2,r2,#31
        0x000043ba:    708a        .p      STRB     r2,[r1,#2]
        0x000043bc:    0702        ..      LSLS     r2,r0,#28
        0x000043be:    0fd2        ..      LSRS     r2,r2,#31
        0x000043c0:    70ca        .p      STRB     r2,[r1,#3]
        0x000043c2:    06c2        ..      LSLS     r2,r0,#27
        0x000043c4:    0fd2        ..      LSRS     r2,r2,#31
        0x000043c6:    710a        .q      STRB     r2,[r1,#4]
        0x000043c8:    0682        ..      LSLS     r2,r0,#26
        0x000043ca:    0fd2        ..      LSRS     r2,r2,#31
        0x000043cc:    714a        Jq      STRB     r2,[r1,#5]
        0x000043ce:    0642        B.      LSLS     r2,r0,#25
        0x000043d0:    0fd2        ..      LSRS     r2,r2,#31
        0x000043d2:    718a        .q      STRB     r2,[r1,#6]
        0x000043d4:    09c0        ..      LSRS     r0,r0,#7
        0x000043d6:    71c8        .q      STRB     r0,[r1,#7]
        0x000043d8:    2001        .       MOVS     r0,#1
        0x000043da:    bd70        p.      POP      {r4-r6,pc}
    switch_event_trigger
        0x000043dc:    b5f8        ..      PUSH     {r3-r7,lr}
        0x000043de:    4607        .F      MOV      r7,r0
        0x000043e0:    4c97        .L      LDR      r4,[pc,#604] ; [0x4640] = 0x2000018c
        0x000043e2:    4990        .I      LDR      r1,[pc,#576] ; [0x4624] = 0x2000017c
        0x000043e4:    4625        %F      MOV      r5,r4
        0x000043e6:    200a        .       MOVS     r0,#0xa
        0x000043e8:    2600        .&      MOVS     r6,#0
        0x000043ea:    3530        05      ADDS     r5,r5,#0x30
        0x000043ec:    5608        .V      LDRSB    r0,[r1,r0]
        0x000043ee:    6862        bh      LDR      r2,[r4,#4]
        0x000043f0:    003b        ;.      MOVS     r3,r7
        0x000043f2:    f001f975    ..u.    BL       __ARM_common_switch8 ; 0x56e0
    $d
        0x000043f6:    0508        ..      DCW    1288
        0x000043f8:    47453d21    !=EG    DCD    1195719969
        0x000043fc:    20756c50    Plu     DCD    544566352
    $t
        0x00004400:    4e90        .N      LDR      r6,[pc,#576] ; [0x4644] = 0x3c23d70a
        0x00004402:    4610        .F      MOV      r0,r2
        0x00004404:    4631        1F      MOV      r1,r6
        0x00004406:    f000fbd1    ....    BL       __aeabi_fadd ; 0x4bac
        0x0000440a:    4601        .F      MOV      r1,r0
        0x0000440c:    488c        .H      LDR      r0,[pc,#560] ; [0x4640] = 0x2000018c
        0x0000440e:    f7fdf832    ..2.    BL       set_pid_param_i ; 0x1476
        0x00004412:    4631        1F      MOV      r1,r6
        0x00004414:    6b60        `k      LDR      r0,[r4,#0x34]
        0x00004416:    f000fbc9    ....    BL       __aeabi_fadd ; 0x4bac
        0x0000441a:    4601        .F      MOV      r1,r0
        0x0000441c:    4628        (F      MOV      r0,r5
        0x0000441e:    f7fdf82a    ..*.    BL       set_pid_param_i ; 0x1476
        0x00004422:    4989        .I      LDR      r1,[pc,#548] ; [0x4648] = 0x42c80000
        0x00004424:    6b60        `k      LDR      r0,[r4,#0x34]
        0x00004426:    f000fc1a    ....    BL       __aeabi_fmul ; 0x4c5e
        0x0000442a:    f000fe59    ..Y.    BL       __aeabi_f2iz ; 0x50e0
        0x0000442e:    b201        ..      SXTH     r1,r0
        0x00004430:    a086        ..      ADR      r0,{pc}+0x21c ; 0x464c
        0x00004432:    f001f915    ....    BL       __0printf$5 ; 0x5660
        0x00004436:    bdf8        ..      POP      {r3-r7,pc}
        0x00004438:    4e82        .N      LDR      r6,[pc,#520] ; [0x4644] = 0x3c23d70a
        0x0000443a:    4610        .F      MOV      r0,r2
        0x0000443c:    4631        1F      MOV      r1,r6
        0x0000443e:    f000fc06    ....    BL       __aeabi_fsub ; 0x4c4e
        0x00004442:    4601        .F      MOV      r1,r0
        0x00004444:    487e        ~H      LDR      r0,[pc,#504] ; [0x4640] = 0x2000018c
        0x00004446:    f7fdf816    ....    BL       set_pid_param_i ; 0x1476
        0x0000444a:    4631        1F      MOV      r1,r6
        0x0000444c:    6b60        `k      LDR      r0,[r4,#0x34]
        0x0000444e:    f000fbfe    ....    BL       __aeabi_fsub ; 0x4c4e
        0x00004452:    4601        .F      MOV      r1,r0
        0x00004454:    4628        (F      MOV      r0,r5
        0x00004456:    f7fdf80e    ....    BL       set_pid_param_i ; 0x1476
        0x0000445a:    497b        {I      LDR      r1,[pc,#492] ; [0x4648] = 0x42c80000
        0x0000445c:    6b60        `k      LDR      r0,[r4,#0x34]
        0x0000445e:    f000fbfe    ....    BL       __aeabi_fmul ; 0x4c5e
        0x00004462:    f000fe3d    ..=.    BL       __aeabi_f2iz ; 0x50e0
        0x00004466:    b201        ..      SXTH     r1,r0
        0x00004468:    a078        x.      ADR      r0,{pc}+0x1e4 ; 0x464c
        0x0000446a:    f001f8f9    ....    BL       __0printf$5 ; 0x5660
        0x0000446e:    bdf8        ..      POP      {r3-r7,pc}
        0x00004470:    1e40        @.      SUBS     r0,r0,#1
        0x00004472:    b240        @.      SXTB     r0,r0
        0x00004474:    7288        .r      STRB     r0,[r1,#0xa]
        0x00004476:    2800        .(      CMP      r0,#0
        0x00004478:    daf9        ..      BGE      0x446e ; switch_event_trigger + 146
        0x0000447a:    2007        .       MOVS     r0,#7
        0x0000447c:    7288        .r      STRB     r0,[r1,#0xa]
        0x0000447e:    bdf8        ..      POP      {r3-r7,pc}
        0x00004480:    700e        .p      STRB     r6,[r1,#0]
        0x00004482:    bdf8        ..      POP      {r3-r7,pc}
        0x00004484:    2001        .       MOVS     r0,#1
        0x00004486:    f7fdfb68    ..h.    BL       set_flight_mode ; 0x1b5a
        0x0000448a:    2800        .(      CMP      r0,#0
        0x0000448c:    d0f9        ..      BEQ      0x4482 ; switch_event_trigger + 166
        0x0000448e:    a074        t.      ADR      r0,{pc}+0x1d2 ; 0x4660
        0x00004490:    f001f8e6    ....    BL       __0printf$5 ; 0x5660
        0x00004494:    bdf8        ..      POP      {r3-r7,pc}
        0x00004496:    4e77        wN      LDR      r6,[pc,#476] ; [0x4674] = 0x3a03126f
        0x00004498:    68a0        .h      LDR      r0,[r4,#8]
        0x0000449a:    4631        1F      MOV      r1,r6
        0x0000449c:    f000fb86    ....    BL       __aeabi_fadd ; 0x4bac
        0x000044a0:    4601        .F      MOV      r1,r0
        0x000044a2:    4867        gH      LDR      r0,[pc,#412] ; [0x4640] = 0x2000018c
        0x000044a4:    f7fcffeb    ....    BL       set_pid_param_d ; 0x147e
        0x000044a8:    4631        1F      MOV      r1,r6
        0x000044aa:    6ba0        .k      LDR      r0,[r4,#0x38]
        0x000044ac:    f000fb7e    ..~.    BL       __aeabi_fadd ; 0x4bac
        0x000044b0:    4601        .F      MOV      r1,r0
        0x000044b2:    4628        (F      MOV      r0,r5
        0x000044b4:    f7fcffe3    ....    BL       set_pid_param_d ; 0x147e
        0x000044b8:    496f        oI      LDR      r1,[pc,#444] ; [0x4678] = 0x461c4000
        0x000044ba:    6ba0        .k      LDR      r0,[r4,#0x38]
        0x000044bc:    f000fbcf    ....    BL       __aeabi_fmul ; 0x4c5e
        0x000044c0:    f000fe0e    ....    BL       __aeabi_f2iz ; 0x50e0
        0x000044c4:    b201        ..      SXTH     r1,r0
        0x000044c6:    a06d        m.      ADR      r0,{pc}+0x1b6 ; 0x467c
        0x000044c8:    f001f8ca    ....    BL       __0printf$5 ; 0x5660
        0x000044cc:    bdf8        ..      POP      {r3-r7,pc}
        0x000044ce:    2000        .       MOVS     r0,#0
        0x000044d0:    f7fdfb43    ..C.    BL       set_flight_mode ; 0x1b5a
        0x000044d4:    2800        .(      CMP      r0,#0
        0x000044d6:    d0f9        ..      BEQ      0x44cc ; switch_event_trigger + 240
        0x000044d8:    a06d        m.      ADR      r0,{pc}+0x1b8 ; 0x4690
        0x000044da:    f001f8c1    ....    BL       __0printf$5 ; 0x5660
        0x000044de:    bdf8        ..      POP      {r3-r7,pc}
        0x000044e0:    1c40        @.      ADDS     r0,r0,#1
        0x000044e2:    b240        @.      SXTB     r0,r0
        0x000044e4:    7288        .r      STRB     r0,[r1,#0xa]
        0x000044e6:    2808        .(      CMP      r0,#8
        0x000044e8:    dbf9        ..      BLT      0x44de ; switch_event_trigger + 258
        0x000044ea:    728e        .r      STRB     r6,[r1,#0xa]
        0x000044ec:    bdf8        ..      POP      {r3-r7,pc}
    switch_handle
        0x000044ee:    b5f8        ..      PUSH     {r3-r7,lr}
        0x000044f0:    2400        .$      MOVS     r4,#0
        0x000044f2:    4e44        DN      LDR      r6,[pc,#272] ; [0x4604] = 0x20000103
        0x000044f4:    2700        .'      MOVS     r7,#0
        0x000044f6:    3609        .6      ADDS     r6,r6,#9
        0x000044f8:    4635        5F      MOV      r5,r6
        0x000044fa:    3508        .5      ADDS     r5,r5,#8
        0x000044fc:    5d30        0]      LDRB     r0,[r6,r4]
        0x000044fe:    0780        ..      LSLS     r0,r0,#30
        0x00004500:    d003        ..      BEQ      0x450a ; switch_handle + 28
        0x00004502:    5d28        (]      LDRB     r0,[r5,r4]
        0x00004504:    1c40        @.      ADDS     r0,r0,#1
        0x00004506:    5528        (U      STRB     r0,[r5,r4]
        0x00004508:    e00b        ..      B        0x4522 ; switch_handle + 52
        0x0000450a:    5d28        (]      LDRB     r0,[r5,r4]
        0x0000450c:    2800        .(      CMP      r0,#0
        0x0000450e:    d008        ..      BEQ      0x4522 ; switch_handle + 52
        0x00004510:    2864        d(      CMP      r0,#0x64
        0x00004512:    d301        ..      BCC      0x4518 ; switch_handle + 42
        0x00004514:    2101        .!      MOVS     r1,#1
        0x00004516:    e000        ..      B        0x451a ; switch_handle + 44
        0x00004518:    2100        .!      MOVS     r1,#0
        0x0000451a:    4620         F      MOV      r0,r4
        0x0000451c:    f7ffff5e    ..^.    BL       switch_event_trigger ; 0x43dc
        0x00004520:    552f        /U      STRB     r7,[r5,r4]
        0x00004522:    1c64        d.      ADDS     r4,r4,#1
        0x00004524:    b2e4        ..      UXTB     r4,r4
        0x00004526:    2c08        .,      CMP      r4,#8
        0x00004528:    d3e8        ..      BCC      0x44fc ; switch_handle + 14
        0x0000452a:    bdf8        ..      POP      {r3-r7,pc}
    norm_input_dz
        0x0000452c:    b5f8        ..      PUSH     {r3-r7,lr}
        0x0000452e:    7a01        .z      LDRB     r1,[r0,#8]
        0x00004530:    2900        .)      CMP      r1,#0
        0x00004532:    d002        ..      BEQ      0x453a ; norm_input_dz + 14
        0x00004534:    2700        .'      MOVS     r7,#0
        0x00004536:    43ff        .C      MVNS     r7,r7
        0x00004538:    e000        ..      B        0x453c ; norm_input_dz + 16
        0x0000453a:    2701        .'      MOVS     r7,#1
        0x0000453c:    88c1        ..      LDRH     r1,[r0,#6]
        0x0000453e:    8942        B.      LDRH     r2,[r0,#0xa]
        0x00004540:    1a8b        ..      SUBS     r3,r1,r2
        0x00004542:    b21c        ..      SXTH     r4,r3
        0x00004544:    1889        ..      ADDS     r1,r1,r2
        0x00004546:    b20d        ..      SXTH     r5,r1
        0x00004548:    8806        ..      LDRH     r6,[r0,#0]
        0x0000454a:    42a6        .B      CMP      r6,r4
        0x0000454c:    da14        ..      BGE      0x4578 ; norm_input_dz + 76
        0x0000454e:    8881        ..      LDRH     r1,[r0,#4]
        0x00004550:    42a1        .B      CMP      r1,r4
        0x00004552:    da11        ..      BGE      0x4578 ; norm_input_dz + 76
        0x00004554:    1a60        `.      SUBS     r0,r4,r1
        0x00004556:    f000fdb1    ....    BL       __aeabi_i2f ; 0x50bc
        0x0000455a:    4605        .F      MOV      r5,r0
        0x0000455c:    1b30        0.      SUBS     r0,r6,r4
        0x0000455e:    f000fdad    ....    BL       __aeabi_i2f ; 0x50bc
        0x00004562:    4604        .F      MOV      r4,r0
        0x00004564:    4638        8F      MOV      r0,r7
        0x00004566:    f000fda9    ....    BL       __aeabi_i2f ; 0x50bc
        0x0000456a:    4621        !F      MOV      r1,r4
        0x0000456c:    f000fb77    ..w.    BL       __aeabi_fmul ; 0x4c5e
        0x00004570:    4629        )F      MOV      r1,r5
        0x00004572:    f000fbb1    ....    BL       __aeabi_fdiv ; 0x4cd8
        0x00004576:    e017        ..      B        0x45a8 ; norm_input_dz + 124
        0x00004578:    42ae        .B      CMP      r6,r5
        0x0000457a:    dd14        ..      BLE      0x45a6 ; norm_input_dz + 122
        0x0000457c:    8840        @.      LDRH     r0,[r0,#2]
        0x0000457e:    42a8        .B      CMP      r0,r5
        0x00004580:    dd11        ..      BLE      0x45a6 ; norm_input_dz + 122
        0x00004582:    1b40        @.      SUBS     r0,r0,r5
        0x00004584:    f000fd9a    ....    BL       __aeabi_i2f ; 0x50bc
        0x00004588:    4604        .F      MOV      r4,r0
        0x0000458a:    1b70        p.      SUBS     r0,r6,r5
        0x0000458c:    f000fd96    ....    BL       __aeabi_i2f ; 0x50bc
        0x00004590:    4605        .F      MOV      r5,r0
        0x00004592:    4638        8F      MOV      r0,r7
        0x00004594:    f000fd92    ....    BL       __aeabi_i2f ; 0x50bc
        0x00004598:    4629        )F      MOV      r1,r5
        0x0000459a:    f000fb60    ..`.    BL       __aeabi_fmul ; 0x4c5e
        0x0000459e:    4621        !F      MOV      r1,r4
        0x000045a0:    f000fb9a    ....    BL       __aeabi_fdiv ; 0x4cd8
        0x000045a4:    e000        ..      B        0x45a8 ; norm_input_dz + 124
        0x000045a6:    2000        .       MOVS     r0,#0
        0x000045a8:    227f        ."      MOVS     r2,#0x7f
        0x000045aa:    05d2        ..      LSLS     r2,r2,#23
        0x000045ac:    493e        >I      LDR      r1,[pc,#248] ; [0x46a8] = 0xbf800000
        0x000045ae:    f7fcff2b    ..+.    BL       constrain_float ; 0x1408
        0x000045b2:    bdf8        ..      POP      {r3-r7,pc}
    channel_input_to_target
        0x000045b4:    b510        ..      PUSH     {r4,lr}
        0x000045b6:    460c        .F      MOV      r4,r1
        0x000045b8:    f7ffffb8    ....    BL       norm_input_dz ; 0x452c
        0x000045bc:    4621        !F      MOV      r1,r4
        0x000045be:    f000fb4e    ..N.    BL       __aeabi_fmul ; 0x4c5e
        0x000045c2:    bd10        ..      POP      {r4,pc}
    get_desired_leans_angles
        0x000045c4:    b5fe        ..      PUSH     {r1-r7,lr}
        0x000045c6:    4604        .F      MOV      r4,r0
        0x000045c8:    460d        .F      MOV      r5,r1
        0x000045ca:    4838        8H      LDR      r0,[pc,#224] ; [0x46ac] = 0x42340000
        0x000045cc:    4285        .B      CMP      r5,r0
        0x000045ce:    dd00        ..      BLE      0x45d2 ; get_desired_leans_angles + 14
        0x000045d0:    4605        .F      MOV      r5,r0
        0x000045d2:    480b        .H      LDR      r0,[pc,#44] ; [0x4600] = 0x2000079c
        0x000045d4:    4629        )F      MOV      r1,r5
        0x000045d6:    300c        .0      ADDS     r0,r0,#0xc
        0x000045d8:    f7ffffec    ....    BL       channel_input_to_target ; 0x45b4
        0x000045dc:    9001        ..      STR      r0,[sp,#4]
        0x000045de:    4629        )F      MOV      r1,r5
        0x000045e0:    4807        .H      LDR      r0,[pc,#28] ; [0x4600] = 0x2000079c
        0x000045e2:    f7ffffe7    ....    BL       channel_input_to_target ; 0x45b4
        0x000045e6:    9000        ..      STR      r0,[sp,#0]
        0x000045e8:    9900        ..      LDR      r1,[sp,#0]
        0x000045ea:    4608        .F      MOV      r0,r1
        0x000045ec:    f000fb37    ..7.    BL       __aeabi_fmul ; 0x4c5e
        0x000045f0:    9901        ..      LDR      r1,[sp,#4]
        0x000045f2:    4606        .F      MOV      r6,r0
        0x000045f4:    4608        .F      MOV      r0,r1
        0x000045f6:    f000fb32    ..2.    BL       __aeabi_fmul ; 0x4c5e
        0x000045fa:    4631        1F      MOV      r1,r6
        0x000045fc:    e058        X.      B        0x46b0 ; get_desired_leans_angles + 236
    $d
        0x000045fe:    0000        ..      DCW    0
        0x00004600:    2000079c    ...     DCD    536872860
        0x00004604:    20000103    ...     DCD    536871171
        0x00004608:    6c6c6f72    roll    DCD    1819045746
        0x0000460c:    646f6320     cod    DCD    1685021472
        0x00004610:    30203a65    e: 0    DCD    807418469
        0x00004614:    20582578    x%X     DCD    542647672
        0x00004618:    58257830    0x%X    DCD    1478850608
        0x0000461c:    25783020     0x%    DCD    628633632
        0x00004620:    00000a58    X...    DCD    2648
        0x00004624:    2000017c    |..     DCD    536871292
        0x00004628:    78206672    rf x    DCD    2015389298
        0x0000462c:    3031736e    ns10    DCD    808547182
        0x00004630:    6e692034    4 in    DCD    1852383284
        0x00004634:    73207469    it s    DCD    1931506793
        0x00004638:    65636375    ucce    DCD    1701012341
        0x0000463c:    000a7373    ss..    DCD    684915
        0x00004640:    2000018c    ...     DCD    536871308
        0x00004644:    3c23d70a    ..#<    DCD    1008981770
        0x00004648:    42c80000    ...B    DCD    1120403456
        0x0000464c:    5f746573    set_    DCD    1601463667
        0x00004650:    5f646970    pid_    DCD    1600416112
        0x00004654:    61726170    para    DCD    1634886000
        0x00004658:    3a705f6d    m_p:    DCD    980442989
        0x0000465c:    00006925    %i..    DCD    26917
        0x00004660:    20746573    set     DCD    544499059
        0x00004664:    48746c41    AltH    DCD    1215589441
        0x00004668:    20646c6f    old     DCD    543452271
        0x0000466c:    65646f6d    mode    DCD    1701080941
        0x00004670:    00000a2e    ....    DCD    2606
        0x00004674:    3a03126f    o..:    DCD    973279855
        0x00004678:    461c4000    .@.F    DCD    1176256512
        0x0000467c:    5f746573    set_    DCD    1601463667
        0x00004680:    5f646970    pid_    DCD    1600416112
        0x00004684:    61726170    para    DCD    1634886000
        0x00004688:    3a645f6d    m_d:    DCD    979656557
        0x0000468c:    00006425    %d..    DCD    25637
        0x00004690:    20746573    set     DCD    544499059
        0x00004694:    62617453    Stab    DCD    1650553939
        0x00004698:    7a696c69    iliz    DCD    2053729385
        0x0000469c:    6f6d2065    e mo    DCD    1869422693
        0x000046a0:    0a2e6564    de..    DCD    170812772
        0x000046a4:    00000000    ....    DCD    0
        0x000046a8:    bf800000    ....    DCD    3212836864
        0x000046ac:    42340000    ..4B    DCD    1110704128
    $t
        0x000046b0:    f000fa7c    ..|.    BL       __aeabi_fadd ; 0x4bac
        0x000046b4:    4606        .F      MOV      r6,r0
        0x000046b6:    4629        )F      MOV      r1,r5
        0x000046b8:    4628        (F      MOV      r0,r5
        0x000046ba:    f000fad0    ....    BL       __aeabi_fmul ; 0x4c5e
        0x000046be:    4631        1F      MOV      r1,r6
        0x000046c0:    f000fd80    ....    BL       __aeabi_cfcmpeq ; 0x51c4
        0x000046c4:    d211        ..      BCS      0x46ea ; get_desired_leans_angles + 294
        0x000046c6:    4630        0F      MOV      r0,r6
        0x000046c8:    f7fcfe68    ..h.    BL       Q_rsqrt ; 0x139c
        0x000046cc:    4601        .F      MOV      r1,r0
        0x000046ce:    4628        (F      MOV      r0,r5
        0x000046d0:    f000fac5    ....    BL       __aeabi_fmul ; 0x4c5e
        0x000046d4:    4606        .F      MOV      r6,r0
        0x000046d6:    4631        1F      MOV      r1,r6
        0x000046d8:    9801        ..      LDR      r0,[sp,#4]
        0x000046da:    f000fac0    ....    BL       __aeabi_fmul ; 0x4c5e
        0x000046de:    9001        ..      STR      r0,[sp,#4]
        0x000046e0:    4631        1F      MOV      r1,r6
        0x000046e2:    9800        ..      LDR      r0,[sp,#0]
        0x000046e4:    f000fabb    ....    BL       __aeabi_fmul ; 0x4c5e
        0x000046e8:    9000        ..      STR      r0,[sp,#0]
        0x000046ea:    4f9e        .O      LDR      r7,[pc,#632] ; [0x4964] = 0x3c8efa35
        0x000046ec:    9801        ..      LDR      r0,[sp,#4]
        0x000046ee:    4639        9F      MOV      r1,r7
        0x000046f0:    f000fab5    ....    BL       __aeabi_fmul ; 0x4c5e
        0x000046f4:    f002fa44    ..D.    BL       tanf ; 0x6b80
        0x000046f8:    4606        .F      MOV      r6,r0
        0x000046fa:    4639        9F      MOV      r1,r7
        0x000046fc:    9800        ..      LDR      r0,[sp,#0]
        0x000046fe:    f000faae    ....    BL       __aeabi_fmul ; 0x4c5e
        0x00004702:    f002f867    ..g.    BL       cosf ; 0x67d4
        0x00004706:    4631        1F      MOV      r1,r6
        0x00004708:    f000faa9    ....    BL       __aeabi_fmul ; 0x4c5e
        0x0000470c:    f001ff66    ..f.    BL       atanf ; 0x65dc
        0x00004710:    4995        .I      LDR      r1,[pc,#596] ; [0x4968] = 0x42652ee0
        0x00004712:    f000faa4    ....    BL       __aeabi_fmul ; 0x4c5e
        0x00004716:    6020         `      STR      r0,[r4,#0]
        0x00004718:    9800        ..      LDR      r0,[sp,#0]
        0x0000471a:    6060        ``      STR      r0,[r4,#4]
        0x0000471c:    4629        )F      MOV      r1,r5
        0x0000471e:    4893        .H      LDR      r0,[pc,#588] ; [0x496c] = 0x200007c0
        0x00004720:    f7ffff48    ..H.    BL       channel_input_to_target ; 0x45b4
        0x00004724:    4992        .I      LDR      r1,[pc,#584] ; [0x4970] = 0x2000030c
        0x00004726:    6809        .h      LDR      r1,[r1,#0]
        0x00004728:    f000fa99    ....    BL       __aeabi_fmul ; 0x4c5e
        0x0000472c:    60a0        .`      STR      r0,[r4,#8]
        0x0000472e:    bdfe        ..      POP      {r1-r7,pc}
    get_desired_throttle_expo
        0x00004730:    b5fe        ..      PUSH     {r1-r7,lr}
        0x00004732:    4890        .H      LDR      r0,[pc,#576] ; [0x4974] = 0x2000017c
        0x00004734:    7900        .y      LDRB     r0,[r0,#4]
        0x00004736:    2800        .(      CMP      r0,#0
        0x00004738:    d001        ..      BEQ      0x473e ; get_desired_throttle_expo + 14
        0x0000473a:    2000        .       MOVS     r0,#0
        0x0000473c:    bdfe        ..      POP      {r1-r7,pc}
        0x0000473e:    488b        .H      LDR      r0,[pc,#556] ; [0x496c] = 0x200007c0
        0x00004740:    380c        .8      SUBS     r0,r0,#0xc
        0x00004742:    f7fffef3    ....    BL       norm_input_dz ; 0x452c
        0x00004746:    217f        .!      MOVS     r1,#0x7f
        0x00004748:    05c9        ..      LSLS     r1,r1,#23
        0x0000474a:    f000fa2f    ../.    BL       __aeabi_fadd ; 0x4bac
        0x0000474e:    2100        .!      MOVS     r1,#0
        0x00004750:    43c9        .C      MVNS     r1,r1
        0x00004752:    f000faff    ....    BL       __ARM_scalbnf ; 0x4d54
        0x00004756:    f000fcf0    ....    BL       __aeabi_f2d ; 0x513a
        0x0000475a:    4606        .F      MOV      r6,r0
        0x0000475c:    460f        .F      MOV      r7,r1
        0x0000475e:    4604        .F      MOV      r4,r0
        0x00004760:    460d        .F      MOV      r5,r1
        0x00004762:    4a85        .J      LDR      r2,[pc,#532] ; [0x4978] = 0x9999999a
        0x00004764:    4b85        .K      LDR      r3,[pc,#532] ; [0x497c] = 0x3fd99999
        0x00004766:    9100        ..      STR      r1,[sp,#0]
        0x00004768:    9001        ..      STR      r0,[sp,#4]
        0x0000476a:    f000fbb1    ....    BL       __aeabi_dmul ; 0x4ed0
        0x0000476e:    4622        "F      MOV      r2,r4
        0x00004770:    462b        +F      MOV      r3,r5
        0x00004772:    f000fbad    ....    BL       __aeabi_dmul ; 0x4ed0
        0x00004776:    4632        2F      MOV      r2,r6
        0x00004778:    463b        ;F      MOV      r3,r7
        0x0000477a:    f000fba9    ....    BL       __aeabi_dmul ; 0x4ed0
        0x0000477e:    4604        .F      MOV      r4,r0
        0x00004780:    460d        .F      MOV      r5,r1
        0x00004782:    4a7f        .J      LDR      r2,[pc,#508] ; [0x4980] = 0x33333333
        0x00004784:    4b7f        .K      LDR      r3,[pc,#508] ; [0x4984] = 0x3fe33333
        0x00004786:    9900        ..      LDR      r1,[sp,#0]
        0x00004788:    9801        ..      LDR      r0,[sp,#4]
        0x0000478a:    f000fba1    ....    BL       __aeabi_dmul ; 0x4ed0
        0x0000478e:    4622        "F      MOV      r2,r4
        0x00004790:    462b        +F      MOV      r3,r5
        0x00004792:    f000faeb    ....    BL       __aeabi_dadd ; 0x4d6c
        0x00004796:    f000fcf9    ....    BL       __aeabi_d2f ; 0x518c
        0x0000479a:    4a7b        {J      LDR      r2,[pc,#492] ; [0x4988] = 0x3f733333
        0x0000479c:    2100        .!      MOVS     r1,#0
        0x0000479e:    f7fcfe33    ..3.    BL       constrain_float ; 0x1408
        0x000047a2:    bdfe        ..      POP      {r1-r7,pc}
    get_desired_climb_rate
        0x000047a4:    b5f8        ..      PUSH     {r3-r7,lr}
        0x000047a6:    2400        .$      MOVS     r4,#0
        0x000047a8:    4870        pH      LDR      r0,[pc,#448] ; [0x496c] = 0x200007c0
        0x000047aa:    380c        .8      SUBS     r0,r0,#0xc
        0x000047ac:    f7fffebe    ....    BL       norm_input_dz ; 0x452c
        0x000047b0:    217f        .!      MOVS     r1,#0x7f
        0x000047b2:    05c9        ..      LSLS     r1,r1,#23
        0x000047b4:    f000f9fa    ....    BL       __aeabi_fadd ; 0x4bac
        0x000047b8:    1e61        a.      SUBS     r1,r4,#1
        0x000047ba:    f000facb    ....    BL       __ARM_scalbnf ; 0x4d54
        0x000047be:    4e73        sN      LDR      r6,[pc,#460] ; [0x498c] = 0x447a0000
        0x000047c0:    4631        1F      MOV      r1,r6
        0x000047c2:    f000fa4c    ..L.    BL       __aeabi_fmul ; 0x4c5e
        0x000047c6:    4f72        rO      LDR      r7,[pc,#456] ; [0x4990] = 0x44160000
        0x000047c8:    4d72        rM      LDR      r5,[pc,#456] ; [0x4994] = 0x43c80000
        0x000047ca:    496a        jI      LDR      r1,[pc,#424] ; [0x4974] = 0x2000017c
        0x000047cc:    7909        .y      LDRB     r1,[r1,#4]
        0x000047ce:    2900        .)      CMP      r1,#0
        0x000047d0:    d001        ..      BEQ      0x47d6 ; get_desired_climb_rate + 50
        0x000047d2:    2000        .       MOVS     r0,#0
        0x000047d4:    bdf8        ..      POP      {r3-r7,pc}
        0x000047d6:    4632        2F      MOV      r2,r6
        0x000047d8:    2100        .!      MOVS     r1,#0
        0x000047da:    f7fcfe15    ....    BL       constrain_float ; 0x1408
        0x000047de:    4606        .F      MOV      r6,r0
        0x000047e0:    4629        )F      MOV      r1,r5
        0x000047e2:    4630        0F      MOV      r0,r6
        0x000047e4:    f000fcee    ....    BL       __aeabi_cfcmpeq ; 0x51c4
        0x000047e8:    d20b        ..      BCS      0x4802 ; get_desired_climb_rate + 94
        0x000047ea:    4629        )F      MOV      r1,r5
        0x000047ec:    4630        0F      MOV      r0,r6
        0x000047ee:    f000fa2e    ....    BL       __aeabi_fsub ; 0x4c4e
        0x000047f2:    4969        iI      LDR      r1,[pc,#420] ; [0x4998] = 0x437a0000
        0x000047f4:    f000fa33    ..3.    BL       __aeabi_fmul ; 0x4c5e
        0x000047f8:    4629        )F      MOV      r1,r5
        0x000047fa:    f000fa6d    ..m.    BL       __aeabi_fdiv ; 0x4cd8
        0x000047fe:    4604        .F      MOV      r4,r0
        0x00004800:    e00f        ..      B        0x4822 ; get_desired_climb_rate + 126
        0x00004802:    4639        9F      MOV      r1,r7
        0x00004804:    4630        0F      MOV      r0,r6
        0x00004806:    f000fce7    ....    BL       __aeabi_cfrcmple ; 0x51d8
        0x0000480a:    d20a        ..      BCS      0x4822 ; get_desired_climb_rate + 126
        0x0000480c:    4639        9F      MOV      r1,r7
        0x0000480e:    4630        0F      MOV      r0,r6
        0x00004810:    f000fa1d    ....    BL       __aeabi_fsub ; 0x4c4e
        0x00004814:    4960        `I      LDR      r1,[pc,#384] ; [0x4998] = 0x437a0000
        0x00004816:    f000fa22    ..".    BL       __aeabi_fmul ; 0x4c5e
        0x0000481a:    4629        )F      MOV      r1,r5
        0x0000481c:    f000fa5c    ..\.    BL       __aeabi_fdiv ; 0x4cd8
        0x00004820:    4604        .F      MOV      r4,r0
        0x00004822:    4620         F      MOV      r0,r4
        0x00004824:    bdf8        ..      POP      {r3-r7,pc}
    check_motor_armed
        0x00004826:    b5f8        ..      PUSH     {r3-r7,lr}
        0x00004828:    4b50        PK      LDR      r3,[pc,#320] ; [0x496c] = 0x200007c0
        0x0000482a:    4d52        RM      LDR      r5,[pc,#328] ; [0x4974] = 0x2000017c
        0x0000482c:    3b24        $;      SUBS     r3,r3,#0x24
        0x0000482e:    8998        ..      LDRH     r0,[r3,#0xc]
        0x00004830:    782a        *x      LDRB     r2,[r5,#0]
        0x00004832:    4684        .F      MOV      r12,r0
        0x00004834:    8c98        ..      LDRH     r0,[r3,#0x24]
        0x00004836:    881f        ..      LDRH     r7,[r3,#0]
        0x00004838:    4686        .F      MOV      lr,r0
        0x0000483a:    8b18        ..      LDRH     r0,[r3,#0x18]
        0x0000483c:    2400        .$      MOVS     r4,#0
        0x0000483e:    4e57        WN      LDR      r6,[pc,#348] ; [0x499c] = 0x20000100
        0x00004840:    2a00        .*      CMP      r2,#0
        0x00004842:    d013        ..      BEQ      0x486c ; check_motor_armed + 70
        0x00004844:    4619        .F      MOV      r1,r3
        0x00004846:    3120         1      ADDS     r1,r1,#0x20
        0x00004848:    7809        .x      LDRB     r1,[r1,#0]
        0x0000484a:    2a01        .*      CMP      r2,#1
        0x0000484c:    d025        %.      BEQ      0x489a ; check_motor_armed + 116
        0x0000484e:    2a02        .*      CMP      r2,#2
        0x00004850:    d120         .      BNE      0x4894 ; check_motor_armed + 110
        0x00004852:    461a        .F      MOV      r2,r3
        0x00004854:    8c52        R.      LDRH     r2,[r2,#0x22]
        0x00004856:    270a        .'      MOVS     r7,#0xa
        0x00004858:    437a        zC      MULS     r2,r7,r2
        0x0000485a:    2900        .)      CMP      r1,#0
        0x0000485c:    d003        ..      BEQ      0x4866 ; check_motor_armed + 64
        0x0000485e:    8b5f        _.      LDRH     r7,[r3,#0x1a]
        0x00004860:    1abf        ..      SUBS     r7,r7,r2
        0x00004862:    4287        .B      CMP      r7,r0
        0x00004864:    db50        P.      BLT      0x4908 ; check_motor_armed + 226
        0x00004866:    2900        .)      CMP      r1,#0
        0x00004868:    d04a        J.      BEQ      0x4900 ; check_motor_armed + 218
        0x0000486a:    e063        c.      B        0x4934 ; check_motor_armed + 270
        0x0000486c:    494c        LI      LDR      r1,[pc,#304] ; [0x49a0] = 0xb33
        0x0000486e:    428f        .B      CMP      r7,r1
        0x00004870:    d911        ..      BLS      0x4896 ; check_motor_armed + 112
        0x00004872:    4b4c        LK      LDR      r3,[pc,#304] ; [0x49a4] = 0x4cd
        0x00004874:    459c        .E      CMP      r12,r3
        0x00004876:    d20e        ..      BCS      0x4896 ; check_motor_armed + 112
        0x00004878:    4288        .B      CMP      r0,r1
        0x0000487a:    d90c        ..      BLS      0x4896 ; check_motor_armed + 112
        0x0000487c:    458e        .E      CMP      lr,r1
        0x0000487e:    d90a        ..      BLS      0x4896 ; check_motor_armed + 112
        0x00004880:    7870        px      LDRB     r0,[r6,#1]
        0x00004882:    1c40        @.      ADDS     r0,r0,#1
        0x00004884:    b2c0        ..      UXTB     r0,r0
        0x00004886:    7070        pp      STRB     r0,[r6,#1]
        0x00004888:    280a        .(      CMP      r0,#0xa
        0x0000488a:    d903        ..      BLS      0x4894 ; check_motor_armed + 110
        0x0000488c:    2001        .       MOVS     r0,#1
        0x0000488e:    7028        (p      STRB     r0,[r5,#0]
        0x00004890:    7074        tp      STRB     r4,[r6,#1]
        0x00004892:    70b4        .p      STRB     r4,[r6,#2]
        0x00004894:    bdf8        ..      POP      {r3-r7,pc}
        0x00004896:    7074        tp      STRB     r4,[r6,#1]
        0x00004898:    bdf8        ..      POP      {r3-r7,pc}
        0x0000489a:    4b40        @K      LDR      r3,[pc,#256] ; [0x499c] = 0x20000100
        0x0000489c:    789a        .x      LDRB     r2,[r3,#2]
        0x0000489e:    1c52        R.      ADDS     r2,r2,#1
        0x000048a0:    b2d2        ..      UXTB     r2,r2
        0x000048a2:    709a        .p      STRB     r2,[r3,#2]
        0x000048a4:    2a64        d*      CMP      r2,#0x64
        0x000048a6:    d902        ..      BLS      0x48ae ; check_motor_armed + 136
        0x000048a8:    702c        ,p      STRB     r4,[r5,#0]
        0x000048aa:    461a        .F      MOV      r2,r3
        0x000048ac:    7094        .p      STRB     r4,[r2,#2]
        0x000048ae:    4b2f        /K      LDR      r3,[pc,#188] ; [0x496c] = 0x200007c0
        0x000048b0:    3b24        $;      SUBS     r3,r3,#0x24
        0x000048b2:    8bda        ..      LDRH     r2,[r3,#0x1e]
        0x000048b4:    8c5b        [.      LDRH     r3,[r3,#0x22]
        0x000048b6:    005b        [.      LSLS     r3,r3,#1
        0x000048b8:    2900        .)      CMP      r1,#0
        0x000048ba:    d002        ..      BEQ      0x48c2 ; check_motor_armed + 156
        0x000048bc:    1ad6        ..      SUBS     r6,r2,r3
        0x000048be:    4286        .B      CMP      r6,r0
        0x000048c0:    dc04        ..      BGT      0x48cc ; check_motor_armed + 166
        0x000048c2:    2900        .)      CMP      r1,#0
        0x000048c4:    d105        ..      BNE      0x48d2 ; check_motor_armed + 172
        0x000048c6:    18d1        ..      ADDS     r1,r2,r3
        0x000048c8:    4281        .B      CMP      r1,r0
        0x000048ca:    d202        ..      BCS      0x48d2 ; check_motor_armed + 172
        0x000048cc:    2002        .       MOVS     r0,#2
        0x000048ce:    7028        (p      STRB     r0,[r5,#0]
        0x000048d0:    bdf8        ..      POP      {r3-r7,pc}
        0x000048d2:    4933        3I      LDR      r1,[pc,#204] ; [0x49a0] = 0xb33
        0x000048d4:    428f        .B      CMP      r7,r1
        0x000048d6:    d910        ..      BLS      0x48fa ; check_motor_armed + 212
        0x000048d8:    458c        .E      CMP      r12,r1
        0x000048da:    d90e        ..      BLS      0x48fa ; check_motor_armed + 212
        0x000048dc:    4288        .B      CMP      r0,r1
        0x000048de:    d90c        ..      BLS      0x48fa ; check_motor_armed + 212
        0x000048e0:    4830        0H      LDR      r0,[pc,#192] ; [0x49a4] = 0x4cd
        0x000048e2:    4586        .E      CMP      lr,r0
        0x000048e4:    d209        ..      BCS      0x48fa ; check_motor_armed + 212
        0x000048e6:    492d        -I      LDR      r1,[pc,#180] ; [0x499c] = 0x20000100
        0x000048e8:    7848        Hx      LDRB     r0,[r1,#1]
        0x000048ea:    1c40        @.      ADDS     r0,r0,#1
        0x000048ec:    b2c0        ..      UXTB     r0,r0
        0x000048ee:    7048        Hp      STRB     r0,[r1,#1]
        0x000048f0:    280a        .(      CMP      r0,#0xa
        0x000048f2:    d9ed        ..      BLS      0x48d0 ; check_motor_armed + 170
        0x000048f4:    702c        ,p      STRB     r4,[r5,#0]
        0x000048f6:    704c        Lp      STRB     r4,[r1,#1]
        0x000048f8:    bdf8        ..      POP      {r3-r7,pc}
        0x000048fa:    4828        (H      LDR      r0,[pc,#160] ; [0x499c] = 0x20000100
        0x000048fc:    7044        Dp      STRB     r4,[r0,#1]
        0x000048fe:    bdf8        ..      POP      {r3-r7,pc}
        0x00004900:    8b99        ..      LDRH     r1,[r3,#0x1c]
        0x00004902:    1889        ..      ADDS     r1,r1,r2
        0x00004904:    4281        .B      CMP      r1,r0
        0x00004906:    d915        ..      BLS      0x4934 ; check_motor_armed + 270
        0x00004908:    4827        'H      LDR      r0,[pc,#156] ; [0x49a8] = 0x20000514
        0x0000490a:    4928        (I      LDR      r1,[pc,#160] ; [0x49ac] = 0x3dcccccd
        0x0000490c:    6900        .i      LDR      r0,[r0,#0x10]
        0x0000490e:    4288        .B      CMP      r0,r1
        0x00004910:    da10        ..      BGE      0x4934 ; check_motor_armed + 270
        0x00004912:    7870        px      LDRB     r0,[r6,#1]
        0x00004914:    1c40        @.      ADDS     r0,r0,#1
        0x00004916:    b2c0        ..      UXTB     r0,r0
        0x00004918:    7070        pp      STRB     r0,[r6,#1]
        0x0000491a:    280f        .(      CMP      r0,#0xf
        0x0000491c:    d903        ..      BLS      0x4926 ; check_motor_armed + 256
        0x0000491e:    2001        .       MOVS     r0,#1
        0x00004920:    f7fcfb0d    ....    BL       set_land_complete ; 0xf3e
        0x00004924:    7074        tp      STRB     r4,[r6,#1]
        0x00004926:    78a8        .x      LDRB     r0,[r5,#2]
        0x00004928:    2800        .(      CMP      r0,#0
        0x0000492a:    d0e8        ..      BEQ      0x48fe ; check_motor_armed + 216
        0x0000492c:    2001        .       MOVS     r0,#1
        0x0000492e:    7028        (p      STRB     r0,[r5,#0]
        0x00004930:    70b4        .p      STRB     r4,[r6,#2]
        0x00004932:    bdf8        ..      POP      {r3-r7,pc}
        0x00004934:    7074        tp      STRB     r4,[r6,#1]
        0x00004936:    bdf8        ..      POP      {r3-r7,pc}
    check_throttle_is_safe
        0x00004938:    480c        .H      LDR      r0,[pc,#48] ; [0x496c] = 0x200007c0
        0x0000493a:    1f00        ..      SUBS     r0,r0,#4
        0x0000493c:    7801        .x      LDRB     r1,[r0,#0]
        0x0000493e:    3820         8      SUBS     r0,r0,#0x20
        0x00004940:    8b00        ..      LDRH     r0,[r0,#0x18]
        0x00004942:    2900        .)      CMP      r1,#0
        0x00004944:    d006        ..      BEQ      0x4954 ; check_throttle_is_safe + 28
        0x00004946:    491a        .I      LDR      r1,[pc,#104] ; [0x49b0] = 0x9f4
        0x00004948:    4288        .B      CMP      r0,r1
        0x0000494a:    d201        ..      BCS      0x4950 ; check_throttle_is_safe + 24
        0x0000494c:    2001        .       MOVS     r0,#1
        0x0000494e:    4770        pG      BX       lr
        0x00004950:    2000        .       MOVS     r0,#0
        0x00004952:    4770        pG      BX       lr
        0x00004954:    4917        .I      LDR      r1,[pc,#92] ; [0x49b4] = 0x60c
        0x00004956:    4288        .B      CMP      r0,r1
        0x00004958:    d901        ..      BLS      0x495e ; check_throttle_is_safe + 38
        0x0000495a:    2001        .       MOVS     r0,#1
        0x0000495c:    4770        pG      BX       lr
        0x0000495e:    2000        .       MOVS     r0,#0
        0x00004960:    4770        pG      BX       lr
    $d
        0x00004962:    0000        ..      DCW    0
        0x00004964:    3c8efa35    5..<    DCD    1016003125
        0x00004968:    42652ee0    ..eB    DCD    1113927392
        0x0000496c:    200007c0    ...     DCD    536872896
        0x00004970:    2000030c    ...     DCD    536871692
        0x00004974:    2000017c    |..     DCD    536871292
        0x00004978:    9999999a    ....    DCD    2576980378
        0x0000497c:    3fd99999    ...?    DCD    1071225241
        0x00004980:    33333333    3333    DCD    858993459
        0x00004984:    3fe33333    33.?    DCD    1071854387
        0x00004988:    3f733333    33s?    DCD    1064514355
        0x0000498c:    447a0000    ..zD    DCD    1148846080
        0x00004990:    44160000    ...D    DCD    1142292480
        0x00004994:    43c80000    ...C    DCD    1137180672
        0x00004998:    437a0000    ..zC    DCD    1132068864
        0x0000499c:    20000100    ...     DCD    536871168
        0x000049a0:    00000b33    3...    DCD    2867
        0x000049a4:    000004cd    ....    DCD    1229
        0x000049a8:    20000514    ...     DCD    536872212
        0x000049ac:    3dcccccd    ...=    DCD    1036831949
        0x000049b0:    000009f4    ....    DCD    2548
        0x000049b4:    0000060c    ....    DCD    1548
    $t
    .text
    RF_RxMode
        0x000049b8:    b510        ..      PUSH     {r4,lr}
        0x000049ba:    2100        .!      MOVS     r1,#0
        0x000049bc:    20fc        .       MOVS     r0,#0xfc
        0x000049be:    f7fff91b    ....    BL       SPI_WriteReg ; 0x3bf8
        0x000049c2:    218f        .!      MOVS     r1,#0x8f
        0x000049c4:    2020                MOVS     r0,#0x20
        0x000049c6:    f7fff917    ....    BL       SPI_WriteReg ; 0x3bf8
        0x000049ca:    2100        .!      MOVS     r1,#0
        0x000049cc:    20fd        .       MOVS     r0,#0xfd
        0x000049ce:    f7fff913    ....    BL       SPI_WriteReg ; 0x3bf8
        0x000049d2:    217d        }!      MOVS     r1,#0x7d
        0x000049d4:    0109        ..      LSLS     r1,r1,#4
        0x000049d6:    484e        NH      LDR      r0,[pc,#312] ; [0x4b10] = 0x40010000
        0x000049d8:    f7fffb88    ....    BL       TIMER_Delay ; 0x40ec
        0x000049dc:    bd10        ..      POP      {r4,pc}
    ucRF_GetStatus
        0x000049de:    b510        ..      PUSH     {r4,lr}
        0x000049e0:    2007        .       MOVS     r0,#7
        0x000049e2:    f7fff92b    ..+.    BL       SPI_ReadReg ; 0x3c3c
        0x000049e6:    2170        p!      MOVS     r1,#0x70
        0x000049e8:    4008        .@      ANDS     r0,r0,r1
        0x000049ea:    bd10        ..      POP      {r4,pc}
    RF_ClearStatus
        0x000049ec:    b510        ..      PUSH     {r4,lr}
        0x000049ee:    2170        p!      MOVS     r1,#0x70
        0x000049f0:    2027        '       MOVS     r0,#0x27
        0x000049f2:    f7fff901    ....    BL       SPI_WriteReg ; 0x3bf8
        0x000049f6:    bd10        ..      POP      {r4,pc}
    RF_ClearFIFO
        0x000049f8:    b510        ..      PUSH     {r4,lr}
        0x000049fa:    2100        .!      MOVS     r1,#0
        0x000049fc:    20e1        .       MOVS     r0,#0xe1
        0x000049fe:    f7fff8fb    ....    BL       SPI_WriteReg ; 0x3bf8
        0x00004a02:    2100        .!      MOVS     r1,#0
        0x00004a04:    20e2        .       MOVS     r0,#0xe2
        0x00004a06:    f7fff8f7    ....    BL       SPI_WriteReg ; 0x3bf8
        0x00004a0a:    bd10        ..      POP      {r4,pc}
    ucRF_DumpRxData
        0x00004a0c:    b570        p.      PUSH     {r4-r6,lr}
        0x00004a0e:    4604        .F      MOV      r4,r0
        0x00004a10:    460d        .F      MOV      r5,r1
        0x00004a12:    f7ffffe4    ....    BL       ucRF_GetStatus ; 0x49de
        0x00004a16:    0640        @.      LSLS     r0,r0,#25
        0x00004a18:    d512        ..      BPL      0x4a40 ; ucRF_DumpRxData + 52
        0x00004a1a:    2100        .!      MOVS     r1,#0
        0x00004a1c:    20fc        .       MOVS     r0,#0xfc
        0x00004a1e:    f7fff8eb    ....    BL       SPI_WriteReg ; 0x3bf8
        0x00004a22:    462a        *F      MOV      r2,r5
        0x00004a24:    4621        !F      MOV      r1,r4
        0x00004a26:    2061        a       MOVS     r0,#0x61
        0x00004a28:    f7fff914    ....    BL       SPI_ReadBuf ; 0x3c54
        0x00004a2c:    f7ffffe4    ....    BL       RF_ClearFIFO ; 0x49f8
        0x00004a30:    f7ffffdc    ....    BL       RF_ClearStatus ; 0x49ec
        0x00004a34:    2100        .!      MOVS     r1,#0
        0x00004a36:    20fd        .       MOVS     r0,#0xfd
        0x00004a38:    f7fff8de    ....    BL       SPI_WriteReg ; 0x3bf8
        0x00004a3c:    2001        .       MOVS     r0,#1
        0x00004a3e:    bd70        p.      POP      {r4-r6,pc}
        0x00004a40:    2000        .       MOVS     r0,#0
        0x00004a42:    bd70        p.      POP      {r4-r6,pc}
    RF_Init
        0x00004a44:    b510        ..      PUSH     {r4,lr}
        0x00004a46:    b088        ..      SUB      sp,sp,#0x20
        0x00004a48:    a032        2.      ADR      r0,{pc}+0xcc ; 0x4b14
        0x00004a4a:    c803        ..      LDM      r0,{r0,r1}
        0x00004a4c:    9107        ..      STR      r1,[sp,#0x1c]
        0x00004a4e:    9006        ..      STR      r0,[sp,#0x18]
        0x00004a50:    a032        2.      ADR      r0,{pc}+0xcc ; 0x4b1c
        0x00004a52:    6800        .h      LDR      r0,[r0,#0]
        0x00004a54:    9005        ..      STR      r0,[sp,#0x14]
        0x00004a56:    a032        2.      ADR      r0,{pc}+0xca ; 0x4b20
        0x00004a58:    c803        ..      LDM      r0,{r0,r1}
        0x00004a5a:    9104        ..      STR      r1,[sp,#0x10]
        0x00004a5c:    9003        ..      STR      r0,[sp,#0xc]
        0x00004a5e:    a032        2.      ADR      r0,{pc}+0xca ; 0x4b28
        0x00004a60:    6800        .h      LDR      r0,[r0,#0]
        0x00004a62:    9002        ..      STR      r0,[sp,#8]
        0x00004a64:    a031        1.      ADR      r0,{pc}+0xc8 ; 0x4b2c
        0x00004a66:    6800        .h      LDR      r0,[r0,#0]
        0x00004a68:    9001        ..      STR      r0,[sp,#4]
        0x00004a6a:    2420         $      MOVS     r4,#0x20
        0x00004a6c:    2100        .!      MOVS     r1,#0
        0x00004a6e:    20e1        .       MOVS     r0,#0xe1
        0x00004a70:    f7fff8c2    ....    BL       SPI_WriteReg ; 0x3bf8
        0x00004a74:    2100        .!      MOVS     r1,#0
        0x00004a76:    20e2        .       MOVS     r0,#0xe2
        0x00004a78:    f7fff8be    ....    BL       SPI_WriteReg ; 0x3bf8
        0x00004a7c:    2170        p!      MOVS     r1,#0x70
        0x00004a7e:    2027        '       MOVS     r0,#0x27
        0x00004a80:    f7fff8ba    ....    BL       SPI_WriteReg ; 0x3bf8
        0x00004a84:    2101        .!      MOVS     r1,#1
        0x00004a86:    2022        "       MOVS     r0,#0x22
        0x00004a88:    f7fff8b6    ....    BL       SPI_WriteReg ; 0x3bf8
        0x00004a8c:    214e        N!      MOVS     r1,#0x4e
        0x00004a8e:    2025        %       MOVS     r0,#0x25
        0x00004a90:    f7fff8b2    ....    BL       SPI_WriteReg ; 0x3bf8
        0x00004a94:    2111        .!      MOVS     r1,#0x11
        0x00004a96:    2031        1       MOVS     r0,#0x31
        0x00004a98:    f7fff8ae    ....    BL       SPI_WriteReg ; 0x3bf8
        0x00004a9c:    2205        ."      MOVS     r2,#5
        0x00004a9e:    4924        $I      LDR      r1,[pc,#144] ; [0x4b30] = 0x6cf0
        0x00004aa0:    2030        0       MOVS     r0,#0x30
        0x00004aa2:    f7fff8b6    ....    BL       SPI_WriteBuf ; 0x3c12
        0x00004aa6:    2205        ."      MOVS     r2,#5
        0x00004aa8:    4921        !I      LDR      r1,[pc,#132] ; [0x4b30] = 0x6cf0
        0x00004aaa:    202a        *       MOVS     r0,#0x2a
        0x00004aac:    f7fff8b1    ....    BL       SPI_WriteBuf ; 0x3c12
        0x00004ab0:    2205        ."      MOVS     r2,#5
        0x00004ab2:    a906        ..      ADD      r1,sp,#0x18
        0x00004ab4:    203f        ?       MOVS     r0,#0x3f
        0x00004ab6:    f7fff8ac    ....    BL       SPI_WriteBuf ; 0x3c12
        0x00004aba:    2206        ."      MOVS     r2,#6
        0x00004abc:    a903        ..      ADD      r1,sp,#0xc
        0x00004abe:    203a        :       MOVS     r0,#0x3a
        0x00004ac0:    f7fff8a7    ....    BL       SPI_WriteBuf ; 0x3c12
        0x00004ac4:    2201        ."      MOVS     r2,#1
        0x00004ac6:    a902        ..      ADD      r1,sp,#8
        0x00004ac8:    2039        9       MOVS     r0,#0x39
        0x00004aca:    f7fff8a2    ....    BL       SPI_WriteBuf ; 0x3c12
        0x00004ace:    2203        ."      MOVS     r2,#3
        0x00004ad0:    a905        ..      ADD      r1,sp,#0x14
        0x00004ad2:    203e        >       MOVS     r0,#0x3e
        0x00004ad4:    f7fff89d    ....    BL       SPI_WriteBuf ; 0x3c12
        0x00004ad8:    2203        ."      MOVS     r2,#3
        0x00004ada:    a901        ..      ADD      r1,sp,#4
        0x00004adc:    203b        ;       MOVS     r0,#0x3b
        0x00004ade:    f7fff898    ....    BL       SPI_WriteBuf ; 0x3c12
        0x00004ae2:    212c        ,!      MOVS     r1,#0x2c
        0x00004ae4:    2026        &       MOVS     r0,#0x26
        0x00004ae6:    f7fff887    ....    BL       SPI_WriteReg ; 0x3bf8
        0x00004aea:    2100        .!      MOVS     r1,#0
        0x00004aec:    2024        $       MOVS     r0,#0x24
        0x00004aee:    f7fff883    ....    BL       SPI_WriteReg ; 0x3bf8
        0x00004af2:    2100        .!      MOVS     r1,#0
        0x00004af4:    2021        !       MOVS     r0,#0x21
        0x00004af6:    f7fff87f    ....    BL       SPI_WriteReg ; 0x3bf8
        0x00004afa:    4621        !F      MOV      r1,r4
        0x00004afc:    203d        =       MOVS     r0,#0x3d
        0x00004afe:    f7fff87b    ..{.    BL       SPI_WriteReg ; 0x3bf8
        0x00004b02:    2100        .!      MOVS     r1,#0
        0x00004b04:    20fc        .       MOVS     r0,#0xfc
        0x00004b06:    f7fff877    ..w.    BL       SPI_WriteReg ; 0x3bf8
        0x00004b0a:    b008        ..      ADD      sp,sp,#0x20
        0x00004b0c:    bd10        ..      POP      {r4,pc}
    $d
        0x00004b0e:    0000        ..      DCW    0
        0x00004b10:    40010000    ...@    DCD    1073807360
        0x00004b14:    9c676d0a    .mg.    DCD    2624023818
        0x00004b18:    00000046    F...    DCD    70
        0x00004b1c:    005d37f6    .7].    DCD    6109174
        0x00004b20:    acef2145    E!..    DCD    2901352773
        0x00004b24:    0000505a    ZP..    DCD    20570
        0x00004b28:    00000001    ....    DCD    1
        0x00004b2c:    0002df0b    ....    DCD    188171
        0x00004b30:    00006cf0    .l..    DCD    27888
    $t
    .text
    __aeabi_uidiv
    __aeabi_uidivmod
        0x00004b34:    b530        0.      PUSH     {r4,r5,lr}
        0x00004b36:    460b        .F      MOV      r3,r1
        0x00004b38:    4601        .F      MOV      r1,r0
        0x00004b3a:    2000        .       MOVS     r0,#0
        0x00004b3c:    2220         "      MOVS     r2,#0x20
        0x00004b3e:    2401        .$      MOVS     r4,#1
        0x00004b40:    e009        ..      B        0x4b56 ; __aeabi_uidiv + 34
        0x00004b42:    460d        .F      MOV      r5,r1
        0x00004b44:    40d5        .@      LSRS     r5,r5,r2
        0x00004b46:    429d        .B      CMP      r5,r3
        0x00004b48:    d305        ..      BCC      0x4b56 ; __aeabi_uidiv + 34
        0x00004b4a:    461d        .F      MOV      r5,r3
        0x00004b4c:    4095        .@      LSLS     r5,r5,r2
        0x00004b4e:    1b49        I.      SUBS     r1,r1,r5
        0x00004b50:    4625        %F      MOV      r5,r4
        0x00004b52:    4095        .@      LSLS     r5,r5,r2
        0x00004b54:    1940        @.      ADDS     r0,r0,r5
        0x00004b56:    4615        .F      MOV      r5,r2
        0x00004b58:    1e52        R.      SUBS     r2,r2,#1
        0x00004b5a:    2d00        .-      CMP      r5,#0
        0x00004b5c:    dcf1        ..      BGT      0x4b42 ; __aeabi_uidiv + 14
        0x00004b5e:    bd30        0.      POP      {r4,r5,pc}
    .text
    __aeabi_idiv
    __aeabi_idivmod
        0x00004b60:    b570        p.      PUSH     {r4-r6,lr}
        0x00004b62:    2400        .$      MOVS     r4,#0
        0x00004b64:    4625        %F      MOV      r5,r4
        0x00004b66:    2800        .(      CMP      r0,#0
        0x00004b68:    da01        ..      BGE      0x4b6e ; __aeabi_idiv + 14
        0x00004b6a:    2401        .$      MOVS     r4,#1
        0x00004b6c:    4240        @B      RSBS     r0,r0,#0
        0x00004b6e:    2900        .)      CMP      r1,#0
        0x00004b70:    da01        ..      BGE      0x4b76 ; __aeabi_idiv + 22
        0x00004b72:    2501        .%      MOVS     r5,#1
        0x00004b74:    4249        IB      RSBS     r1,r1,#0
        0x00004b76:    f7ffffdd    ....    BL       __aeabi_uidiv ; 0x4b34
        0x00004b7a:    42ac        .B      CMP      r4,r5
        0x00004b7c:    d000        ..      BEQ      0x4b80 ; __aeabi_idiv + 32
        0x00004b7e:    4240        @B      RSBS     r0,r0,#0
        0x00004b80:    2c00        .,      CMP      r4,#0
        0x00004b82:    d000        ..      BEQ      0x4b86 ; __aeabi_idiv + 38
        0x00004b84:    4249        IB      RSBS     r1,r1,#0
        0x00004b86:    bd70        p.      POP      {r4-r6,pc}
    .text
    __aeabi_memset
    __aeabi_memset4
    __aeabi_memset8
        0x00004b88:    b2d2        ..      UXTB     r2,r2
        0x00004b8a:    e001        ..      B        0x4b90 ; __aeabi_memset + 8
        0x00004b8c:    7002        .p      STRB     r2,[r0,#0]
        0x00004b8e:    1c40        @.      ADDS     r0,r0,#1
        0x00004b90:    1e49        I.      SUBS     r1,r1,#1
        0x00004b92:    d2fb        ..      BCS      0x4b8c ; __aeabi_memset + 4
        0x00004b94:    4770        pG      BX       lr
    __aeabi_memclr
    __aeabi_memclr4
    __aeabi_memclr8
        0x00004b96:    2200        ."      MOVS     r2,#0
        0x00004b98:    e7f6        ..      B        __aeabi_memset ; 0x4b88
    _memset$wrapper
        0x00004b9a:    b510        ..      PUSH     {r4,lr}
        0x00004b9c:    4613        .F      MOV      r3,r2
        0x00004b9e:    460a        .F      MOV      r2,r1
        0x00004ba0:    4604        .F      MOV      r4,r0
        0x00004ba2:    4619        .F      MOV      r1,r3
        0x00004ba4:    f7fffff0    ....    BL       __aeabi_memset ; 0x4b88
        0x00004ba8:    4620         F      MOV      r0,r4
        0x00004baa:    bd10        ..      POP      {r4,pc}
    .text
    __aeabi_fadd
        0x00004bac:    b5f8        ..      PUSH     {r3-r7,lr}
        0x00004bae:    4602        .F      MOV      r2,r0
        0x00004bb0:    404a        J@      EORS     r2,r2,r1
        0x00004bb2:    0fd4        ..      LSRS     r4,r2,#31
        0x00004bb4:    0042        B.      LSLS     r2,r0,#1
        0x00004bb6:    004b        K.      LSLS     r3,r1,#1
        0x00004bb8:    0852        R.      LSRS     r2,r2,#1
        0x00004bba:    085b        [.      LSRS     r3,r3,#1
        0x00004bbc:    429a        .B      CMP      r2,r3
        0x00004bbe:    d202        ..      BCS      0x4bc6 ; __aeabi_fadd + 26
        0x00004bc0:    4602        .F      MOV      r2,r0
        0x00004bc2:    4608        .F      MOV      r0,r1
        0x00004bc4:    4611        .F      MOV      r1,r2
        0x00004bc6:    004a        J.      LSLS     r2,r1,#1
        0x00004bc8:    d023        #.      BEQ      0x4c12 ; __aeabi_fadd + 102
        0x00004bca:    0dc3        ..      LSRS     r3,r0,#23
        0x00004bcc:    004a        J.      LSLS     r2,r1,#1
        0x00004bce:    b2dd        ..      UXTB     r5,r3
        0x00004bd0:    0e12        ..      LSRS     r2,r2,#24
        0x00004bd2:    1aad        ..      SUBS     r5,r5,r2
        0x00004bd4:    2d20         -      CMP      r5,#0x20
        0x00004bd6:    da35        5.      BGE      0x4c44 ; __aeabi_fadd + 152
        0x00004bd8:    0249        I.      LSLS     r1,r1,#9
        0x00004bda:    2601        .&      MOVS     r6,#1
        0x00004bdc:    0a49        I.      LSRS     r1,r1,#9
        0x00004bde:    05f6        ..      LSLS     r6,r6,#23
        0x00004be0:    198a        ..      ADDS     r2,r1,r6
        0x00004be2:    2c00        .,      CMP      r4,#0
        0x00004be4:    d000        ..      BEQ      0x4be8 ; __aeabi_fadd + 60
        0x00004be6:    4252        RB      RSBS     r2,r2,#0
        0x00004be8:    2120         !      MOVS     r1,#0x20
        0x00004bea:    1b4f        O.      SUBS     r7,r1,r5
        0x00004bec:    4611        .F      MOV      r1,r2
        0x00004bee:    40b9        .@      LSLS     r1,r1,r7
        0x00004bf0:    412a        *A      ASRS     r2,r2,r5
        0x00004bf2:    1810        ..      ADDS     r0,r2,r0
        0x00004bf4:    0dc2        ..      LSRS     r2,r0,#23
        0x00004bf6:    429a        .B      CMP      r2,r3
        0x00004bf8:    d021        !.      BEQ      0x4c3e ; __aeabi_fadd + 146
        0x00004bfa:    2c00        .,      CMP      r4,#0
        0x00004bfc:    d017        ..      BEQ      0x4c2e ; __aeabi_fadd + 130
        0x00004bfe:    2d01        .-      CMP      r5,#1
        0x00004c00:    dc08        ..      BGT      0x4c14 ; __aeabi_fadd + 104
        0x00004c02:    05da        ..      LSLS     r2,r3,#23
        0x00004c04:    1a80        ..      SUBS     r0,r0,r2
        0x00004c06:    0fd2        ..      LSRS     r2,r2,#31
        0x00004c08:    1980        ..      ADDS     r0,r0,r6
        0x00004c0a:    07d2        ..      LSLS     r2,r2,#31
        0x00004c0c:    b2db        ..      UXTB     r3,r3
        0x00004c0e:    f000fb48    ..H.    BL       _float_epilogue ; 0x52a2
        0x00004c12:    bdf8        ..      POP      {r3-r7,pc}
        0x00004c14:    05da        ..      LSLS     r2,r3,#23
        0x00004c16:    1a80        ..      SUBS     r0,r0,r2
        0x00004c18:    2301        .#      MOVS     r3,#1
        0x00004c1a:    0040        @.      LSLS     r0,r0,#1
        0x00004c1c:    061b        ..      LSLS     r3,r3,#24
        0x00004c1e:    18c0        ..      ADDS     r0,r0,r3
        0x00004c20:    1880        ..      ADDS     r0,r0,r2
        0x00004c22:    425a        ZB      RSBS     r2,r3,#0
        0x00004c24:    1880        ..      ADDS     r0,r0,r2
        0x00004c26:    0fca        ..      LSRS     r2,r1,#31
        0x00004c28:    4310        .C      ORRS     r0,r0,r2
        0x00004c2a:    0049        I.      LSLS     r1,r1,#1
        0x00004c2c:    e007        ..      B        0x4c3e ; __aeabi_fadd + 146
        0x00004c2e:    0849        I.      LSRS     r1,r1,#1
        0x00004c30:    07c2        ..      LSLS     r2,r0,#31
        0x00004c32:    4311        .C      ORRS     r1,r1,r2
        0x00004c34:    05da        ..      LSLS     r2,r3,#23
        0x00004c36:    1a80        ..      SUBS     r0,r0,r2
        0x00004c38:    1980        ..      ADDS     r0,r0,r6
        0x00004c3a:    0840        @.      LSRS     r0,r0,#1
        0x00004c3c:    1880        ..      ADDS     r0,r0,r2
        0x00004c3e:    f000fb28    ..(.    BL       __I$use$fp ; 0x5292
        0x00004c42:    bdf8        ..      POP      {r3-r7,pc}
        0x00004c44:    0061        a.      LSLS     r1,r4,#1
        0x00004c46:    2201        ."      MOVS     r2,#1
        0x00004c48:    1a51        Q.      SUBS     r1,r2,r1
        0x00004c4a:    1b00        ..      SUBS     r0,r0,r4
        0x00004c4c:    e7f7        ..      B        0x4c3e ; __aeabi_fadd + 146
    __aeabi_fsub
        0x00004c4e:    2201        ."      MOVS     r2,#1
        0x00004c50:    07d2        ..      LSLS     r2,r2,#31
        0x00004c52:    4051        Q@      EORS     r1,r1,r2
        0x00004c54:    e7aa        ..      B        __aeabi_fadd ; 0x4bac
    __aeabi_frsub
        0x00004c56:    2201        ."      MOVS     r2,#1
        0x00004c58:    07d2        ..      LSLS     r2,r2,#31
        0x00004c5a:    4050        P@      EORS     r0,r0,r2
        0x00004c5c:    e7a6        ..      B        __aeabi_fadd ; 0x4bac
    .text
    __aeabi_fmul
        0x00004c5e:    4602        .F      MOV      r2,r0
        0x00004c60:    b570        p.      PUSH     {r4-r6,lr}
        0x00004c62:    404a        J@      EORS     r2,r2,r1
        0x00004c64:    0fd3        ..      LSRS     r3,r2,#31
        0x00004c66:    07db        ..      LSLS     r3,r3,#31
        0x00004c68:    0040        @.      LSLS     r0,r0,#1
        0x00004c6a:    d02d        -.      BEQ      0x4cc8 ; __aeabi_fmul + 106
        0x00004c6c:    004a        J.      LSLS     r2,r1,#1
        0x00004c6e:    d02a        *.      BEQ      0x4cc6 ; __aeabi_fmul + 104
        0x00004c70:    0e01        ..      LSRS     r1,r0,#24
        0x00004c72:    0e14        ..      LSRS     r4,r2,#24
        0x00004c74:    0200        ..      LSLS     r0,r0,#8
        0x00004c76:    0212        ..      LSLS     r2,r2,#8
        0x00004c78:    1909        ..      ADDS     r1,r1,r4
        0x00004c7a:    0a40        @.      LSRS     r0,r0,#9
        0x00004c7c:    0a52        R.      LSRS     r2,r2,#9
        0x00004c7e:    1884        ..      ADDS     r4,r0,r2
        0x00004c80:    01e5        ..      LSLS     r5,r4,#7
        0x00004c82:    4604        .F      MOV      r4,r0
        0x00004c84:    4354        TC      MULS     r4,r2,r4
        0x00004c86:    0a00        ..      LSRS     r0,r0,#8
        0x00004c88:    0a12        ..      LSRS     r2,r2,#8
        0x00004c8a:    042e        ..      LSLS     r6,r5,#16
        0x00004c8c:    4350        PC      MULS     r0,r2,r0
        0x00004c8e:    19a4        ..      ADDS     r4,r4,r6
        0x00004c90:    1942        B.      ADDS     r2,r0,r5
        0x00004c92:    0c20         .      LSRS     r0,r4,#16
        0x00004c94:    43c5        .C      MVNS     r5,r0
        0x00004c96:    18aa        ..      ADDS     r2,r5,r2
        0x00004c98:    0c12        ..      LSRS     r2,r2,#16
        0x00004c9a:    2501        .%      MOVS     r5,#1
        0x00004c9c:    03ad        ..      LSLS     r5,r5,#14
        0x00004c9e:    1c52        R.      ADDS     r2,r2,#1
        0x00004ca0:    1952        R.      ADDS     r2,r2,r5
        0x00004ca2:    0412        ..      LSLS     r2,r2,#16
        0x00004ca4:    397f        .9      SUBS     r1,r1,#0x7f
        0x00004ca6:    0424        $.      LSLS     r4,r4,#16
        0x00004ca8:    d000        ..      BEQ      0x4cac ; __aeabi_fmul + 78
        0x00004caa:    1c52        R.      ADDS     r2,r2,#1
        0x00004cac:    4310        .C      ORRS     r0,r0,r2
        0x00004cae:    d401        ..      BMI      0x4cb4 ; __aeabi_fmul + 86
        0x00004cb0:    0040        @.      LSLS     r0,r0,#1
        0x00004cb2:    1e49        I.      SUBS     r1,r1,#1
        0x00004cb4:    b2c2        ..      UXTB     r2,r0
        0x00004cb6:    060c        ..      LSLS     r4,r1,#24
        0x00004cb8:    09c0        ..      LSRS     r0,r0,#7
        0x00004cba:    1820         .      ADDS     r0,r4,r0
        0x00004cbc:    1c40        @.      ADDS     r0,r0,#1
        0x00004cbe:    0840        @.      LSRS     r0,r0,#1
        0x00004cc0:    2a80        .*      CMP      r2,#0x80
        0x00004cc2:    d002        ..      BEQ      0x4cca ; __aeabi_fmul + 108
        0x00004cc4:    e003        ..      B        0x4cce ; __aeabi_fmul + 112
        0x00004cc6:    2000        .       MOVS     r0,#0
        0x00004cc8:    bd70        p.      POP      {r4-r6,pc}
        0x00004cca:    0840        @.      LSRS     r0,r0,#1
        0x00004ccc:    0040        @.      LSLS     r0,r0,#1
        0x00004cce:    2900        .)      CMP      r1,#0
        0x00004cd0:    da00        ..      BGE      0x4cd4 ; __aeabi_fmul + 118
        0x00004cd2:    2000        .       MOVS     r0,#0
        0x00004cd4:    4318        .C      ORRS     r0,r0,r3
        0x00004cd6:    bd70        p.      POP      {r4-r6,pc}
    .text
    __aeabi_fdiv
        0x00004cd8:    b570        p.      PUSH     {r4-r6,lr}
        0x00004cda:    4602        .F      MOV      r2,r0
        0x00004cdc:    404a        J@      EORS     r2,r2,r1
        0x00004cde:    0fd5        ..      LSRS     r5,r2,#31
        0x00004ce0:    0040        @.      LSLS     r0,r0,#1
        0x00004ce2:    004a        J.      LSLS     r2,r1,#1
        0x00004ce4:    07ed        ..      LSLS     r5,r5,#31
        0x00004ce6:    0840        @.      LSRS     r0,r0,#1
        0x00004ce8:    0852        R.      LSRS     r2,r2,#1
        0x00004cea:    2800        .(      CMP      r0,#0
        0x00004cec:    d014        ..      BEQ      0x4d18 ; __aeabi_fdiv + 64
        0x00004cee:    2a00        .*      CMP      r2,#0
        0x00004cf0:    d012        ..      BEQ      0x4d18 ; __aeabi_fdiv + 64
        0x00004cf2:    0dc4        ..      LSRS     r4,r0,#23
        0x00004cf4:    0dd3        ..      LSRS     r3,r2,#23
        0x00004cf6:    0241        A.      LSLS     r1,r0,#9
        0x00004cf8:    2001        .       MOVS     r0,#1
        0x00004cfa:    05c0        ..      LSLS     r0,r0,#23
        0x00004cfc:    0252        R.      LSLS     r2,r2,#9
        0x00004cfe:    0a49        I.      LSRS     r1,r1,#9
        0x00004d00:    0a52        R.      LSRS     r2,r2,#9
        0x00004d02:    1ae4        ..      SUBS     r4,r4,r3
        0x00004d04:    1809        ..      ADDS     r1,r1,r0
        0x00004d06:    1812        ..      ADDS     r2,r2,r0
        0x00004d08:    347d        }4      ADDS     r4,r4,#0x7d
        0x00004d0a:    4291        .B      CMP      r1,r2
        0x00004d0c:    d301        ..      BCC      0x4d12 ; __aeabi_fdiv + 58
        0x00004d0e:    1c64        d.      ADDS     r4,r4,#1
        0x00004d10:    e000        ..      B        0x4d14 ; __aeabi_fdiv + 60
        0x00004d12:    0049        I.      LSLS     r1,r1,#1
        0x00004d14:    2c00        .,      CMP      r4,#0
        0x00004d16:    da01        ..      BGE      0x4d1c ; __aeabi_fdiv + 68
        0x00004d18:    2000        .       MOVS     r0,#0
        0x00004d1a:    bd70        p.      POP      {r4-r6,pc}
        0x00004d1c:    2300        .#      MOVS     r3,#0
        0x00004d1e:    4291        .B      CMP      r1,r2
        0x00004d20:    d301        ..      BCC      0x4d26 ; __aeabi_fdiv + 78
        0x00004d22:    1a89        ..      SUBS     r1,r1,r2
        0x00004d24:    4303        .C      ORRS     r3,r3,r0
        0x00004d26:    0840        @.      LSRS     r0,r0,#1
        0x00004d28:    0049        I.      LSLS     r1,r1,#1
        0x00004d2a:    2800        .(      CMP      r0,#0
        0x00004d2c:    d1f7        ..      BNE      0x4d1e ; __aeabi_fdiv + 70
        0x00004d2e:    2900        .)      CMP      r1,#0
        0x00004d30:    d00a        ..      BEQ      0x4d48 ; __aeabi_fdiv + 112
        0x00004d32:    4291        .B      CMP      r1,r2
        0x00004d34:    d102        ..      BNE      0x4d3c ; __aeabi_fdiv + 100
        0x00004d36:    2101        .!      MOVS     r1,#1
        0x00004d38:    07c9        ..      LSLS     r1,r1,#31
        0x00004d3a:    e005        ..      B        0x4d48 ; __aeabi_fdiv + 112
        0x00004d3c:    4291        .B      CMP      r1,r2
        0x00004d3e:    d201        ..      BCS      0x4d44 ; __aeabi_fdiv + 108
        0x00004d40:    2101        .!      MOVS     r1,#1
        0x00004d42:    e001        ..      B        0x4d48 ; __aeabi_fdiv + 112
        0x00004d44:    2101        .!      MOVS     r1,#1
        0x00004d46:    43c9        .C      MVNS     r1,r1
        0x00004d48:    05e0        ..      LSLS     r0,r4,#23
        0x00004d4a:    18c0        ..      ADDS     r0,r0,r3
        0x00004d4c:    1940        @.      ADDS     r0,r0,r5
        0x00004d4e:    f000faa0    ....    BL       __I$use$fp ; 0x5292
        0x00004d52:    bd70        p.      POP      {r4-r6,pc}
    .text
    __ARM_scalbnf
    scalbnf
        0x00004d54:    0042        B.      LSLS     r2,r0,#1
        0x00004d56:    d005        ..      BEQ      0x4d64 ; __ARM_scalbnf + 16
        0x00004d58:    0042        B.      LSLS     r2,r0,#1
        0x00004d5a:    0e12        ..      LSRS     r2,r2,#24
        0x00004d5c:    4252        RB      RSBS     r2,r2,#0
        0x00004d5e:    428a        .B      CMP      r2,r1
        0x00004d60:    db01        ..      BLT      0x4d66 ; __ARM_scalbnf + 18
        0x00004d62:    2000        .       MOVS     r0,#0
        0x00004d64:    4770        pG      BX       lr
        0x00004d66:    05c9        ..      LSLS     r1,r1,#23
        0x00004d68:    1808        ..      ADDS     r0,r1,r0
        0x00004d6a:    4770        pG      BX       lr
    .text
    __aeabi_dadd
        0x00004d6c:    b5f0        ..      PUSH     {r4-r7,lr}
        0x00004d6e:    4607        .F      MOV      r7,r0
        0x00004d70:    4608        .F      MOV      r0,r1
        0x00004d72:    4058        X@      EORS     r0,r0,r3
        0x00004d74:    b087        ..      SUB      sp,sp,#0x1c
        0x00004d76:    0fc0        ..      LSRS     r0,r0,#31
        0x00004d78:    9004        ..      STR      r0,[sp,#0x10]
        0x00004d7a:    0048        H.      LSLS     r0,r1,#1
        0x00004d7c:    460e        .F      MOV      r6,r1
        0x00004d7e:    0059        Y.      LSLS     r1,r3,#1
        0x00004d80:    0840        @.      LSRS     r0,r0,#1
        0x00004d82:    0849        I.      LSRS     r1,r1,#1
        0x00004d84:    1abc        ..      SUBS     r4,r7,r2
        0x00004d86:    4188        .A      SBCS     r0,r0,r1
        0x00004d88:    d205        ..      BCS      0x4d96 ; __aeabi_dadd + 42
        0x00004d8a:    4638        8F      MOV      r0,r7
        0x00004d8c:    4631        1F      MOV      r1,r6
        0x00004d8e:    461e        .F      MOV      r6,r3
        0x00004d90:    4617        .F      MOV      r7,r2
        0x00004d92:    460b        .F      MOV      r3,r1
        0x00004d94:    4602        .F      MOV      r2,r0
        0x00004d96:    0058        X.      LSLS     r0,r3,#1
        0x00004d98:    0840        @.      LSRS     r0,r0,#1
        0x00004d9a:    4310        .C      ORRS     r0,r0,r2
        0x00004d9c:    d04c        L.      BEQ      0x4e38 ; __aeabi_dadd + 204
        0x00004d9e:    0d30        0.      LSRS     r0,r6,#20
        0x00004da0:    9003        ..      STR      r0,[sp,#0xc]
        0x00004da2:    0540        @.      LSLS     r0,r0,#21
        0x00004da4:    0059        Y.      LSLS     r1,r3,#1
        0x00004da6:    0d40        @.      LSRS     r0,r0,#21
        0x00004da8:    0d49        I.      LSRS     r1,r1,#21
        0x00004daa:    9005        ..      STR      r0,[sp,#0x14]
        0x00004dac:    1a40        @.      SUBS     r0,r0,r1
        0x00004dae:    9002        ..      STR      r0,[sp,#8]
        0x00004db0:    2840        @(      CMP      r0,#0x40
        0x00004db2:    da72        r.      BGE      0x4e9a ; __aeabi_dadd + 302
        0x00004db4:    0318        ..      LSLS     r0,r3,#12
        0x00004db6:    2101        .!      MOVS     r1,#1
        0x00004db8:    0b00        ..      LSRS     r0,r0,#12
        0x00004dba:    0509        ..      LSLS     r1,r1,#20
        0x00004dbc:    4308        .C      ORRS     r0,r0,r1
        0x00004dbe:    9001        ..      STR      r0,[sp,#4]
        0x00004dc0:    9804        ..      LDR      r0,[sp,#0x10]
        0x00004dc2:    9200        ..      STR      r2,[sp,#0]
        0x00004dc4:    2800        .(      CMP      r0,#0
        0x00004dc6:    d005        ..      BEQ      0x4dd4 ; __aeabi_dadd + 104
        0x00004dc8:    9901        ..      LDR      r1,[sp,#4]
        0x00004dca:    4252        RB      RSBS     r2,r2,#0
        0x00004dcc:    2000        .       MOVS     r0,#0
        0x00004dce:    4188        .A      SBCS     r0,r0,r1
        0x00004dd0:    9200        ..      STR      r2,[sp,#0]
        0x00004dd2:    9001        ..      STR      r0,[sp,#4]
        0x00004dd4:    9802        ..      LDR      r0,[sp,#8]
        0x00004dd6:    2140        @!      MOVS     r1,#0x40
        0x00004dd8:    1a0a        ..      SUBS     r2,r1,r0
        0x00004dda:    9901        ..      LDR      r1,[sp,#4]
        0x00004ddc:    9800        ..      LDR      r0,[sp,#0]
        0x00004dde:    f000fa35    ..5.    BL       __aeabi_llsl ; 0x524c
        0x00004de2:    4605        .F      MOV      r5,r0
        0x00004de4:    460c        .F      MOV      r4,r1
        0x00004de6:    466b        kF      MOV      r3,sp
        0x00004de8:    cb07        ..      LDM      r3!,{r0-r2}
        0x00004dea:    f000fa3f    ..?.    BL       __aeabi_lasr ; 0x526c
        0x00004dee:    19c0        ..      ADDS     r0,r0,r7
        0x00004df0:    4171        qA      ADCS     r1,r1,r6
        0x00004df2:    9a03        ..      LDR      r2,[sp,#0xc]
        0x00004df4:    0d0e        ..      LSRS     r6,r1,#20
        0x00004df6:    2300        .#      MOVS     r3,#0
        0x00004df8:    17d7        ..      ASRS     r7,r2,#31
        0x00004dfa:    4056        V@      EORS     r6,r6,r2
        0x00004dfc:    461a        .F      MOV      r2,r3
        0x00004dfe:    407a        z@      EORS     r2,r2,r7
        0x00004e00:    4316        .C      ORRS     r6,r6,r2
        0x00004e02:    d044        D.      BEQ      0x4e8e ; __aeabi_dadd + 290
        0x00004e04:    9a04        ..      LDR      r2,[sp,#0x10]
        0x00004e06:    2a00        .*      CMP      r2,#0
        0x00004e08:    d02d        -.      BEQ      0x4e66 ; __aeabi_dadd + 250
        0x00004e0a:    9a02        ..      LDR      r2,[sp,#8]
        0x00004e0c:    2a01        .*      CMP      r2,#1
        0x00004e0e:    9a03        ..      LDR      r2,[sp,#0xc]
        0x00004e10:    dc15        ..      BGT      0x4e3e ; __aeabi_dadd + 210
        0x00004e12:    0512        ..      LSLS     r2,r2,#20
        0x00004e14:    1ac0        ..      SUBS     r0,r0,r3
        0x00004e16:    4191        .A      SBCS     r1,r1,r2
        0x00004e18:    2601        .&      MOVS     r6,#1
        0x00004e1a:    0536        6.      LSLS     r6,r6,#20
        0x00004e1c:    1c00        ..      ADDS     r0,r0,#0
        0x00004e1e:    4171        qA      ADCS     r1,r1,r6
        0x00004e20:    0fd2        ..      LSRS     r2,r2,#31
        0x00004e22:    9e05        ..      LDR      r6,[sp,#0x14]
        0x00004e24:    07d2        ..      LSLS     r2,r2,#31
        0x00004e26:    9300        ..      STR      r3,[sp,#0]
        0x00004e28:    9201        ..      STR      r2,[sp,#4]
        0x00004e2a:    9602        ..      STR      r6,[sp,#8]
        0x00004e2c:    462a        *F      MOV      r2,r5
        0x00004e2e:    4623        #F      MOV      r3,r4
        0x00004e30:    f000fac8    ....    BL       _double_epilogue ; 0x53c4
        0x00004e34:    b007        ..      ADD      sp,sp,#0x1c
        0x00004e36:    bdf0        ..      POP      {r4-r7,pc}
        0x00004e38:    4638        8F      MOV      r0,r7
        0x00004e3a:    4631        1F      MOV      r1,r6
        0x00004e3c:    e7fa        ..      B        0x4e34 ; __aeabi_dadd + 200
        0x00004e3e:    0516        ..      LSLS     r6,r2,#20
        0x00004e40:    4a22        "J      LDR      r2,[pc,#136] ; [0x4ecc] = 0xffe00000
        0x00004e42:    460f        .F      MOV      r7,r1
        0x00004e44:    18b2        ..      ADDS     r2,r6,r2
        0x00004e46:    1ac0        ..      SUBS     r0,r0,r3
        0x00004e48:    41b7        .A      SBCS     r7,r7,r6
        0x00004e4a:    2101        .!      MOVS     r1,#1
        0x00004e4c:    0509        ..      LSLS     r1,r1,#20
        0x00004e4e:    1c00        ..      ADDS     r0,r0,#0
        0x00004e50:    414f        OA      ADCS     r7,r7,r1
        0x00004e52:    1800        ..      ADDS     r0,r0,r0
        0x00004e54:    417f        .A      ADCS     r7,r7,r7
        0x00004e56:    4611        .F      MOV      r1,r2
        0x00004e58:    1818        ..      ADDS     r0,r3,r0
        0x00004e5a:    4179        yA      ADCS     r1,r1,r7
        0x00004e5c:    0fe2        ..      LSRS     r2,r4,#31
        0x00004e5e:    4310        .C      ORRS     r0,r0,r2
        0x00004e60:    196d        m.      ADDS     r5,r5,r5
        0x00004e62:    4164        dA      ADCS     r4,r4,r4
        0x00004e64:    e013        ..      B        0x4e8e ; __aeabi_dadd + 290
        0x00004e66:    07e2        ..      LSLS     r2,r4,#31
        0x00004e68:    086d        m.      LSRS     r5,r5,#1
        0x00004e6a:    4315        .C      ORRS     r5,r5,r2
        0x00004e6c:    0864        d.      LSRS     r4,r4,#1
        0x00004e6e:    07c2        ..      LSLS     r2,r0,#31
        0x00004e70:    4314        .C      ORRS     r4,r4,r2
        0x00004e72:    9a03        ..      LDR      r2,[sp,#0xc]
        0x00004e74:    2601        .&      MOVS     r6,#1
        0x00004e76:    0512        ..      LSLS     r2,r2,#20
        0x00004e78:    1ac0        ..      SUBS     r0,r0,r3
        0x00004e7a:    4191        .A      SBCS     r1,r1,r2
        0x00004e7c:    0536        6.      LSLS     r6,r6,#20
        0x00004e7e:    1c00        ..      ADDS     r0,r0,#0
        0x00004e80:    4171        qA      ADCS     r1,r1,r6
        0x00004e82:    07ce        ..      LSLS     r6,r1,#31
        0x00004e84:    0840        @.      LSRS     r0,r0,#1
        0x00004e86:    4330        0C      ORRS     r0,r0,r6
        0x00004e88:    0849        I.      LSRS     r1,r1,#1
        0x00004e8a:    18c0        ..      ADDS     r0,r0,r3
        0x00004e8c:    4151        QA      ADCS     r1,r1,r2
        0x00004e8e:    462a        *F      MOV      r2,r5
        0x00004e90:    4623        #F      MOV      r3,r4
        0x00004e92:    f000fa8a    ....    BL       _double_round ; 0x53aa
        0x00004e96:    e7cd        ..      B        0x4e34 ; __aeabi_dadd + 200
        0x00004e98:    e7ff        ..      B        0x4e9a ; __aeabi_dadd + 302
        0x00004e9a:    9804        ..      LDR      r0,[sp,#0x10]
        0x00004e9c:    2201        ."      MOVS     r2,#1
        0x00004e9e:    0040        @.      LSLS     r0,r0,#1
        0x00004ea0:    17c1        ..      ASRS     r1,r0,#31
        0x00004ea2:    1a12        ..      SUBS     r2,r2,r0
        0x00004ea4:    2300        .#      MOVS     r3,#0
        0x00004ea6:    418b        .A      SBCS     r3,r3,r1
        0x00004ea8:    9804        ..      LDR      r0,[sp,#0x10]
        0x00004eaa:    4631        1F      MOV      r1,r6
        0x00004eac:    17c4        ..      ASRS     r4,r0,#31
        0x00004eae:    1a38        8.      SUBS     r0,r7,r0
        0x00004eb0:    41a1        .A      SBCS     r1,r1,r4
        0x00004eb2:    e7ee        ..      B        0x4e92 ; __aeabi_dadd + 294
    __aeabi_dsub
        0x00004eb4:    b430        0.      PUSH     {r4,r5}
        0x00004eb6:    2401        .$      MOVS     r4,#1
        0x00004eb8:    07e4        ..      LSLS     r4,r4,#31
        0x00004eba:    4063        c@      EORS     r3,r3,r4
        0x00004ebc:    bc30        0.      POP      {r4,r5}
        0x00004ebe:    e755        U.      B        __aeabi_dadd ; 0x4d6c
    __aeabi_drsub
        0x00004ec0:    b430        0.      PUSH     {r4,r5}
        0x00004ec2:    2401        .$      MOVS     r4,#1
        0x00004ec4:    07e4        ..      LSLS     r4,r4,#31
        0x00004ec6:    4061        a@      EORS     r1,r1,r4
        0x00004ec8:    bc30        0.      POP      {r4,r5}
        0x00004eca:    e74f        O.      B        __aeabi_dadd ; 0x4d6c
    $d
        0x00004ecc:    ffe00000    ....    DCD    4292870144
    $t
    .text
    __aeabi_dmul
        0x00004ed0:    b5f0        ..      PUSH     {r4-r7,lr}
        0x00004ed2:    b41f        ..      PUSH     {r0-r4}
        0x00004ed4:    b088        ..      SUB      sp,sp,#0x20
        0x00004ed6:    990b        ..      LDR      r1,[sp,#0x2c]
        0x00004ed8:    9809        ..      LDR      r0,[sp,#0x24]
        0x00004eda:    2400        .$      MOVS     r4,#0
        0x00004edc:    4048        H@      EORS     r0,r0,r1
        0x00004ede:    9909        ..      LDR      r1,[sp,#0x24]
        0x00004ee0:    0fc0        ..      LSRS     r0,r0,#31
        0x00004ee2:    0049        I.      LSLS     r1,r1,#1
        0x00004ee4:    0849        I.      LSRS     r1,r1,#1
        0x00004ee6:    9109        ..      STR      r1,[sp,#0x24]
        0x00004ee8:    07c0        ..      LSLS     r0,r0,#31
        0x00004eea:    990b        ..      LDR      r1,[sp,#0x2c]
        0x00004eec:    9000        ..      STR      r0,[sp,#0]
        0x00004eee:    0049        I.      LSLS     r1,r1,#1
        0x00004ef0:    0849        I.      LSRS     r1,r1,#1
        0x00004ef2:    910b        ..      STR      r1,[sp,#0x2c]
        0x00004ef4:    9909        ..      LDR      r1,[sp,#0x24]
        0x00004ef6:    9808        ..      LDR      r0,[sp,#0x20]
        0x00004ef8:    46a6        .F      MOV      lr,r4
        0x00004efa:    4308        .C      ORRS     r0,r0,r1
        0x00004efc:    d01c        ..      BEQ      0x4f38 ; __aeabi_dmul + 104
        0x00004efe:    990b        ..      LDR      r1,[sp,#0x2c]
        0x00004f00:    980a        ..      LDR      r0,[sp,#0x28]
        0x00004f02:    4308        .C      ORRS     r0,r0,r1
        0x00004f04:    d018        ..      BEQ      0x4f38 ; __aeabi_dmul + 104
        0x00004f06:    9809        ..      LDR      r0,[sp,#0x24]
        0x00004f08:    2401        .$      MOVS     r4,#1
        0x00004f0a:    0040        @.      LSLS     r0,r0,#1
        0x00004f0c:    0d42        B.      LSRS     r2,r0,#21
        0x00004f0e:    0048        H.      LSLS     r0,r1,#1
        0x00004f10:    0d41        A.      LSRS     r1,r0,#21
        0x00004f12:    9809        ..      LDR      r0,[sp,#0x24]
        0x00004f14:    0524        $.      LSLS     r4,r4,#20
        0x00004f16:    0300        ..      LSLS     r0,r0,#12
        0x00004f18:    0b00        ..      LSRS     r0,r0,#12
        0x00004f1a:    4320         C      ORRS     r0,r0,r4
        0x00004f1c:    9009        ..      STR      r0,[sp,#0x24]
        0x00004f1e:    980b        ..      LDR      r0,[sp,#0x2c]
        0x00004f20:    0300        ..      LSLS     r0,r0,#12
        0x00004f22:    0b00        ..      LSRS     r0,r0,#12
        0x00004f24:    4320         C      ORRS     r0,r0,r4
        0x00004f26:    900b        ..      STR      r0,[sp,#0x2c]
        0x00004f28:    1850        P.      ADDS     r0,r2,r1
        0x00004f2a:    491c        .I      LDR      r1,[pc,#112] ; [0x4f9c] = 0xfffffc0d
        0x00004f2c:    1840        @.      ADDS     r0,r0,r1
        0x00004f2e:    2200        ."      MOVS     r2,#0
        0x00004f30:    9001        ..      STR      r0,[sp,#4]
        0x00004f32:    4614        .F      MOV      r4,r2
        0x00004f34:    4610        .F      MOV      r0,r2
        0x00004f36:    e005        ..      B        0x4f44 ; __aeabi_dmul + 116
        0x00004f38:    2000        .       MOVS     r0,#0
        0x00004f3a:    4601        .F      MOV      r1,r0
        0x00004f3c:    b00d        ..      ADD      sp,sp,#0x34
        0x00004f3e:    bdf0        ..      POP      {r4-r7,pc}
        0x00004f40:    2803        .(      CMP      r0,#3
        0x00004f42:    da01        ..      BGE      0x4f48 ; __aeabi_dmul + 120
        0x00004f44:    4603        .F      MOV      r3,r0
        0x00004f46:    e000        ..      B        0x4f4a ; __aeabi_dmul + 122
        0x00004f48:    2303        .#      MOVS     r3,#3
        0x00004f4a:    469c        .F      MOV      r12,r3
        0x00004f4c:    1ac1        ..      SUBS     r1,r0,r3
        0x00004f4e:    ae0a        ..      ADD      r6,sp,#0x28
        0x00004f50:    e00a        ..      B        0x4f68 ; __aeabi_dmul + 152
        0x00004f52:    005f        _.      LSLS     r7,r3,#1
        0x00004f54:    ad08        ..      ADD      r5,sp,#0x20
        0x00004f56:    5bed        .[      LDRH     r5,[r5,r7]
        0x00004f58:    004f        O.      LSLS     r7,r1,#1
        0x00004f5a:    5bf7        .[      LDRH     r7,[r6,r7]
        0x00004f5c:    437d        }C      MULS     r5,r7,r5
        0x00004f5e:    2700        .'      MOVS     r7,#0
        0x00004f60:    18aa        ..      ADDS     r2,r5,r2
        0x00004f62:    417c        |A      ADCS     r4,r4,r7
        0x00004f64:    1c49        I.      ADDS     r1,r1,#1
        0x00004f66:    1e5b        [.      SUBS     r3,r3,#1
        0x00004f68:    4561        aE      CMP      r1,r12
        0x00004f6a:    ddf2        ..      BLE      0x4f52 ; __aeabi_dmul + 130
        0x00004f6c:    0041        A.      LSLS     r1,r0,#1
        0x00004f6e:    ab04        ..      ADD      r3,sp,#0x10
        0x00004f70:    525a        ZR      STRH     r2,[r3,r1]
        0x00004f72:    0421        !.      LSLS     r1,r4,#16
        0x00004f74:    0c12        ..      LSRS     r2,r2,#16
        0x00004f76:    430a        .C      ORRS     r2,r2,r1
        0x00004f78:    0c24        $.      LSRS     r4,r4,#16
        0x00004f7a:    1c40        @.      ADDS     r0,r0,#1
        0x00004f7c:    2808        .(      CMP      r0,#8
        0x00004f7e:    dbdf        ..      BLT      0x4f40 ; __aeabi_dmul + 112
        0x00004f80:    9801        ..      LDR      r0,[sp,#4]
        0x00004f82:    9002        ..      STR      r0,[sp,#8]
        0x00004f84:    9900        ..      LDR      r1,[sp,#0]
        0x00004f86:    4670        pF      MOV      r0,lr
        0x00004f88:    9101        ..      STR      r1,[sp,#4]
        0x00004f8a:    9000        ..      STR      r0,[sp,#0]
        0x00004f8c:    9b05        ..      LDR      r3,[sp,#0x14]
        0x00004f8e:    9a04        ..      LDR      r2,[sp,#0x10]
        0x00004f90:    9907        ..      LDR      r1,[sp,#0x1c]
        0x00004f92:    9806        ..      LDR      r0,[sp,#0x18]
        0x00004f94:    f000fa16    ....    BL       _double_epilogue ; 0x53c4
        0x00004f98:    e7d0        ..      B        0x4f3c ; __aeabi_dmul + 108
    $d
        0x00004f9a:    0000        ..      DCW    0
        0x00004f9c:    fffffc0d    ....    DCD    4294966285
    $t
    .text
    __aeabi_ddiv
        0x00004fa0:    b5f0        ..      PUSH     {r4-r7,lr}
        0x00004fa2:    460c        .F      MOV      r4,r1
        0x00004fa4:    405c        \@      EORS     r4,r4,r3
        0x00004fa6:    b085        ..      SUB      sp,sp,#0x14
        0x00004fa8:    0fe4        ..      LSRS     r4,r4,#31
        0x00004faa:    07e4        ..      LSLS     r4,r4,#31
        0x00004fac:    9403        ..      STR      r4,[sp,#0xc]
        0x00004fae:    004c        L.      LSLS     r4,r1,#1
        0x00004fb0:    2600        .&      MOVS     r6,#0
        0x00004fb2:    0864        d.      LSRS     r4,r4,#1
        0x00004fb4:    0059        Y.      LSLS     r1,r3,#1
        0x00004fb6:    4694        .F      MOV      r12,r2
        0x00004fb8:    0849        I.      LSRS     r1,r1,#1
        0x00004fba:    4602        .F      MOV      r2,r0
        0x00004fbc:    9602        ..      STR      r6,[sp,#8]
        0x00004fbe:    4322        "C      ORRS     r2,r2,r4
        0x00004fc0:    d021        !.      BEQ      0x5006 ; __aeabi_ddiv + 102
        0x00004fc2:    4662        bF      MOV      r2,r12
        0x00004fc4:    430a        .C      ORRS     r2,r2,r1
        0x00004fc6:    d01e        ..      BEQ      0x5006 ; __aeabi_ddiv + 102
        0x00004fc8:    0062        b.      LSLS     r2,r4,#1
        0x00004fca:    0d57        W.      LSRS     r7,r2,#21
        0x00004fcc:    004a        J.      LSLS     r2,r1,#1
        0x00004fce:    030e        ..      LSLS     r6,r1,#12
        0x00004fd0:    0323        #.      LSLS     r3,r4,#12
        0x00004fd2:    0d55        U.      LSRS     r5,r2,#21
        0x00004fd4:    2401        .$      MOVS     r4,#1
        0x00004fd6:    4602        .F      MOV      r2,r0
        0x00004fd8:    492c        ,I      LDR      r1,[pc,#176] ; [0x508c] = 0x3fd
        0x00004fda:    0524        $.      LSLS     r4,r4,#20
        0x00004fdc:    1b78        x.      SUBS     r0,r7,r5
        0x00004fde:    0b1b        ..      LSRS     r3,r3,#12
        0x00004fe0:    0b36        6.      LSRS     r6,r6,#12
        0x00004fe2:    1840        @.      ADDS     r0,r0,r1
        0x00004fe4:    4323        #C      ORRS     r3,r3,r4
        0x00004fe6:    4326        &C      ORRS     r6,r6,r4
        0x00004fe8:    4661        aF      MOV      r1,r12
        0x00004fea:    9000        ..      STR      r0,[sp,#0]
        0x00004fec:    461c        .F      MOV      r4,r3
        0x00004fee:    1a50        P.      SUBS     r0,r2,r1
        0x00004ff0:    41b4        .A      SBCS     r4,r4,r6
        0x00004ff2:    d303        ..      BCC      0x4ffc ; __aeabi_ddiv + 92
        0x00004ff4:    9800        ..      LDR      r0,[sp,#0]
        0x00004ff6:    1c40        @.      ADDS     r0,r0,#1
        0x00004ff8:    9000        ..      STR      r0,[sp,#0]
        0x00004ffa:    e002        ..      B        0x5002 ; __aeabi_ddiv + 98
        0x00004ffc:    1892        ..      ADDS     r2,r2,r2
        0x00004ffe:    9800        ..      LDR      r0,[sp,#0]
        0x00005000:    415b        [A      ADCS     r3,r3,r3
        0x00005002:    2800        .(      CMP      r0,#0
        0x00005004:    da03        ..      BGE      0x500e ; __aeabi_ddiv + 110
        0x00005006:    2000        .       MOVS     r0,#0
        0x00005008:    4601        .F      MOV      r1,r0
        0x0000500a:    b005        ..      ADD      sp,sp,#0x14
        0x0000500c:    bdf0        ..      POP      {r4-r7,pc}
        0x0000500e:    2000        .       MOVS     r0,#0
        0x00005010:    2101        .!      MOVS     r1,#1
        0x00005012:    0509        ..      LSLS     r1,r1,#20
        0x00005014:    4607        .F      MOV      r7,r0
        0x00005016:    4686        .F      MOV      lr,r0
        0x00005018:    e011        ..      B        0x503e ; __aeabi_ddiv + 158
        0x0000501a:    4664        dF      MOV      r4,r12
        0x0000501c:    461d        .F      MOV      r5,r3
        0x0000501e:    1b14        ..      SUBS     r4,r2,r4
        0x00005020:    41b5        .A      SBCS     r5,r5,r6
        0x00005022:    d306        ..      BCC      0x5032 ; __aeabi_ddiv + 146
        0x00005024:    4665        eF      MOV      r5,r12
        0x00005026:    1b52        R.      SUBS     r2,r2,r5
        0x00005028:    41b3        .A      SBCS     r3,r3,r6
        0x0000502a:    4674        tF      MOV      r4,lr
        0x0000502c:    4307        .C      ORRS     r7,r7,r0
        0x0000502e:    430c        .C      ORRS     r4,r4,r1
        0x00005030:    46a6        .F      MOV      lr,r4
        0x00005032:    07cd        ..      LSLS     r5,r1,#31
        0x00005034:    0840        @.      LSRS     r0,r0,#1
        0x00005036:    0849        I.      LSRS     r1,r1,#1
        0x00005038:    4328        (C      ORRS     r0,r0,r5
        0x0000503a:    1892        ..      ADDS     r2,r2,r2
        0x0000503c:    415b        [A      ADCS     r3,r3,r3
        0x0000503e:    4605        .F      MOV      r5,r0
        0x00005040:    430d        .C      ORRS     r5,r5,r1
        0x00005042:    d1ea        ..      BNE      0x501a ; __aeabi_ddiv + 122
        0x00005044:    4610        .F      MOV      r0,r2
        0x00005046:    4318        .C      ORRS     r0,r0,r3
        0x00005048:    d013        ..      BEQ      0x5072 ; __aeabi_ddiv + 210
        0x0000504a:    4660        `F      MOV      r0,r12
        0x0000504c:    4619        .F      MOV      r1,r3
        0x0000504e:    4050        P@      EORS     r0,r0,r2
        0x00005050:    4071        q@      EORS     r1,r1,r6
        0x00005052:    4308        .C      ORRS     r0,r0,r1
        0x00005054:    d006        ..      BEQ      0x5064 ; __aeabi_ddiv + 196
        0x00005056:    4660        `F      MOV      r0,r12
        0x00005058:    1a10        ..      SUBS     r0,r2,r0
        0x0000505a:    41b3        .A      SBCS     r3,r3,r6
        0x0000505c:    d206        ..      BCS      0x506c ; __aeabi_ddiv + 204
        0x0000505e:    2201        ."      MOVS     r2,#1
        0x00005060:    2300        .#      MOVS     r3,#0
        0x00005062:    e006        ..      B        0x5072 ; __aeabi_ddiv + 210
        0x00005064:    2200        ."      MOVS     r2,#0
        0x00005066:    2301        .#      MOVS     r3,#1
        0x00005068:    07db        ..      LSLS     r3,r3,#31
        0x0000506a:    e002        ..      B        0x5072 ; __aeabi_ddiv + 210
        0x0000506c:    2201        ."      MOVS     r2,#1
        0x0000506e:    43d2        .C      MVNS     r2,r2
        0x00005070:    1053        S.      ASRS     r3,r2,#1
        0x00005072:    9800        ..      LDR      r0,[sp,#0]
        0x00005074:    4674        tF      MOV      r4,lr
        0x00005076:    0501        ..      LSLS     r1,r0,#20
        0x00005078:    1c38        8.      ADDS     r0,r7,#0
        0x0000507a:    4161        aA      ADCS     r1,r1,r4
        0x0000507c:    9c02        ..      LDR      r4,[sp,#8]
        0x0000507e:    9d03        ..      LDR      r5,[sp,#0xc]
        0x00005080:    1900        ..      ADDS     r0,r0,r4
        0x00005082:    4169        iA      ADCS     r1,r1,r5
        0x00005084:    f000f991    ....    BL       _double_round ; 0x53aa
        0x00005088:    e7bf        ..      B        0x500a ; __aeabi_ddiv + 106
    $d
        0x0000508a:    0000        ..      DCW    0
        0x0000508c:    000003fd    ....    DCD    1021
    $t
    .text
    __ARM_scalbn
    scalbn
        0x00005090:    b570        p.      PUSH     {r4-r6,lr}
        0x00005092:    004b        K.      LSLS     r3,r1,#1
        0x00005094:    085b        [.      LSRS     r3,r3,#1
        0x00005096:    4303        .C      ORRS     r3,r3,r0
        0x00005098:    d00b        ..      BEQ      0x50b2 ; __ARM_scalbn + 34
        0x0000509a:    004b        K.      LSLS     r3,r1,#1
        0x0000509c:    0d5c        \.      LSRS     r4,r3,#21
        0x0000509e:    2600        .&      MOVS     r6,#0
        0x000050a0:    4633        3F      MOV      r3,r6
        0x000050a2:    4265        eB      RSBS     r5,r4,#0
        0x000050a4:    41b3        .A      SBCS     r3,r3,r6
        0x000050a6:    17d4        ..      ASRS     r4,r2,#31
        0x000050a8:    1aad        ..      SUBS     r5,r5,r2
        0x000050aa:    41a3        .A      SBCS     r3,r3,r4
        0x000050ac:    db02        ..      BLT      0x50b4 ; __ARM_scalbn + 36
        0x000050ae:    2000        .       MOVS     r0,#0
        0x000050b0:    4601        .F      MOV      r1,r0
        0x000050b2:    bd70        p.      POP      {r4-r6,pc}
        0x000050b4:    0512        ..      LSLS     r2,r2,#20
        0x000050b6:    1830        0.      ADDS     r0,r6,r0
        0x000050b8:    4151        QA      ADCS     r1,r1,r2
        0x000050ba:    bd70        p.      POP      {r4-r6,pc}
    .text
    __aeabi_i2f
        0x000050bc:    17c2        ..      ASRS     r2,r0,#31
        0x000050be:    0fc1        ..      LSRS     r1,r0,#31
        0x000050c0:    4050        P@      EORS     r0,r0,r2
        0x000050c2:    b510        ..      PUSH     {r4,lr}
        0x000050c4:    1840        @.      ADDS     r0,r0,r1
        0x000050c6:    07ca        ..      LSLS     r2,r1,#31
        0x000050c8:    2396        .#      MOVS     r3,#0x96
        0x000050ca:    2100        .!      MOVS     r1,#0
        0x000050cc:    f000f8e9    ....    BL       _float_epilogue ; 0x52a2
        0x000050d0:    bd10        ..      POP      {r4,pc}
    .text
    __aeabi_ui2f
        0x000050d2:    b510        ..      PUSH     {r4,lr}
        0x000050d4:    2200        ."      MOVS     r2,#0
        0x000050d6:    2396        .#      MOVS     r3,#0x96
        0x000050d8:    4611        .F      MOV      r1,r2
        0x000050da:    f000f8e2    ....    BL       _float_epilogue ; 0x52a2
        0x000050de:    bd10        ..      POP      {r4,pc}
    .text
    __aeabi_f2iz
        0x000050e0:    0fc2        ..      LSRS     r2,r0,#31
        0x000050e2:    0041        A.      LSLS     r1,r0,#1
        0x000050e4:    0240        @.      LSLS     r0,r0,#9
        0x000050e6:    2301        .#      MOVS     r3,#1
        0x000050e8:    0a40        @.      LSRS     r0,r0,#9
        0x000050ea:    05db        ..      LSLS     r3,r3,#23
        0x000050ec:    07d2        ..      LSLS     r2,r2,#31
        0x000050ee:    0e09        ..      LSRS     r1,r1,#24
        0x000050f0:    18c0        ..      ADDS     r0,r0,r3
        0x000050f2:    297f        .)      CMP      r1,#0x7f
        0x000050f4:    da01        ..      BGE      0x50fa ; __aeabi_f2iz + 26
        0x000050f6:    2000        .       MOVS     r0,#0
        0x000050f8:    4770        pG      BX       lr
        0x000050fa:    2996        .)      CMP      r1,#0x96
        0x000050fc:    dc03        ..      BGT      0x5106 ; __aeabi_f2iz + 38
        0x000050fe:    2396        .#      MOVS     r3,#0x96
        0x00005100:    1a59        Y.      SUBS     r1,r3,r1
        0x00005102:    40c8        .@      LSRS     r0,r0,r1
        0x00005104:    e001        ..      B        0x510a ; __aeabi_f2iz + 42
        0x00005106:    3996        .9      SUBS     r1,r1,#0x96
        0x00005108:    4088        .@      LSLS     r0,r0,r1
        0x0000510a:    2a00        .*      CMP      r2,#0
        0x0000510c:    d0f4        ..      BEQ      0x50f8 ; __aeabi_f2iz + 24
        0x0000510e:    4240        @B      RSBS     r0,r0,#0
        0x00005110:    4770        pG      BX       lr
    .text
    __aeabi_f2uiz
        0x00005112:    0041        A.      LSLS     r1,r0,#1
        0x00005114:    0240        @.      LSLS     r0,r0,#9
        0x00005116:    2201        ."      MOVS     r2,#1
        0x00005118:    0a40        @.      LSRS     r0,r0,#9
        0x0000511a:    05d2        ..      LSLS     r2,r2,#23
        0x0000511c:    0e09        ..      LSRS     r1,r1,#24
        0x0000511e:    1880        ..      ADDS     r0,r0,r2
        0x00005120:    297f        .)      CMP      r1,#0x7f
        0x00005122:    da01        ..      BGE      0x5128 ; __aeabi_f2uiz + 22
        0x00005124:    2000        .       MOVS     r0,#0
        0x00005126:    4770        pG      BX       lr
        0x00005128:    2996        .)      CMP      r1,#0x96
        0x0000512a:    dc03        ..      BGT      0x5134 ; __aeabi_f2uiz + 34
        0x0000512c:    2296        ."      MOVS     r2,#0x96
        0x0000512e:    1a51        Q.      SUBS     r1,r2,r1
        0x00005130:    40c8        .@      LSRS     r0,r0,r1
        0x00005132:    4770        pG      BX       lr
        0x00005134:    3996        .9      SUBS     r1,r1,#0x96
        0x00005136:    4088        .@      LSLS     r0,r0,r1
        0x00005138:    4770        pG      BX       lr
    .text
    __aeabi_f2d
        0x0000513a:    0fc2        ..      LSRS     r2,r0,#31
        0x0000513c:    07d2        ..      LSLS     r2,r2,#31
        0x0000513e:    0040        @.      LSLS     r0,r0,#1
        0x00005140:    0840        @.      LSRS     r0,r0,#1
        0x00005142:    d00b        ..      BEQ      0x515c ; __aeabi_f2d + 34
        0x00005144:    0dc1        ..      LSRS     r1,r0,#23
        0x00005146:    2307        .#      MOVS     r3,#7
        0x00005148:    01db        ..      LSLS     r3,r3,#7
        0x0000514a:    18c9        ..      ADDS     r1,r1,r3
        0x0000514c:    0240        @.      LSLS     r0,r0,#9
        0x0000514e:    0509        ..      LSLS     r1,r1,#20
        0x00005150:    0a40        @.      LSRS     r0,r0,#9
        0x00005152:    4311        .C      ORRS     r1,r1,r2
        0x00005154:    08c2        ..      LSRS     r2,r0,#3
        0x00005156:    0740        @.      LSLS     r0,r0,#29
        0x00005158:    4311        .C      ORRS     r1,r1,r2
        0x0000515a:    4770        pG      BX       lr
        0x0000515c:    2000        .       MOVS     r0,#0
        0x0000515e:    4601        .F      MOV      r1,r0
        0x00005160:    4770        pG      BX       lr
        0x00005162:    0000        ..      MOVS     r0,r0
    .text
    __aeabi_cdcmpeq
    __aeabi_cdcmple
        0x00005164:    b510        ..      PUSH     {r4,lr}
        0x00005166:    2900        .)      CMP      r1,#0
        0x00005168:    db04        ..      BLT      0x5174 ; __aeabi_cdcmpeq + 16
        0x0000516a:    2401        .$      MOVS     r4,#1
        0x0000516c:    07e4        ..      LSLS     r4,r4,#31
        0x0000516e:    4240        @B      RSBS     r0,r0,#0
        0x00005170:    418c        .A      SBCS     r4,r4,r1
        0x00005172:    4621        !F      MOV      r1,r4
        0x00005174:    2b00        .+      CMP      r3,#0
        0x00005176:    db04        ..      BLT      0x5182 ; __aeabi_cdcmpeq + 30
        0x00005178:    461c        .F      MOV      r4,r3
        0x0000517a:    2301        .#      MOVS     r3,#1
        0x0000517c:    07db        ..      LSLS     r3,r3,#31
        0x0000517e:    4252        RB      RSBS     r2,r2,#0
        0x00005180:    41a3        .A      SBCS     r3,r3,r4
        0x00005182:    428b        .B      CMP      r3,r1
        0x00005184:    d100        ..      BNE      0x5188 ; __aeabi_cdcmpeq + 36
        0x00005186:    4282        .B      CMP      r2,r0
        0x00005188:    bd10        ..      POP      {r4,pc}
    $d
        0x0000518a:    0000        ..      DCW    0
    $t
    .text
    __aeabi_d2f
        0x0000518c:    0fcb        ..      LSRS     r3,r1,#31
        0x0000518e:    07db        ..      LSLS     r3,r3,#31
        0x00005190:    0049        I.      LSLS     r1,r1,#1
        0x00005192:    b510        ..      PUSH     {r4,lr}
        0x00005194:    0849        I.      LSRS     r1,r1,#1
        0x00005196:    4602        .F      MOV      r2,r0
        0x00005198:    430a        .C      ORRS     r2,r2,r1
        0x0000519a:    d007        ..      BEQ      0x51ac ; __aeabi_d2f + 32
        0x0000519c:    0d0a        ..      LSRS     r2,r1,#20
        0x0000519e:    2407        .$      MOVS     r4,#7
        0x000051a0:    0309        ..      LSLS     r1,r1,#12
        0x000051a2:    01e4        ..      LSLS     r4,r4,#7
        0x000051a4:    0b09        ..      LSRS     r1,r1,#12
        0x000051a6:    1b12        ..      SUBS     r2,r2,r4
        0x000051a8:    2a00        .*      CMP      r2,#0
        0x000051aa:    dc01        ..      BGT      0x51b0 ; __aeabi_d2f + 36
        0x000051ac:    2000        .       MOVS     r0,#0
        0x000051ae:    bd10        ..      POP      {r4,pc}
        0x000051b0:    00c9        ..      LSLS     r1,r1,#3
        0x000051b2:    0f44        D.      LSRS     r4,r0,#29
        0x000051b4:    430c        .C      ORRS     r4,r4,r1
        0x000051b6:    00c1        ..      LSLS     r1,r0,#3
        0x000051b8:    18e0        ..      ADDS     r0,r4,r3
        0x000051ba:    05d2        ..      LSLS     r2,r2,#23
        0x000051bc:    1880        ..      ADDS     r0,r0,r2
        0x000051be:    f000f868    ..h.    BL       __I$use$fp ; 0x5292
        0x000051c2:    bd10        ..      POP      {r4,pc}
    .text
    __aeabi_cfcmpeq
    __aeabi_cfcmple
        0x000051c4:    2201        ."      MOVS     r2,#1
        0x000051c6:    07d2        ..      LSLS     r2,r2,#31
        0x000051c8:    2800        .(      CMP      r0,#0
        0x000051ca:    db00        ..      BLT      0x51ce ; __aeabi_cfcmpeq + 10
        0x000051cc:    1a10        ..      SUBS     r0,r2,r0
        0x000051ce:    2900        .)      CMP      r1,#0
        0x000051d0:    db00        ..      BLT      0x51d4 ; __aeabi_cfcmpeq + 16
        0x000051d2:    1a51        Q.      SUBS     r1,r2,r1
        0x000051d4:    4281        .B      CMP      r1,r0
        0x000051d6:    4770        pG      BX       lr
    .text
    __aeabi_cfrcmple
        0x000051d8:    2201        ."      MOVS     r2,#1
        0x000051da:    07d2        ..      LSLS     r2,r2,#31
        0x000051dc:    2800        .(      CMP      r0,#0
        0x000051de:    db00        ..      BLT      0x51e2 ; __aeabi_cfrcmple + 10
        0x000051e0:    1a10        ..      SUBS     r0,r2,r0
        0x000051e2:    2900        .)      CMP      r1,#0
        0x000051e4:    db00        ..      BLT      0x51e8 ; __aeabi_cfrcmple + 16
        0x000051e6:    1a51        Q.      SUBS     r1,r2,r1
        0x000051e8:    4288        .B      CMP      r0,r1
        0x000051ea:    4770        pG      BX       lr
    .text
    __aeabi_uldivmod
        0x000051ec:    b5f0        ..      PUSH     {r4-r7,lr}
        0x000051ee:    b41f        ..      PUSH     {r0-r4}
        0x000051f0:    4606        .F      MOV      r6,r0
        0x000051f2:    2000        .       MOVS     r0,#0
        0x000051f4:    b082        ..      SUB      sp,sp,#8
        0x000051f6:    4605        .F      MOV      r5,r0
        0x000051f8:    2440        @$      MOVS     r4,#0x40
        0x000051fa:    9101        ..      STR      r1,[sp,#4]
        0x000051fc:    9000        ..      STR      r0,[sp,#0]
        0x000051fe:    e01b        ..      B        0x5238 ; __aeabi_uldivmod + 76
        0x00005200:    9901        ..      LDR      r1,[sp,#4]
        0x00005202:    4622        "F      MOV      r2,r4
        0x00005204:    460f        .F      MOV      r7,r1
        0x00005206:    4630        0F      MOV      r0,r6
        0x00005208:    f000f9c2    ....    BL       __aeabi_llsr ; 0x5590
        0x0000520c:    9a04        ..      LDR      r2,[sp,#0x10]
        0x0000520e:    9b05        ..      LDR      r3,[sp,#0x14]
        0x00005210:    1a80        ..      SUBS     r0,r0,r2
        0x00005212:    4199        .A      SBCS     r1,r1,r3
        0x00005214:    d310        ..      BCC      0x5238 ; __aeabi_uldivmod + 76
        0x00005216:    4610        .F      MOV      r0,r2
        0x00005218:    4619        .F      MOV      r1,r3
        0x0000521a:    4622        "F      MOV      r2,r4
        0x0000521c:    f000f816    ....    BL       __aeabi_llsl ; 0x524c
        0x00005220:    1a36        6.      SUBS     r6,r6,r0
        0x00005222:    418f        .A      SBCS     r7,r7,r1
        0x00005224:    9701        ..      STR      r7,[sp,#4]
        0x00005226:    4622        "F      MOV      r2,r4
        0x00005228:    2001        .       MOVS     r0,#1
        0x0000522a:    2100        .!      MOVS     r1,#0
        0x0000522c:    9f00        ..      LDR      r7,[sp,#0]
        0x0000522e:    f000f80d    ....    BL       __aeabi_llsl ; 0x524c
        0x00005232:    1838        8.      ADDS     r0,r7,r0
        0x00005234:    414d        MA      ADCS     r5,r5,r1
        0x00005236:    9000        ..      STR      r0,[sp,#0]
        0x00005238:    4620         F      MOV      r0,r4
        0x0000523a:    1e64        d.      SUBS     r4,r4,#1
        0x0000523c:    2800        .(      CMP      r0,#0
        0x0000523e:    dcdf        ..      BGT      0x5200 ; __aeabi_uldivmod + 20
        0x00005240:    9b01        ..      LDR      r3,[sp,#4]
        0x00005242:    9800        ..      LDR      r0,[sp,#0]
        0x00005244:    4629        )F      MOV      r1,r5
        0x00005246:    4632        2F      MOV      r2,r6
        0x00005248:    b007        ..      ADD      sp,sp,#0x1c
        0x0000524a:    bdf0        ..      POP      {r4-r7,pc}
    .text
    __aeabi_llsl
    _ll_shift_l
        0x0000524c:    b510        ..      PUSH     {r4,lr}
        0x0000524e:    2a20         *      CMP      r2,#0x20
        0x00005250:    db04        ..      BLT      0x525c ; __aeabi_llsl + 16
        0x00005252:    4601        .F      MOV      r1,r0
        0x00005254:    3a20         :      SUBS     r2,r2,#0x20
        0x00005256:    4091        .@      LSLS     r1,r1,r2
        0x00005258:    2000        .       MOVS     r0,#0
        0x0000525a:    bd10        ..      POP      {r4,pc}
        0x0000525c:    4091        .@      LSLS     r1,r1,r2
        0x0000525e:    2320         #      MOVS     r3,#0x20
        0x00005260:    1a9c        ..      SUBS     r4,r3,r2
        0x00005262:    4603        .F      MOV      r3,r0
        0x00005264:    40e3        .@      LSRS     r3,r3,r4
        0x00005266:    4319        .C      ORRS     r1,r1,r3
        0x00005268:    4090        .@      LSLS     r0,r0,r2
        0x0000526a:    bd10        ..      POP      {r4,pc}
    .text
    __aeabi_lasr
    _ll_sshift_r
        0x0000526c:    b510        ..      PUSH     {r4,lr}
        0x0000526e:    2a20         *      CMP      r2,#0x20
        0x00005270:    db06        ..      BLT      0x5280 ; __aeabi_lasr + 20
        0x00005272:    17cb        ..      ASRS     r3,r1,#31
        0x00005274:    4608        .F      MOV      r0,r1
        0x00005276:    3a20         :      SUBS     r2,r2,#0x20
        0x00005278:    4110        .A      ASRS     r0,r0,r2
        0x0000527a:    17c1        ..      ASRS     r1,r0,#31
        0x0000527c:    430b        .C      ORRS     r3,r3,r1
        0x0000527e:    e006        ..      B        0x528e ; __aeabi_lasr + 34
        0x00005280:    460b        .F      MOV      r3,r1
        0x00005282:    4113        .A      ASRS     r3,r3,r2
        0x00005284:    40d0        .@      LSRS     r0,r0,r2
        0x00005286:    2420         $      MOVS     r4,#0x20
        0x00005288:    1aa2        ..      SUBS     r2,r4,r2
        0x0000528a:    4091        .@      LSLS     r1,r1,r2
        0x0000528c:    4308        .C      ORRS     r0,r0,r1
        0x0000528e:    4619        .F      MOV      r1,r3
        0x00005290:    bd10        ..      POP      {r4,pc}
    .text
    .text
    __I$use$fp
    _float_round
        0x00005292:    2900        .)      CMP      r1,#0
        0x00005294:    da04        ..      BGE      0x52a0 ; __I$use$fp + 14
        0x00005296:    1c40        @.      ADDS     r0,r0,#1
        0x00005298:    0049        I.      LSLS     r1,r1,#1
        0x0000529a:    d101        ..      BNE      0x52a0 ; __I$use$fp + 14
        0x0000529c:    0840        @.      LSRS     r0,r0,#1
        0x0000529e:    0040        @.      LSLS     r0,r0,#1
        0x000052a0:    4770        pG      BX       lr
    _float_epilogue
        0x000052a2:    b470        p.      PUSH     {r4-r6}
        0x000052a4:    2400        .$      MOVS     r4,#0
        0x000052a6:    0c05        ..      LSRS     r5,r0,#16
        0x000052a8:    d105        ..      BNE      0x52b6 ; _float_epilogue + 20
        0x000052aa:    2410        .$      MOVS     r4,#0x10
        0x000052ac:    0400        ..      LSLS     r0,r0,#16
        0x000052ae:    d102        ..      BNE      0x52b6 ; _float_epilogue + 20
        0x000052b0:    2900        .)      CMP      r1,#0
        0x000052b2:    d021        !.      BEQ      0x52f8 ; _float_epilogue + 86
        0x000052b4:    2411        .$      MOVS     r4,#0x11
        0x000052b6:    0e05        ..      LSRS     r5,r0,#24
        0x000052b8:    d101        ..      BNE      0x52be ; _float_epilogue + 28
        0x000052ba:    0200        ..      LSLS     r0,r0,#8
        0x000052bc:    3408        .4      ADDS     r4,r4,#8
        0x000052be:    0f05        ..      LSRS     r5,r0,#28
        0x000052c0:    d101        ..      BNE      0x52c6 ; _float_epilogue + 36
        0x000052c2:    0100        ..      LSLS     r0,r0,#4
        0x000052c4:    1d24        $.      ADDS     r4,r4,#4
        0x000052c6:    0f85        ..      LSRS     r5,r0,#30
        0x000052c8:    d101        ..      BNE      0x52ce ; _float_epilogue + 44
        0x000052ca:    0080        ..      LSLS     r0,r0,#2
        0x000052cc:    1ca4        ..      ADDS     r4,r4,#2
        0x000052ce:    2800        .(      CMP      r0,#0
        0x000052d0:    db01        ..      BLT      0x52d6 ; _float_epilogue + 52
        0x000052d2:    0040        @.      LSLS     r0,r0,#1
        0x000052d4:    1c64        d.      ADDS     r4,r4,#1
        0x000052d6:    2900        .)      CMP      r1,#0
        0x000052d8:    d008        ..      BEQ      0x52ec ; _float_epilogue + 74
        0x000052da:    2520         %      MOVS     r5,#0x20
        0x000052dc:    1b2e        ..      SUBS     r6,r5,r4
        0x000052de:    460d        .F      MOV      r5,r1
        0x000052e0:    40f5        .@      LSRS     r5,r5,r6
        0x000052e2:    40a1        .@      LSLS     r1,r1,r4
        0x000052e4:    d000        ..      BEQ      0x52e8 ; _float_epilogue + 70
        0x000052e6:    2101        .!      MOVS     r1,#1
        0x000052e8:    4329        )C      ORRS     r1,r1,r5
        0x000052ea:    4308        .C      ORRS     r0,r0,r1
        0x000052ec:    0601        ..      LSLS     r1,r0,#24
        0x000052ee:    1b1b        ..      SUBS     r3,r3,r4
        0x000052f0:    0a00        ..      LSRS     r0,r0,#8
        0x000052f2:    1ddb        ..      ADDS     r3,r3,#7
        0x000052f4:    d502        ..      BPL      0x52fc ; _float_epilogue + 90
        0x000052f6:    2000        .       MOVS     r0,#0
        0x000052f8:    bc70        p.      POP      {r4-r6}
        0x000052fa:    4770        pG      BX       lr
        0x000052fc:    05db        ..      LSLS     r3,r3,#23
        0x000052fe:    1818        ..      ADDS     r0,r3,r0
        0x00005300:    1880        ..      ADDS     r0,r0,r2
        0x00005302:    2900        .)      CMP      r1,#0
        0x00005304:    daf8        ..      BGE      0x52f8 ; _float_epilogue + 86
        0x00005306:    1c40        @.      ADDS     r0,r0,#1
        0x00005308:    0049        I.      LSLS     r1,r1,#1
        0x0000530a:    d1f5        ..      BNE      0x52f8 ; _float_epilogue + 86
        0x0000530c:    bc70        p.      POP      {r4-r6}
        0x0000530e:    0840        @.      LSRS     r0,r0,#1
        0x00005310:    0040        @.      LSLS     r0,r0,#1
        0x00005312:    4770        pG      BX       lr
    .text
    _fsqrt
        0x00005314:    b570        p.      PUSH     {r4-r6,lr}
        0x00005316:    2800        .(      CMP      r0,#0
        0x00005318:    dc01        ..      BGT      0x531e ; _fsqrt + 10
        0x0000531a:    2000        .       MOVS     r0,#0
        0x0000531c:    bd70        p.      POP      {r4-r6,pc}
        0x0000531e:    0041        A.      LSLS     r1,r0,#1
        0x00005320:    0240        @.      LSLS     r0,r0,#9
        0x00005322:    2601        .&      MOVS     r6,#1
        0x00005324:    0a40        @.      LSRS     r0,r0,#9
        0x00005326:    05f6        ..      LSLS     r6,r6,#23
        0x00005328:    0e09        ..      LSRS     r1,r1,#24
        0x0000532a:    1980        ..      ADDS     r0,r0,r6
        0x0000532c:    07ca        ..      LSLS     r2,r1,#31
        0x0000532e:    d101        ..      BNE      0x5334 ; _fsqrt + 32
        0x00005330:    0040        @.      LSLS     r0,r0,#1
        0x00005332:    1e49        I.      SUBS     r1,r1,#1
        0x00005334:    104d        M.      ASRS     r5,r1,#1
        0x00005336:    2200        ."      MOVS     r2,#0
        0x00005338:    4611        .F      MOV      r1,r2
        0x0000533a:    353f        ?5      ADDS     r5,r5,#0x3f
        0x0000533c:    4633        3F      MOV      r3,r6
        0x0000533e:    40cb        .@      LSRS     r3,r3,r1
        0x00005340:    189b        ..      ADDS     r3,r3,r2
        0x00005342:    18d4        ..      ADDS     r4,r2,r3
        0x00005344:    4284        .B      CMP      r4,r0
        0x00005346:    d801        ..      BHI      0x534c ; _fsqrt + 56
        0x00005348:    1b00        ..      SUBS     r0,r0,r4
        0x0000534a:    461a        .F      MOV      r2,r3
        0x0000534c:    0040        @.      LSLS     r0,r0,#1
        0x0000534e:    1c49        I.      ADDS     r1,r1,#1
        0x00005350:    2917        .)      CMP      r1,#0x17
        0x00005352:    ddf3        ..      BLE      0x533c ; _fsqrt + 40
        0x00005354:    0051        Q.      LSLS     r1,r2,#1
        0x00005356:    4281        .B      CMP      r1,r0
        0x00005358:    d202        ..      BCS      0x5360 ; _fsqrt + 76
        0x0000535a:    2100        .!      MOVS     r1,#0
        0x0000535c:    43c9        .C      MVNS     r1,r1
        0x0000535e:    e000        ..      B        0x5362 ; _fsqrt + 78
        0x00005360:    2100        .!      MOVS     r1,#0
        0x00005362:    05e8        ..      LSLS     r0,r5,#23
        0x00005364:    1880        ..      ADDS     r0,r0,r2
        0x00005366:    f7ffff94    ....    BL       __I$use$fp ; 0x5292
        0x0000536a:    bd70        p.      POP      {r4-r6,pc}
    .text
    _frnd
        0x0000536c:    b510        ..      PUSH     {r4,lr}
        0x0000536e:    0041        A.      LSLS     r1,r0,#1
        0x00005370:    d00d        ..      BEQ      0x538e ; _frnd + 34
        0x00005372:    0041        A.      LSLS     r1,r0,#1
        0x00005374:    0e09        ..      LSRS     r1,r1,#24
        0x00005376:    2996        .)      CMP      r1,#0x96
        0x00005378:    dc09        ..      BGT      0x538e ; _frnd + 34
        0x0000537a:    297e        ~)      CMP      r1,#0x7e
        0x0000537c:    dc0a        ..      BGT      0x5394 ; _frnd + 40
        0x0000537e:    db07        ..      BLT      0x5390 ; _frnd + 36
        0x00005380:    0241        A.      LSLS     r1,r0,#9
        0x00005382:    d005        ..      BEQ      0x5390 ; _frnd + 36
        0x00005384:    0fc0        ..      LSRS     r0,r0,#31
        0x00005386:    217f        .!      MOVS     r1,#0x7f
        0x00005388:    07c0        ..      LSLS     r0,r0,#31
        0x0000538a:    05c9        ..      LSLS     r1,r1,#23
        0x0000538c:    1840        @.      ADDS     r0,r0,r1
        0x0000538e:    bd10        ..      POP      {r4,pc}
        0x00005390:    2000        .       MOVS     r0,#0
        0x00005392:    bd10        ..      POP      {r4,pc}
        0x00005394:    2296        ."      MOVS     r2,#0x96
        0x00005396:    1a54        T.      SUBS     r4,r2,r1
        0x00005398:    2120         !      MOVS     r1,#0x20
        0x0000539a:    1b0a        ..      SUBS     r2,r1,r4
        0x0000539c:    4601        .F      MOV      r1,r0
        0x0000539e:    4091        .@      LSLS     r1,r1,r2
        0x000053a0:    40e0        .@      LSRS     r0,r0,r4
        0x000053a2:    f7ffff76    ..v.    BL       __I$use$fp ; 0x5292
        0x000053a6:    40a0        .@      LSLS     r0,r0,r4
        0x000053a8:    bd10        ..      POP      {r4,pc}
    .text
    _double_round
        0x000053aa:    b510        ..      PUSH     {r4,lr}
        0x000053ac:    2b00        .+      CMP      r3,#0
        0x000053ae:    da08        ..      BGE      0x53c2 ; _double_round + 24
        0x000053b0:    2400        .$      MOVS     r4,#0
        0x000053b2:    1c40        @.      ADDS     r0,r0,#1
        0x000053b4:    4161        aA      ADCS     r1,r1,r4
        0x000053b6:    1892        ..      ADDS     r2,r2,r2
        0x000053b8:    415b        [A      ADCS     r3,r3,r3
        0x000053ba:    431a        .C      ORRS     r2,r2,r3
        0x000053bc:    d101        ..      BNE      0x53c2 ; _double_round + 24
        0x000053be:    0840        @.      LSRS     r0,r0,#1
        0x000053c0:    0040        @.      LSLS     r0,r0,#1
        0x000053c2:    bd10        ..      POP      {r4,pc}
    _double_epilogue
        0x000053c4:    b5f0        ..      PUSH     {r4-r7,lr}
        0x000053c6:    b41f        ..      PUSH     {r0-r4}
        0x000053c8:    b082        ..      SUB      sp,sp,#8
        0x000053ca:    4605        .F      MOV      r5,r0
        0x000053cc:    000c        ..      MOVS     r4,r1
        0x000053ce:    d003        ..      BEQ      0x53d8 ; _double_epilogue + 20
        0x000053d0:    4608        .F      MOV      r0,r1
        0x000053d2:    f000f955    ..U.    BL       __ARM_clz ; 0x5680
        0x000053d6:    e002        ..      B        0x53de ; _double_epilogue + 26
        0x000053d8:    f000f952    ..R.    BL       __ARM_clz ; 0x5680
        0x000053dc:    3020         0      ADDS     r0,r0,#0x20
        0x000053de:    4602        .F      MOV      r2,r0
        0x000053e0:    9000        ..      STR      r0,[sp,#0]
        0x000053e2:    4621        !F      MOV      r1,r4
        0x000053e4:    4628        (F      MOV      r0,r5
        0x000053e6:    f7ffff31    ..1.    BL       __aeabi_llsl ; 0x524c
        0x000053ea:    9b04        ..      LDR      r3,[sp,#0x10]
        0x000053ec:    9a05        ..      LDR      r2,[sp,#0x14]
        0x000053ee:    4604        .F      MOV      r4,r0
        0x000053f0:    460f        .F      MOV      r7,r1
        0x000053f2:    4318        .C      ORRS     r0,r0,r3
        0x000053f4:    4311        .C      ORRS     r1,r1,r2
        0x000053f6:    4308        .C      ORRS     r0,r0,r1
        0x000053f8:    d014        ..      BEQ      0x5424 ; _double_epilogue + 96
        0x000053fa:    4618        .F      MOV      r0,r3
        0x000053fc:    4310        .C      ORRS     r0,r0,r2
        0x000053fe:    d01b        ..      BEQ      0x5438 ; _double_epilogue + 116
        0x00005400:    9800        ..      LDR      r0,[sp,#0]
        0x00005402:    2140        @!      MOVS     r1,#0x40
        0x00005404:    1a0a        ..      SUBS     r2,r1,r0
        0x00005406:    4618        .F      MOV      r0,r3
        0x00005408:    9905        ..      LDR      r1,[sp,#0x14]
        0x0000540a:    f000f8c1    ....    BL       __aeabi_llsr ; 0x5590
        0x0000540e:    4605        .F      MOV      r5,r0
        0x00005410:    460e        .F      MOV      r6,r1
        0x00005412:    9a00        ..      LDR      r2,[sp,#0]
        0x00005414:    9905        ..      LDR      r1,[sp,#0x14]
        0x00005416:    9804        ..      LDR      r0,[sp,#0x10]
        0x00005418:    f7ffff18    ....    BL       __aeabi_llsl ; 0x524c
        0x0000541c:    4308        .C      ORRS     r0,r0,r1
        0x0000541e:    d005        ..      BEQ      0x542c ; _double_epilogue + 104
        0x00005420:    2001        .       MOVS     r0,#1
        0x00005422:    e004        ..      B        0x542e ; _double_epilogue + 106
        0x00005424:    4620         F      MOV      r0,r4
        0x00005426:    4639        9F      MOV      r1,r7
        0x00005428:    b007        ..      ADD      sp,sp,#0x1c
        0x0000542a:    bdf0        ..      POP      {r4-r7,pc}
        0x0000542c:    2000        .       MOVS     r0,#0
        0x0000542e:    17c1        ..      ASRS     r1,r0,#31
        0x00005430:    4305        .C      ORRS     r5,r5,r0
        0x00005432:    430e        .C      ORRS     r6,r6,r1
        0x00005434:    432c        ,C      ORRS     r4,r4,r5
        0x00005436:    4337        7C      ORRS     r7,r7,r6
        0x00005438:    9900        ..      LDR      r1,[sp,#0]
        0x0000543a:    980e        ..      LDR      r0,[sp,#0x38]
        0x0000543c:    0563        c.      LSLS     r3,r4,#21
        0x0000543e:    1a40        @.      SUBS     r0,r0,r1
        0x00005440:    0579        y.      LSLS     r1,r7,#21
        0x00005442:    0ae4        ..      LSRS     r4,r4,#11
        0x00005444:    2200        ."      MOVS     r2,#0
        0x00005446:    430c        .C      ORRS     r4,r4,r1
        0x00005448:    0afd        ..      LSRS     r5,r7,#11
        0x0000544a:    300a        .0      ADDS     r0,r0,#0xa
        0x0000544c:    d502        ..      BPL      0x5454 ; _double_epilogue + 144
        0x0000544e:    2000        .       MOVS     r0,#0
        0x00005450:    4601        .F      MOV      r1,r0
        0x00005452:    e7e9        ..      B        0x5428 ; _double_epilogue + 100
        0x00005454:    0501        ..      LSLS     r1,r0,#20
        0x00005456:    1910        ..      ADDS     r0,r2,r4
        0x00005458:    4169        iA      ADCS     r1,r1,r5
        0x0000545a:    9c0c        ..      LDR      r4,[sp,#0x30]
        0x0000545c:    9d0d        ..      LDR      r5,[sp,#0x34]
        0x0000545e:    1900        ..      ADDS     r0,r0,r4
        0x00005460:    4169        iA      ADCS     r1,r1,r5
        0x00005462:    f7ffffa2    ....    BL       _double_round ; 0x53aa
        0x00005466:    e7df        ..      B        0x5428 ; _double_epilogue + 100
    .text
    _dsqrt
        0x00005468:    b5fe        ..      PUSH     {r1-r7,lr}
        0x0000546a:    2300        .#      MOVS     r3,#0
        0x0000546c:    461a        .F      MOV      r2,r3
        0x0000546e:    1a1b        ..      SUBS     r3,r3,r0
        0x00005470:    418a        .A      SBCS     r2,r2,r1
        0x00005472:    db03        ..      BLT      0x547c ; _dsqrt + 20
        0x00005474:    2000        .       MOVS     r0,#0
        0x00005476:    4601        .F      MOV      r1,r0
        0x00005478:    b003        ..      ADD      sp,sp,#0xc
        0x0000547a:    bdf0        ..      POP      {r4-r7,pc}
        0x0000547c:    004a        J.      LSLS     r2,r1,#1
        0x0000547e:    030d        ..      LSLS     r5,r1,#12
        0x00005480:    2101        .!      MOVS     r1,#1
        0x00005482:    0b2d        -.      LSRS     r5,r5,#12
        0x00005484:    0509        ..      LSLS     r1,r1,#20
        0x00005486:    0d52        R.      LSRS     r2,r2,#21
        0x00005488:    430d        .C      ORRS     r5,r5,r1
        0x0000548a:    07d1        ..      LSLS     r1,r2,#31
        0x0000548c:    d102        ..      BNE      0x5494 ; _dsqrt + 44
        0x0000548e:    1800        ..      ADDS     r0,r0,r0
        0x00005490:    416d        mA      ADCS     r5,r5,r5
        0x00005492:    1e52        R.      SUBS     r2,r2,#1
        0x00005494:    1051        Q.      ASRS     r1,r2,#1
        0x00005496:    31ff        .1      ADDS     r1,r1,#0xff
        0x00005498:    31ff        .1      ADDS     r1,r1,#0xff
        0x0000549a:    3101        .1      ADDS     r1,#1
        0x0000549c:    2700        .'      MOVS     r7,#0
        0x0000549e:    4604        .F      MOV      r4,r0
        0x000054a0:    463e        >F      MOV      r6,r7
        0x000054a2:    4638        8F      MOV      r0,r7
        0x000054a4:    9700        ..      STR      r7,[sp,#0]
        0x000054a6:    9101        ..      STR      r1,[sp,#4]
        0x000054a8:    4602        .F      MOV      r2,r0
        0x000054aa:    2101        .!      MOVS     r1,#1
        0x000054ac:    2000        .       MOVS     r0,#0
        0x000054ae:    0509        ..      LSLS     r1,r1,#20
        0x000054b0:    f000f86e    ..n.    BL       __aeabi_llsr ; 0x5590
        0x000054b4:    19c3        ..      ADDS     r3,r0,r7
        0x000054b6:    4171        qA      ADCS     r1,r1,r6
        0x000054b8:    18f8        ..      ADDS     r0,r7,r3
        0x000054ba:    4632        2F      MOV      r2,r6
        0x000054bc:    4684        .F      MOV      r12,r0
        0x000054be:    468e        .F      MOV      lr,r1
        0x000054c0:    414a        JA      ADCS     r2,r2,r1
        0x000054c2:    4661        aF      MOV      r1,r12
        0x000054c4:    4628        (F      MOV      r0,r5
        0x000054c6:    1a61        a.      SUBS     r1,r4,r1
        0x000054c8:    4190        .A      SBCS     r0,r0,r2
        0x000054ca:    d304        ..      BCC      0x54d6 ; _dsqrt + 110
        0x000054cc:    4660        `F      MOV      r0,r12
        0x000054ce:    1a24        $.      SUBS     r4,r4,r0
        0x000054d0:    4195        .A      SBCS     r5,r5,r2
        0x000054d2:    4676        vF      MOV      r6,lr
        0x000054d4:    461f        .F      MOV      r7,r3
        0x000054d6:    1924        $.      ADDS     r4,r4,r4
        0x000054d8:    9800        ..      LDR      r0,[sp,#0]
        0x000054da:    416d        mA      ADCS     r5,r5,r5
        0x000054dc:    1c40        @.      ADDS     r0,r0,#1
        0x000054de:    9000        ..      STR      r0,[sp,#0]
        0x000054e0:    2834        4(      CMP      r0,#0x34
        0x000054e2:    dde1        ..      BLE      0x54a8 ; _dsqrt + 64
        0x000054e4:    19f9        ..      ADDS     r1,r7,r7
        0x000054e6:    4630        0F      MOV      r0,r6
        0x000054e8:    4170        pA      ADCS     r0,r0,r6
        0x000054ea:    1b09        ..      SUBS     r1,r1,r4
        0x000054ec:    41a8        .A      SBCS     r0,r0,r5
        0x000054ee:    d203        ..      BCS      0x54f8 ; _dsqrt + 144
        0x000054f0:    2200        ."      MOVS     r2,#0
        0x000054f2:    43d2        .C      MVNS     r2,r2
        0x000054f4:    4613        .F      MOV      r3,r2
        0x000054f6:    e001        ..      B        0x54fc ; _dsqrt + 148
        0x000054f8:    2200        ."      MOVS     r2,#0
        0x000054fa:    4613        .F      MOV      r3,r2
        0x000054fc:    9801        ..      LDR      r0,[sp,#4]
        0x000054fe:    0501        ..      LSLS     r1,r0,#20
        0x00005500:    1c38        8.      ADDS     r0,r7,#0
        0x00005502:    4171        qA      ADCS     r1,r1,r6
        0x00005504:    f7ffff51    ..Q.    BL       _double_round ; 0x53aa
        0x00005508:    e7b6        ..      B        0x5478 ; _dsqrt + 16
        0x0000550a:    0000        ..      MOVS     r0,r0
    .text
    __ARM_dcmp4
    _dcmp4
        0x0000550c:    b530        0.      PUSH     {r4,r5,lr}
        0x0000550e:    4604        .F      MOV      r4,r0
        0x00005510:    0fcd        ..      LSRS     r5,r1,#31
        0x00005512:    07ed        ..      LSLS     r5,r5,#31
        0x00005514:    2000        .       MOVS     r0,#0
        0x00005516:    4305        .C      ORRS     r5,r5,r0
        0x00005518:    d104        ..      BNE      0x5524 ; __ARM_dcmp4 + 24
        0x0000551a:    460d        .F      MOV      r5,r1
        0x0000551c:    2101        .!      MOVS     r1,#1
        0x0000551e:    07c9        ..      LSLS     r1,r1,#31
        0x00005520:    4264        dB      RSBS     r4,r4,#0
        0x00005522:    41a9        .A      SBCS     r1,r1,r5
        0x00005524:    0fdd        ..      LSRS     r5,r3,#31
        0x00005526:    07ed        ..      LSLS     r5,r5,#31
        0x00005528:    4328        (C      ORRS     r0,r0,r5
        0x0000552a:    d104        ..      BNE      0x5536 ; __ARM_dcmp4 + 42
        0x0000552c:    4618        .F      MOV      r0,r3
        0x0000552e:    2301        .#      MOVS     r3,#1
        0x00005530:    07db        ..      LSLS     r3,r3,#31
        0x00005532:    4252        RB      RSBS     r2,r2,#0
        0x00005534:    4183        .A      SBCS     r3,r3,r0
        0x00005536:    4618        .F      MOV      r0,r3
        0x00005538:    1b15        ..      SUBS     r5,r2,r4
        0x0000553a:    4188        .A      SBCS     r0,r0,r1
        0x0000553c:    d201        ..      BCS      0x5542 ; __ARM_dcmp4 + 54
        0x0000553e:    4809        .H      LDR      r0,[pc,#36] ; [0x5564] = 0x80000000
        0x00005540:    e006        ..      B        0x5550 ; __ARM_dcmp4 + 68
        0x00005542:    2001        .       MOVS     r0,#1
        0x00005544:    0740        @.      LSLS     r0,r0,#29
        0x00005546:    4062        b@      EORS     r2,r2,r4
        0x00005548:    404b        K@      EORS     r3,r3,r1
        0x0000554a:    431a        .C      ORRS     r2,r2,r3
        0x0000554c:    d100        ..      BNE      0x5550 ; __ARM_dcmp4 + 68
        0x0000554e:    4806        .H      LDR      r0,[pc,#24] ; [0x5568] = 0x60000000
        0x00005550:    f3ef8100    ....    MRS      r1,APSR ; formerly CPSR
        0x00005554:    0209        ..      LSLS     r1,r1,#8
        0x00005556:    0a09        ..      LSRS     r1,r1,#8
        0x00005558:    0e02        ..      LSRS     r2,r0,#24
        0x0000555a:    0612        ..      LSLS     r2,r2,#24
        0x0000555c:    4311        .C      ORRS     r1,r1,r2
        0x0000555e:    f3818800    ....    MSR      APSR_nzcvq,r1 ; formerly CPSR_f
        0x00005562:    bd30        0.      POP      {r4,r5,pc}
    $d
        0x00005564:    80000000    ....    DCD    2147483648
        0x00005568:    60000000    ...`    DCD    1610612736
    $t
    .text
    __scatterload
    __scatterload_rt2
        0x0000556c:    4c06        .L      LDR      r4,[pc,#24] ; [0x5588] = 0x6e80
        0x0000556e:    2501        .%      MOVS     r5,#1
        0x00005570:    4e06        .N      LDR      r6,[pc,#24] ; [0x558c] = 0x6ea0
        0x00005572:    e005        ..      B        0x5580 ; __scatterload + 20
        0x00005574:    68e3        .h      LDR      r3,[r4,#0xc]
        0x00005576:    cc07        ..      LDM      r4!,{r0-r2}
        0x00005578:    432b        +C      ORRS     r3,r3,r5
        0x0000557a:    3c0c        .<      SUBS     r4,r4,#0xc
        0x0000557c:    4798        .G      BLX      r3
        0x0000557e:    3410        .4      ADDS     r4,r4,#0x10
        0x00005580:    42b4        .B      CMP      r4,r6
        0x00005582:    d3f7        ..      BCC      0x5574 ; __scatterload + 8
        0x00005584:    f7fafda0    ....    BL       __main_after_scatterload ; 0xc8
    $d
        0x00005588:    00006e80    .n..    DCD    28288
        0x0000558c:    00006ea0    .n..    DCD    28320
    $t
    .text
    __aeabi_llsr
    _ll_ushift_r
        0x00005590:    b510        ..      PUSH     {r4,lr}
        0x00005592:    2a20         *      CMP      r2,#0x20
        0x00005594:    db04        ..      BLT      0x55a0 ; __aeabi_llsr + 16
        0x00005596:    4608        .F      MOV      r0,r1
        0x00005598:    3a20         :      SUBS     r2,r2,#0x20
        0x0000559a:    40d0        .@      LSRS     r0,r0,r2
        0x0000559c:    2100        .!      MOVS     r1,#0
        0x0000559e:    bd10        ..      POP      {r4,pc}
        0x000055a0:    460b        .F      MOV      r3,r1
        0x000055a2:    40d3        .@      LSRS     r3,r3,r2
        0x000055a4:    40d0        .@      LSRS     r0,r0,r2
        0x000055a6:    2420         $      MOVS     r4,#0x20
        0x000055a8:    1aa2        ..      SUBS     r2,r4,r2
        0x000055aa:    4091        .@      LSLS     r1,r1,r2
        0x000055ac:    4308        .C      ORRS     r0,r0,r1
        0x000055ae:    4619        .F      MOV      r1,r3
        0x000055b0:    bd10        ..      POP      {r4,pc}
        0x000055b2:    0000        ..      MOVS     r0,r0
    .text
    __aeabi_i2d
        0x000055b4:    b50e        ..      PUSH     {r1-r3,lr}
        0x000055b6:    17c2        ..      ASRS     r2,r0,#31
        0x000055b8:    0fc1        ..      LSRS     r1,r0,#31
        0x000055ba:    4050        P@      EORS     r0,r0,r2
        0x000055bc:    07ca        ..      LSLS     r2,r1,#31
        0x000055be:    1840        @.      ADDS     r0,r0,r1
        0x000055c0:    2100        .!      MOVS     r1,#0
        0x000055c2:    4b05        .K      LDR      r3,[pc,#20] ; [0x55d8] = 0x433
        0x000055c4:    9302        ..      STR      r3,[sp,#8]
        0x000055c6:    9201        ..      STR      r2,[sp,#4]
        0x000055c8:    9100        ..      STR      r1,[sp,#0]
        0x000055ca:    460a        .F      MOV      r2,r1
        0x000055cc:    460b        .F      MOV      r3,r1
        0x000055ce:    f7fffef9    ....    BL       _double_epilogue ; 0x53c4
        0x000055d2:    b003        ..      ADD      sp,sp,#0xc
        0x000055d4:    bd00        ..      POP      {pc}
    $d
        0x000055d6:    0000        ..      DCW    0
        0x000055d8:    00000433    3...    DCD    1075
    $t
    .text
    __aeabi_ui2d
        0x000055dc:    b50e        ..      PUSH     {r1-r3,lr}
        0x000055de:    4905        .I      LDR      r1,[pc,#20] ; [0x55f4] = 0x433
        0x000055e0:    9102        ..      STR      r1,[sp,#8]
        0x000055e2:    2100        .!      MOVS     r1,#0
        0x000055e4:    9100        ..      STR      r1,[sp,#0]
        0x000055e6:    460a        .F      MOV      r2,r1
        0x000055e8:    460b        .F      MOV      r3,r1
        0x000055ea:    9101        ..      STR      r1,[sp,#4]
        0x000055ec:    f7fffeea    ....    BL       _double_epilogue ; 0x53c4
        0x000055f0:    b003        ..      ADD      sp,sp,#0xc
        0x000055f2:    bd00        ..      POP      {pc}
    $d
        0x000055f4:    00000433    3...    DCD    1075
    $t
    .text
    __aeabi_d2iz
        0x000055f8:    b570        p.      PUSH     {r4-r6,lr}
        0x000055fa:    0fcd        ..      LSRS     r5,r1,#31
        0x000055fc:    004a        J.      LSLS     r2,r1,#1
        0x000055fe:    0309        ..      LSLS     r1,r1,#12
        0x00005600:    2301        .#      MOVS     r3,#1
        0x00005602:    0b09        ..      LSRS     r1,r1,#12
        0x00005604:    051b        ..      LSLS     r3,r3,#20
        0x00005606:    4319        .C      ORRS     r1,r1,r3
        0x00005608:    4b0b        .K      LDR      r3,[pc,#44] ; [0x5638] = 0x3ff
        0x0000560a:    07ed        ..      LSLS     r5,r5,#31
        0x0000560c:    2400        .$      MOVS     r4,#0
        0x0000560e:    0d52        R.      LSRS     r2,r2,#21
        0x00005610:    429a        .B      CMP      r2,r3
        0x00005612:    da01        ..      BGE      0x5618 ; __aeabi_d2iz + 32
        0x00005614:    2000        .       MOVS     r0,#0
        0x00005616:    bd70        p.      POP      {r4-r6,pc}
        0x00005618:    4b07        .K      LDR      r3,[pc,#28] ; [0x5638] = 0x3ff
        0x0000561a:    3334        43      ADDS     r3,r3,#0x34
        0x0000561c:    429a        .B      CMP      r2,r3
        0x0000561e:    dc03        ..      BGT      0x5628 ; __aeabi_d2iz + 48
        0x00005620:    1a9a        ..      SUBS     r2,r3,r2
        0x00005622:    f7ffffb5    ....    BL       __aeabi_llsr ; 0x5590
        0x00005626:    e002        ..      B        0x562e ; __aeabi_d2iz + 54
        0x00005628:    4904        .I      LDR      r1,[pc,#16] ; [0x563c] = 0xfffffbcd
        0x0000562a:    1851        Q.      ADDS     r1,r2,r1
        0x0000562c:    4088        .@      LSLS     r0,r0,r1
        0x0000562e:    432c        ,C      ORRS     r4,r4,r5
        0x00005630:    d0f1        ..      BEQ      0x5616 ; __aeabi_d2iz + 30
        0x00005632:    4240        @B      RSBS     r0,r0,#0
        0x00005634:    bd70        p.      POP      {r4-r6,pc}
    $d
        0x00005636:    0000        ..      DCW    0
        0x00005638:    000003ff    ....    DCD    1023
        0x0000563c:    fffffbcd    ....    DCD    4294966221
    $t
    i.SPI_RW
    SPI_RW
        0x00005640:    4906        .I      LDR      r1,[pc,#24] ; [0x565c] = 0x40030100
        0x00005642:    6208        .b      STR      r0,[r1,#0x20]
        0x00005644:    6808        .h      LDR      r0,[r1,#0]
        0x00005646:    2201        ."      MOVS     r2,#1
        0x00005648:    4310        .C      ORRS     r0,r0,r2
        0x0000564a:    6008        .`      STR      r0,[r1,#0]
        0x0000564c:    6808        .h      LDR      r0,[r1,#0]
        0x0000564e:    43c0        .C      MVNS     r0,r0
        0x00005650:    07c0        ..      LSLS     r0,r0,#31
        0x00005652:    d0fb        ..      BEQ      0x564c ; SPI_RW + 12
        0x00005654:    6908        .i      LDR      r0,[r1,#0x10]
        0x00005656:    b2c0        ..      UXTB     r0,r0
        0x00005658:    4770        pG      BX       lr
    $d
        0x0000565a:    0000        ..      DCW    0
        0x0000565c:    40030100    ...@    DCD    1073938688
    $t
    i.__0printf$5
    __0printf$5
    __1printf$5
    __2printf
        0x00005660:    b40f        ..      PUSH     {r0-r3}
        0x00005662:    b510        ..      PUSH     {r4,lr}
        0x00005664:    a903        ..      ADD      r1,sp,#0xc
        0x00005666:    4b04        .K      LDR      r3,[pc,#16] ; [0x5678] = 0x3f4d
        0x00005668:    4a04        .J      LDR      r2,[pc,#16] ; [0x567c] = 0x200000fc
        0x0000566a:    9802        ..      LDR      r0,[sp,#8]
        0x0000566c:    f000fc8e    ....    BL       _printf_core ; 0x5f8c
        0x00005670:    bc10        ..      POP      {r4}
        0x00005672:    bc08        ..      POP      {r3}
        0x00005674:    b004        ..      ADD      sp,sp,#0x10
        0x00005676:    4718        .G      BX       r3
    $d
        0x00005678:    00003f4d    M?..    DCD    16205
        0x0000567c:    200000fc    ...     DCD    536871164
    $t
    i.__ARM_clz
    __ARM_clz
        0x00005680:    2120         !      MOVS     r1,#0x20
        0x00005682:    0c02        ..      LSRS     r2,r0,#16
        0x00005684:    d001        ..      BEQ      0x568a ; __ARM_clz + 10
        0x00005686:    2110        .!      MOVS     r1,#0x10
        0x00005688:    4610        .F      MOV      r0,r2
        0x0000568a:    0a02        ..      LSRS     r2,r0,#8
        0x0000568c:    d001        ..      BEQ      0x5692 ; __ARM_clz + 18
        0x0000568e:    4610        .F      MOV      r0,r2
        0x00005690:    3908        .9      SUBS     r1,r1,#8
        0x00005692:    0902        ..      LSRS     r2,r0,#4
        0x00005694:    d001        ..      BEQ      0x569a ; __ARM_clz + 26
        0x00005696:    4610        .F      MOV      r0,r2
        0x00005698:    1f09        ..      SUBS     r1,r1,#4
        0x0000569a:    0882        ..      LSRS     r2,r0,#2
        0x0000569c:    d001        ..      BEQ      0x56a2 ; __ARM_clz + 34
        0x0000569e:    4610        .F      MOV      r0,r2
        0x000056a0:    1e89        ..      SUBS     r1,r1,#2
        0x000056a2:    0842        B.      LSRS     r2,r0,#1
        0x000056a4:    d001        ..      BEQ      0x56aa ; __ARM_clz + 42
        0x000056a6:    1e88        ..      SUBS     r0,r1,#2
        0x000056a8:    4770        pG      BX       lr
        0x000056aa:    1a08        ..      SUBS     r0,r1,r0
        0x000056ac:    4770        pG      BX       lr
    i.__ARM_common_ll_muluu
    __ARM_common_ll_muluu
        0x000056ae:    b4f0        ..      PUSH     {r4-r7}
        0x000056b0:    0c04        ..      LSRS     r4,r0,#16
        0x000056b2:    b28b        ..      UXTH     r3,r1
        0x000056b4:    4626        &F      MOV      r6,r4
        0x000056b6:    b282        ..      UXTH     r2,r0
        0x000056b8:    435e        ^C      MULS     r6,r3,r6
        0x000056ba:    0c0d        ..      LSRS     r5,r1,#16
        0x000056bc:    4610        .F      MOV      r0,r2
        0x000056be:    0c37        7.      LSRS     r7,r6,#16
        0x000056c0:    4358        XC      MULS     r0,r3,r0
        0x000056c2:    0436        6.      LSLS     r6,r6,#16
        0x000056c4:    1980        ..      ADDS     r0,r0,r6
        0x000056c6:    2100        .!      MOVS     r1,#0
        0x000056c8:    4179        yA      ADCS     r1,r1,r7
        0x000056ca:    4616        .F      MOV      r6,r2
        0x000056cc:    436e        nC      MULS     r6,r5,r6
        0x000056ce:    0c37        7.      LSRS     r7,r6,#16
        0x000056d0:    0436        6.      LSLS     r6,r6,#16
        0x000056d2:    1980        ..      ADDS     r0,r0,r6
        0x000056d4:    4179        yA      ADCS     r1,r1,r7
        0x000056d6:    4626        &F      MOV      r6,r4
        0x000056d8:    436e        nC      MULS     r6,r5,r6
        0x000056da:    1989        ..      ADDS     r1,r1,r6
        0x000056dc:    bcf0        ..      POP      {r4-r7}
        0x000056de:    4770        pG      BX       lr
    i.__ARM_common_switch8
    __ARM_common_switch8
        0x000056e0:    b430        0.      PUSH     {r4,r5}
        0x000056e2:    4674        tF      MOV      r4,lr
        0x000056e4:    1e64        d.      SUBS     r4,r4,#1
        0x000056e6:    7825        %x      LDRB     r5,[r4,#0]
        0x000056e8:    1c64        d.      ADDS     r4,r4,#1
        0x000056ea:    42ab        .B      CMP      r3,r5
        0x000056ec:    d200        ..      BCS      0x56f0 ; __ARM_common_switch8 + 16
        0x000056ee:    461d        .F      MOV      r5,r3
        0x000056f0:    5d63        c]      LDRB     r3,[r4,r5]
        0x000056f2:    005b        [.      LSLS     r3,r3,#1
        0x000056f4:    18e3        ..      ADDS     r3,r4,r3
        0x000056f6:    bc30        0.      POP      {r4,r5}
        0x000056f8:    4718        .G      BX       r3
        0x000056fa:    0000        ..      MOVS     r0,r0
    i.__ARM_fpclassify
    __ARM_fpclassify
        0x000056fc:    0049        I.      LSLS     r1,r1,#1
        0x000056fe:    02ca        ..      LSLS     r2,r1,#11
        0x00005700:    4302        .C      ORRS     r2,r2,r0
        0x00005702:    0010        ..      MOVS     r0,r2
        0x00005704:    d000        ..      BEQ      0x5708 ; __ARM_fpclassify + 12
        0x00005706:    2004        .       MOVS     r0,#4
        0x00005708:    0d4a        J.      LSRS     r2,r1,#21
        0x0000570a:    d001        ..      BEQ      0x5710 ; __ARM_fpclassify + 20
        0x0000570c:    2201        ."      MOVS     r2,#1
        0x0000570e:    4310        .C      ORRS     r0,r0,r2
        0x00005710:    4a04        .J      LDR      r2,[pc,#16] ; [0x5724] = 0x7ff
        0x00005712:    0d49        I.      LSRS     r1,r1,#21
        0x00005714:    4291        .B      CMP      r1,r2
        0x00005716:    d101        ..      BNE      0x571c ; __ARM_fpclassify + 32
        0x00005718:    2102        .!      MOVS     r1,#2
        0x0000571a:    4308        .C      ORRS     r0,r0,r1
        0x0000571c:    2801        .(      CMP      r0,#1
        0x0000571e:    d100        ..      BNE      0x5722 ; __ARM_fpclassify + 38
        0x00005720:    2005        .       MOVS     r0,#5
        0x00005722:    4770        pG      BX       lr
    $d
        0x00005724:    000007ff    ....    DCD    2047
    $t
    i.__ARM_fpclassifyf
    __ARM_fpclassifyf
        0x00005728:    0041        A.      LSLS     r1,r0,#1
        0x0000572a:    0208        ..      LSLS     r0,r1,#8
        0x0000572c:    d000        ..      BEQ      0x5730 ; __ARM_fpclassifyf + 8
        0x0000572e:    2004        .       MOVS     r0,#4
        0x00005730:    0e0a        ..      LSRS     r2,r1,#24
        0x00005732:    d001        ..      BEQ      0x5738 ; __ARM_fpclassifyf + 16
        0x00005734:    2201        ."      MOVS     r2,#1
        0x00005736:    4310        .C      ORRS     r0,r0,r2
        0x00005738:    0e09        ..      LSRS     r1,r1,#24
        0x0000573a:    29ff        .)      CMP      r1,#0xff
        0x0000573c:    d101        ..      BNE      0x5742 ; __ARM_fpclassifyf + 26
        0x0000573e:    2102        .!      MOVS     r1,#2
        0x00005740:    4308        .C      ORRS     r0,r0,r1
        0x00005742:    2801        .(      CMP      r0,#1
        0x00005744:    d100        ..      BNE      0x5748 ; __ARM_fpclassifyf + 32
        0x00005746:    2005        .       MOVS     r0,#5
        0x00005748:    4770        pG      BX       lr
    i.__ARM_isfinitef
    __ARM_isfinitef
        0x0000574a:    0dc0        ..      LSRS     r0,r0,#23
        0x0000574c:    43c0        .C      MVNS     r0,r0
        0x0000574e:    0600        ..      LSLS     r0,r0,#24
        0x00005750:    0e00        ..      LSRS     r0,r0,#24
        0x00005752:    d001        ..      BEQ      0x5758 ; __ARM_isfinitef + 14
        0x00005754:    2001        .       MOVS     r0,#1
        0x00005756:    4770        pG      BX       lr
        0x00005758:    2000        .       MOVS     r0,#0
        0x0000575a:    4770        pG      BX       lr
    i.__ieee754_rem_pio2
    __ieee754_rem_pio2
        0x0000575c:    b5f7        ..      PUSH     {r0-r2,r4-r7,lr}
        0x0000575e:    b096        ..      SUB      sp,sp,#0x58
        0x00005760:    4614        .F      MOV      r4,r2
        0x00005762:    2100        .!      MOVS     r1,#0
        0x00005764:    60a1        .`      STR      r1,[r4,#8]
        0x00005766:    60d1        .`      STR      r1,[r2,#0xc]
        0x00005768:    9917        ..      LDR      r1,[sp,#0x5c]
        0x0000576a:    9109        ..      STR      r1,[sp,#0x24]
        0x0000576c:    004d        M.      LSLS     r5,r1,#1
        0x0000576e:    49cd        .I      LDR      r1,[pc,#820] ; [0x5aa4] = 0x3fe921fb
        0x00005770:    086d        m.      LSRS     r5,r5,#1
        0x00005772:    428d        .B      CMP      r5,r1
        0x00005774:    dc05        ..      BGT      0x5782 ; __ieee754_rem_pio2 + 38
        0x00005776:    9917        ..      LDR      r1,[sp,#0x5c]
        0x00005778:    6061        a`      STR      r1,[r4,#4]
        0x0000577a:    6020         `      STR      r0,[r4,#0]
        0x0000577c:    2000        .       MOVS     r0,#0
        0x0000577e:    b019        ..      ADD      sp,sp,#0x64
        0x00005780:    bdf0        ..      POP      {r4-r7,pc}
        0x00005782:    49c9        .I      LDR      r1,[pc,#804] ; [0x5aa8] = 0x4002d97c
        0x00005784:    4ec9        .N      LDR      r6,[pc,#804] ; [0x5aac] = 0x3ff921fb
        0x00005786:    428d        .B      CMP      r5,r1
        0x00005788:    da38        8.      BGE      0x57fc ; __ieee754_rem_pio2 + 160
        0x0000578a:    27d3        .'      MOVS     r7,#0xd3
        0x0000578c:    9909        ..      LDR      r1,[sp,#0x24]
        0x0000578e:    057f        ..      LSLS     r7,r7,#21
        0x00005790:    2900        .)      CMP      r1,#0
        0x00005792:    4ac7        .J      LDR      r2,[pc,#796] ; [0x5ab0] = 0x54400000
        0x00005794:    9917        ..      LDR      r1,[sp,#0x5c]
        0x00005796:    4633        3F      MOV      r3,r6
        0x00005798:    dd17        ..      BLE      0x57ca ; __ieee754_rem_pio2 + 110
        0x0000579a:    f7fffb8b    ....    BL       __aeabi_dsub ; 0x4eb4
        0x0000579e:    42b5        .B      CMP      r5,r6
        0x000057a0:    d006        ..      BEQ      0x57b0 ; __ieee754_rem_pio2 + 84
        0x000057a2:    4ac4        .J      LDR      r2,[pc,#784] ; [0x5ab4] = 0x1a626331
        0x000057a4:    4bc4        .K      LDR      r3,[pc,#784] ; [0x5ab8] = 0x3dd0b461
        0x000057a6:    f7fffb85    ....    BL       __aeabi_dsub ; 0x4eb4
        0x000057aa:    6061        a`      STR      r1,[r4,#4]
        0x000057ac:    6020         `      STR      r0,[r4,#0]
        0x000057ae:    e009        ..      B        0x57c4 ; __ieee754_rem_pio2 + 104
        0x000057b0:    463a        :F      MOV      r2,r7
        0x000057b2:    4bc1        .K      LDR      r3,[pc,#772] ; [0x5ab8] = 0x3dd0b461
        0x000057b4:    f7fffb7e    ..~.    BL       __aeabi_dsub ; 0x4eb4
        0x000057b8:    4ac0        .J      LDR      r2,[pc,#768] ; [0x5abc] = 0x2e037073
        0x000057ba:    4bc1        .K      LDR      r3,[pc,#772] ; [0x5ac0] = 0x3ba3198a
        0x000057bc:    f7fffb7a    ..z.    BL       __aeabi_dsub ; 0x4eb4
        0x000057c0:    6061        a`      STR      r1,[r4,#4]
        0x000057c2:    6020         `      STR      r0,[r4,#0]
        0x000057c4:    2001        .       MOVS     r0,#1
        0x000057c6:    b019        ..      ADD      sp,sp,#0x64
        0x000057c8:    bdf0        ..      POP      {r4-r7,pc}
        0x000057ca:    f7fffacf    ....    BL       __aeabi_dadd ; 0x4d6c
        0x000057ce:    42b5        .B      CMP      r5,r6
        0x000057d0:    d006        ..      BEQ      0x57e0 ; __ieee754_rem_pio2 + 132
        0x000057d2:    4ab8        .J      LDR      r2,[pc,#736] ; [0x5ab4] = 0x1a626331
        0x000057d4:    4bb8        .K      LDR      r3,[pc,#736] ; [0x5ab8] = 0x3dd0b461
        0x000057d6:    f7fffac9    ....    BL       __aeabi_dadd ; 0x4d6c
        0x000057da:    6061        a`      STR      r1,[r4,#4]
        0x000057dc:    6020         `      STR      r0,[r4,#0]
        0x000057de:    e009        ..      B        0x57f4 ; __ieee754_rem_pio2 + 152
        0x000057e0:    463a        :F      MOV      r2,r7
        0x000057e2:    4bb5        .K      LDR      r3,[pc,#724] ; [0x5ab8] = 0x3dd0b461
        0x000057e4:    f7fffac2    ....    BL       __aeabi_dadd ; 0x4d6c
        0x000057e8:    4ab4        .J      LDR      r2,[pc,#720] ; [0x5abc] = 0x2e037073
        0x000057ea:    4bb5        .K      LDR      r3,[pc,#724] ; [0x5ac0] = 0x3ba3198a
        0x000057ec:    f7fffabe    ....    BL       __aeabi_dadd ; 0x4d6c
        0x000057f0:    6061        a`      STR      r1,[r4,#4]
        0x000057f2:    6020         `      STR      r0,[r4,#0]
        0x000057f4:    2000        .       MOVS     r0,#0
        0x000057f6:    43c0        .C      MVNS     r0,r0
        0x000057f8:    b019        ..      ADD      sp,sp,#0x64
        0x000057fa:    bdf0        ..      POP      {r4-r7,pc}
        0x000057fc:    49b1        .I      LDR      r1,[pc,#708] ; [0x5ac4] = 0x413921fb
        0x000057fe:    428d        .B      CMP      r5,r1
        0x00005800:    9917        ..      LDR      r1,[sp,#0x5c]
        0x00005802:    dc77        w.      BGT      0x58f4 ; __ieee754_rem_pio2 + 408
        0x00005804:    0049        I.      LSLS     r1,r1,#1
        0x00005806:    0849        I.      LSRS     r1,r1,#1
        0x00005808:    4607        .F      MOV      r7,r0
        0x0000580a:    4aaf        .J      LDR      r2,[pc,#700] ; [0x5ac8] = 0x6dc9c883
        0x0000580c:    4baf        .K      LDR      r3,[pc,#700] ; [0x5acc] = 0x3fe45f30
        0x0000580e:    9104        ..      STR      r1,[sp,#0x10]
        0x00005810:    f7fffb5e    ..^.    BL       __aeabi_dmul ; 0x4ed0
        0x00005814:    2200        ."      MOVS     r2,#0
        0x00005816:    4bae        .K      LDR      r3,[pc,#696] ; [0x5ad0] = 0x3fe00000
        0x00005818:    f7fffaa8    ....    BL       __aeabi_dadd ; 0x4d6c
        0x0000581c:    f7fffeec    ....    BL       __aeabi_d2iz ; 0x55f8
        0x00005820:    900a        ..      STR      r0,[sp,#0x28]
        0x00005822:    f7fffec7    ....    BL       __aeabi_i2d ; 0x55b4
        0x00005826:    4aa2        .J      LDR      r2,[pc,#648] ; [0x5ab0] = 0x54400000
        0x00005828:    4633        3F      MOV      r3,r6
        0x0000582a:    9103        ..      STR      r1,[sp,#0xc]
        0x0000582c:    9002        ..      STR      r0,[sp,#8]
        0x0000582e:    f7fffb4f    ..O.    BL       __aeabi_dmul ; 0x4ed0
        0x00005832:    463a        :F      MOV      r2,r7
        0x00005834:    9b04        ..      LDR      r3,[sp,#0x10]
        0x00005836:    f7fffb43    ..C.    BL       __aeabi_drsub ; 0x4ec0
        0x0000583a:    4606        .F      MOV      r6,r0
        0x0000583c:    460f        .F      MOV      r7,r1
        0x0000583e:    4a9d        .J      LDR      r2,[pc,#628] ; [0x5ab4] = 0x1a626331
        0x00005840:    4b9d        .K      LDR      r3,[pc,#628] ; [0x5ab8] = 0x3dd0b461
        0x00005842:    9903        ..      LDR      r1,[sp,#0xc]
        0x00005844:    9802        ..      LDR      r0,[sp,#8]
        0x00005846:    f7fffb43    ..C.    BL       __aeabi_dmul ; 0x4ed0
        0x0000584a:    0d2a        *.      LSRS     r2,r5,#20
        0x0000584c:    2501        .%      MOVS     r5,#1
        0x0000584e:    920c        ..      STR      r2,[sp,#0x30]
        0x00005850:    4632        2F      MOV      r2,r6
        0x00005852:    463b        ;F      MOV      r3,r7
        0x00005854:    f7fffb34    ..4.    BL       __aeabi_drsub ; 0x4ec0
        0x00005858:    6061        a`      STR      r1,[r4,#4]
        0x0000585a:    6020         `      STR      r0,[r4,#0]
        0x0000585c:    2d03        .-      CMP      r5,#3
        0x0000585e:    d039        9.      BEQ      0x58d4 ; __ieee754_rem_pio2 + 376
        0x00005860:    0048        H.      LSLS     r0,r1,#1
        0x00005862:    0d41        A.      LSRS     r1,r0,#21
        0x00005864:    980c        ..      LDR      r0,[sp,#0x30]
        0x00005866:    1a40        @.      SUBS     r0,r0,r1
        0x00005868:    0169        i.      LSLS     r1,r5,#5
        0x0000586a:    1869        i.      ADDS     r1,r5,r1
        0x0000586c:    3911        .9      SUBS     r1,r1,#0x11
        0x0000586e:    4281        .B      CMP      r1,r0
        0x00005870:    da30        0.      BGE      0x58d4 ; __ieee754_rem_pio2 + 376
        0x00005872:    4998        .I      LDR      r1,[pc,#608] ; [0x5ad4] = 0x14ae
        0x00005874:    0128        (.      LSLS     r0,r5,#4
        0x00005876:    4479        yD      ADD      r1,r1,pc
        0x00005878:    9608        ..      STR      r6,[sp,#0x20]
        0x0000587a:    900d        ..      STR      r0,[sp,#0x34]
        0x0000587c:    1808        ..      ADDS     r0,r1,r0
        0x0000587e:    9704        ..      STR      r7,[sp,#0x10]
        0x00005880:    6843        Ch      LDR      r3,[r0,#4]
        0x00005882:    6802        .h      LDR      r2,[r0,#0]
        0x00005884:    9903        ..      LDR      r1,[sp,#0xc]
        0x00005886:    9802        ..      LDR      r0,[sp,#8]
        0x00005888:    f7fffb22    ..".    BL       __aeabi_dmul ; 0x4ed0
        0x0000588c:    4602        .F      MOV      r2,r0
        0x0000588e:    460b        .F      MOV      r3,r1
        0x00005890:    9107        ..      STR      r1,[sp,#0x1c]
        0x00005892:    9006        ..      STR      r0,[sp,#0x18]
        0x00005894:    9904        ..      LDR      r1,[sp,#0x10]
        0x00005896:    9808        ..      LDR      r0,[sp,#0x20]
        0x00005898:    f7fffb0c    ....    BL       __aeabi_dsub ; 0x4eb4
        0x0000589c:    4606        .F      MOV      r6,r0
        0x0000589e:    460f        .F      MOV      r7,r1
        0x000058a0:    9b04        ..      LDR      r3,[sp,#0x10]
        0x000058a2:    9a08        ..      LDR      r2,[sp,#0x20]
        0x000058a4:    f7fffb0c    ....    BL       __aeabi_drsub ; 0x4ec0
        0x000058a8:    9b07        ..      LDR      r3,[sp,#0x1c]
        0x000058aa:    9a06        ..      LDR      r2,[sp,#0x18]
        0x000058ac:    f7fffb02    ....    BL       __aeabi_dsub ; 0x4eb4
        0x000058b0:    9105        ..      STR      r1,[sp,#0x14]
        0x000058b2:    4989        .I      LDR      r1,[pc,#548] ; [0x5ad8] = 0x146e
        0x000058b4:    9004        ..      STR      r0,[sp,#0x10]
        0x000058b6:    4479        yD      ADD      r1,r1,pc
        0x000058b8:    980d        ..      LDR      r0,[sp,#0x34]
        0x000058ba:    1840        @.      ADDS     r0,r0,r1
        0x000058bc:    68c3        .h      LDR      r3,[r0,#0xc]
        0x000058be:    6882        .h      LDR      r2,[r0,#8]
        0x000058c0:    9903        ..      LDR      r1,[sp,#0xc]
        0x000058c2:    9802        ..      LDR      r0,[sp,#8]
        0x000058c4:    f7fffb04    ....    BL       __aeabi_dmul ; 0x4ed0
        0x000058c8:    9b05        ..      LDR      r3,[sp,#0x14]
        0x000058ca:    9a04        ..      LDR      r2,[sp,#0x10]
        0x000058cc:    f7fffaf2    ....    BL       __aeabi_dsub ; 0x4eb4
        0x000058d0:    1c6d        m.      ADDS     r5,r5,#1
        0x000058d2:    e7bd        ..      B        0x5850 ; __ieee754_rem_pio2 + 244
        0x000058d4:    9809        ..      LDR      r0,[sp,#0x24]
        0x000058d6:    2800        .(      CMP      r0,#0
        0x000058d8:    da09        ..      BGE      0x58ee ; __ieee754_rem_pio2 + 402
        0x000058da:    2201        ."      MOVS     r2,#1
        0x000058dc:    6860        `h      LDR      r0,[r4,#4]
        0x000058de:    07d2        ..      LSLS     r2,r2,#31
        0x000058e0:    4050        P@      EORS     r0,r0,r2
        0x000058e2:    6060        ``      STR      r0,[r4,#4]
        0x000058e4:    980a        ..      LDR      r0,[sp,#0x28]
        0x000058e6:    b019        ..      ADD      sp,sp,#0x64
        0x000058e8:    4240        @B      RSBS     r0,r0,#0
        0x000058ea:    bdf0        ..      POP      {r4-r7,pc}
        0x000058ec:    e002        ..      B        0x58f4 ; __ieee754_rem_pio2 + 408
        0x000058ee:    980a        ..      LDR      r0,[sp,#0x28]
        0x000058f0:    b019        ..      ADD      sp,sp,#0x64
        0x000058f2:    bdf0        ..      POP      {r4-r7,pc}
        0x000058f4:    0309        ..      LSLS     r1,r1,#12
        0x000058f6:    2201        ."      MOVS     r2,#1
        0x000058f8:    0b09        ..      LSRS     r1,r1,#12
        0x000058fa:    0512        ..      LSLS     r2,r2,#20
        0x000058fc:    900e        ..      STR      r0,[sp,#0x38]
        0x000058fe:    1889        ..      ADDS     r1,r1,r2
        0x00005900:    9817        ..      LDR      r0,[sp,#0x5c]
        0x00005902:    9110        ..      STR      r1,[sp,#0x40]
        0x00005904:    0040        @.      LSLS     r0,r0,#1
        0x00005906:    4975        uI      LDR      r1,[pc,#468] ; [0x5adc] = 0xfffffc0b
        0x00005908:    0d40        @.      LSRS     r0,r0,#21
        0x0000590a:    1840        @.      ADDS     r0,r0,r1
        0x0000590c:    1141        A.      ASRS     r1,r0,#5
        0x0000590e:    06c0        ..      LSLS     r0,r0,#27
        0x00005910:    0ec0        ..      LSRS     r0,r0,#27
        0x00005912:    910d        ..      STR      r1,[sp,#0x34]
        0x00005914:    9013        ..      STR      r0,[sp,#0x4c]
        0x00005916:    2120         !      MOVS     r1,#0x20
        0x00005918:    1a08        ..      SUBS     r0,r1,r0
        0x0000591a:    9014        ..      STR      r0,[sp,#0x50]
        0x0000591c:    2000        .       MOVS     r0,#0
        0x0000591e:    9006        ..      STR      r0,[sp,#0x18]
        0x00005920:    2505        .%      MOVS     r5,#5
        0x00005922:    9007        ..      STR      r0,[sp,#0x1c]
        0x00005924:    9813        ..      LDR      r0,[sp,#0x4c]
        0x00005926:    2800        .(      CMP      r0,#0
        0x00005928:    980d        ..      LDR      r0,[sp,#0x34]
        0x0000592a:    d00c        ..      BEQ      0x5946 ; __ieee754_rem_pio2 + 490
        0x0000592c:    1940        @.      ADDS     r0,r0,r5
        0x0000592e:    0082        ..      LSLS     r2,r0,#2
        0x00005930:    486b        kH      LDR      r0,[pc,#428] ; [0x5ae0] = 0x1422
        0x00005932:    4478        xD      ADD      r0,r0,pc
        0x00005934:    5887        .X      LDR      r7,[r0,r2]
        0x00005936:    9913        ..      LDR      r1,[sp,#0x4c]
        0x00005938:    408f        .@      LSLS     r7,r7,r1
        0x0000593a:    1810        ..      ADDS     r0,r2,r0
        0x0000593c:    6841        Ah      LDR      r1,[r0,#4]
        0x0000593e:    9814        ..      LDR      r0,[sp,#0x50]
        0x00005940:    40c1        .@      LSRS     r1,r1,r0
        0x00005942:    430f        .C      ORRS     r7,r7,r1
        0x00005944:    e004        ..      B        0x5950 ; __ieee754_rem_pio2 + 500
        0x00005946:    1940        @.      ADDS     r0,r0,r5
        0x00005948:    0081        ..      LSLS     r1,r0,#2
        0x0000594a:    4866        fH      LDR      r0,[pc,#408] ; [0x5ae4] = 0x1408
        0x0000594c:    4478        xD      ADD      r0,r0,pc
        0x0000594e:    5847        GX      LDR      r7,[r0,r1]
        0x00005950:    9910        ..      LDR      r1,[sp,#0x40]
        0x00005952:    4638        8F      MOV      r0,r7
        0x00005954:    f7fffeab    ....    BL       __ARM_common_ll_muluu ; 0x56ae
        0x00005958:    4606        .F      MOV      r6,r0
        0x0000595a:    910a        ..      STR      r1,[sp,#0x28]
        0x0000595c:    4638        8F      MOV      r0,r7
        0x0000595e:    990e        ..      LDR      r1,[sp,#0x38]
        0x00005960:    f7fffea5    ....    BL       __ARM_common_ll_muluu ; 0x56ae
        0x00005964:    198a        ..      ADDS     r2,r1,r6
        0x00005966:    9b0a        ..      LDR      r3,[sp,#0x28]
        0x00005968:    428a        .B      CMP      r2,r1
        0x0000596a:    d201        ..      BCS      0x5970 ; __ieee754_rem_pio2 + 532
        0x0000596c:    2101        .!      MOVS     r1,#1
        0x0000596e:    e000        ..      B        0x5972 ; __ieee754_rem_pio2 + 534
        0x00005970:    2100        .!      MOVS     r1,#0
        0x00005972:    18c9        ..      ADDS     r1,r1,r3
        0x00005974:    468c        .F      MOV      r12,r1
        0x00005976:    00af        ..      LSLS     r7,r5,#2
        0x00005978:    4669        iF      MOV      r1,sp
        0x0000597a:    1879        y.      ADDS     r1,r7,r1
        0x0000597c:    688b        .h      LDR      r3,[r1,#8]
        0x0000597e:    684e        Nh      LDR      r6,[r1,#4]
        0x00005980:    18c3        ..      ADDS     r3,r0,r3
        0x00005982:    4283        .B      CMP      r3,r0
        0x00005984:    d201        ..      BCS      0x598a ; __ieee754_rem_pio2 + 558
        0x00005986:    2001        .       MOVS     r0,#1
        0x00005988:    e000        ..      B        0x598c ; __ieee754_rem_pio2 + 560
        0x0000598a:    2000        .       MOVS     r0,#0
        0x0000598c:    1996        ..      ADDS     r6,r2,r6
        0x0000598e:    1836        6.      ADDS     r6,r6,r0
        0x00005990:    2800        .(      CMP      r0,#0
        0x00005992:    d002        ..      BEQ      0x599a ; __ieee754_rem_pio2 + 574
        0x00005994:    4296        .B      CMP      r6,r2
        0x00005996:    d902        ..      BLS      0x599e ; __ieee754_rem_pio2 + 578
        0x00005998:    e003        ..      B        0x59a2 ; __ieee754_rem_pio2 + 582
        0x0000599a:    4296        .B      CMP      r6,r2
        0x0000599c:    d201        ..      BCS      0x59a2 ; __ieee754_rem_pio2 + 582
        0x0000599e:    2001        .       MOVS     r0,#1
        0x000059a0:    e000        ..      B        0x59a4 ; __ieee754_rem_pio2 + 584
        0x000059a2:    2000        .       MOVS     r0,#0
        0x000059a4:    4662        bF      MOV      r2,r12
        0x000059a6:    1812        ..      ADDS     r2,r2,r0
        0x000059a8:    604e        N`      STR      r6,[r1,#4]
        0x000059aa:    4668        hF      MOV      r0,sp
        0x000059ac:    608b        .`      STR      r3,[r1,#8]
        0x000059ae:    51c2        .Q      STR      r2,[r0,r7]
        0x000059b0:    4628        (F      MOV      r0,r5
        0x000059b2:    1e6d        m.      SUBS     r5,r5,#1
        0x000059b4:    2800        .(      CMP      r0,#0
        0x000059b6:    dcb5        ..      BGT      0x5924 ; __ieee754_rem_pio2 + 456
        0x000059b8:    2101        .!      MOVS     r1,#1
        0x000059ba:    9802        ..      LDR      r0,[sp,#8]
        0x000059bc:    0749        I.      LSLS     r1,r1,#29
        0x000059be:    1840        @.      ADDS     r0,r0,r1
        0x000059c0:    0f80        ..      LSRS     r0,r0,#30
        0x000059c2:    9013        ..      STR      r0,[sp,#0x4c]
        0x000059c4:    9802        ..      LDR      r0,[sp,#8]
        0x000059c6:    9905        ..      LDR      r1,[sp,#0x14]
        0x000059c8:    0080        ..      LSLS     r0,r0,#2
        0x000059ca:    9e03        ..      LDR      r6,[sp,#0xc]
        0x000059cc:    9d04        ..      LDR      r5,[sp,#0x10]
        0x000059ce:    910b        ..      STR      r1,[sp,#0x2c]
        0x000059d0:    f7fffdf0    ....    BL       __aeabi_i2d ; 0x55b4
        0x000059d4:    4607        .F      MOV      r7,r0
        0x000059d6:    4630        0F      MOV      r0,r6
        0x000059d8:    9108        ..      STR      r1,[sp,#0x20]
        0x000059da:    f7fffdff    ....    BL       __aeabi_ui2d ; 0x55dc
        0x000059de:    221d        ."      MOVS     r2,#0x1d
        0x000059e0:    43d2        .C      MVNS     r2,r2
        0x000059e2:    f7fffb55    ..U.    BL       __ARM_scalbn ; 0x5090
        0x000059e6:    9010        ..      STR      r0,[sp,#0x40]
        0x000059e8:    910f        ..      STR      r1,[sp,#0x3c]
        0x000059ea:    4628        (F      MOV      r0,r5
        0x000059ec:    f7fffdf6    ....    BL       __aeabi_ui2d ; 0x55dc
        0x000059f0:    223d        ="      MOVS     r2,#0x3d
        0x000059f2:    43d2        .C      MVNS     r2,r2
        0x000059f4:    f7fffb4c    ..L.    BL       __ARM_scalbn ; 0x5090
        0x000059f8:    900e        ..      STR      r0,[sp,#0x38]
        0x000059fa:    910d        ..      STR      r1,[sp,#0x34]
        0x000059fc:    980b        ..      LDR      r0,[sp,#0x2c]
        0x000059fe:    f7fffded    ....    BL       __aeabi_ui2d ; 0x55dc
        0x00005a02:    225d        ]"      MOVS     r2,#0x5d
        0x00005a04:    43d2        .C      MVNS     r2,r2
        0x00005a06:    f7fffb43    ..C.    BL       __ARM_scalbn ; 0x5090
        0x00005a0a:    910b        ..      STR      r1,[sp,#0x2c]
        0x00005a0c:    900c        ..      STR      r0,[sp,#0x30]
        0x00005a0e:    9b0d        ..      LDR      r3,[sp,#0x34]
        0x00005a10:    9a0e        ..      LDR      r2,[sp,#0x38]
        0x00005a12:    f7fff9ab    ....    BL       __aeabi_dadd ; 0x4d6c
        0x00005a16:    9b0f        ..      LDR      r3,[sp,#0x3c]
        0x00005a18:    9a10        ..      LDR      r2,[sp,#0x40]
        0x00005a1a:    f7fff9a7    ....    BL       __aeabi_dadd ; 0x4d6c
        0x00005a1e:    463a        :F      MOV      r2,r7
        0x00005a20:    9b08        ..      LDR      r3,[sp,#0x20]
        0x00005a22:    f7fff9a3    ....    BL       __aeabi_dadd ; 0x4d6c
        0x00005a26:    2500        .%      MOVS     r5,#0
        0x00005a28:    460e        .F      MOV      r6,r1
        0x00005a2a:    463a        :F      MOV      r2,r7
        0x00005a2c:    4628        (F      MOV      r0,r5
        0x00005a2e:    9b08        ..      LDR      r3,[sp,#0x20]
        0x00005a30:    f7fffa40    ..@.    BL       __aeabi_dsub ; 0x4eb4
        0x00005a34:    9b0f        ..      LDR      r3,[sp,#0x3c]
        0x00005a36:    9a10        ..      LDR      r2,[sp,#0x40]
        0x00005a38:    f7fffa3c    ..<.    BL       __aeabi_dsub ; 0x4eb4
        0x00005a3c:    9b0d        ..      LDR      r3,[sp,#0x34]
        0x00005a3e:    9a0e        ..      LDR      r2,[sp,#0x38]
        0x00005a40:    f7fffa38    ..8.    BL       __aeabi_dsub ; 0x4eb4
        0x00005a44:    9b0b        ..      LDR      r3,[sp,#0x2c]
        0x00005a46:    9a0c        ..      LDR      r2,[sp,#0x30]
        0x00005a48:    f7fffa3a    ..:.    BL       __aeabi_drsub ; 0x4ec0
        0x00005a4c:    4a26        &J      LDR      r2,[pc,#152] ; [0x5ae8] = 0x54442d18
        0x00005a4e:    4b27        'K      LDR      r3,[pc,#156] ; [0x5aec] = 0x3df921fb
        0x00005a50:    f7fffa3e    ..>.    BL       __aeabi_dmul ; 0x4ed0
        0x00005a54:    4607        .F      MOV      r7,r0
        0x00005a56:    910d        ..      STR      r1,[sp,#0x34]
        0x00005a58:    4a25        %J      LDR      r2,[pc,#148] ; [0x5af0] = 0x11a62633
        0x00005a5a:    4b26        &K      LDR      r3,[pc,#152] ; [0x5af4] = 0x3c110b46
        0x00005a5c:    4631        1F      MOV      r1,r6
        0x00005a5e:    4628        (F      MOV      r0,r5
        0x00005a60:    f7fffa36    ..6.    BL       __aeabi_dmul ; 0x4ed0
        0x00005a64:    463a        :F      MOV      r2,r7
        0x00005a66:    9b0d        ..      LDR      r3,[sp,#0x34]
        0x00005a68:    f7fff980    ....    BL       __aeabi_dadd ; 0x4d6c
        0x00005a6c:    460f        .F      MOV      r7,r1
        0x00005a6e:    2215        ."      MOVS     r2,#0x15
        0x00005a70:    900c        ..      STR      r0,[sp,#0x30]
        0x00005a72:    0692        ..      LSLS     r2,r2,#26
        0x00005a74:    4b1d        .K      LDR      r3,[pc,#116] ; [0x5aec] = 0x3df921fb
        0x00005a76:    4631        1F      MOV      r1,r6
        0x00005a78:    4628        (F      MOV      r0,r5
        0x00005a7a:    f7fffa29    ..).    BL       __aeabi_dmul ; 0x4ed0
        0x00005a7e:    463b        ;F      MOV      r3,r7
        0x00005a80:    9a0c        ..      LDR      r2,[sp,#0x30]
        0x00005a82:    f7fff973    ..s.    BL       __aeabi_dadd ; 0x4d6c
        0x00005a86:    9a17        ..      LDR      r2,[sp,#0x5c]
        0x00005a88:    2a00        .*      CMP      r2,#0
        0x00005a8a:    da05        ..      BGE      0x5a98 ; __ieee754_rem_pio2 + 828
        0x00005a8c:    9a13        ..      LDR      r2,[sp,#0x4c]
        0x00005a8e:    4252        RB      RSBS     r2,r2,#0
        0x00005a90:    9213        ..      STR      r2,[sp,#0x4c]
        0x00005a92:    2201        ."      MOVS     r2,#1
        0x00005a94:    07d2        ..      LSLS     r2,r2,#31
        0x00005a96:    4051        Q@      EORS     r1,r1,r2
        0x00005a98:    6061        a`      STR      r1,[r4,#4]
        0x00005a9a:    6020         `      STR      r0,[r4,#0]
        0x00005a9c:    9813        ..      LDR      r0,[sp,#0x4c]
        0x00005a9e:    b019        ..      ADD      sp,sp,#0x64
        0x00005aa0:    bdf0        ..      POP      {r4-r7,pc}
    $d
        0x00005aa2:    0000        ..      DCW    0
        0x00005aa4:    3fe921fb    .!.?    DCD    1072243195
        0x00005aa8:    4002d97c    |..@    DCD    1073928572
        0x00005aac:    3ff921fb    .!.?    DCD    1073291771
        0x00005ab0:    54400000    ..@T    DCD    1413480448
        0x00005ab4:    1a626331    1cb.    DCD    442655537
        0x00005ab8:    3dd0b461    a..=    DCD    1037087841
        0x00005abc:    2e037073    sp..    DCD    771977331
        0x00005ac0:    3ba3198a    ...;    DCD    1000544650
        0x00005ac4:    413921fb    .!9A    DCD    1094263291
        0x00005ac8:    6dc9c883    ...m    DCD    1841940611
        0x00005acc:    3fe45f30    0_.?    DCD    1071931184
        0x00005ad0:    3fe00000    ...?    DCD    1071644672
        0x00005ad4:    000014ae    ....    DCD    5294
        0x00005ad8:    0000146e    n...    DCD    5230
        0x00005adc:    fffffc0b    ....    DCD    4294966283
        0x00005ae0:    00001422    "...    DCD    5154
        0x00005ae4:    00001408    ....    DCD    5128
        0x00005ae8:    54442d18    .-DT    DCD    1413754136
        0x00005aec:    3df921fb    .!.=    DCD    1039737339
        0x00005af0:    11a62633    3&..    DCD    296101427
        0x00005af4:    3c110b46    F..<    DCD    1007749958
    $t
    i.__kernel_cos
    __kernel_cos
        0x00005af8:    b5f0        ..      PUSH     {r4-r7,lr}
        0x00005afa:    b41f        ..      PUSH     {r0-r4}
        0x00005afc:    004e        N.      LSLS     r6,r1,#1
        0x00005afe:    20f9        .       MOVS     r0,#0xf9
        0x00005b00:    0876        v.      LSRS     r6,r6,#1
        0x00005b02:    0580        ..      LSLS     r0,r0,#22
        0x00005b04:    b084        ..      SUB      sp,sp,#0x10
        0x00005b06:    460f        .F      MOV      r7,r1
        0x00005b08:    4286        .B      CMP      r6,r0
        0x00005b0a:    da04        ..      BGE      0x5b16 ; __kernel_cos + 30
        0x00005b0c:    9804        ..      LDR      r0,[sp,#0x10]
        0x00005b0e:    f7fffd73    ..s.    BL       __aeabi_d2iz ; 0x55f8
        0x00005b12:    2800        .(      CMP      r0,#0
        0x00005b14:    d038        8.      BEQ      0x5b88 ; __kernel_cos + 144
        0x00005b16:    9a04        ..      LDR      r2,[sp,#0x10]
        0x00005b18:    463b        ;F      MOV      r3,r7
        0x00005b1a:    4610        .F      MOV      r0,r2
        0x00005b1c:    4619        .F      MOV      r1,r3
        0x00005b1e:    f7fff9d7    ....    BL       __aeabi_dmul ; 0x4ed0
        0x00005b22:    4604        .F      MOV      r4,r0
        0x00005b24:    4602        .F      MOV      r2,r0
        0x00005b26:    482c        ,H      LDR      r0,[pc,#176] ; [0x5bd8] = 0x11c6
        0x00005b28:    460d        .F      MOV      r5,r1
        0x00005b2a:    460b        .F      MOV      r3,r1
        0x00005b2c:    2106        .!      MOVS     r1,#6
        0x00005b2e:    4478        xD      ADD      r0,r0,pc
        0x00005b30:    f000f85c    ..\.    BL       __kernel_poly ; 0x5bec
        0x00005b34:    4622        "F      MOV      r2,r4
        0x00005b36:    462b        +F      MOV      r3,r5
        0x00005b38:    f7fff9ca    ....    BL       __aeabi_dmul ; 0x4ed0
        0x00005b3c:    9101        ..      STR      r1,[sp,#4]
        0x00005b3e:    9000        ..      STR      r0,[sp,#0]
        0x00005b40:    4639        9F      MOV      r1,r7
        0x00005b42:    9b07        ..      LDR      r3,[sp,#0x1c]
        0x00005b44:    9a06        ..      LDR      r2,[sp,#0x18]
        0x00005b46:    9804        ..      LDR      r0,[sp,#0x10]
        0x00005b48:    f7fff9c2    ....    BL       __aeabi_dmul ; 0x4ed0
        0x00005b4c:    4607        .F      MOV      r7,r0
        0x00005b4e:    9102        ..      STR      r1,[sp,#8]
        0x00005b50:    4620         F      MOV      r0,r4
        0x00005b52:    4629        )F      MOV      r1,r5
        0x00005b54:    9b01        ..      LDR      r3,[sp,#4]
        0x00005b56:    9a00        ..      LDR      r2,[sp,#0]
        0x00005b58:    f7fff9ba    ....    BL       __aeabi_dmul ; 0x4ed0
        0x00005b5c:    463a        :F      MOV      r2,r7
        0x00005b5e:    9b02        ..      LDR      r3,[sp,#8]
        0x00005b60:    f7fff9a8    ....    BL       __aeabi_dsub ; 0x4eb4
        0x00005b64:    4607        .F      MOV      r7,r0
        0x00005b66:    2200        ."      MOVS     r2,#0
        0x00005b68:    9100        ..      STR      r1,[sp,#0]
        0x00005b6a:    43d2        .C      MVNS     r2,r2
        0x00005b6c:    4620         F      MOV      r0,r4
        0x00005b6e:    4629        )F      MOV      r1,r5
        0x00005b70:    f7fffa8e    ....    BL       __ARM_scalbn ; 0x5090
        0x00005b74:    4a19        .J      LDR      r2,[pc,#100] ; [0x5bdc] = 0x3fd33333
        0x00005b76:    4296        .B      CMP      r6,r2
        0x00005b78:    da0a        ..      BGE      0x5b90 ; __kernel_cos + 152
        0x00005b7a:    463a        :F      MOV      r2,r7
        0x00005b7c:    9b00        ..      LDR      r3,[sp,#0]
        0x00005b7e:    f7fff999    ....    BL       __aeabi_dsub ; 0x4eb4
        0x00005b82:    2200        ."      MOVS     r2,#0
        0x00005b84:    4b16        .K      LDR      r3,[pc,#88] ; [0x5be0] = 0x3ff00000
        0x00005b86:    e023        #.      B        0x5bd0 ; __kernel_cos + 216
        0x00005b88:    2000        .       MOVS     r0,#0
        0x00005b8a:    4915        .I      LDR      r1,[pc,#84] ; [0x5be0] = 0x3ff00000
        0x00005b8c:    b009        ..      ADD      sp,sp,#0x24
        0x00005b8e:    bdf0        ..      POP      {r4-r7,pc}
        0x00005b90:    4a14        .J      LDR      r2,[pc,#80] ; [0x5be4] = 0x3fe90000
        0x00005b92:    4296        .B      CMP      r6,r2
        0x00005b94:    dd02        ..      BLE      0x5b9c ; __kernel_cos + 164
        0x00005b96:    2400        .$      MOVS     r4,#0
        0x00005b98:    4d13        .M      LDR      r5,[pc,#76] ; [0x5be8] = 0x3fd20000
        0x00005b9a:    e003        ..      B        0x5ba4 ; __kernel_cos + 172
        0x00005b9c:    2201        ."      MOVS     r2,#1
        0x00005b9e:    0552        R.      LSLS     r2,r2,#21
        0x00005ba0:    1ab5        ..      SUBS     r5,r6,r2
        0x00005ba2:    2400        .$      MOVS     r4,#0
        0x00005ba4:    4622        "F      MOV      r2,r4
        0x00005ba6:    462b        +F      MOV      r3,r5
        0x00005ba8:    f7fff984    ....    BL       __aeabi_dsub ; 0x4eb4
        0x00005bac:    4606        .F      MOV      r6,r0
        0x00005bae:    9101        ..      STR      r1,[sp,#4]
        0x00005bb0:    4622        "F      MOV      r2,r4
        0x00005bb2:    462b        +F      MOV      r3,r5
        0x00005bb4:    2000        .       MOVS     r0,#0
        0x00005bb6:    490a        .I      LDR      r1,[pc,#40] ; [0x5be0] = 0x3ff00000
        0x00005bb8:    f7fff97c    ..|.    BL       __aeabi_dsub ; 0x4eb4
        0x00005bbc:    460d        .F      MOV      r5,r1
        0x00005bbe:    4604        .F      MOV      r4,r0
        0x00005bc0:    463a        :F      MOV      r2,r7
        0x00005bc2:    4630        0F      MOV      r0,r6
        0x00005bc4:    9b00        ..      LDR      r3,[sp,#0]
        0x00005bc6:    9901        ..      LDR      r1,[sp,#4]
        0x00005bc8:    f7fff974    ..t.    BL       __aeabi_dsub ; 0x4eb4
        0x00005bcc:    4622        "F      MOV      r2,r4
        0x00005bce:    462b        +F      MOV      r3,r5
        0x00005bd0:    f7fff976    ..v.    BL       __aeabi_drsub ; 0x4ec0
        0x00005bd4:    b009        ..      ADD      sp,sp,#0x24
        0x00005bd6:    bdf0        ..      POP      {r4-r7,pc}
    $d
        0x00005bd8:    000011c6    ....    DCD    4550
        0x00005bdc:    3fd33333    33.?    DCD    1070805811
        0x00005be0:    3ff00000    ...?    DCD    1072693248
        0x00005be4:    3fe90000    ...?    DCD    1072234496
        0x00005be8:    3fd20000    ...?    DCD    1070727168
    $t
    i.__kernel_poly
    __kernel_poly
        0x00005bec:    b5f8        ..      PUSH     {r3-r7,lr}
        0x00005bee:    4604        .F      MOV      r4,r0
        0x00005bf0:    1e4f        O.      SUBS     r7,r1,#1
        0x00005bf2:    00c8        ..      LSLS     r0,r1,#3
        0x00005bf4:    3808        .8      SUBS     r0,r0,#8
        0x00005bf6:    1821        !.      ADDS     r1,r4,r0
        0x00005bf8:    4615        .F      MOV      r5,r2
        0x00005bfa:    461e        .F      MOV      r6,r3
        0x00005bfc:    6808        .h      LDR      r0,[r1,#0]
        0x00005bfe:    6849        Ih      LDR      r1,[r1,#4]
        0x00005c00:    463a        :F      MOV      r2,r7
        0x00005c02:    2306        .#      MOVS     r3,#6
        0x00005c04:    439a        .C      BICS     r2,r2,r3
        0x00005c06:    d010        ..      BEQ      0x5c2a ; __kernel_poly + 62
        0x00005c08:    462a        *F      MOV      r2,r5
        0x00005c0a:    4633        3F      MOV      r3,r6
        0x00005c0c:    f7fff960    ..`.    BL       __aeabi_dmul ; 0x4ed0
        0x00005c10:    463a        :F      MOV      r2,r7
        0x00005c12:    00d2        ..      LSLS     r2,r2,#3
        0x00005c14:    3a08        .:      SUBS     r2,r2,#8
        0x00005c16:    18a3        ..      ADDS     r3,r4,r2
        0x00005c18:    681a        .h      LDR      r2,[r3,#0]
        0x00005c1a:    1e7f        ..      SUBS     r7,r7,#1
        0x00005c1c:    685b        [h      LDR      r3,[r3,#4]
        0x00005c1e:    f7fff8a5    ....    BL       __aeabi_dadd ; 0x4d6c
        0x00005c22:    2206        ."      MOVS     r2,#6
        0x00005c24:    463b        ;F      MOV      r3,r7
        0x00005c26:    4393        .C      BICS     r3,r3,r2
        0x00005c28:    d1ee        ..      BNE      0x5c08 ; __kernel_poly + 28
        0x00005c2a:    2f02        ./      CMP      r7,#2
        0x00005c2c:    d023        #.      BEQ      0x5c76 ; __kernel_poly + 138
        0x00005c2e:    2f04        ./      CMP      r7,#4
        0x00005c30:    d011        ..      BEQ      0x5c56 ; __kernel_poly + 106
        0x00005c32:    2f06        ./      CMP      r7,#6
        0x00005c34:    d12f        /.      BNE      0x5c96 ; __kernel_poly + 170
        0x00005c36:    462a        *F      MOV      r2,r5
        0x00005c38:    4633        3F      MOV      r3,r6
        0x00005c3a:    f7fff949    ..I.    BL       __aeabi_dmul ; 0x4ed0
        0x00005c3e:    6ae3        .j      LDR      r3,[r4,#0x2c]
        0x00005c40:    6aa2        .j      LDR      r2,[r4,#0x28]
        0x00005c42:    f7fff893    ....    BL       __aeabi_dadd ; 0x4d6c
        0x00005c46:    462a        *F      MOV      r2,r5
        0x00005c48:    4633        3F      MOV      r3,r6
        0x00005c4a:    f7fff941    ..A.    BL       __aeabi_dmul ; 0x4ed0
        0x00005c4e:    6a63        cj      LDR      r3,[r4,#0x24]
        0x00005c50:    6a22        "j      LDR      r2,[r4,#0x20]
        0x00005c52:    f7fff88b    ....    BL       __aeabi_dadd ; 0x4d6c
        0x00005c56:    462a        *F      MOV      r2,r5
        0x00005c58:    4633        3F      MOV      r3,r6
        0x00005c5a:    f7fff939    ..9.    BL       __aeabi_dmul ; 0x4ed0
        0x00005c5e:    69e3        .i      LDR      r3,[r4,#0x1c]
        0x00005c60:    69a2        .i      LDR      r2,[r4,#0x18]
        0x00005c62:    f7fff883    ....    BL       __aeabi_dadd ; 0x4d6c
        0x00005c66:    462a        *F      MOV      r2,r5
        0x00005c68:    4633        3F      MOV      r3,r6
        0x00005c6a:    f7fff931    ..1.    BL       __aeabi_dmul ; 0x4ed0
        0x00005c6e:    6963        ci      LDR      r3,[r4,#0x14]
        0x00005c70:    6922        "i      LDR      r2,[r4,#0x10]
        0x00005c72:    f7fff87b    ..{.    BL       __aeabi_dadd ; 0x4d6c
        0x00005c76:    462a        *F      MOV      r2,r5
        0x00005c78:    4633        3F      MOV      r3,r6
        0x00005c7a:    f7fff929    ..).    BL       __aeabi_dmul ; 0x4ed0
        0x00005c7e:    68e3        .h      LDR      r3,[r4,#0xc]
        0x00005c80:    68a2        .h      LDR      r2,[r4,#8]
        0x00005c82:    f7fff873    ..s.    BL       __aeabi_dadd ; 0x4d6c
        0x00005c86:    462a        *F      MOV      r2,r5
        0x00005c88:    4633        3F      MOV      r3,r6
        0x00005c8a:    f7fff921    ..!.    BL       __aeabi_dmul ; 0x4ed0
        0x00005c8e:    6863        ch      LDR      r3,[r4,#4]
        0x00005c90:    6822        "h      LDR      r2,[r4,#0]
        0x00005c92:    f7fff86b    ..k.    BL       __aeabi_dadd ; 0x4d6c
        0x00005c96:    bdf8        ..      POP      {r3-r7,pc}
    i.__kernel_sin
    __kernel_sin
        0x00005c98:    b5f0        ..      PUSH     {r4-r7,lr}
        0x00005c9a:    b41f        ..      PUSH     {r0-r4}
        0x00005c9c:    4605        .F      MOV      r5,r0
        0x00005c9e:    0048        H.      LSLS     r0,r1,#1
        0x00005ca0:    460c        .F      MOV      r4,r1
        0x00005ca2:    21f9        .!      MOVS     r1,#0xf9
        0x00005ca4:    0840        @.      LSRS     r0,r0,#1
        0x00005ca6:    0589        ..      LSLS     r1,r1,#22
        0x00005ca8:    b086        ..      SUB      sp,sp,#0x18
        0x00005caa:    4288        .B      CMP      r0,r1
        0x00005cac:    da0b        ..      BGE      0x5cc6 ; __kernel_sin + 46
        0x00005cae:    4628        (F      MOV      r0,r5
        0x00005cb0:    4621        !F      MOV      r1,r4
        0x00005cb2:    f7fffd23    ..#.    BL       __ARM_fpclassify ; 0x56fc
        0x00005cb6:    2804        .(      CMP      r0,#4
        0x00005cb8:    d101        ..      BNE      0x5cbe ; __kernel_sin + 38
        0x00005cba:    f000f871    ..q.    BL       __mathlib_dbl_underflow ; 0x5da0
        0x00005cbe:    4628        (F      MOV      r0,r5
        0x00005cc0:    4621        !F      MOV      r1,r4
        0x00005cc2:    b00b        ..      ADD      sp,sp,#0x2c
        0x00005cc4:    bdf0        ..      POP      {r4-r7,pc}
        0x00005cc6:    462a        *F      MOV      r2,r5
        0x00005cc8:    4623        #F      MOV      r3,r4
        0x00005cca:    4610        .F      MOV      r0,r2
        0x00005ccc:    4619        .F      MOV      r1,r3
        0x00005cce:    f7fff8ff    ....    BL       __aeabi_dmul ; 0x4ed0
        0x00005cd2:    4606        .F      MOV      r6,r0
        0x00005cd4:    460f        .F      MOV      r7,r1
        0x00005cd6:    462a        *F      MOV      r2,r5
        0x00005cd8:    4623        #F      MOV      r3,r4
        0x00005cda:    f7fff8f9    ....    BL       __aeabi_dmul ; 0x4ed0
        0x00005cde:    9000        ..      STR      r0,[sp,#0]
        0x00005ce0:    4825        %H      LDR      r0,[pc,#148] ; [0x5d78] = 0x1122
        0x00005ce2:    9101        ..      STR      r1,[sp,#4]
        0x00005ce4:    4632        2F      MOV      r2,r6
        0x00005ce6:    463b        ;F      MOV      r3,r7
        0x00005ce8:    2105        .!      MOVS     r1,#5
        0x00005cea:    4478        xD      ADD      r0,r0,pc
        0x00005cec:    f7ffff7e    ..~.    BL       __kernel_poly ; 0x5bec
        0x00005cf0:    9002        ..      STR      r0,[sp,#8]
        0x00005cf2:    9810        ..      LDR      r0,[sp,#0x40]
        0x00005cf4:    9103        ..      STR      r1,[sp,#0xc]
        0x00005cf6:    2800        .(      CMP      r0,#0
        0x00005cf8:    d029        ).      BEQ      0x5d4e ; __kernel_sin + 182
        0x00005cfa:    4a20         J      LDR      r2,[pc,#128] ; [0x5d7c] = 0x55555549
        0x00005cfc:    4b20         K      LDR      r3,[pc,#128] ; [0x5d80] = 0xbfc55555
        0x00005cfe:    9901        ..      LDR      r1,[sp,#4]
        0x00005d00:    9800        ..      LDR      r0,[sp,#0]
        0x00005d02:    f7fff8e5    ....    BL       __aeabi_dmul ; 0x4ed0
        0x00005d06:    9004        ..      STR      r0,[sp,#0x10]
        0x00005d08:    9105        ..      STR      r1,[sp,#0x14]
        0x00005d0a:    4668        hF      MOV      r0,sp
        0x00005d0c:    c80f        ..      LDM      r0,{r0-r3}
        0x00005d0e:    f7fff8df    ....    BL       __aeabi_dmul ; 0x4ed0
        0x00005d12:    2200        ."      MOVS     r2,#0
        0x00005d14:    9101        ..      STR      r1,[sp,#4]
        0x00005d16:    9000        ..      STR      r0,[sp,#0]
        0x00005d18:    43d2        .C      MVNS     r2,r2
        0x00005d1a:    9909        ..      LDR      r1,[sp,#0x24]
        0x00005d1c:    9808        ..      LDR      r0,[sp,#0x20]
        0x00005d1e:    f7fff9b7    ....    BL       __ARM_scalbn ; 0x5090
        0x00005d22:    9b01        ..      LDR      r3,[sp,#4]
        0x00005d24:    9a00        ..      LDR      r2,[sp,#0]
        0x00005d26:    f7fff8c5    ....    BL       __aeabi_dsub ; 0x4eb4
        0x00005d2a:    4632        2F      MOV      r2,r6
        0x00005d2c:    463b        ;F      MOV      r3,r7
        0x00005d2e:    f7fff8cf    ....    BL       __aeabi_dmul ; 0x4ed0
        0x00005d32:    9b09        ..      LDR      r3,[sp,#0x24]
        0x00005d34:    9a08        ..      LDR      r2,[sp,#0x20]
        0x00005d36:    f7fff8bd    ....    BL       __aeabi_dsub ; 0x4eb4
        0x00005d3a:    9b05        ..      LDR      r3,[sp,#0x14]
        0x00005d3c:    9a04        ..      LDR      r2,[sp,#0x10]
        0x00005d3e:    f7fff8b9    ....    BL       __aeabi_dsub ; 0x4eb4
        0x00005d42:    462a        *F      MOV      r2,r5
        0x00005d44:    4623        #F      MOV      r3,r4
        0x00005d46:    f7fff8bb    ....    BL       __aeabi_drsub ; 0x4ec0
        0x00005d4a:    b00b        ..      ADD      sp,sp,#0x2c
        0x00005d4c:    bdf0        ..      POP      {r4-r7,pc}
        0x00005d4e:    460b        .F      MOV      r3,r1
        0x00005d50:    4630        0F      MOV      r0,r6
        0x00005d52:    4639        9F      MOV      r1,r7
        0x00005d54:    9a02        ..      LDR      r2,[sp,#8]
        0x00005d56:    f7fff8bb    ....    BL       __aeabi_dmul ; 0x4ed0
        0x00005d5a:    4a08        .J      LDR      r2,[pc,#32] ; [0x5d7c] = 0x55555549
        0x00005d5c:    4b08        .K      LDR      r3,[pc,#32] ; [0x5d80] = 0xbfc55555
        0x00005d5e:    f7fff805    ....    BL       __aeabi_dadd ; 0x4d6c
        0x00005d62:    9b01        ..      LDR      r3,[sp,#4]
        0x00005d64:    9a00        ..      LDR      r2,[sp,#0]
        0x00005d66:    f7fff8b3    ....    BL       __aeabi_dmul ; 0x4ed0
        0x00005d6a:    462a        *F      MOV      r2,r5
        0x00005d6c:    4623        #F      MOV      r3,r4
        0x00005d6e:    f7fefffd    ....    BL       __aeabi_dadd ; 0x4d6c
        0x00005d72:    b00b        ..      ADD      sp,sp,#0x2c
        0x00005d74:    bdf0        ..      POP      {r4-r7,pc}
    $d
        0x00005d76:    0000        ..      DCW    0
        0x00005d78:    00001122    "...    DCD    4386
        0x00005d7c:    55555549    IUUU    DCD    1431655753
        0x00005d80:    bfc55555    UU..    DCD    3217380693
    $t
    i.__mathlib_dbl_infnan
    __mathlib_dbl_infnan
        0x00005d84:    b510        ..      PUSH     {r4,lr}
        0x00005d86:    2201        ."      MOVS     r2,#1
        0x00005d88:    f7fff982    ....    BL       __ARM_scalbn ; 0x5090
        0x00005d8c:    bd10        ..      POP      {r4,pc}
    i.__mathlib_dbl_invalid
    __mathlib_dbl_invalid
        0x00005d8e:    2200        ."      MOVS     r2,#0
        0x00005d90:    b510        ..      PUSH     {r4,lr}
        0x00005d92:    4613        .F      MOV      r3,r2
        0x00005d94:    4610        .F      MOV      r0,r2
        0x00005d96:    4611        .F      MOV      r1,r2
        0x00005d98:    f7fff902    ....    BL       __aeabi_ddiv ; 0x4fa0
        0x00005d9c:    bd10        ..      POP      {r4,pc}
        0x00005d9e:    0000        ..      MOVS     r0,r0
    i.__mathlib_dbl_underflow
    __mathlib_dbl_underflow
        0x00005da0:    4a03        .J      LDR      r2,[pc,#12] ; [0x5db0] = 0xfffffd01
        0x00005da2:    b510        ..      PUSH     {r4,lr}
        0x00005da4:    2000        .       MOVS     r0,#0
        0x00005da6:    0711        ..      LSLS     r1,r2,#28
        0x00005da8:    f7fff972    ..r.    BL       __ARM_scalbn ; 0x5090
        0x00005dac:    bd10        ..      POP      {r4,pc}
    $d
        0x00005dae:    0000        ..      DCW    0
        0x00005db0:    fffffd01    ....    DCD    4294966529
    $t
    i.__mathlib_flt_infnan
    __mathlib_flt_infnan
        0x00005db4:    b510        ..      PUSH     {r4,lr}
        0x00005db6:    2101        .!      MOVS     r1,#1
        0x00005db8:    f7feffcc    ....    BL       __ARM_scalbnf ; 0x4d54
        0x00005dbc:    bd10        ..      POP      {r4,pc}
    i.__mathlib_flt_infnan2
    __mathlib_flt_infnan2
        0x00005dbe:    b510        ..      PUSH     {r4,lr}
        0x00005dc0:    f7fefef4    ....    BL       __aeabi_fadd ; 0x4bac
        0x00005dc4:    bd10        ..      POP      {r4,pc}
    i.__mathlib_flt_invalid
    __mathlib_flt_invalid
        0x00005dc6:    b510        ..      PUSH     {r4,lr}
        0x00005dc8:    2100        .!      MOVS     r1,#0
        0x00005dca:    4608        .F      MOV      r0,r1
        0x00005dcc:    f7feff84    ....    BL       __aeabi_fdiv ; 0x4cd8
        0x00005dd0:    bd10        ..      POP      {r4,pc}
    i.__mathlib_flt_underflow
    __mathlib_flt_underflow
        0x00005dd2:    215e        ^!      MOVS     r1,#0x5e
        0x00005dd4:    b510        ..      PUSH     {r4,lr}
        0x00005dd6:    43c9        .C      MVNS     r1,r1
        0x00005dd8:    0708        ..      LSLS     r0,r1,#28
        0x00005dda:    f7feffbb    ....    BL       __ARM_scalbnf ; 0x4d54
        0x00005dde:    bd10        ..      POP      {r4,pc}
    i.__mathlib_rredf2
    __mathlib_rredf2
        0x00005de0:    b5f0        ..      PUSH     {r4-r7,lr}
        0x00005de2:    460e        .F      MOV      r6,r1
        0x00005de4:    4614        .F      MOV      r4,r2
        0x00005de6:    0051        Q.      LSLS     r1,r2,#1
        0x00005de8:    22ff        ."      MOVS     r2,#0xff
        0x00005dea:    0612        ..      LSLS     r2,r2,#24
        0x00005dec:    b087        ..      SUB      sp,sp,#0x1c
        0x00005dee:    4291        .B      CMP      r1,r2
        0x00005df0:    d303        ..      BCC      0x5dfa ; __mathlib_rredf2 + 26
        0x00005df2:    1611        ..      ASRS     r1,r2,#24
        0x00005df4:    6031        1`      STR      r1,[r6,#0]
        0x00005df6:    b007        ..      ADD      sp,sp,#0x1c
        0x00005df8:    bdf0        ..      POP      {r4-r7,pc}
        0x00005dfa:    2001        .       MOVS     r0,#1
        0x00005dfc:    0225        %.      LSLS     r5,r4,#8
        0x00005dfe:    07c0        ..      LSLS     r0,r0,#31
        0x00005e00:    4305        .C      ORRS     r5,r5,r0
        0x00005e02:    0de0        ..      LSRS     r0,r4,#23
        0x00005e04:    3878        x8      SUBS     r0,r0,#0x78
        0x00005e06:    06c2        ..      LSLS     r2,r0,#27
        0x00005e08:    0ed2        ..      LSRS     r2,r2,#27
        0x00005e0a:    2020                MOVS     r0,#0x20
        0x00005e0c:    1a87        ..      SUBS     r7,r0,r2
        0x00005e0e:    0060        `.      LSLS     r0,r4,#1
        0x00005e10:    0e00        ..      LSRS     r0,r0,#24
        0x00005e12:    3878        x8      SUBS     r0,r0,#0x78
        0x00005e14:    1140        @.      ASRS     r0,r0,#5
        0x00005e16:    0081        ..      LSLS     r1,r0,#2
        0x00005e18:    484d        MH      LDR      r0,[pc,#308] ; [0x5f50] = 0xfd2
        0x00005e1a:    4478        xD      ADD      r0,r0,pc
        0x00005e1c:    180b        ..      ADDS     r3,r1,r0
        0x00005e1e:    469c        .F      MOV      r12,r3
        0x00005e20:    5843        CX      LDR      r3,[r0,r1]
        0x00005e22:    2a00        .*      CMP      r2,#0
        0x00005e24:    d014        ..      BEQ      0x5e50 ; __mathlib_rredf2 + 112
        0x00005e26:    4660        `F      MOV      r0,r12
        0x00005e28:    6840        @h      LDR      r0,[r0,#4]
        0x00005e2a:    4093        .@      LSLS     r3,r3,r2
        0x00005e2c:    4601        .F      MOV      r1,r0
        0x00005e2e:    40f8        .@      LSRS     r0,r0,r7
        0x00005e30:    4303        .C      ORRS     r3,r3,r0
        0x00005e32:    4660        `F      MOV      r0,r12
        0x00005e34:    6880        .h      LDR      r0,[r0,#8]
        0x00005e36:    4091        .@      LSLS     r1,r1,r2
        0x00005e38:    4686        .F      MOV      lr,r0
        0x00005e3a:    40f8        .@      LSRS     r0,r0,r7
        0x00005e3c:    4301        .C      ORRS     r1,r1,r0
        0x00005e3e:    9103        ..      STR      r1,[sp,#0xc]
        0x00005e40:    4660        `F      MOV      r0,r12
        0x00005e42:    4671        qF      MOV      r1,lr
        0x00005e44:    68c0        .h      LDR      r0,[r0,#0xc]
        0x00005e46:    4091        .@      LSLS     r1,r1,r2
        0x00005e48:    40f8        .@      LSRS     r0,r0,r7
        0x00005e4a:    4301        .C      ORRS     r1,r1,r0
        0x00005e4c:    460f        .F      MOV      r7,r1
        0x00005e4e:    e003        ..      B        0x5e58 ; __mathlib_rredf2 + 120
        0x00005e50:    4660        `F      MOV      r0,r12
        0x00005e52:    6841        Ah      LDR      r1,[r0,#4]
        0x00005e54:    9103        ..      STR      r1,[sp,#0xc]
        0x00005e56:    6887        .h      LDR      r7,[r0,#8]
        0x00005e58:    4618        .F      MOV      r0,r3
        0x00005e5a:    4629        )F      MOV      r1,r5
        0x00005e5c:    f7fffc27    ..'.    BL       __ARM_common_ll_muluu ; 0x56ae
        0x00005e60:    9102        ..      STR      r1,[sp,#8]
        0x00005e62:    9004        ..      STR      r0,[sp,#0x10]
        0x00005e64:    4629        )F      MOV      r1,r5
        0x00005e66:    9803        ..      LDR      r0,[sp,#0xc]
        0x00005e68:    f7fffc21    ..!.    BL       __ARM_common_ll_muluu ; 0x56ae
        0x00005e6c:    9103        ..      STR      r1,[sp,#0xc]
        0x00005e6e:    9006        ..      STR      r0,[sp,#0x18]
        0x00005e70:    4638        8F      MOV      r0,r7
        0x00005e72:    4629        )F      MOV      r1,r5
        0x00005e74:    f7fffc1b    ....    BL       __ARM_common_ll_muluu ; 0x56ae
        0x00005e78:    460f        .F      MOV      r7,r1
        0x00005e7a:    9806        ..      LDR      r0,[sp,#0x18]
        0x00005e7c:    9b02        ..      LDR      r3,[sp,#8]
        0x00005e7e:    183d        =.      ADDS     r5,r7,r0
        0x00005e80:    9a04        ..      LDR      r2,[sp,#0x10]
        0x00005e82:    9903        ..      LDR      r1,[sp,#0xc]
        0x00005e84:    42bd        .B      CMP      r5,r7
        0x00005e86:    d201        ..      BCS      0x5e8c ; __mathlib_rredf2 + 172
        0x00005e88:    2701        .'      MOVS     r7,#1
        0x00005e8a:    e000        ..      B        0x5e8e ; __mathlib_rredf2 + 174
        0x00005e8c:    2700        .'      MOVS     r7,#0
        0x00005e8e:    1888        ..      ADDS     r0,r1,r2
        0x00005e90:    19c0        ..      ADDS     r0,r0,r7
        0x00005e92:    2f00        ./      CMP      r7,#0
        0x00005e94:    d002        ..      BEQ      0x5e9c ; __mathlib_rredf2 + 188
        0x00005e96:    4288        .B      CMP      r0,r1
        0x00005e98:    d902        ..      BLS      0x5ea0 ; __mathlib_rredf2 + 192
        0x00005e9a:    e003        ..      B        0x5ea4 ; __mathlib_rredf2 + 196
        0x00005e9c:    4288        .B      CMP      r0,r1
        0x00005e9e:    d201        ..      BCS      0x5ea4 ; __mathlib_rredf2 + 196
        0x00005ea0:    2101        .!      MOVS     r1,#1
        0x00005ea2:    e000        ..      B        0x5ea6 ; __mathlib_rredf2 + 198
        0x00005ea4:    2100        .!      MOVS     r1,#0
        0x00005ea6:    1859        Y.      ADDS     r1,r3,r1
        0x00005ea8:    460a        .F      MOV      r2,r1
        0x00005eaa:    3220         2      ADDS     r2,r2,#0x20
        0x00005eac:    0997        ..      LSRS     r7,r2,#6
        0x00005eae:    0cc2        ..      LSRS     r2,r0,#19
        0x00005eb0:    0689        ..      LSLS     r1,r1,#26
        0x00005eb2:    0352        R.      LSLS     r2,r2,#13
        0x00005eb4:    0340        @.      LSLS     r0,r0,#13
        0x00005eb6:    6037        7`      STR      r7,[r6,#0]
        0x00005eb8:    4311        .C      ORRS     r1,r1,r2
        0x00005eba:    9001        ..      STR      r0,[sp,#4]
        0x00005ebc:    4608        .F      MOV      r0,r1
        0x00005ebe:    f7fff8fd    ....    BL       __aeabi_i2f ; 0x50bc
        0x00005ec2:    9002        ..      STR      r0,[sp,#8]
        0x00005ec4:    9801        ..      LDR      r0,[sp,#4]
        0x00005ec6:    f7fff904    ....    BL       __aeabi_ui2f ; 0x50d2
        0x00005eca:    2112        .!      MOVS     r1,#0x12
        0x00005ecc:    43c9        .C      MVNS     r1,r1
        0x00005ece:    f7feff41    ..A.    BL       __ARM_scalbnf ; 0x4d54
        0x00005ed2:    9001        ..      STR      r0,[sp,#4]
        0x00005ed4:    4628        (F      MOV      r0,r5
        0x00005ed6:    f7fff8fc    ....    BL       __aeabi_ui2f ; 0x50d2
        0x00005eda:    2125        %!      MOVS     r1,#0x25
        0x00005edc:    43c9        .C      MVNS     r1,r1
        0x00005ede:    f7feff39    ..9.    BL       __ARM_scalbnf ; 0x4d54
        0x00005ee2:    9000        ..      STR      r0,[sp,#0]
        0x00005ee4:    9901        ..      LDR      r1,[sp,#4]
        0x00005ee6:    9802        ..      LDR      r0,[sp,#8]
        0x00005ee8:    f7fefe60    ..`.    BL       __aeabi_fadd ; 0x4bac
        0x00005eec:    9900        ..      LDR      r1,[sp,#0]
        0x00005eee:    f7fefe5d    ..].    BL       __aeabi_fadd ; 0x4bac
        0x00005ef2:    2101        .!      MOVS     r1,#1
        0x00005ef4:    02c9        ..      LSLS     r1,r1,#11
        0x00005ef6:    1840        @.      ADDS     r0,r0,r1
        0x00005ef8:    0b05        ..      LSRS     r5,r0,#12
        0x00005efa:    032d        -.      LSLS     r5,r5,#12
        0x00005efc:    4628        (F      MOV      r0,r5
        0x00005efe:    9902        ..      LDR      r1,[sp,#8]
        0x00005f00:    f7fefea5    ....    BL       __aeabi_fsub ; 0x4c4e
        0x00005f04:    9901        ..      LDR      r1,[sp,#4]
        0x00005f06:    f7fefea2    ....    BL       __aeabi_fsub ; 0x4c4e
        0x00005f0a:    9900        ..      LDR      r1,[sp,#0]
        0x00005f0c:    f7fefea3    ....    BL       __aeabi_frsub ; 0x4c56
        0x00005f10:    4910        .I      LDR      r1,[pc,#64] ; [0x5f54] = 0x2fc90fdb
        0x00005f12:    f7fefea4    ....    BL       __aeabi_fmul ; 0x4c5e
        0x00005f16:    9000        ..      STR      r0,[sp,#0]
        0x00005f18:    490f        .I      LDR      r1,[pc,#60] ; [0x5f58] = 0x29fdaa22
        0x00005f1a:    4628        (F      MOV      r0,r5
        0x00005f1c:    f7fefe9f    ....    BL       __aeabi_fmul ; 0x4c5e
        0x00005f20:    9900        ..      LDR      r1,[sp,#0]
        0x00005f22:    f7fefe43    ..C.    BL       __aeabi_fadd ; 0x4bac
        0x00005f26:    9000        ..      STR      r0,[sp,#0]
        0x00005f28:    490c        .I      LDR      r1,[pc,#48] ; [0x5f5c] = 0x2fc90000
        0x00005f2a:    4628        (F      MOV      r0,r5
        0x00005f2c:    f7fefe97    ....    BL       __aeabi_fmul ; 0x4c5e
        0x00005f30:    9900        ..      LDR      r1,[sp,#0]
        0x00005f32:    f7fefe3b    ..;.    BL       __aeabi_fadd ; 0x4bac
        0x00005f36:    2c00        .,      CMP      r4,#0
        0x00005f38:    db00        ..      BLT      0x5f3c ; __mathlib_rredf2 + 348
        0x00005f3a:    e75c        \.      B        0x5df6 ; __mathlib_rredf2 + 22
        0x00005f3c:    2101        .!      MOVS     r1,#1
        0x00005f3e:    0709        ..      LSLS     r1,r1,#28
        0x00005f40:    1bc9        ..      SUBS     r1,r1,r7
        0x00005f42:    6031        1`      STR      r1,[r6,#0]
        0x00005f44:    2101        .!      MOVS     r1,#1
        0x00005f46:    07c9        ..      LSLS     r1,r1,#31
        0x00005f48:    4048        H@      EORS     r0,r0,r1
        0x00005f4a:    b007        ..      ADD      sp,sp,#0x1c
        0x00005f4c:    bdf0        ..      POP      {r4-r7,pc}
    $d
        0x00005f4e:    0000        ..      DCW    0
        0x00005f50:    00000fd2    ....    DCD    4050
        0x00005f54:    2fc90fdb    .../    DCD    801705947
        0x00005f58:    29fdaa22    "..)    DCD    704490018
        0x00005f5c:    2fc90000    .../    DCD    801701888
    $t
    i.__scatterload_copy
    __scatterload_copy
        0x00005f60:    e002        ..      B        0x5f68 ; __scatterload_copy + 8
        0x00005f62:    c808        ..      LDM      r0!,{r3}
        0x00005f64:    1f12        ..      SUBS     r2,r2,#4
        0x00005f66:    c108        ..      STM      r1!,{r3}
        0x00005f68:    2a00        .*      CMP      r2,#0
        0x00005f6a:    d1fa        ..      BNE      0x5f62 ; __scatterload_copy + 2
        0x00005f6c:    4770        pG      BX       lr
    i.__scatterload_null
    __scatterload_null
        0x00005f6e:    4770        pG      BX       lr
    i.__scatterload_zeroinit
    __scatterload_zeroinit
        0x00005f70:    2000        .       MOVS     r0,#0
        0x00005f72:    e001        ..      B        0x5f78 ; __scatterload_zeroinit + 8
        0x00005f74:    c101        ..      STM      r1!,{r0}
        0x00005f76:    1f12        ..      SUBS     r2,r2,#4
        0x00005f78:    2a00        .*      CMP      r2,#0
        0x00005f7a:    d1fb        ..      BNE      0x5f74 ; __scatterload_zeroinit + 4
        0x00005f7c:    4770        pG      BX       lr
        0x00005f7e:    0000        ..      MOVS     r0,r0
    i.__set_errno
    __set_errno
        0x00005f80:    4901        .I      LDR      r1,[pc,#4] ; [0x5f88] = 0x2000011c
        0x00005f82:    6008        .`      STR      r0,[r1,#0]
        0x00005f84:    4770        pG      BX       lr
    $d
        0x00005f86:    0000        ..      DCW    0
        0x00005f88:    2000011c    ...     DCD    536871196
    $t
    i._printf_core
    _printf_core
        0x00005f8c:    b5ff        ..      PUSH     {r0-r7,lr}
        0x00005f8e:    b08f        ..      SUB      sp,sp,#0x3c
        0x00005f90:    460f        .F      MOV      r7,r1
        0x00005f92:    4604        .F      MOV      r4,r0
        0x00005f94:    2600        .&      MOVS     r6,#0
        0x00005f96:    e006        ..      B        0x5fa6 ; _printf_core + 26
        0x00005f98:    2825        %(      CMP      r0,#0x25
        0x00005f9a:    d00a        ..      BEQ      0x5fb2 ; _printf_core + 38
        0x00005f9c:    9a12        ..      LDR      r2,[sp,#0x48]
        0x00005f9e:    9911        ..      LDR      r1,[sp,#0x44]
        0x00005fa0:    4790        .G      BLX      r2
        0x00005fa2:    1c64        d.      ADDS     r4,r4,#1
        0x00005fa4:    1c76        v.      ADDS     r6,r6,#1
        0x00005fa6:    7820         x      LDRB     r0,[r4,#0]
        0x00005fa8:    2800        .(      CMP      r0,#0
        0x00005faa:    d1f5        ..      BNE      0x5f98 ; _printf_core + 12
        0x00005fac:    4630        0F      MOV      r0,r6
        0x00005fae:    b013        ..      ADD      sp,sp,#0x4c
        0x00005fb0:    bdf0        ..      POP      {r4-r7,pc}
        0x00005fb2:    2500        .%      MOVS     r5,#0
        0x00005fb4:    2101        .!      MOVS     r1,#1
        0x00005fb6:    4aa1        .J      LDR      r2,[pc,#644] ; [0x623c] = 0x12809
        0x00005fb8:    9500        ..      STR      r5,[sp,#0]
        0x00005fba:    e000        ..      B        0x5fbe ; _printf_core + 50
        0x00005fbc:    4305        .C      ORRS     r5,r5,r0
        0x00005fbe:    1c64        d.      ADDS     r4,r4,#1
        0x00005fc0:    7823        #x      LDRB     r3,[r4,#0]
        0x00005fc2:    4608        .F      MOV      r0,r1
        0x00005fc4:    3b20         ;      SUBS     r3,r3,#0x20
        0x00005fc6:    4098        .@      LSLS     r0,r0,r3
        0x00005fc8:    4210        .B      TST      r0,r2
        0x00005fca:    d1f7        ..      BNE      0x5fbc ; _printf_core + 48
        0x00005fcc:    7820         x      LDRB     r0,[r4,#0]
        0x00005fce:    282e        .(      CMP      r0,#0x2e
        0x00005fd0:    d115        ..      BNE      0x5ffe ; _printf_core + 114
        0x00005fd2:    2004        .       MOVS     r0,#4
        0x00005fd4:    4305        .C      ORRS     r5,r5,r0
        0x00005fd6:    7860        `x      LDRB     r0,[r4,#1]
        0x00005fd8:    1c64        d.      ADDS     r4,r4,#1
        0x00005fda:    282a        *(      CMP      r0,#0x2a
        0x00005fdc:    d10a        ..      BNE      0x5ff4 ; _printf_core + 104
        0x00005fde:    cf01        ..      LDM      r7!,{r0}
        0x00005fe0:    1c64        d.      ADDS     r4,r4,#1
        0x00005fe2:    9000        ..      STR      r0,[sp,#0]
        0x00005fe4:    e00b        ..      B        0x5ffe ; _printf_core + 114
        0x00005fe6:    9900        ..      LDR      r1,[sp,#0]
        0x00005fe8:    220a        ."      MOVS     r2,#0xa
        0x00005fea:    4351        QC      MULS     r1,r2,r1
        0x00005fec:    3930        09      SUBS     r1,r1,#0x30
        0x00005fee:    1840        @.      ADDS     r0,r0,r1
        0x00005ff0:    1c64        d.      ADDS     r4,r4,#1
        0x00005ff2:    9000        ..      STR      r0,[sp,#0]
        0x00005ff4:    7820         x      LDRB     r0,[r4,#0]
        0x00005ff6:    4601        .F      MOV      r1,r0
        0x00005ff8:    3930        09      SUBS     r1,r1,#0x30
        0x00005ffa:    2909        .)      CMP      r1,#9
        0x00005ffc:    d9f3        ..      BLS      0x5fe6 ; _printf_core + 90
        0x00005ffe:    7820         x      LDRB     r0,[r4,#0]
        0x00006000:    286c        l(      CMP      r0,#0x6c
        0x00006002:    d00e        ..      BEQ      0x6022 ; _printf_core + 150
        0x00006004:    dc04        ..      BGT      0x6010 ; _printf_core + 132
        0x00006006:    284c        L(      CMP      r0,#0x4c
        0x00006008:    d013        ..      BEQ      0x6032 ; _printf_core + 166
        0x0000600a:    286a        j(      CMP      r0,#0x6a
        0x0000600c:    d112        ..      BNE      0x6034 ; _printf_core + 168
        0x0000600e:    e004        ..      B        0x601a ; _printf_core + 142
        0x00006010:    2874        t(      CMP      r0,#0x74
        0x00006012:    d00e        ..      BEQ      0x6032 ; _printf_core + 166
        0x00006014:    287a        z(      CMP      r0,#0x7a
        0x00006016:    d10d        ..      BNE      0x6034 ; _printf_core + 168
        0x00006018:    e00b        ..      B        0x6032 ; _printf_core + 166
        0x0000601a:    2001        .       MOVS     r0,#1
        0x0000601c:    0540        @.      LSLS     r0,r0,#21
        0x0000601e:    4305        .C      ORRS     r5,r5,r0
        0x00006020:    e007        ..      B        0x6032 ; _printf_core + 166
        0x00006022:    2101        .!      MOVS     r1,#1
        0x00006024:    0509        ..      LSLS     r1,r1,#20
        0x00006026:    7862        bx      LDRB     r2,[r4,#1]
        0x00006028:    430d        .C      ORRS     r5,r5,r1
        0x0000602a:    4282        .B      CMP      r2,r0
        0x0000602c:    d101        ..      BNE      0x6032 ; _printf_core + 166
        0x0000602e:    186d        m.      ADDS     r5,r5,r1
        0x00006030:    1c64        d.      ADDS     r4,r4,#1
        0x00006032:    1c64        d.      ADDS     r4,r4,#1
        0x00006034:    7820         x      LDRB     r0,[r4,#0]
        0x00006036:    4686        .F      MOV      lr,r0
        0x00006038:    2869        i(      CMP      r0,#0x69
        0x0000603a:    d04a        J.      BEQ      0x60d2 ; _printf_core + 326
        0x0000603c:    dc08        ..      BGT      0x6050 ; _printf_core + 196
        0x0000603e:    2800        .(      CMP      r0,#0
        0x00006040:    d0b4        ..      BEQ      0x5fac ; _printf_core + 32
        0x00006042:    2858        X(      CMP      r0,#0x58
        0x00006044:    d06d        m.      BEQ      0x6122 ; _printf_core + 406
        0x00006046:    2863        c(      CMP      r0,#0x63
        0x00006048:    d010        ..      BEQ      0x606c ; _printf_core + 224
        0x0000604a:    2864        d(      CMP      r0,#0x64
        0x0000604c:    d108        ..      BNE      0x6060 ; _printf_core + 212
        0x0000604e:    e040        @.      B        0x60d2 ; _printf_core + 326
        0x00006050:    2870        p(      CMP      r0,#0x70
        0x00006052:    d06b        k.      BEQ      0x612c ; _printf_core + 416
        0x00006054:    2873        s(      CMP      r0,#0x73
        0x00006056:    d012        ..      BEQ      0x607e ; _printf_core + 242
        0x00006058:    2875        u(      CMP      r0,#0x75
        0x0000605a:    d060        `.      BEQ      0x611e ; _printf_core + 402
        0x0000605c:    2878        x(      CMP      r0,#0x78
        0x0000605e:    d060        `.      BEQ      0x6122 ; _printf_core + 406
        0x00006060:    9a12        ..      LDR      r2,[sp,#0x48]
        0x00006062:    4670        pF      MOV      r0,lr
        0x00006064:    9911        ..      LDR      r1,[sp,#0x44]
        0x00006066:    4790        .G      BLX      r2
        0x00006068:    1c76        v.      ADDS     r6,r6,#1
        0x0000606a:    e0e5        ..      B        0x6238 ; _printf_core + 684
        0x0000606c:    7838        8x      LDRB     r0,[r7,#0]
        0x0000606e:    4669        iF      MOV      r1,sp
        0x00006070:    7208        .r      STRB     r0,[r1,#8]
        0x00006072:    2000        .       MOVS     r0,#0
        0x00006074:    7248        Hr      STRB     r0,[r1,#9]
        0x00006076:    a802        ..      ADD      r0,sp,#8
        0x00006078:    9001        ..      STR      r0,[sp,#4]
        0x0000607a:    2001        .       MOVS     r0,#1
        0x0000607c:    e003        ..      B        0x6086 ; _printf_core + 250
        0x0000607e:    6838        8h      LDR      r0,[r7,#0]
        0x00006080:    9001        ..      STR      r0,[sp,#4]
        0x00006082:    2000        .       MOVS     r0,#0
        0x00006084:    43c0        .C      MVNS     r0,r0
        0x00006086:    1d3f        ?.      ADDS     r7,r7,#4
        0x00006088:    0769        i.      LSLS     r1,r5,#29
        0x0000608a:    d50c        ..      BPL      0x60a6 ; _printf_core + 282
        0x0000608c:    2500        .%      MOVS     r5,#0
        0x0000608e:    e000        ..      B        0x6092 ; _printf_core + 262
        0x00006090:    1c6d        m.      ADDS     r5,r5,#1
        0x00006092:    9900        ..      LDR      r1,[sp,#0]
        0x00006094:    428d        .B      CMP      r5,r1
        0x00006096:    da0f        ..      BGE      0x60b8 ; _printf_core + 300
        0x00006098:    4285        .B      CMP      r5,r0
        0x0000609a:    dbf9        ..      BLT      0x6090 ; _printf_core + 260
        0x0000609c:    9901        ..      LDR      r1,[sp,#4]
        0x0000609e:    5d49        I]      LDRB     r1,[r1,r5]
        0x000060a0:    2900        .)      CMP      r1,#0
        0x000060a2:    d1f5        ..      BNE      0x6090 ; _printf_core + 260
        0x000060a4:    e008        ..      B        0x60b8 ; _printf_core + 300
        0x000060a6:    2500        .%      MOVS     r5,#0
        0x000060a8:    e000        ..      B        0x60ac ; _printf_core + 288
        0x000060aa:    1c6d        m.      ADDS     r5,r5,#1
        0x000060ac:    4285        .B      CMP      r5,r0
        0x000060ae:    dbfc        ..      BLT      0x60aa ; _printf_core + 286
        0x000060b0:    9901        ..      LDR      r1,[sp,#4]
        0x000060b2:    5d49        I]      LDRB     r1,[r1,r5]
        0x000060b4:    2900        .)      CMP      r1,#0
        0x000060b6:    d1f8        ..      BNE      0x60aa ; _printf_core + 286
        0x000060b8:    1976        v.      ADDS     r6,r6,r5
        0x000060ba:    e007        ..      B        0x60cc ; _printf_core + 320
        0x000060bc:    9801        ..      LDR      r0,[sp,#4]
        0x000060be:    9901        ..      LDR      r1,[sp,#4]
        0x000060c0:    7800        .x      LDRB     r0,[r0,#0]
        0x000060c2:    1c49        I.      ADDS     r1,r1,#1
        0x000060c4:    9101        ..      STR      r1,[sp,#4]
        0x000060c6:    9a12        ..      LDR      r2,[sp,#0x48]
        0x000060c8:    9911        ..      LDR      r1,[sp,#0x44]
        0x000060ca:    4790        .G      BLX      r2
        0x000060cc:    1e6d        m.      SUBS     r5,r5,#1
        0x000060ce:    d2f5        ..      BCS      0x60bc ; _printf_core + 304
        0x000060d0:    e0b2        ..      B        0x6238 ; _printf_core + 684
        0x000060d2:    200a        .       MOVS     r0,#0xa
        0x000060d4:    9002        ..      STR      r0,[sp,#8]
        0x000060d6:    2100        .!      MOVS     r1,#0
        0x000060d8:    0268        h.      LSLS     r0,r5,#9
        0x000060da:    0f40        @.      LSRS     r0,r0,#29
        0x000060dc:    9103        ..      STR      r1,[sp,#0xc]
        0x000060de:    2802        .(      CMP      r0,#2
        0x000060e0:    d00c        ..      BEQ      0x60fc ; _printf_core + 368
        0x000060e2:    cf01        ..      LDM      r7!,{r0}
        0x000060e4:    17c1        ..      ASRS     r1,r0,#31
        0x000060e6:    4684        .F      MOV      r12,r0
        0x000060e8:    2900        .)      CMP      r1,#0
        0x000060ea:    da0d        ..      BGE      0x6108 ; _printf_core + 380
        0x000060ec:    4662        bF      MOV      r2,r12
        0x000060ee:    4608        .F      MOV      r0,r1
        0x000060f0:    4252        RB      RSBS     r2,r2,#0
        0x000060f2:    2100        .!      MOVS     r1,#0
        0x000060f4:    4181        .A      SBCS     r1,r1,r0
        0x000060f6:    4694        .F      MOV      r12,r2
        0x000060f8:    202d        -       MOVS     r0,#0x2d
        0x000060fa:    e008        ..      B        0x610e ; _printf_core + 386
        0x000060fc:    1dff        ..      ADDS     r7,r7,#7
        0x000060fe:    08ff        ..      LSRS     r7,r7,#3
        0x00006100:    00ff        ..      LSLS     r7,r7,#3
        0x00006102:    cf03        ..      LDM      r7!,{r0,r1}
        0x00006104:    4684        .F      MOV      r12,r0
        0x00006106:    e7ef        ..      B        0x60e8 ; _printf_core + 348
        0x00006108:    0528        (.      LSLS     r0,r5,#20
        0x0000610a:    d504        ..      BPL      0x6116 ; _printf_core + 394
        0x0000610c:    202b        +       MOVS     r0,#0x2b
        0x0000610e:    466a        jF      MOV      r2,sp
        0x00006110:    7410        .t      STRB     r0,[r2,#0x10]
        0x00006112:    2001        .       MOVS     r0,#1
        0x00006114:    e03c        <.      B        0x6190 ; _printf_core + 516
        0x00006116:    07e8        ..      LSLS     r0,r5,#31
        0x00006118:    d03a        :.      BEQ      0x6190 ; _printf_core + 516
        0x0000611a:    2020                MOVS     r0,#0x20
        0x0000611c:    e7f7        ..      B        0x610e ; _printf_core + 386
        0x0000611e:    200a        .       MOVS     r0,#0xa
        0x00006120:    e000        ..      B        0x6124 ; _printf_core + 408
        0x00006122:    2010        .       MOVS     r0,#0x10
        0x00006124:    2100        .!      MOVS     r1,#0
        0x00006126:    9103        ..      STR      r1,[sp,#0xc]
        0x00006128:    9002        ..      STR      r0,[sp,#8]
        0x0000612a:    e007        ..      B        0x613c ; _printf_core + 432
        0x0000612c:    2010        .       MOVS     r0,#0x10
        0x0000612e:    9002        ..      STR      r0,[sp,#8]
        0x00006130:    2100        .!      MOVS     r1,#0
        0x00006132:    2004        .       MOVS     r0,#4
        0x00006134:    4305        .C      ORRS     r5,r5,r0
        0x00006136:    2008        .       MOVS     r0,#8
        0x00006138:    9103        ..      STR      r1,[sp,#0xc]
        0x0000613a:    9000        ..      STR      r0,[sp,#0]
        0x0000613c:    0268        h.      LSLS     r0,r5,#9
        0x0000613e:    0f40        @.      LSRS     r0,r0,#29
        0x00006140:    2802        .(      CMP      r0,#2
        0x00006142:    d010        ..      BEQ      0x6166 ; _printf_core + 474
        0x00006144:    cf01        ..      LDM      r7!,{r0}
        0x00006146:    2100        .!      MOVS     r1,#0
        0x00006148:    4684        .F      MOV      r12,r0
        0x0000614a:    2000        .       MOVS     r0,#0
        0x0000614c:    900d        ..      STR      r0,[sp,#0x34]
        0x0000614e:    0728        (.      LSLS     r0,r5,#28
        0x00006150:    d51f        ..      BPL      0x6192 ; _printf_core + 518
        0x00006152:    4670        pF      MOV      r0,lr
        0x00006154:    2870        p(      CMP      r0,#0x70
        0x00006156:    d00c        ..      BEQ      0x6172 ; _printf_core + 486
        0x00006158:    9a02        ..      LDR      r2,[sp,#8]
        0x0000615a:    2010        .       MOVS     r0,#0x10
        0x0000615c:    9b03        ..      LDR      r3,[sp,#0xc]
        0x0000615e:    4042        B@      EORS     r2,r2,r0
        0x00006160:    431a        .C      ORRS     r2,r2,r3
        0x00006162:    d00c        ..      BEQ      0x617e ; _printf_core + 498
        0x00006164:    e015        ..      B        0x6192 ; _printf_core + 518
        0x00006166:    1dff        ..      ADDS     r7,r7,#7
        0x00006168:    08ff        ..      LSRS     r7,r7,#3
        0x0000616a:    00ff        ..      LSLS     r7,r7,#3
        0x0000616c:    cf03        ..      LDM      r7!,{r0,r1}
        0x0000616e:    4684        .F      MOV      r12,r0
        0x00006170:    e7eb        ..      B        0x614a ; _printf_core + 446
        0x00006172:    2040        @       MOVS     r0,#0x40
        0x00006174:    466a        jF      MOV      r2,sp
        0x00006176:    7410        .t      STRB     r0,[r2,#0x10]
        0x00006178:    2001        .       MOVS     r0,#1
        0x0000617a:    900d        ..      STR      r0,[sp,#0x34]
        0x0000617c:    e00c        ..      B        0x6198 ; _printf_core + 524
        0x0000617e:    4660        `F      MOV      r0,r12
        0x00006180:    4308        .C      ORRS     r0,r0,r1
        0x00006182:    d006        ..      BEQ      0x6192 ; _printf_core + 518
        0x00006184:    2030        0       MOVS     r0,#0x30
        0x00006186:    466a        jF      MOV      r2,sp
        0x00006188:    7410        .t      STRB     r0,[r2,#0x10]
        0x0000618a:    4670        pF      MOV      r0,lr
        0x0000618c:    7450        Pt      STRB     r0,[r2,#0x11]
        0x0000618e:    2002        .       MOVS     r0,#2
        0x00006190:    900d        ..      STR      r0,[sp,#0x34]
        0x00006192:    4670        pF      MOV      r0,lr
        0x00006194:    2858        X(      CMP      r0,#0x58
        0x00006196:    d004        ..      BEQ      0x61a2 ; _printf_core + 534
        0x00006198:    a029        ).      ADR      r0,{pc}+0xa8 ; 0x6240
        0x0000619a:    9001        ..      STR      r0,[sp,#4]
        0x0000619c:    a80d        ..      ADD      r0,sp,#0x34
        0x0000619e:    900e        ..      STR      r0,[sp,#0x38]
        0x000061a0:    e00d        ..      B        0x61be ; _printf_core + 562
        0x000061a2:    a02c        ,.      ADR      r0,{pc}+0xb2 ; 0x6254
        0x000061a4:    e7f9        ..      B        0x619a ; _printf_core + 526
        0x000061a6:    4660        `F      MOV      r0,r12
        0x000061a8:    9b03        ..      LDR      r3,[sp,#0xc]
        0x000061aa:    9a02        ..      LDR      r2,[sp,#8]
        0x000061ac:    f7fff81e    ....    BL       __aeabi_uldivmod ; 0x51ec
        0x000061b0:    9b01        ..      LDR      r3,[sp,#4]
        0x000061b2:    4684        .F      MOV      r12,r0
        0x000061b4:    5c9b        .\      LDRB     r3,[r3,r2]
        0x000061b6:    9a0e        ..      LDR      r2,[sp,#0x38]
        0x000061b8:    1e52        R.      SUBS     r2,r2,#1
        0x000061ba:    920e        ..      STR      r2,[sp,#0x38]
        0x000061bc:    7013        .p      STRB     r3,[r2,#0]
        0x000061be:    4660        `F      MOV      r0,r12
        0x000061c0:    4308        .C      ORRS     r0,r0,r1
        0x000061c2:    d1f0        ..      BNE      0x61a6 ; _printf_core + 538
        0x000061c4:    980e        ..      LDR      r0,[sp,#0x38]
        0x000061c6:    a905        ..      ADD      r1,sp,#0x14
        0x000061c8:    1a08        ..      SUBS     r0,r1,r0
        0x000061ca:    3020         0      ADDS     r0,r0,#0x20
        0x000061cc:    9001        ..      STR      r0,[sp,#4]
        0x000061ce:    0768        h.      LSLS     r0,r5,#29
        0x000061d0:    d501        ..      BPL      0x61d6 ; _printf_core + 586
        0x000061d2:    9800        ..      LDR      r0,[sp,#0]
        0x000061d4:    e001        ..      B        0x61da ; _printf_core + 590
        0x000061d6:    2001        .       MOVS     r0,#1
        0x000061d8:    9000        ..      STR      r0,[sp,#0]
        0x000061da:    9901        ..      LDR      r1,[sp,#4]
        0x000061dc:    4288        .B      CMP      r0,r1
        0x000061de:    dd03        ..      BLE      0x61e8 ; _printf_core + 604
        0x000061e0:    4601        .F      MOV      r1,r0
        0x000061e2:    9801        ..      LDR      r0,[sp,#4]
        0x000061e4:    1a08        ..      SUBS     r0,r1,r0
        0x000061e6:    e000        ..      B        0x61ea ; _printf_core + 606
        0x000061e8:    2000        .       MOVS     r0,#0
        0x000061ea:    2500        .%      MOVS     r5,#0
        0x000061ec:    9000        ..      STR      r0,[sp,#0]
        0x000061ee:    e006        ..      B        0x61fe ; _printf_core + 626
        0x000061f0:    a804        ..      ADD      r0,sp,#0x10
        0x000061f2:    9a12        ..      LDR      r2,[sp,#0x48]
        0x000061f4:    5d40        @]      LDRB     r0,[r0,r5]
        0x000061f6:    9911        ..      LDR      r1,[sp,#0x44]
        0x000061f8:    4790        .G      BLX      r2
        0x000061fa:    1c6d        m.      ADDS     r5,r5,#1
        0x000061fc:    1c76        v.      ADDS     r6,r6,#1
        0x000061fe:    980d        ..      LDR      r0,[sp,#0x34]
        0x00006200:    4285        .B      CMP      r5,r0
        0x00006202:    dbf5        ..      BLT      0x61f0 ; _printf_core + 612
        0x00006204:    e004        ..      B        0x6210 ; _printf_core + 644
        0x00006206:    9a12        ..      LDR      r2,[sp,#0x48]
        0x00006208:    2030        0       MOVS     r0,#0x30
        0x0000620a:    9911        ..      LDR      r1,[sp,#0x44]
        0x0000620c:    4790        .G      BLX      r2
        0x0000620e:    1c76        v.      ADDS     r6,r6,#1
        0x00006210:    9900        ..      LDR      r1,[sp,#0]
        0x00006212:    1e48        H.      SUBS     r0,r1,#1
        0x00006214:    9000        ..      STR      r0,[sp,#0]
        0x00006216:    2900        .)      CMP      r1,#0
        0x00006218:    dcf5        ..      BGT      0x6206 ; _printf_core + 634
        0x0000621a:    e008        ..      B        0x622e ; _printf_core + 674
        0x0000621c:    980e        ..      LDR      r0,[sp,#0x38]
        0x0000621e:    990e        ..      LDR      r1,[sp,#0x38]
        0x00006220:    7800        .x      LDRB     r0,[r0,#0]
        0x00006222:    1c49        I.      ADDS     r1,r1,#1
        0x00006224:    910e        ..      STR      r1,[sp,#0x38]
        0x00006226:    9a12        ..      LDR      r2,[sp,#0x48]
        0x00006228:    9911        ..      LDR      r1,[sp,#0x44]
        0x0000622a:    4790        .G      BLX      r2
        0x0000622c:    1c76        v.      ADDS     r6,r6,#1
        0x0000622e:    9901        ..      LDR      r1,[sp,#4]
        0x00006230:    1e48        H.      SUBS     r0,r1,#1
        0x00006232:    9001        ..      STR      r0,[sp,#4]
        0x00006234:    2900        .)      CMP      r1,#0
        0x00006236:    dcf1        ..      BGT      0x621c ; _printf_core + 656
        0x00006238:    1c64        d.      ADDS     r4,r4,#1
        0x0000623a:    e6b4        ..      B        0x5fa6 ; _printf_core + 26
    $d
        0x0000623c:    00012809    .(..    DCD    75785
        0x00006240:    33323130    0123    DCD    858927408
        0x00006244:    37363534    4567    DCD    926299444
        0x00006248:    62613938    89ab    DCD    1650538808
        0x0000624c:    66656463    cdef    DCD    1717920867
        0x00006250:    00000000    ....    DCD    0
        0x00006254:    33323130    0123    DCD    858927408
        0x00006258:    37363534    4567    DCD    926299444
        0x0000625c:    42413938    89AB    DCD    1111570744
        0x00006260:    46454443    CDEF    DCD    1178944579
        0x00006264:    00000000    ....    DCD    0
    $t
    i.asinf
    asinf
        0x00006268:    b5f8        ..      PUSH     {r3-r7,lr}
        0x0000626a:    4604        .F      MOV      r4,r0
        0x0000626c:    2147        G!      MOVS     r1,#0x47
        0x0000626e:    0040        @.      LSLS     r0,r0,#1
        0x00006270:    0649        I.      LSLS     r1,r1,#25
        0x00006272:    220d        ."      MOVS     r2,#0xd
        0x00006274:    1841        A.      ADDS     r1,r0,r1
        0x00006276:    0612        ..      LSLS     r2,r2,#24
        0x00006278:    4291        .B      CMP      r1,r2
        0x0000627a:    d853        S.      BHI      0x6324 ; asinf + 188
        0x0000627c:    213f        ?!      MOVS     r1,#0x3f
        0x0000627e:    0649        I.      LSLS     r1,r1,#25
        0x00006280:    4288        .B      CMP      r0,r1
        0x00006282:    d91b        ..      BLS      0x62bc ; asinf + 84
        0x00006284:    0060        `.      LSLS     r0,r4,#1
        0x00006286:    217f        .!      MOVS     r1,#0x7f
        0x00006288:    0840        @.      LSRS     r0,r0,#1
        0x0000628a:    05c9        ..      LSLS     r1,r1,#23
        0x0000628c:    f7fefce3    ....    BL       __aeabi_frsub ; 0x4c56
        0x00006290:    2100        .!      MOVS     r1,#0
        0x00006292:    43c9        .C      MVNS     r1,r1
        0x00006294:    f7fefd5e    ..^.    BL       __ARM_scalbnf ; 0x4d54
        0x00006298:    4607        .F      MOV      r7,r0
        0x0000629a:    f000fc5b    ..[.    BL       sqrtf ; 0x6b54
        0x0000629e:    2c00        .,      CMP      r4,#0
        0x000062a0:    da04        ..      BGE      0x62ac ; asinf + 68
        0x000062a2:    4d2f        /M      LDR      r5,[pc,#188] ; [0x6360] = 0xb9fdaa22
        0x000062a4:    4e2d        -N      LDR      r6,[pc,#180] ; [0x635c] = 0xbfc90000
        0x000062a6:    07a9        ..      LSLS     r1,r5,#30
        0x000062a8:    4048        H@      EORS     r0,r0,r1
        0x000062aa:    e001        ..      B        0x62b0 ; asinf + 72
        0x000062ac:    4e2d        -N      LDR      r6,[pc,#180] ; [0x6364] = 0x3fc90000
        0x000062ae:    4d2e        .M      LDR      r5,[pc,#184] ; [0x6368] = 0x39fdaa22
        0x000062b0:    2103        .!      MOVS     r1,#3
        0x000062b2:    0789        ..      LSLS     r1,r1,#30
        0x000062b4:    f7fefcd3    ....    BL       __aeabi_fmul ; 0x4c5e
        0x000062b8:    4604        .F      MOV      r4,r0
        0x000062ba:    e006        ..      B        0x62ca ; asinf + 98
        0x000062bc:    2600        .&      MOVS     r6,#0
        0x000062be:    4621        !F      MOV      r1,r4
        0x000062c0:    4635        5F      MOV      r5,r6
        0x000062c2:    4608        .F      MOV      r0,r1
        0x000062c4:    f7fefccb    ....    BL       __aeabi_fmul ; 0x4c5e
        0x000062c8:    4607        .F      MOV      r7,r0
        0x000062ca:    4928        (I      LDR      r1,[pc,#160] ; [0x636c] = 0x3d1cfe24
        0x000062cc:    4638        8F      MOV      r0,r7
        0x000062ce:    f7fefcc6    ....    BL       __aeabi_fmul ; 0x4c5e
        0x000062d2:    4927        'I      LDR      r1,[pc,#156] ; [0x6370] = 0x3cd88ac7
        0x000062d4:    f7fefc6a    ..j.    BL       __aeabi_fadd ; 0x4bac
        0x000062d8:    4639        9F      MOV      r1,r7
        0x000062da:    f7fefcc0    ....    BL       __aeabi_fmul ; 0x4c5e
        0x000062de:    4925        %I      LDR      r1,[pc,#148] ; [0x6374] = 0x3d38671e
        0x000062e0:    f7fefc64    ..d.    BL       __aeabi_fadd ; 0x4bac
        0x000062e4:    4639        9F      MOV      r1,r7
        0x000062e6:    f7fefcba    ....    BL       __aeabi_fmul ; 0x4c5e
        0x000062ea:    4923        #I      LDR      r1,[pc,#140] ; [0x6378] = 0x3d99931b
        0x000062ec:    f7fefc5e    ..^.    BL       __aeabi_fadd ; 0x4bac
        0x000062f0:    4639        9F      MOV      r1,r7
        0x000062f2:    f7fefcb4    ....    BL       __aeabi_fmul ; 0x4c5e
        0x000062f6:    4921        !I      LDR      r1,[pc,#132] ; [0x637c] = 0x3e2aaaaf
        0x000062f8:    f7fefc58    ..X.    BL       __aeabi_fadd ; 0x4bac
        0x000062fc:    9000        ..      STR      r0,[sp,#0]
        0x000062fe:    4639        9F      MOV      r1,r7
        0x00006300:    4620         F      MOV      r0,r4
        0x00006302:    f7fefcac    ....    BL       __aeabi_fmul ; 0x4c5e
        0x00006306:    9900        ..      LDR      r1,[sp,#0]
        0x00006308:    f7fefca9    ....    BL       __aeabi_fmul ; 0x4c5e
        0x0000630c:    4607        .F      MOV      r7,r0
        0x0000630e:    4629        )F      MOV      r1,r5
        0x00006310:    4620         F      MOV      r0,r4
        0x00006312:    f7fefc4b    ..K.    BL       __aeabi_fadd ; 0x4bac
        0x00006316:    4639        9F      MOV      r1,r7
        0x00006318:    f7fefc48    ..H.    BL       __aeabi_fadd ; 0x4bac
        0x0000631c:    4631        1F      MOV      r1,r6
        0x0000631e:    f7fefc45    ..E.    BL       __aeabi_fadd ; 0x4bac
        0x00006322:    bdf8        ..      POP      {r3-r7,pc}
        0x00006324:    2139        9!      MOVS     r1,#0x39
        0x00006326:    0649        I.      LSLS     r1,r1,#25
        0x00006328:    4288        .B      CMP      r0,r1
        0x0000632a:    d208        ..      BCS      0x633e ; asinf + 214
        0x0000632c:    4620         F      MOV      r0,r4
        0x0000632e:    f7fff9fb    ....    BL       __ARM_fpclassifyf ; 0x5728
        0x00006332:    2804        .(      CMP      r0,#4
        0x00006334:    d101        ..      BNE      0x633a ; asinf + 210
        0x00006336:    f7fffd4c    ..L.    BL       __mathlib_flt_underflow ; 0x5dd2
        0x0000633a:    4620         F      MOV      r0,r4
        0x0000633c:    bdf8        ..      POP      {r3-r7,pc}
        0x0000633e:    21ff        .!      MOVS     r1,#0xff
        0x00006340:    0609        ..      LSLS     r1,r1,#24
        0x00006342:    4288        .B      CMP      r0,r1
        0x00006344:    d903        ..      BLS      0x634e ; asinf + 230
        0x00006346:    4620         F      MOV      r0,r4
        0x00006348:    f7fffd34    ..4.    BL       __mathlib_flt_infnan ; 0x5db4
        0x0000634c:    bdf8        ..      POP      {r3-r7,pc}
        0x0000634e:    2001        .       MOVS     r0,#1
        0x00006350:    f7fffe16    ....    BL       __set_errno ; 0x5f80
        0x00006354:    f7fffd37    ..7.    BL       __mathlib_flt_invalid ; 0x5dc6
        0x00006358:    bdf8        ..      POP      {r3-r7,pc}
    $d
        0x0000635a:    0000        ..      DCW    0
        0x0000635c:    bfc90000    ....    DCD    3217620992
        0x00006360:    b9fdaa22    "...    DCD    3120409122
        0x00006364:    3fc90000    ...?    DCD    1070137344
        0x00006368:    39fdaa22    "..9    DCD    972925474
        0x0000636c:    3d1cfe24    $..=    DCD    1025310244
        0x00006370:    3cd88ac7    ...<    DCD    1020824263
        0x00006374:    3d38671e    .g8=    DCD    1027106590
        0x00006378:    3d99931b    ...=    DCD    1033474843
        0x0000637c:    3e2aaaaf    ..*>    DCD    1042983599
    $t
    i.atan2f
    atan2f
        0x00006380:    b5f0        ..      PUSH     {r4-r7,lr}
        0x00006382:    460c        .F      MOV      r4,r1
        0x00006384:    4601        .F      MOV      r1,r0
        0x00006386:    221d        ."      MOVS     r2,#0x1d
        0x00006388:    004b        K.      LSLS     r3,r1,#1
        0x0000638a:    06d2        ..      LSLS     r2,r2,#27
        0x0000638c:    189f        ..      ADDS     r7,r3,r2
        0x0000638e:    26e5        .&      MOVS     r6,#0xe5
        0x00006390:    4605        .F      MOV      r5,r0
        0x00006392:    0636        6.      LSLS     r6,r6,#24
        0x00006394:    0062        b.      LSLS     r2,r4,#1
        0x00006396:    b087        ..      SUB      sp,sp,#0x1c
        0x00006398:    4620         F      MOV      r0,r4
        0x0000639a:    42b7        .B      CMP      r7,r6
        0x0000639c:    d27d        }.      BCS      0x649a ; atan2f + 282
        0x0000639e:    271d        .'      MOVS     r7,#0x1d
        0x000063a0:    06ff        ..      LSLS     r7,r7,#27
        0x000063a2:    19d7        ..      ADDS     r7,r2,r7
        0x000063a4:    42b7        .B      CMP      r7,r6
        0x000063a6:    d278        x.      BCS      0x649a ; atan2f + 282
        0x000063a8:    004f        O.      LSLS     r7,r1,#1
        0x000063aa:    0043        C.      LSLS     r3,r0,#1
        0x000063ac:    0e3e        >.      LSRS     r6,r7,#24
        0x000063ae:    0e1a        ..      LSRS     r2,r3,#24
        0x000063b0:    1ab2        ..      SUBS     r2,r6,r2
        0x000063b2:    2a1b        .*      CMP      r2,#0x1b
        0x000063b4:    dd07        ..      BLE      0x63c6 ; atan2f + 70
        0x000063b6:    2900        .)      CMP      r1,#0
        0x000063b8:    da02        ..      BGE      0x63c0 ; atan2f + 64
        0x000063ba:    4875        uH      LDR      r0,[pc,#468] ; [0x6590] = 0xbfc90fdb
        0x000063bc:    b007        ..      ADD      sp,sp,#0x1c
        0x000063be:    bdf0        ..      POP      {r4-r7,pc}
        0x000063c0:    4874        tH      LDR      r0,[pc,#464] ; [0x6594] = 0x3fc90fdb
        0x000063c2:    b007        ..      ADD      sp,sp,#0x1c
        0x000063c4:    bdf0        ..      POP      {r4-r7,pc}
        0x000063c6:    261a        .&      MOVS     r6,#0x1a
        0x000063c8:    42f2        .B      CMN      r2,r6
        0x000063ca:    da17        ..      BGE      0x63fc ; atan2f + 124
        0x000063cc:    2800        .(      CMP      r0,#0
        0x000063ce:    da07        ..      BGE      0x63e0 ; atan2f + 96
        0x000063d0:    2900        .)      CMP      r1,#0
        0x000063d2:    da02        ..      BGE      0x63da ; atan2f + 90
        0x000063d4:    4870        pH      LDR      r0,[pc,#448] ; [0x6598] = 0xc0490fdb
        0x000063d6:    b007        ..      ADD      sp,sp,#0x1c
        0x000063d8:    bdf0        ..      POP      {r4-r7,pc}
        0x000063da:    4870        pH      LDR      r0,[pc,#448] ; [0x659c] = 0x40490fdb
        0x000063dc:    b007        ..      ADD      sp,sp,#0x1c
        0x000063de:    bdf0        ..      POP      {r4-r7,pc}
        0x000063e0:    4621        !F      MOV      r1,r4
        0x000063e2:    4628        (F      MOV      r0,r5
        0x000063e4:    f7fefc78    ..x.    BL       __aeabi_fdiv ; 0x4cd8
        0x000063e8:    4604        .F      MOV      r4,r0
        0x000063ea:    f7fff99d    ....    BL       __ARM_fpclassifyf ; 0x5728
        0x000063ee:    2804        .(      CMP      r0,#4
        0x000063f0:    d101        ..      BNE      0x63f6 ; atan2f + 118
        0x000063f2:    f7fffcee    ....    BL       __mathlib_flt_underflow ; 0x5dd2
        0x000063f6:    4620         F      MOV      r0,r4
        0x000063f8:    b007        ..      ADD      sp,sp,#0x1c
        0x000063fa:    bdf0        ..      POP      {r4-r7,pc}
        0x000063fc:    429f        .B      CMP      r7,r3
        0x000063fe:    d911        ..      BLS      0x6424 ; atan2f + 164
        0x00006400:    2900        .)      CMP      r1,#0
        0x00006402:    da02        ..      BGE      0x640a ; atan2f + 138
        0x00006404:    4f66        fO      LDR      r7,[pc,#408] ; [0x65a0] = 0xbfc90000
        0x00006406:    4e67        gN      LDR      r6,[pc,#412] ; [0x65a4] = 0xb9fdaa22
        0x00006408:    e001        ..      B        0x640e ; atan2f + 142
        0x0000640a:    4f67        gO      LDR      r7,[pc,#412] ; [0x65a8] = 0x3fc90000
        0x0000640c:    4e67        gN      LDR      r6,[pc,#412] ; [0x65ac] = 0x39fdaa22
        0x0000640e:    4623        #F      MOV      r3,r4
        0x00006410:    462c        ,F      MOV      r4,r5
        0x00006412:    461d        .F      MOV      r5,r3
        0x00006414:    2201        ."      MOVS     r2,#1
        0x00006416:    4603        .F      MOV      r3,r0
        0x00006418:    07d2        ..      LSLS     r2,r2,#31
        0x0000641a:    4608        .F      MOV      r0,r1
        0x0000641c:    4054        T@      EORS     r4,r4,r2
        0x0000641e:    4050        P@      EORS     r0,r0,r2
        0x00006420:    4619        .F      MOV      r1,r3
        0x00006422:    e00b        ..      B        0x643c ; atan2f + 188
        0x00006424:    2800        .(      CMP      r0,#0
        0x00006426:    da07        ..      BGE      0x6438 ; atan2f + 184
        0x00006428:    2900        .)      CMP      r1,#0
        0x0000642a:    da02        ..      BGE      0x6432 ; atan2f + 178
        0x0000642c:    4f60        `O      LDR      r7,[pc,#384] ; [0x65b0] = 0xc0490000
        0x0000642e:    4e61        aN      LDR      r6,[pc,#388] ; [0x65b4] = 0xba7daa22
        0x00006430:    e004        ..      B        0x643c ; atan2f + 188
        0x00006432:    4f61        aO      LDR      r7,[pc,#388] ; [0x65b8] = 0x40490000
        0x00006434:    4e61        aN      LDR      r6,[pc,#388] ; [0x65bc] = 0x3a7daa22
        0x00006436:    e001        ..      B        0x643c ; atan2f + 188
        0x00006438:    2600        .&      MOVS     r6,#0
        0x0000643a:    4637        7F      MOV      r7,r6
        0x0000643c:    1a42        B.      SUBS     r2,r0,r1
        0x0000643e:    2301        .#      MOVS     r3,#1
        0x00006440:    0052        R.      LSLS     r2,r2,#1
        0x00006442:    061b        ..      LSLS     r3,r3,#24
        0x00006444:    429a        .B      CMP      r2,r3
        0x00006446:    d230        0.      BCS      0x64aa ; atan2f + 298
        0x00006448:    4048        H@      EORS     r0,r0,r1
        0x0000644a:    495d        ]I      LDR      r1,[pc,#372] ; [0x65c0] = 0x3eed6000
        0x0000644c:    d50b        ..      BPL      0x6466 ; atan2f + 230
        0x0000644e:    20bf        .       MOVS     r0,#0xbf
        0x00006450:    0600        ..      LSLS     r0,r0,#24
        0x00006452:    9003        ..      STR      r0,[sp,#0xc]
        0x00006454:    4638        8F      MOV      r0,r7
        0x00006456:    f7fefbfa    ....    BL       __aeabi_fsub ; 0x4c4e
        0x0000645a:    4607        .F      MOV      r7,r0
        0x0000645c:    4959        YI      LDR      r1,[pc,#356] ; [0x65c4] = 0x37ce0ac3
        0x0000645e:    4630        0F      MOV      r0,r6
        0x00006460:    f7fefbf5    ....    BL       __aeabi_fsub ; 0x4c4e
        0x00006464:    e00a        ..      B        0x647c ; atan2f + 252
        0x00006466:    203f        ?       MOVS     r0,#0x3f
        0x00006468:    0600        ..      LSLS     r0,r0,#24
        0x0000646a:    9003        ..      STR      r0,[sp,#0xc]
        0x0000646c:    4638        8F      MOV      r0,r7
        0x0000646e:    f7fefb9d    ....    BL       __aeabi_fadd ; 0x4bac
        0x00006472:    4607        .F      MOV      r7,r0
        0x00006474:    4953        SI      LDR      r1,[pc,#332] ; [0x65c4] = 0x37ce0ac3
        0x00006476:    4630        0F      MOV      r0,r6
        0x00006478:    f7fefb98    ....    BL       __aeabi_fadd ; 0x4bac
        0x0000647c:    4606        .F      MOV      r6,r0
        0x0000647e:    4628        (F      MOV      r0,r5
        0x00006480:    9903        ..      LDR      r1,[sp,#0xc]
        0x00006482:    f7fefbec    ....    BL       __aeabi_fmul ; 0x4c5e
        0x00006486:    4621        !F      MOV      r1,r4
        0x00006488:    f7fefb90    ....    BL       __aeabi_fadd ; 0x4bac
        0x0000648c:    9000        ..      STR      r0,[sp,#0]
        0x0000648e:    4621        !F      MOV      r1,r4
        0x00006490:    9803        ..      LDR      r0,[sp,#0xc]
        0x00006492:    f7fefbe4    ....    BL       __aeabi_fmul ; 0x4c5e
        0x00006496:    4629        )F      MOV      r1,r5
        0x00006498:    e000        ..      B        0x649c ; atan2f + 284
        0x0000649a:    e03a        :.      B        0x6512 ; atan2f + 402
        0x0000649c:    f7fefbdb    ....    BL       __aeabi_frsub ; 0x4c56
        0x000064a0:    9900        ..      LDR      r1,[sp,#0]
        0x000064a2:    f7fefc19    ....    BL       __aeabi_fdiv ; 0x4cd8
        0x000064a6:    4604        .F      MOV      r4,r0
        0x000064a8:    e004        ..      B        0x64b4 ; atan2f + 308
        0x000064aa:    4621        !F      MOV      r1,r4
        0x000064ac:    4628        (F      MOV      r0,r5
        0x000064ae:    f7fefc13    ....    BL       __aeabi_fdiv ; 0x4cd8
        0x000064b2:    4604        .F      MOV      r4,r0
        0x000064b4:    4601        .F      MOV      r1,r0
        0x000064b6:    f7fefbd2    ....    BL       __aeabi_fmul ; 0x4c5e
        0x000064ba:    4943        CI      LDR      r1,[pc,#268] ; [0x65c8] = 0xbd65ad2d
        0x000064bc:    9000        ..      STR      r0,[sp,#0]
        0x000064be:    f7fefbce    ....    BL       __aeabi_fmul ; 0x4c5e
        0x000064c2:    4942        BI      LDR      r1,[pc,#264] ; [0x65cc] = 0x3dd5b88f
        0x000064c4:    f7fefb72    ..r.    BL       __aeabi_fadd ; 0x4bac
        0x000064c8:    9900        ..      LDR      r1,[sp,#0]
        0x000064ca:    f7fefbc8    ....    BL       __aeabi_fmul ; 0x4c5e
        0x000064ce:    4940        @I      LDR      r1,[pc,#256] ; [0x65d0] = 0xbe11b50f
        0x000064d0:    f7fefb6c    ..l.    BL       __aeabi_fadd ; 0x4bac
        0x000064d4:    9900        ..      LDR      r1,[sp,#0]
        0x000064d6:    f7fefbc2    ....    BL       __aeabi_fmul ; 0x4c5e
        0x000064da:    493e        >I      LDR      r1,[pc,#248] ; [0x65d4] = 0x3e4cc861
        0x000064dc:    f7fefb66    ..f.    BL       __aeabi_fadd ; 0x4bac
        0x000064e0:    9900        ..      LDR      r1,[sp,#0]
        0x000064e2:    f7fefbbc    ....    BL       __aeabi_fmul ; 0x4c5e
        0x000064e6:    493c        <I      LDR      r1,[pc,#240] ; [0x65d8] = 0xbeaaaaa8
        0x000064e8:    f7fefb60    ..`.    BL       __aeabi_fadd ; 0x4bac
        0x000064ec:    4605        .F      MOV      r5,r0
        0x000064ee:    4620         F      MOV      r0,r4
        0x000064f0:    9900        ..      LDR      r1,[sp,#0]
        0x000064f2:    f7fefbb4    ....    BL       __aeabi_fmul ; 0x4c5e
        0x000064f6:    4629        )F      MOV      r1,r5
        0x000064f8:    f7fefbb1    ....    BL       __aeabi_fmul ; 0x4c5e
        0x000064fc:    4631        1F      MOV      r1,r6
        0x000064fe:    f7fefb55    ..U.    BL       __aeabi_fadd ; 0x4bac
        0x00006502:    4621        !F      MOV      r1,r4
        0x00006504:    f7fefb52    ..R.    BL       __aeabi_fadd ; 0x4bac
        0x00006508:    4639        9F      MOV      r1,r7
        0x0000650a:    f7fefb4f    ..O.    BL       __aeabi_fadd ; 0x4bac
        0x0000650e:    b007        ..      ADD      sp,sp,#0x1c
        0x00006510:    bdf0        ..      POP      {r4-r7,pc}
        0x00006512:    26ff        .&      MOVS     r6,#0xff
        0x00006514:    0636        6.      LSLS     r6,r6,#24
        0x00006516:    42b3        .B      CMP      r3,r6
        0x00006518:    d801        ..      BHI      0x651e ; atan2f + 414
        0x0000651a:    42b2        .B      CMP      r2,r6
        0x0000651c:    d905        ..      BLS      0x652a ; atan2f + 426
        0x0000651e:    4601        .F      MOV      r1,r0
        0x00006520:    4628        (F      MOV      r0,r5
        0x00006522:    f7fffc4c    ..L.    BL       __mathlib_flt_infnan2 ; 0x5dbe
        0x00006526:    b007        ..      ADD      sp,sp,#0x1c
        0x00006528:    bdf0        ..      POP      {r4-r7,pc}
        0x0000652a:    462f        /F      MOV      r7,r5
        0x0000652c:    4307        .C      ORRS     r7,r7,r0
        0x0000652e:    007f        ..      LSLS     r7,r7,#1
        0x00006530:    d00a        ..      BEQ      0x6548 ; atan2f + 456
        0x00006532:    42b3        .B      CMP      r3,r6
        0x00006534:    d10c        ..      BNE      0x6550 ; atan2f + 464
        0x00006536:    42b2        .B      CMP      r2,r6
        0x00006538:    d10a        ..      BNE      0x6550 ; atan2f + 464
        0x0000653a:    2201        ."      MOVS     r2,#1
        0x0000653c:    0792        ..      LSLS     r2,r2,#30
        0x0000653e:    4390        .C      BICS     r0,r0,r2
        0x00006540:    4391        .C      BICS     r1,r1,r2
        0x00006542:    460d        .F      MOV      r5,r1
        0x00006544:    4604        .F      MOV      r4,r0
        0x00006546:    e72f        /.      B        0x63a8 ; atan2f + 40
        0x00006548:    22ff        ."      MOVS     r2,#0xff
        0x0000654a:    05d2        ..      LSLS     r2,r2,#23
        0x0000654c:    4310        .C      ORRS     r0,r0,r2
        0x0000654e:    e7f9        ..      B        0x6544 ; atan2f + 452
        0x00006550:    42b3        .B      CMP      r3,r6
        0x00006552:    d008        ..      BEQ      0x6566 ; atan2f + 486
        0x00006554:    0046        F.      LSLS     r6,r0,#1
        0x00006556:    d006        ..      BEQ      0x6566 ; atan2f + 486
        0x00006558:    4053        S@      EORS     r3,r3,r2
        0x0000655a:    d4f4        ..      BMI      0x6546 ; atan2f + 454
        0x0000655c:    2a00        .*      CMP      r2,#0
        0x0000655e:    db08        ..      BLT      0x6572 ; atan2f + 498
        0x00006560:    269f        .&      MOVS     r6,#0x9f
        0x00006562:    05f6        ..      LSLS     r6,r6,#23
        0x00006564:    e007        ..      B        0x6576 ; atan2f + 502
        0x00006566:    22ff        ."      MOVS     r2,#0xff
        0x00006568:    05d2        ..      LSLS     r2,r2,#23
        0x0000656a:    4311        .C      ORRS     r1,r1,r2
        0x0000656c:    0fe0        ..      LSRS     r0,r4,#31
        0x0000656e:    07c0        ..      LSLS     r0,r0,#31
        0x00006570:    e71a        ..      B        0x63a8 ; atan2f + 40
        0x00006572:    265f        _&      MOVS     r6,#0x5f
        0x00006574:    05f6        ..      LSLS     r6,r6,#23
        0x00006576:    4631        1F      MOV      r1,r6
        0x00006578:    4628        (F      MOV      r0,r5
        0x0000657a:    f7fefb70    ..p.    BL       __aeabi_fmul ; 0x4c5e
        0x0000657e:    4605        .F      MOV      r5,r0
        0x00006580:    4631        1F      MOV      r1,r6
        0x00006582:    4620         F      MOV      r0,r4
        0x00006584:    f7fefb6b    ..k.    BL       __aeabi_fmul ; 0x4c5e
        0x00006588:    4604        .F      MOV      r4,r0
        0x0000658a:    4629        )F      MOV      r1,r5
        0x0000658c:    e70c        ..      B        0x63a8 ; atan2f + 40
    $d
        0x0000658e:    0000        ..      DCW    0
        0x00006590:    bfc90fdb    ....    DCD    3217625051
        0x00006594:    3fc90fdb    ...?    DCD    1070141403
        0x00006598:    c0490fdb    ..I.    DCD    3226013659
        0x0000659c:    40490fdb    ..I@    DCD    1078530011
        0x000065a0:    bfc90000    ....    DCD    3217620992
        0x000065a4:    b9fdaa22    "...    DCD    3120409122
        0x000065a8:    3fc90000    ...?    DCD    1070137344
        0x000065ac:    39fdaa22    "..9    DCD    972925474
        0x000065b0:    c0490000    ..I.    DCD    3226009600
        0x000065b4:    ba7daa22    ".}.    DCD    3128797730
        0x000065b8:    40490000    ..I@    DCD    1078525952
        0x000065bc:    3a7daa22    ".}:    DCD    981314082
        0x000065c0:    3eed6000    .`.>    DCD    1055744000
        0x000065c4:    37ce0ac3    ...7    DCD    936250051
        0x000065c8:    bd65ad2d    -.e.    DCD    3177557293
        0x000065cc:    3dd5b88f    ...=    DCD    1037416591
        0x000065d0:    be11b50f    ....    DCD    3188831503
        0x000065d4:    3e4cc861    a.L>    DCD    1045219425
        0x000065d8:    beaaaaa8    ....    DCD    3198855848
    $t
    i.atanf
    atanf
        0x000065dc:    b5f8        ..      PUSH     {r3-r7,lr}
        0x000065de:    2247        G"      MOVS     r2,#0x47
        0x000065e0:    0041        A.      LSLS     r1,r0,#1
        0x000065e2:    0652        R.      LSLS     r2,r2,#25
        0x000065e4:    2325        %#      MOVS     r3,#0x25
        0x000065e6:    188a        ..      ADDS     r2,r1,r2
        0x000065e8:    061b        ..      LSLS     r3,r3,#24
        0x000065ea:    4604        .F      MOV      r4,r0
        0x000065ec:    429a        .B      CMP      r2,r3
        0x000065ee:    d270        p.      BCS      0x66d2 ; atanf + 246
        0x000065f0:    227f        ."      MOVS     r2,#0x7f
        0x000065f2:    0612        ..      LSLS     r2,r2,#24
        0x000065f4:    4291        .B      CMP      r1,r2
        0x000065f6:    d90c        ..      BLS      0x6612 ; atanf + 54
        0x000065f8:    2c00        .,      CMP      r4,#0
        0x000065fa:    da02        ..      BGE      0x6602 ; atanf + 38
        0x000065fc:    4e41        AN      LDR      r6,[pc,#260] ; [0x6704] = 0xbfc90000
        0x000065fe:    4d42        BM      LDR      r5,[pc,#264] ; [0x6708] = 0xb9fdaa22
        0x00006600:    e001        ..      B        0x6606 ; atanf + 42
        0x00006602:    4e42        BN      LDR      r6,[pc,#264] ; [0x670c] = 0x3fc90000
        0x00006604:    4d42        BM      LDR      r5,[pc,#264] ; [0x6710] = 0x39fdaa22
        0x00006606:    4601        .F      MOV      r1,r0
        0x00006608:    4842        BH      LDR      r0,[pc,#264] ; [0x6714] = 0xbf800000
        0x0000660a:    f7fefb65    ..e.    BL       __aeabi_fdiv ; 0x4cd8
        0x0000660e:    4604        .F      MOV      r4,r0
        0x00006610:    e001        ..      B        0x6616 ; atanf + 58
        0x00006612:    2500        .%      MOVS     r5,#0
        0x00006614:    462e        .F      MOV      r6,r5
        0x00006616:    223f        ?"      MOVS     r2,#0x3f
        0x00006618:    0041        A.      LSLS     r1,r0,#1
        0x0000661a:    0652        R.      LSLS     r2,r2,#25
        0x0000661c:    4291        .B      CMP      r1,r2
        0x0000661e:    d929        ).      BLS      0x6674 ; atanf + 152
        0x00006620:    493d        =I      LDR      r1,[pc,#244] ; [0x6718] = 0x3eed6000
        0x00006622:    2c00        .,      CMP      r4,#0
        0x00006624:    da0a        ..      BGE      0x663c ; atanf + 96
        0x00006626:    27bf        .'      MOVS     r7,#0xbf
        0x00006628:    063f        ?.      LSLS     r7,r7,#24
        0x0000662a:    4630        0F      MOV      r0,r6
        0x0000662c:    f7fefb0f    ....    BL       __aeabi_fsub ; 0x4c4e
        0x00006630:    4606        .F      MOV      r6,r0
        0x00006632:    493a        :I      LDR      r1,[pc,#232] ; [0x671c] = 0x37ce0ac3
        0x00006634:    4628        (F      MOV      r0,r5
        0x00006636:    f7fefb0a    ....    BL       __aeabi_fsub ; 0x4c4e
        0x0000663a:    e009        ..      B        0x6650 ; atanf + 116
        0x0000663c:    273f        ?'      MOVS     r7,#0x3f
        0x0000663e:    063f        ?.      LSLS     r7,r7,#24
        0x00006640:    4630        0F      MOV      r0,r6
        0x00006642:    f7fefab3    ....    BL       __aeabi_fadd ; 0x4bac
        0x00006646:    4606        .F      MOV      r6,r0
        0x00006648:    4934        4I      LDR      r1,[pc,#208] ; [0x671c] = 0x37ce0ac3
        0x0000664a:    4628        (F      MOV      r0,r5
        0x0000664c:    f7fefaae    ....    BL       __aeabi_fadd ; 0x4bac
        0x00006650:    4605        .F      MOV      r5,r0
        0x00006652:    4639        9F      MOV      r1,r7
        0x00006654:    4620         F      MOV      r0,r4
        0x00006656:    f7fefb02    ....    BL       __aeabi_fmul ; 0x4c5e
        0x0000665a:    217f        .!      MOVS     r1,#0x7f
        0x0000665c:    05c9        ..      LSLS     r1,r1,#23
        0x0000665e:    f7fefaa5    ....    BL       __aeabi_fadd ; 0x4bac
        0x00006662:    9000        ..      STR      r0,[sp,#0]
        0x00006664:    4639        9F      MOV      r1,r7
        0x00006666:    4620         F      MOV      r0,r4
        0x00006668:    f7fefaf1    ....    BL       __aeabi_fsub ; 0x4c4e
        0x0000666c:    9900        ..      LDR      r1,[sp,#0]
        0x0000666e:    f7fefb33    ..3.    BL       __aeabi_fdiv ; 0x4cd8
        0x00006672:    4604        .F      MOV      r4,r0
        0x00006674:    4601        .F      MOV      r1,r0
        0x00006676:    f7fefaf2    ....    BL       __aeabi_fmul ; 0x4c5e
        0x0000667a:    4929        )I      LDR      r1,[pc,#164] ; [0x6720] = 0xbd65ad2d
        0x0000667c:    9000        ..      STR      r0,[sp,#0]
        0x0000667e:    f7fefaee    ....    BL       __aeabi_fmul ; 0x4c5e
        0x00006682:    4928        (I      LDR      r1,[pc,#160] ; [0x6724] = 0x3dd5b88f
        0x00006684:    f7fefa92    ....    BL       __aeabi_fadd ; 0x4bac
        0x00006688:    9900        ..      LDR      r1,[sp,#0]
        0x0000668a:    f7fefae8    ....    BL       __aeabi_fmul ; 0x4c5e
        0x0000668e:    4926        &I      LDR      r1,[pc,#152] ; [0x6728] = 0xbe11b50f
        0x00006690:    f7fefa8c    ....    BL       __aeabi_fadd ; 0x4bac
        0x00006694:    9900        ..      LDR      r1,[sp,#0]
        0x00006696:    f7fefae2    ....    BL       __aeabi_fmul ; 0x4c5e
        0x0000669a:    4924        $I      LDR      r1,[pc,#144] ; [0x672c] = 0x3e4cc861
        0x0000669c:    f7fefa86    ....    BL       __aeabi_fadd ; 0x4bac
        0x000066a0:    9900        ..      LDR      r1,[sp,#0]
        0x000066a2:    f7fefadc    ....    BL       __aeabi_fmul ; 0x4c5e
        0x000066a6:    4922        "I      LDR      r1,[pc,#136] ; [0x6730] = 0xbeaaaaa8
        0x000066a8:    f7fefa80    ....    BL       __aeabi_fadd ; 0x4bac
        0x000066ac:    4607        .F      MOV      r7,r0
        0x000066ae:    4620         F      MOV      r0,r4
        0x000066b0:    9900        ..      LDR      r1,[sp,#0]
        0x000066b2:    f7fefad4    ....    BL       __aeabi_fmul ; 0x4c5e
        0x000066b6:    4639        9F      MOV      r1,r7
        0x000066b8:    f7fefad1    ....    BL       __aeabi_fmul ; 0x4c5e
        0x000066bc:    4629        )F      MOV      r1,r5
        0x000066be:    f7fefa75    ..u.    BL       __aeabi_fadd ; 0x4bac
        0x000066c2:    4621        !F      MOV      r1,r4
        0x000066c4:    f7fefa72    ..r.    BL       __aeabi_fadd ; 0x4bac
        0x000066c8:    4631        1F      MOV      r1,r6
        0x000066ca:    f7fefa6f    ..o.    BL       __aeabi_fadd ; 0x4bac
        0x000066ce:    bdf8        ..      POP      {r3-r7,pc}
        0x000066d0:    e7ff        ..      B        0x66d2 ; atanf + 246
        0x000066d2:    2239        9"      MOVS     r2,#0x39
        0x000066d4:    0652        R.      LSLS     r2,r2,#25
        0x000066d6:    4291        .B      CMP      r1,r2
        0x000066d8:    d207        ..      BCS      0x66ea ; atanf + 270
        0x000066da:    f7fff825    ..%.    BL       __ARM_fpclassifyf ; 0x5728
        0x000066de:    2804        .(      CMP      r0,#4
        0x000066e0:    d101        ..      BNE      0x66e6 ; atanf + 266
        0x000066e2:    f7fffb76    ..v.    BL       __mathlib_flt_underflow ; 0x5dd2
        0x000066e6:    4620         F      MOV      r0,r4
        0x000066e8:    bdf8        ..      POP      {r3-r7,pc}
        0x000066ea:    22ff        ."      MOVS     r2,#0xff
        0x000066ec:    0612        ..      LSLS     r2,r2,#24
        0x000066ee:    4291        .B      CMP      r1,r2
        0x000066f0:    d902        ..      BLS      0x66f8 ; atanf + 284
        0x000066f2:    f7fffb5f    .._.    BL       __mathlib_flt_infnan ; 0x5db4
        0x000066f6:    bdf8        ..      POP      {r3-r7,pc}
        0x000066f8:    2c00        .,      CMP      r4,#0
        0x000066fa:    da01        ..      BGE      0x6700 ; atanf + 292
        0x000066fc:    480d        .H      LDR      r0,[pc,#52] ; [0x6734] = 0xbfc90fdb
        0x000066fe:    bdf8        ..      POP      {r3-r7,pc}
        0x00006700:    480d        .H      LDR      r0,[pc,#52] ; [0x6738] = 0x3fc90fdb
        0x00006702:    bdf8        ..      POP      {r3-r7,pc}
    $d
        0x00006704:    bfc90000    ....    DCD    3217620992
        0x00006708:    b9fdaa22    "...    DCD    3120409122
        0x0000670c:    3fc90000    ...?    DCD    1070137344
        0x00006710:    39fdaa22    "..9    DCD    972925474
        0x00006714:    bf800000    ....    DCD    3212836864
        0x00006718:    3eed6000    .`.>    DCD    1055744000
        0x0000671c:    37ce0ac3    ...7    DCD    936250051
        0x00006720:    bd65ad2d    -.e.    DCD    3177557293
        0x00006724:    3dd5b88f    ...=    DCD    1037416591
        0x00006728:    be11b50f    ....    DCD    3188831503
        0x0000672c:    3e4cc861    a.L>    DCD    1045219425
        0x00006730:    beaaaaa8    ....    DCD    3198855848
        0x00006734:    bfc90fdb    ....    DCD    3217625051
        0x00006738:    3fc90fdb    ...?    DCD    1070141403
    $t
    i.cos
    cos
        0x0000673c:    b500        ..      PUSH     {lr}
        0x0000673e:    004a        J.      LSLS     r2,r1,#1
        0x00006740:    4b22        "K      LDR      r3,[pc,#136] ; [0x67cc] = 0x3fe921fb
        0x00006742:    0852        R.      LSRS     r2,r2,#1
        0x00006744:    b087        ..      SUB      sp,sp,#0x1c
        0x00006746:    429a        .B      CMP      r2,r3
        0x00006748:    dc02        ..      BGT      0x6750 ; cos + 20
        0x0000674a:    2200        ."      MOVS     r2,#0
        0x0000674c:    4613        .F      MOV      r3,r2
        0x0000674e:    e025        %.      B        0x679c ; cos + 96
        0x00006750:    4b1f        .K      LDR      r3,[pc,#124] ; [0x67d0] = 0x7ff00000
        0x00006752:    429a        .B      CMP      r2,r3
        0x00006754:    d108        ..      BNE      0x6768 ; cos + 44
        0x00006756:    2800        .(      CMP      r0,#0
        0x00006758:    d108        ..      BNE      0x676c ; cos + 48
        0x0000675a:    2001        .       MOVS     r0,#1
        0x0000675c:    f7fffc10    ....    BL       __set_errno ; 0x5f80
        0x00006760:    f7fffb15    ....    BL       __mathlib_dbl_invalid ; 0x5d8e
        0x00006764:    b007        ..      ADD      sp,sp,#0x1c
        0x00006766:    bd00        ..      POP      {pc}
        0x00006768:    429a        .B      CMP      r2,r3
        0x0000676a:    db03        ..      BLT      0x6774 ; cos + 56
        0x0000676c:    f7fffb0a    ....    BL       __mathlib_dbl_infnan ; 0x5d84
        0x00006770:    b007        ..      ADD      sp,sp,#0x1c
        0x00006772:    bd00        ..      POP      {pc}
        0x00006774:    aa02        ..      ADD      r2,sp,#8
        0x00006776:    f7fefff1    ....    BL       __ieee754_rem_pio2 ; 0x575c
        0x0000677a:    0781        ..      LSLS     r1,r0,#30
        0x0000677c:    0f89        ..      LSRS     r1,r1,#30
        0x0000677e:    d00b        ..      BEQ      0x6798 ; cos + 92
        0x00006780:    2001        .       MOVS     r0,#1
        0x00006782:    2901        .)      CMP      r1,#1
        0x00006784:    d00e        ..      BEQ      0x67a4 ; cos + 104
        0x00006786:    2902        .)      CMP      r1,#2
        0x00006788:    d016        ..      BEQ      0x67b8 ; cos + 124
        0x0000678a:    9000        ..      STR      r0,[sp,#0]
        0x0000678c:    a802        ..      ADD      r0,sp,#8
        0x0000678e:    c80f        ..      LDM      r0,{r0-r3}
        0x00006790:    f7fffa82    ....    BL       __kernel_sin ; 0x5c98
        0x00006794:    b007        ..      ADD      sp,sp,#0x1c
        0x00006796:    bd00        ..      POP      {pc}
        0x00006798:    a802        ..      ADD      r0,sp,#8
        0x0000679a:    c80f        ..      LDM      r0,{r0-r3}
        0x0000679c:    f7fff9ac    ....    BL       __kernel_cos ; 0x5af8
        0x000067a0:    b007        ..      ADD      sp,sp,#0x1c
        0x000067a2:    bd00        ..      POP      {pc}
        0x000067a4:    9000        ..      STR      r0,[sp,#0]
        0x000067a6:    a802        ..      ADD      r0,sp,#8
        0x000067a8:    c80f        ..      LDM      r0,{r0-r3}
        0x000067aa:    f7fffa75    ..u.    BL       __kernel_sin ; 0x5c98
        0x000067ae:    2201        ."      MOVS     r2,#1
        0x000067b0:    07d2        ..      LSLS     r2,r2,#31
        0x000067b2:    4051        Q@      EORS     r1,r1,r2
        0x000067b4:    b007        ..      ADD      sp,sp,#0x1c
        0x000067b6:    bd00        ..      POP      {pc}
        0x000067b8:    a802        ..      ADD      r0,sp,#8
        0x000067ba:    c80f        ..      LDM      r0,{r0-r3}
        0x000067bc:    f7fff99c    ....    BL       __kernel_cos ; 0x5af8
        0x000067c0:    2201        ."      MOVS     r2,#1
        0x000067c2:    07d2        ..      LSLS     r2,r2,#31
        0x000067c4:    4051        Q@      EORS     r1,r1,r2
        0x000067c6:    b007        ..      ADD      sp,sp,#0x1c
        0x000067c8:    bd00        ..      POP      {pc}
    $d
        0x000067ca:    0000        ..      DCW    0
        0x000067cc:    3fe921fb    .!.?    DCD    1072243195
        0x000067d0:    7ff00000    ....    DCD    2146435072
    $t
    i.cosf
    cosf
        0x000067d4:    b5f0        ..      PUSH     {r4-r7,lr}
        0x000067d6:    4602        .F      MOV      r2,r0
        0x000067d8:    4604        .F      MOV      r4,r0
        0x000067da:    4b4e        NK      LDR      r3,[pc,#312] ; [0x6914] = 0x7e921fb6
        0x000067dc:    b083        ..      SUB      sp,sp,#0xc
        0x000067de:    0040        @.      LSLS     r0,r0,#1
        0x000067e0:    4669        iF      MOV      r1,sp
        0x000067e2:    4298        .B      CMP      r0,r3
        0x000067e4:    d209        ..      BCS      0x67fa ; cosf + 38
        0x000067e6:    2173        s!      MOVS     r1,#0x73
        0x000067e8:    0609        ..      LSLS     r1,r1,#24
        0x000067ea:    4288        .B      CMP      r0,r1
        0x000067ec:    d202        ..      BCS      0x67f4 ; cosf + 32
        0x000067ee:    2000        .       MOVS     r0,#0
        0x000067f0:    43c0        .C      MVNS     r0,r0
        0x000067f2:    e000        ..      B        0x67f6 ; cosf + 34
        0x000067f4:    2000        .       MOVS     r0,#0
        0x000067f6:    9000        ..      STR      r0,[sp,#0]
        0x000067f8:    e030        0.      B        0x685c ; cosf + 136
        0x000067fa:    0050        P.      LSLS     r0,r2,#1
        0x000067fc:    4b46        FK      LDR      r3,[pc,#280] ; [0x6918] = 0x46490e49
        0x000067fe:    0840        @.      LSRS     r0,r0,#1
        0x00006800:    4298        .B      CMP      r0,r3
        0x00006802:    d26c        l.      BCS      0x68de ; cosf + 266
        0x00006804:    4945        EI      LDR      r1,[pc,#276] ; [0x691c] = 0x3f22f983
        0x00006806:    4610        .F      MOV      r0,r2
        0x00006808:    f7fefa29    ..).    BL       __aeabi_fmul ; 0x4c5e
        0x0000680c:    f7fefdae    ....    BL       _frnd ; 0x536c
        0x00006810:    4607        .F      MOV      r7,r0
        0x00006812:    f7fefc65    ..e.    BL       __aeabi_f2iz ; 0x50e0
        0x00006816:    0780        ..      LSLS     r0,r0,#30
        0x00006818:    0f80        ..      LSRS     r0,r0,#30
        0x0000681a:    9000        ..      STR      r0,[sp,#0]
        0x0000681c:    4940        @I      LDR      r1,[pc,#256] ; [0x6920] = 0x2c34611a
        0x0000681e:    4638        8F      MOV      r0,r7
        0x00006820:    f7fefa1d    ....    BL       __aeabi_fmul ; 0x4c5e
        0x00006824:    9001        ..      STR      r0,[sp,#4]
        0x00006826:    493f        ?I      LDR      r1,[pc,#252] ; [0x6924] = 0x33a22000
        0x00006828:    4638        8F      MOV      r0,r7
        0x0000682a:    f7fefa18    ....    BL       __aeabi_fmul ; 0x4c5e
        0x0000682e:    4606        .F      MOV      r6,r0
        0x00006830:    493d        =I      LDR      r1,[pc,#244] ; [0x6928] = 0x39fda000
        0x00006832:    4638        8F      MOV      r0,r7
        0x00006834:    f7fefa13    ....    BL       __aeabi_fmul ; 0x4c5e
        0x00006838:    4605        .F      MOV      r5,r0
        0x0000683a:    493c        <I      LDR      r1,[pc,#240] ; [0x692c] = 0x3fc90000
        0x0000683c:    4638        8F      MOV      r0,r7
        0x0000683e:    f7fefa0e    ....    BL       __aeabi_fmul ; 0x4c5e
        0x00006842:    4621        !F      MOV      r1,r4
        0x00006844:    f7fefa07    ....    BL       __aeabi_frsub ; 0x4c56
        0x00006848:    4629        )F      MOV      r1,r5
        0x0000684a:    f7fefa00    ....    BL       __aeabi_fsub ; 0x4c4e
        0x0000684e:    4631        1F      MOV      r1,r6
        0x00006850:    f7fef9fd    ....    BL       __aeabi_fsub ; 0x4c4e
        0x00006854:    9901        ..      LDR      r1,[sp,#4]
        0x00006856:    f7fef9fa    ....    BL       __aeabi_fsub ; 0x4c4e
        0x0000685a:    4604        .F      MOV      r4,r0
        0x0000685c:    4625        %F      MOV      r5,r4
        0x0000685e:    277f        .'      MOVS     r7,#0x7f
        0x00006860:    9c00        ..      LDR      r4,[sp,#0]
        0x00006862:    05ff        ..      LSLS     r7,r7,#23
        0x00006864:    2c00        .,      CMP      r4,#0
        0x00006866:    db3e        >.      BLT      0x68e6 ; cosf + 274
        0x00006868:    07e0        ..      LSLS     r0,r4,#31
        0x0000686a:    4e31        1N      LDR      r6,[pc,#196] ; [0x6930] = 0x80000000
        0x0000686c:    4629        )F      MOV      r1,r5
        0x0000686e:    4608        .F      MOV      r0,r1
        0x00006870:    d01b        ..      BEQ      0x68aa ; cosf + 214
        0x00006872:    f7fef9f4    ....    BL       __aeabi_fmul ; 0x4c5e
        0x00006876:    4607        .F      MOV      r7,r0
        0x00006878:    492e        .I      LDR      r1,[pc,#184] ; [0x6934] = 0x394c6d33
        0x0000687a:    f7fef9f0    ....    BL       __aeabi_fmul ; 0x4c5e
        0x0000687e:    492e        .I      LDR      r1,[pc,#184] ; [0x6938] = 0x3c0882da
        0x00006880:    f7fef9e9    ....    BL       __aeabi_frsub ; 0x4c56
        0x00006884:    4639        9F      MOV      r1,r7
        0x00006886:    f7fef9ea    ....    BL       __aeabi_fmul ; 0x4c5e
        0x0000688a:    492c        ,I      LDR      r1,[pc,#176] ; [0x693c] = 0xbe2aaaa0
        0x0000688c:    f7fef98e    ....    BL       __aeabi_fadd ; 0x4bac
        0x00006890:    4639        9F      MOV      r1,r7
        0x00006892:    f7fef9e4    ....    BL       __aeabi_fmul ; 0x4c5e
        0x00006896:    4629        )F      MOV      r1,r5
        0x00006898:    f7fef9e1    ....    BL       __aeabi_fmul ; 0x4c5e
        0x0000689c:    4629        )F      MOV      r1,r5
        0x0000689e:    f7fef985    ....    BL       __aeabi_fadd ; 0x4bac
        0x000068a2:    07a1        ..      LSLS     r1,r4,#30
        0x000068a4:    d518        ..      BPL      0x68d8 ; cosf + 260
        0x000068a6:    b003        ..      ADD      sp,sp,#0xc
        0x000068a8:    bdf0        ..      POP      {r4-r7,pc}
        0x000068aa:    f7fef9d8    ....    BL       __aeabi_fmul ; 0x4c5e
        0x000068ae:    4605        .F      MOV      r5,r0
        0x000068b0:    4923        #I      LDR      r1,[pc,#140] ; [0x6940] = 0xbab23ab9
        0x000068b2:    f7fef9d4    ....    BL       __aeabi_fmul ; 0x4c5e
        0x000068b6:    4923        #I      LDR      r1,[pc,#140] ; [0x6944] = 0x3d2a9fca
        0x000068b8:    f7fef978    ..x.    BL       __aeabi_fadd ; 0x4bac
        0x000068bc:    4629        )F      MOV      r1,r5
        0x000068be:    f7fef9ce    ....    BL       __aeabi_fmul ; 0x4c5e
        0x000068c2:    4921        !I      LDR      r1,[pc,#132] ; [0x6948] = 0xbeffffdd
        0x000068c4:    f7fef972    ..r.    BL       __aeabi_fadd ; 0x4bac
        0x000068c8:    4629        )F      MOV      r1,r5
        0x000068ca:    f7fef9c8    ....    BL       __aeabi_fmul ; 0x4c5e
        0x000068ce:    4639        9F      MOV      r1,r7
        0x000068d0:    f7fef96c    ..l.    BL       __aeabi_fadd ; 0x4bac
        0x000068d4:    07a1        ..      LSLS     r1,r4,#30
        0x000068d6:    d5e6        ..      BPL      0x68a6 ; cosf + 210
        0x000068d8:    4070        p@      EORS     r0,r0,r6
        0x000068da:    b003        ..      ADD      sp,sp,#0xc
        0x000068dc:    bdf0        ..      POP      {r4-r7,pc}
        0x000068de:    4610        .F      MOV      r0,r2
        0x000068e0:    f7fffa7e    ..~.    BL       __mathlib_rredf2 ; 0x5de0
        0x000068e4:    e7b9        ..      B        0x685a ; cosf + 134
        0x000068e6:    21ff        .!      MOVS     r1,#0xff
        0x000068e8:    0068        h.      LSLS     r0,r5,#1
        0x000068ea:    0609        ..      LSLS     r1,r1,#24
        0x000068ec:    4288        .B      CMP      r0,r1
        0x000068ee:    d202        ..      BCS      0x68f6 ; cosf + 290
        0x000068f0:    4638        8F      MOV      r0,r7
        0x000068f2:    b003        ..      ADD      sp,sp,#0xc
        0x000068f4:    bdf0        ..      POP      {r4-r7,pc}
        0x000068f6:    4288        .B      CMP      r0,r1
        0x000068f8:    d106        ..      BNE      0x6908 ; cosf + 308
        0x000068fa:    2001        .       MOVS     r0,#1
        0x000068fc:    f7fffb40    ..@.    BL       __set_errno ; 0x5f80
        0x00006900:    f7fffa61    ..a.    BL       __mathlib_flt_invalid ; 0x5dc6
        0x00006904:    b003        ..      ADD      sp,sp,#0xc
        0x00006906:    bdf0        ..      POP      {r4-r7,pc}
        0x00006908:    4628        (F      MOV      r0,r5
        0x0000690a:    f7fffa53    ..S.    BL       __mathlib_flt_infnan ; 0x5db4
        0x0000690e:    b003        ..      ADD      sp,sp,#0xc
        0x00006910:    bdf0        ..      POP      {r4-r7,pc}
    $d
        0x00006912:    0000        ..      DCW    0
        0x00006914:    7e921fb6    ...~    DCD    2123505590
        0x00006918:    46490e49    I.IF    DCD    1179192905
        0x0000691c:    3f22f983    .."?    DCD    1059256707
        0x00006920:    2c34611a    .a4,    DCD    741630234
        0x00006924:    33a22000    . .3    DCD    866263040
        0x00006928:    39fda000    ...9    DCD    972922880
        0x0000692c:    3fc90000    ...?    DCD    1070137344
        0x00006930:    80000000    ....    DCD    2147483648
        0x00006934:    394c6d33    3mL9    DCD    961310003
        0x00006938:    3c0882da    ...<    DCD    1007190746
        0x0000693c:    be2aaaa0    ..*.    DCD    3190467232
        0x00006940:    bab23ab9    .:..    DCD    3132242617
        0x00006944:    3d2a9fca    ..*=    DCD    1026203594
        0x00006948:    beffffdd    ....    DCD    3204448221
    $t
    i.fmax
    fmax
        0x0000694c:    b5f8        ..      PUSH     {r3-r7,lr}
        0x0000694e:    4615        .F      MOV      r5,r2
        0x00006950:    461c        .F      MOV      r4,r3
        0x00006952:    4606        .F      MOV      r6,r0
        0x00006954:    460f        .F      MOV      r7,r1
        0x00006956:    f7fefdd9    ....    BL       __ARM_dcmp4 ; 0x550c
        0x0000695a:    0f00        ..      LSRS     r0,r0,#28
        0x0000695c:    2802        .(      CMP      r0,#2
        0x0000695e:    d00b        ..      BEQ      0x6978 ; fmax + 44
        0x00006960:    2d00        .-      CMP      r5,#0
        0x00006962:    d001        ..      BEQ      0x6968 ; fmax + 28
        0x00006964:    2001        .       MOVS     r0,#1
        0x00006966:    e000        ..      B        0x696a ; fmax + 30
        0x00006968:    2000        .       MOVS     r0,#0
        0x0000696a:    4320         C      ORRS     r0,r0,r4
        0x0000696c:    0040        @.      LSLS     r0,r0,#1
        0x0000696e:    4905        .I      LDR      r1,[pc,#20] ; [0x6984] = 0x7ff00000
        0x00006970:    0840        @.      LSRS     r0,r0,#1
        0x00006972:    1a08        ..      SUBS     r0,r1,r0
        0x00006974:    0fc0        ..      LSRS     r0,r0,#31
        0x00006976:    d002        ..      BEQ      0x697e ; fmax + 50
        0x00006978:    4630        0F      MOV      r0,r6
        0x0000697a:    4639        9F      MOV      r1,r7
        0x0000697c:    bdf8        ..      POP      {r3-r7,pc}
        0x0000697e:    4628        (F      MOV      r0,r5
        0x00006980:    4621        !F      MOV      r1,r4
        0x00006982:    bdf8        ..      POP      {r3-r7,pc}
    $d
        0x00006984:    7ff00000    ....    DCD    2146435072
    $t
    i.sinf
    sinf
        0x00006988:    b5f0        ..      PUSH     {r4-r7,lr}
        0x0000698a:    4602        .F      MOV      r2,r0
        0x0000698c:    4604        .F      MOV      r4,r0
        0x0000698e:    4b51        QK      LDR      r3,[pc,#324] ; [0x6ad4] = 0x7e921fb6
        0x00006990:    b083        ..      SUB      sp,sp,#0xc
        0x00006992:    0040        @.      LSLS     r0,r0,#1
        0x00006994:    4669        iF      MOV      r1,sp
        0x00006996:    4298        .B      CMP      r0,r3
        0x00006998:    d209        ..      BCS      0x69ae ; sinf + 38
        0x0000699a:    2173        s!      MOVS     r1,#0x73
        0x0000699c:    0609        ..      LSLS     r1,r1,#24
        0x0000699e:    4288        .B      CMP      r0,r1
        0x000069a0:    d202        ..      BCS      0x69a8 ; sinf + 32
        0x000069a2:    2000        .       MOVS     r0,#0
        0x000069a4:    43c0        .C      MVNS     r0,r0
        0x000069a6:    e000        ..      B        0x69aa ; sinf + 34
        0x000069a8:    2000        .       MOVS     r0,#0
        0x000069aa:    9000        ..      STR      r0,[sp,#0]
        0x000069ac:    e030        0.      B        0x6a10 ; sinf + 136
        0x000069ae:    0050        P.      LSLS     r0,r2,#1
        0x000069b0:    4b49        IK      LDR      r3,[pc,#292] ; [0x6ad8] = 0x46490e49
        0x000069b2:    0840        @.      LSRS     r0,r0,#1
        0x000069b4:    4298        .B      CMP      r0,r3
        0x000069b6:    d26b        k.      BCS      0x6a90 ; sinf + 264
        0x000069b8:    4948        HI      LDR      r1,[pc,#288] ; [0x6adc] = 0x3f22f983
        0x000069ba:    4610        .F      MOV      r0,r2
        0x000069bc:    f7fef94f    ..O.    BL       __aeabi_fmul ; 0x4c5e
        0x000069c0:    f7fefcd4    ....    BL       _frnd ; 0x536c
        0x000069c4:    4607        .F      MOV      r7,r0
        0x000069c6:    f7fefb8b    ....    BL       __aeabi_f2iz ; 0x50e0
        0x000069ca:    0780        ..      LSLS     r0,r0,#30
        0x000069cc:    0f80        ..      LSRS     r0,r0,#30
        0x000069ce:    9000        ..      STR      r0,[sp,#0]
        0x000069d0:    4943        CI      LDR      r1,[pc,#268] ; [0x6ae0] = 0x2c34611a
        0x000069d2:    4638        8F      MOV      r0,r7
        0x000069d4:    f7fef943    ..C.    BL       __aeabi_fmul ; 0x4c5e
        0x000069d8:    9001        ..      STR      r0,[sp,#4]
        0x000069da:    4942        BI      LDR      r1,[pc,#264] ; [0x6ae4] = 0x33a22000
        0x000069dc:    4638        8F      MOV      r0,r7
        0x000069de:    f7fef93e    ..>.    BL       __aeabi_fmul ; 0x4c5e
        0x000069e2:    4606        .F      MOV      r6,r0
        0x000069e4:    4940        @I      LDR      r1,[pc,#256] ; [0x6ae8] = 0x39fda000
        0x000069e6:    4638        8F      MOV      r0,r7
        0x000069e8:    f7fef939    ..9.    BL       __aeabi_fmul ; 0x4c5e
        0x000069ec:    4605        .F      MOV      r5,r0
        0x000069ee:    493f        ?I      LDR      r1,[pc,#252] ; [0x6aec] = 0x3fc90000
        0x000069f0:    4638        8F      MOV      r0,r7
        0x000069f2:    f7fef934    ..4.    BL       __aeabi_fmul ; 0x4c5e
        0x000069f6:    4621        !F      MOV      r1,r4
        0x000069f8:    f7fef92d    ..-.    BL       __aeabi_frsub ; 0x4c56
        0x000069fc:    4629        )F      MOV      r1,r5
        0x000069fe:    f7fef926    ..&.    BL       __aeabi_fsub ; 0x4c4e
        0x00006a02:    4631        1F      MOV      r1,r6
        0x00006a04:    f7fef923    ..#.    BL       __aeabi_fsub ; 0x4c4e
        0x00006a08:    9901        ..      LDR      r1,[sp,#4]
        0x00006a0a:    f7fef920    .. .    BL       __aeabi_fsub ; 0x4c4e
        0x00006a0e:    4604        .F      MOV      r4,r0
        0x00006a10:    4625        %F      MOV      r5,r4
        0x00006a12:    9c00        ..      LDR      r4,[sp,#0]
        0x00006a14:    2c00        .,      CMP      r4,#0
        0x00006a16:    db3f        ?.      BLT      0x6a98 ; sinf + 272
        0x00006a18:    07e0        ..      LSLS     r0,r4,#31
        0x00006a1a:    4e35        5N      LDR      r6,[pc,#212] ; [0x6af0] = 0x80000000
        0x00006a1c:    4629        )F      MOV      r1,r5
        0x00006a1e:    4608        .F      MOV      r0,r1
        0x00006a20:    d01a        ..      BEQ      0x6a58 ; sinf + 208
        0x00006a22:    f7fef91c    ....    BL       __aeabi_fmul ; 0x4c5e
        0x00006a26:    4605        .F      MOV      r5,r0
        0x00006a28:    4932        2I      LDR      r1,[pc,#200] ; [0x6af4] = 0xbab23ab9
        0x00006a2a:    f7fef918    ....    BL       __aeabi_fmul ; 0x4c5e
        0x00006a2e:    4932        2I      LDR      r1,[pc,#200] ; [0x6af8] = 0x3d2a9fca
        0x00006a30:    f7fef8bc    ....    BL       __aeabi_fadd ; 0x4bac
        0x00006a34:    4629        )F      MOV      r1,r5
        0x00006a36:    f7fef912    ....    BL       __aeabi_fmul ; 0x4c5e
        0x00006a3a:    4930        0I      LDR      r1,[pc,#192] ; [0x6afc] = 0xbeffffdd
        0x00006a3c:    f7fef8b6    ....    BL       __aeabi_fadd ; 0x4bac
        0x00006a40:    4629        )F      MOV      r1,r5
        0x00006a42:    f7fef90c    ....    BL       __aeabi_fmul ; 0x4c5e
        0x00006a46:    217f        .!      MOVS     r1,#0x7f
        0x00006a48:    05c9        ..      LSLS     r1,r1,#23
        0x00006a4a:    f7fef8af    ....    BL       __aeabi_fadd ; 0x4bac
        0x00006a4e:    07a1        ..      LSLS     r1,r4,#30
        0x00006a50:    d500        ..      BPL      0x6a54 ; sinf + 204
        0x00006a52:    4070        p@      EORS     r0,r0,r6
        0x00006a54:    b003        ..      ADD      sp,sp,#0xc
        0x00006a56:    bdf0        ..      POP      {r4-r7,pc}
        0x00006a58:    f7fef901    ....    BL       __aeabi_fmul ; 0x4c5e
        0x00006a5c:    4607        .F      MOV      r7,r0
        0x00006a5e:    4928        (I      LDR      r1,[pc,#160] ; [0x6b00] = 0x394c6d33
        0x00006a60:    f7fef8fd    ....    BL       __aeabi_fmul ; 0x4c5e
        0x00006a64:    4927        'I      LDR      r1,[pc,#156] ; [0x6b04] = 0x3c0882da
        0x00006a66:    f7fef8f6    ....    BL       __aeabi_frsub ; 0x4c56
        0x00006a6a:    4639        9F      MOV      r1,r7
        0x00006a6c:    f7fef8f7    ....    BL       __aeabi_fmul ; 0x4c5e
        0x00006a70:    4925        %I      LDR      r1,[pc,#148] ; [0x6b08] = 0xbe2aaaa0
        0x00006a72:    f7fef89b    ....    BL       __aeabi_fadd ; 0x4bac
        0x00006a76:    4639        9F      MOV      r1,r7
        0x00006a78:    f7fef8f1    ....    BL       __aeabi_fmul ; 0x4c5e
        0x00006a7c:    4629        )F      MOV      r1,r5
        0x00006a7e:    f7fef8ee    ....    BL       __aeabi_fmul ; 0x4c5e
        0x00006a82:    4629        )F      MOV      r1,r5
        0x00006a84:    f7fef892    ....    BL       __aeabi_fadd ; 0x4bac
        0x00006a88:    07a1        ..      LSLS     r1,r4,#30
        0x00006a8a:    d4e2        ..      BMI      0x6a52 ; sinf + 202
        0x00006a8c:    b003        ..      ADD      sp,sp,#0xc
        0x00006a8e:    bdf0        ..      POP      {r4-r7,pc}
        0x00006a90:    4610        .F      MOV      r0,r2
        0x00006a92:    f7fff9a5    ....    BL       __mathlib_rredf2 ; 0x5de0
        0x00006a96:    e7ba        ..      B        0x6a0e ; sinf + 134
        0x00006a98:    21ff        .!      MOVS     r1,#0xff
        0x00006a9a:    0068        h.      LSLS     r0,r5,#1
        0x00006a9c:    0609        ..      LSLS     r1,r1,#24
        0x00006a9e:    4288        .B      CMP      r0,r1
        0x00006aa0:    d209        ..      BCS      0x6ab6 ; sinf + 302
        0x00006aa2:    4628        (F      MOV      r0,r5
        0x00006aa4:    f7fefe40    ..@.    BL       __ARM_fpclassifyf ; 0x5728
        0x00006aa8:    2804        .(      CMP      r0,#4
        0x00006aaa:    d101        ..      BNE      0x6ab0 ; sinf + 296
        0x00006aac:    f7fff991    ....    BL       __mathlib_flt_underflow ; 0x5dd2
        0x00006ab0:    4628        (F      MOV      r0,r5
        0x00006ab2:    b003        ..      ADD      sp,sp,#0xc
        0x00006ab4:    bdf0        ..      POP      {r4-r7,pc}
        0x00006ab6:    4288        .B      CMP      r0,r1
        0x00006ab8:    d106        ..      BNE      0x6ac8 ; sinf + 320
        0x00006aba:    2001        .       MOVS     r0,#1
        0x00006abc:    f7fffa60    ..`.    BL       __set_errno ; 0x5f80
        0x00006ac0:    f7fff981    ....    BL       __mathlib_flt_invalid ; 0x5dc6
        0x00006ac4:    b003        ..      ADD      sp,sp,#0xc
        0x00006ac6:    bdf0        ..      POP      {r4-r7,pc}
        0x00006ac8:    4628        (F      MOV      r0,r5
        0x00006aca:    f7fff973    ..s.    BL       __mathlib_flt_infnan ; 0x5db4
        0x00006ace:    b003        ..      ADD      sp,sp,#0xc
        0x00006ad0:    bdf0        ..      POP      {r4-r7,pc}
    $d
        0x00006ad2:    0000        ..      DCW    0
        0x00006ad4:    7e921fb6    ...~    DCD    2123505590
        0x00006ad8:    46490e49    I.IF    DCD    1179192905
        0x00006adc:    3f22f983    .."?    DCD    1059256707
        0x00006ae0:    2c34611a    .a4,    DCD    741630234
        0x00006ae4:    33a22000    . .3    DCD    866263040
        0x00006ae8:    39fda000    ...9    DCD    972922880
        0x00006aec:    3fc90000    ...?    DCD    1070137344
        0x00006af0:    80000000    ....    DCD    2147483648
        0x00006af4:    bab23ab9    .:..    DCD    3132242617
        0x00006af8:    3d2a9fca    ..*=    DCD    1026203594
        0x00006afc:    beffffdd    ....    DCD    3204448221
        0x00006b00:    394c6d33    3mL9    DCD    961310003
        0x00006b04:    3c0882da    ...<    DCD    1007190746
        0x00006b08:    be2aaaa0    ..*.    DCD    3190467232
    $t
    i.sqrt
    sqrt
        0x00006b0c:    b5f8        ..      PUSH     {r3-r7,lr}
        0x00006b0e:    4606        .F      MOV      r6,r0
        0x00006b10:    460c        .F      MOV      r4,r1
        0x00006b12:    f7fefca9    ....    BL       _dsqrt ; 0x5468
        0x00006b16:    1e05        ..      SUBS     r5,r0,#0
        0x00006b18:    460f        .F      MOV      r7,r1
        0x00006b1a:    d000        ..      BEQ      0x6b1e ; sqrt + 18
        0x00006b1c:    2001        .       MOVS     r0,#1
        0x00006b1e:    4301        .C      ORRS     r1,r1,r0
        0x00006b20:    0049        I.      LSLS     r1,r1,#1
        0x00006b22:    480b        .H      LDR      r0,[pc,#44] ; [0x6b50] = 0x7ff00000
        0x00006b24:    0849        I.      LSRS     r1,r1,#1
        0x00006b26:    1a41        A.      SUBS     r1,r0,r1
        0x00006b28:    0fc9        ..      LSRS     r1,r1,#31
        0x00006b2a:    d00d        ..      BEQ      0x6b48 ; sqrt + 60
        0x00006b2c:    2e00        ..      CMP      r6,#0
        0x00006b2e:    d001        ..      BEQ      0x6b34 ; sqrt + 40
        0x00006b30:    2101        .!      MOVS     r1,#1
        0x00006b32:    e000        ..      B        0x6b36 ; sqrt + 42
        0x00006b34:    2100        .!      MOVS     r1,#0
        0x00006b36:    430c        .C      ORRS     r4,r4,r1
        0x00006b38:    0061        a.      LSLS     r1,r4,#1
        0x00006b3a:    0849        I.      LSRS     r1,r1,#1
        0x00006b3c:    1a40        @.      SUBS     r0,r0,r1
        0x00006b3e:    0fc0        ..      LSRS     r0,r0,#31
        0x00006b40:    d102        ..      BNE      0x6b48 ; sqrt + 60
        0x00006b42:    2001        .       MOVS     r0,#1
        0x00006b44:    f7fffa1c    ....    BL       __set_errno ; 0x5f80
        0x00006b48:    4628        (F      MOV      r0,r5
        0x00006b4a:    4639        9F      MOV      r1,r7
        0x00006b4c:    bdf8        ..      POP      {r3-r7,pc}
    $d
        0x00006b4e:    0000        ..      DCW    0
        0x00006b50:    7ff00000    ....    DCD    2146435072
    $t
    i.sqrtf
    sqrtf
        0x00006b54:    b570        p.      PUSH     {r4-r6,lr}
        0x00006b56:    4605        .F      MOV      r5,r0
        0x00006b58:    f7fefbdc    ....    BL       _fsqrt ; 0x5314
        0x00006b5c:    0041        A.      LSLS     r1,r0,#1
        0x00006b5e:    4604        .F      MOV      r4,r0
        0x00006b60:    20ff        .       MOVS     r0,#0xff
        0x00006b62:    0849        I.      LSRS     r1,r1,#1
        0x00006b64:    05c0        ..      LSLS     r0,r0,#23
        0x00006b66:    1a41        A.      SUBS     r1,r0,r1
        0x00006b68:    0fc9        ..      LSRS     r1,r1,#31
        0x00006b6a:    d007        ..      BEQ      0x6b7c ; sqrtf + 40
        0x00006b6c:    0069        i.      LSLS     r1,r5,#1
        0x00006b6e:    0849        I.      LSRS     r1,r1,#1
        0x00006b70:    1a40        @.      SUBS     r0,r0,r1
        0x00006b72:    0fc0        ..      LSRS     r0,r0,#31
        0x00006b74:    d102        ..      BNE      0x6b7c ; sqrtf + 40
        0x00006b76:    2001        .       MOVS     r0,#1
        0x00006b78:    f7fffa02    ....    BL       __set_errno ; 0x5f80
        0x00006b7c:    4620         F      MOV      r0,r4
        0x00006b7e:    bd70        p.      POP      {r4-r6,pc}
    i.tanf
    tanf
        0x00006b80:    b5f0        ..      PUSH     {r4-r7,lr}
        0x00006b82:    4602        .F      MOV      r2,r0
        0x00006b84:    4604        .F      MOV      r4,r0
        0x00006b86:    4b4c        LK      LDR      r3,[pc,#304] ; [0x6cb8] = 0x7e921fb6
        0x00006b88:    b083        ..      SUB      sp,sp,#0xc
        0x00006b8a:    0040        @.      LSLS     r0,r0,#1
        0x00006b8c:    4669        iF      MOV      r1,sp
        0x00006b8e:    4298        .B      CMP      r0,r3
        0x00006b90:    d209        ..      BCS      0x6ba6 ; tanf + 38
        0x00006b92:    2173        s!      MOVS     r1,#0x73
        0x00006b94:    0609        ..      LSLS     r1,r1,#24
        0x00006b96:    4288        .B      CMP      r0,r1
        0x00006b98:    d202        ..      BCS      0x6ba0 ; tanf + 32
        0x00006b9a:    2000        .       MOVS     r0,#0
        0x00006b9c:    43c0        .C      MVNS     r0,r0
        0x00006b9e:    e000        ..      B        0x6ba2 ; tanf + 34
        0x00006ba0:    2000        .       MOVS     r0,#0
        0x00006ba2:    9000        ..      STR      r0,[sp,#0]
        0x00006ba4:    e030        0.      B        0x6c08 ; tanf + 136
        0x00006ba6:    0050        P.      LSLS     r0,r2,#1
        0x00006ba8:    4b44        DK      LDR      r3,[pc,#272] ; [0x6cbc] = 0x46490e49
        0x00006baa:    0840        @.      LSRS     r0,r0,#1
        0x00006bac:    4298        .B      CMP      r0,r3
        0x00006bae:    d262        b.      BCS      0x6c76 ; tanf + 246
        0x00006bb0:    4943        CI      LDR      r1,[pc,#268] ; [0x6cc0] = 0x3f22f983
        0x00006bb2:    4610        .F      MOV      r0,r2
        0x00006bb4:    f7fef853    ..S.    BL       __aeabi_fmul ; 0x4c5e
        0x00006bb8:    f7fefbd8    ....    BL       _frnd ; 0x536c
        0x00006bbc:    4607        .F      MOV      r7,r0
        0x00006bbe:    f7fefa8f    ....    BL       __aeabi_f2iz ; 0x50e0
        0x00006bc2:    0780        ..      LSLS     r0,r0,#30
        0x00006bc4:    0f80        ..      LSRS     r0,r0,#30
        0x00006bc6:    9000        ..      STR      r0,[sp,#0]
        0x00006bc8:    493e        >I      LDR      r1,[pc,#248] ; [0x6cc4] = 0x2c34611a
        0x00006bca:    4638        8F      MOV      r0,r7
        0x00006bcc:    f7fef847    ..G.    BL       __aeabi_fmul ; 0x4c5e
        0x00006bd0:    9001        ..      STR      r0,[sp,#4]
        0x00006bd2:    493d        =I      LDR      r1,[pc,#244] ; [0x6cc8] = 0x33a22000
        0x00006bd4:    4638        8F      MOV      r0,r7
        0x00006bd6:    f7fef842    ..B.    BL       __aeabi_fmul ; 0x4c5e
        0x00006bda:    4606        .F      MOV      r6,r0
        0x00006bdc:    493b        ;I      LDR      r1,[pc,#236] ; [0x6ccc] = 0x39fda000
        0x00006bde:    4638        8F      MOV      r0,r7
        0x00006be0:    f7fef83d    ..=.    BL       __aeabi_fmul ; 0x4c5e
        0x00006be4:    4605        .F      MOV      r5,r0
        0x00006be6:    493a        :I      LDR      r1,[pc,#232] ; [0x6cd0] = 0x3fc90000
        0x00006be8:    4638        8F      MOV      r0,r7
        0x00006bea:    f7fef838    ..8.    BL       __aeabi_fmul ; 0x4c5e
        0x00006bee:    4621        !F      MOV      r1,r4
        0x00006bf0:    f7fef831    ..1.    BL       __aeabi_frsub ; 0x4c56
        0x00006bf4:    4629        )F      MOV      r1,r5
        0x00006bf6:    f7fef82a    ..*.    BL       __aeabi_fsub ; 0x4c4e
        0x00006bfa:    4631        1F      MOV      r1,r6
        0x00006bfc:    f7fef827    ..'.    BL       __aeabi_fsub ; 0x4c4e
        0x00006c00:    9901        ..      LDR      r1,[sp,#4]
        0x00006c02:    f7fef824    ..$.    BL       __aeabi_fsub ; 0x4c4e
        0x00006c06:    4604        .F      MOV      r4,r0
        0x00006c08:    9d00        ..      LDR      r5,[sp,#0]
        0x00006c0a:    2d00        .-      CMP      r5,#0
        0x00006c0c:    db37        7.      BLT      0x6c7e ; tanf + 254
        0x00006c0e:    4621        !F      MOV      r1,r4
        0x00006c10:    4608        .F      MOV      r0,r1
        0x00006c12:    f7fef824    ..$.    BL       __aeabi_fmul ; 0x4c5e
        0x00006c16:    4606        .F      MOV      r6,r0
        0x00006c18:    492e        .I      LDR      r1,[pc,#184] ; [0x6cd4] = 0x3c22e9bb
        0x00006c1a:    f7fef820    .. .    BL       __aeabi_fmul ; 0x4c5e
        0x00006c1e:    492e        .I      LDR      r1,[pc,#184] ; [0x6cd8] = 0x3b066d0c
        0x00006c20:    f7fdffc4    ....    BL       __aeabi_fadd ; 0x4bac
        0x00006c24:    4631        1F      MOV      r1,r6
        0x00006c26:    f7fef81a    ....    BL       __aeabi_fmul ; 0x4c5e
        0x00006c2a:    492c        ,I      LDR      r1,[pc,#176] ; [0x6cdc] = 0x3cce768a
        0x00006c2c:    f7fdffbe    ....    BL       __aeabi_fadd ; 0x4bac
        0x00006c30:    4631        1F      MOV      r1,r6
        0x00006c32:    f7fef814    ....    BL       __aeabi_fmul ; 0x4c5e
        0x00006c36:    492a        *I      LDR      r1,[pc,#168] ; [0x6ce0] = 0x3d59b5ac
        0x00006c38:    f7fdffb8    ....    BL       __aeabi_fadd ; 0x4bac
        0x00006c3c:    4631        1F      MOV      r1,r6
        0x00006c3e:    f7fef80e    ....    BL       __aeabi_fmul ; 0x4c5e
        0x00006c42:    4928        (I      LDR      r1,[pc,#160] ; [0x6ce4] = 0x3e08a135
        0x00006c44:    f7fdffb2    ....    BL       __aeabi_fadd ; 0x4bac
        0x00006c48:    4631        1F      MOV      r1,r6
        0x00006c4a:    f7fef808    ....    BL       __aeabi_fmul ; 0x4c5e
        0x00006c4e:    4926        &I      LDR      r1,[pc,#152] ; [0x6ce8] = 0x3eaaaa29
        0x00006c50:    f7fdffac    ....    BL       __aeabi_fadd ; 0x4bac
        0x00006c54:    4631        1F      MOV      r1,r6
        0x00006c56:    f7fef802    ....    BL       __aeabi_fmul ; 0x4c5e
        0x00006c5a:    4621        !F      MOV      r1,r4
        0x00006c5c:    f7fdffff    ....    BL       __aeabi_fmul ; 0x4c5e
        0x00006c60:    4621        !F      MOV      r1,r4
        0x00006c62:    f7fdffa3    ....    BL       __aeabi_fadd ; 0x4bac
        0x00006c66:    07e9        ..      LSLS     r1,r5,#31
        0x00006c68:    d003        ..      BEQ      0x6c72 ; tanf + 242
        0x00006c6a:    4601        .F      MOV      r1,r0
        0x00006c6c:    481f        .H      LDR      r0,[pc,#124] ; [0x6cec] = 0xbf800000
        0x00006c6e:    f7fef833    ..3.    BL       __aeabi_fdiv ; 0x4cd8
        0x00006c72:    b003        ..      ADD      sp,sp,#0xc
        0x00006c74:    bdf0        ..      POP      {r4-r7,pc}
        0x00006c76:    4610        .F      MOV      r0,r2
        0x00006c78:    f7fff8b2    ....    BL       __mathlib_rredf2 ; 0x5de0
        0x00006c7c:    e7c3        ..      B        0x6c06 ; tanf + 134
        0x00006c7e:    21ff        .!      MOVS     r1,#0xff
        0x00006c80:    0060        `.      LSLS     r0,r4,#1
        0x00006c82:    0609        ..      LSLS     r1,r1,#24
        0x00006c84:    4288        .B      CMP      r0,r1
        0x00006c86:    d209        ..      BCS      0x6c9c ; tanf + 284
        0x00006c88:    4620         F      MOV      r0,r4
        0x00006c8a:    f7fefd4d    ..M.    BL       __ARM_fpclassifyf ; 0x5728
        0x00006c8e:    2804        .(      CMP      r0,#4
        0x00006c90:    d101        ..      BNE      0x6c96 ; tanf + 278
        0x00006c92:    f7fff89e    ....    BL       __mathlib_flt_underflow ; 0x5dd2
        0x00006c96:    4620         F      MOV      r0,r4
        0x00006c98:    b003        ..      ADD      sp,sp,#0xc
        0x00006c9a:    bdf0        ..      POP      {r4-r7,pc}
        0x00006c9c:    4288        .B      CMP      r0,r1
        0x00006c9e:    d106        ..      BNE      0x6cae ; tanf + 302
        0x00006ca0:    2001        .       MOVS     r0,#1
        0x00006ca2:    f7fff96d    ..m.    BL       __set_errno ; 0x5f80
        0x00006ca6:    f7fff88e    ....    BL       __mathlib_flt_invalid ; 0x5dc6
        0x00006caa:    b003        ..      ADD      sp,sp,#0xc
        0x00006cac:    bdf0        ..      POP      {r4-r7,pc}
        0x00006cae:    4620         F      MOV      r0,r4
        0x00006cb0:    f7fff880    ....    BL       __mathlib_flt_infnan ; 0x5db4
        0x00006cb4:    b003        ..      ADD      sp,sp,#0xc
        0x00006cb6:    bdf0        ..      POP      {r4-r7,pc}
    $d
        0x00006cb8:    7e921fb6    ...~    DCD    2123505590
        0x00006cbc:    46490e49    I.IF    DCD    1179192905
        0x00006cc0:    3f22f983    .."?    DCD    1059256707
        0x00006cc4:    2c34611a    .a4,    DCD    741630234
        0x00006cc8:    33a22000    . .3    DCD    866263040
        0x00006ccc:    39fda000    ...9    DCD    972922880
        0x00006cd0:    3fc90000    ...?    DCD    1070137344
        0x00006cd4:    3c22e9bb    .."<    DCD    1008921019
        0x00006cd8:    3b066d0c    .m.;    DCD    990276876
        0x00006cdc:    3cce768a    .v.<    DCD    1020163722
        0x00006ce0:    3d59b5ac    ..Y=    DCD    1029289388
        0x00006ce4:    3e08a135    5..>    DCD    1040752949
        0x00006ce8:    3eaaaa29    )..>    DCD    1051372073
        0x00006cec:    bf800000    ....    DCD    3212836864
    $d.realdata
    .constdata
    TX_ADDRESS_DEF
        0x00006cf0:    cccccccc    ....    DCD    3435973836
        0x00006cf4:    000000cc    ....    DCD    204
    .constdata
    C
        0x00006cf8:    5555554c    LUUU    DCD    1431655756
        0x00006cfc:    3fa55555    UU.?    DCD    1067799893
        0x00006d00:    16c15177    wQ..    DCD    381768055
        0x00006d04:    bf56c16c    l.V.    DCD    3210133868
        0x00006d08:    19cb1590    ....    DCD    432739728
        0x00006d0c:    3efa01a0    ...>    DCD    1056571808
        0x00006d10:    809c52ad    .R..    DCD    2157728429
        0x00006d14:    be927e4f    O~..    DCD    3197271631
        0x00006d18:    bdb4b1c4    ....    DCD    3182735812
        0x00006d1c:    3e21ee9e    ..!>    DCD    1042411166
        0x00006d20:    be8838d4    .8..    DCD    3196598484
        0x00006d24:    bda8fae9    ....    DCD    3181968105
    .constdata
    pio2s
        0x00006d28:    54400000    ..@T    DCD    1413480448
        0x00006d2c:    3ff921fb    .!.?    DCD    1073291771
        0x00006d30:    1a626331    1cb.    DCD    442655537
        0x00006d34:    3dd0b461    a..=    DCD    1037087841
        0x00006d38:    1a600000    ..`.    DCD    442499072
        0x00006d3c:    3dd0b461    a..=    DCD    1037087841
        0x00006d40:    2e037073    sp..    DCD    771977331
        0x00006d44:    3ba3198a    ...;    DCD    1000544650
        0x00006d48:    2e000000    ....    DCD    771751936
        0x00006d4c:    3ba3198a    ...;    DCD    1000544650
        0x00006d50:    252049c1    .I %    DCD    622873025
        0x00006d54:    397b839a    ..{9    DCD    964395930
    twooverpi
        0x00006d58:    00000000    ....    DCD    0
        0x00006d5c:    00000000    ....    DCD    0
        0x00006d60:    a2f9836e    n...    DCD    2734261102
        0x00006d64:    4e441529    ).DN    DCD    1313084713
        0x00006d68:    fc2757d1    .W'.    DCD    4230436817
        0x00006d6c:    f534ddc0    ..4.    DCD    4113882560
        0x00006d70:    db629599    ..b.    DCD    3680671129
        0x00006d74:    3c439041    A.C<    DCD    1011060801
        0x00006d78:    fe5163ab    .cQ.    DCD    4266746795
        0x00006d7c:    debbc561    a...    DCD    3736847713
        0x00006d80:    b7246e3a    :n$.    DCD    3072618042
        0x00006d84:    424dd2e0    ..MB    DCD    1112396512
        0x00006d88:    06492eea    ..I.    DCD    105459434
        0x00006d8c:    09d1921c    ....    DCD    164729372
        0x00006d90:    fe1deb1c    ....    DCD    4263373596
        0x00006d94:    b129a73e    >.).    DCD    2972297022
        0x00006d98:    e88235f5    .5..    DCD    3900847605
        0x00006d9c:    2ebb4484    .D..    DCD    784024708
        0x00006da0:    e99c7026    &p..    DCD    3919343654
        0x00006da4:    b45f7e41    A~_.    DCD    3026157121
        0x00006da8:    3991d639    9..9    DCD    965858873
        0x00006dac:    835339f4    .9S.    DCD    2203269620
        0x00006db0:    9c845f8b    ._..    DCD    2625920907
        0x00006db4:    bdf9283b    ;(..    DCD    3187222587
        0x00006db8:    1ff897ff    ....    DCD    536385535
        0x00006dbc:    de05980f    ....    DCD    3724908559
        0x00006dc0:    ef2f118b    ../.    DCD    4012839307
        0x00006dc4:    5a0a6d1f    .m.Z    DCD    1510632735
        0x00006dc8:    6d367ecf    .~6m    DCD    1832287951
        0x00006dcc:    27cb09b7    ...'    DCD    667617719
        0x00006dd0:    4f463f66    f?FO    DCD    1330003814
        0x00006dd4:    9e5fea2d    -._.    DCD    2657085997
        0x00006dd8:    7527bac7    ..'u    DCD    1965537991
        0x00006ddc:    ebe5f17b    {...    DCD    3957715323
        0x00006de0:    3d0739f7    .9.=    DCD    1023883767
        0x00006de4:    8a5292ea    ..R.    DCD    2320667370
        0x00006de8:    6bfb5fb1    ._.k    DCD    1811636145
        0x00006dec:    1f8d5d08    .]..    DCD    529358088
    .constdata
    twooverpi
        0x00006df0:    00000000    ....    DCD    0
        0x00006df4:    a2f9836e    n...    DCD    2734261102
        0x00006df8:    4e441529    ).DN    DCD    1313084713
        0x00006dfc:    fc2757d1    .W'.    DCD    4230436817
        0x00006e00:    f534ddc0    ..4.    DCD    4113882560
        0x00006e04:    db629599    ..b.    DCD    3680671129
        0x00006e08:    3c439041    A.C<    DCD    1011060801
        0x00006e0c:    fe5163ab    .cQ.    DCD    4266746795
    .constdata
    S
        0x00006e10:    1110f8a6    ....    DCD    286324902
        0x00006e14:    3f811111    ...?    DCD    1065423121
        0x00006e18:    19c161d5    .a..    DCD    432103893
        0x00006e1c:    bf2a01a0    ..*.    DCD    3207201184
        0x00006e20:    57b1fe7d    }..W    DCD    1471282813
        0x00006e24:    3ec71de3    ...>    DCD    1053236707
        0x00006e28:    8a2b9ceb    ..+.    DCD    2318114027
        0x00006e2c:    be5ae5e6    ..Z.    DCD    3193628134
        0x00006e30:    5acfd57c    |..Z    DCD    1523570044
        0x00006e34:    3de5d93a    :..=    DCD    1038473530
    .conststring
        0x00006e38:    69726570    peri    DCD    1769104752
        0x00006e3c:    3a30646f    od0:    DCD    976249967
        0x00006e40:    202c6425    %d,     DCD    539780133
        0x00006e44:    69726570    peri    DCD    1769104752
        0x00006e48:    3a31646f    od1:    DCD    976315503
        0x00006e4c:    202c6425    %d,     DCD    539780133
        0x00006e50:    69726570    peri    DCD    1769104752
        0x00006e54:    3a32646f    od2:    DCD    976381039
        0x00006e58:    202c6425    %d,     DCD    539780133
        0x00006e5c:    69726570    peri    DCD    1769104752
        0x00006e60:    3a33646f    od3:    DCD    976446575
        0x00006e64:    202c6425    %d,     DCD    539780133
        0x00006e68:    6f746f6d    moto    DCD    1869901677
        0x00006e6c:    75645f72    r_du    DCD    1969512306
        0x00006e70:    725f7974    ty_r    DCD    1918859636
        0x00006e74:    65676e61    ange    DCD    1701277281
        0x00006e78:    0a64253a    :%d.    DCD    174335290
        0x00006e7c:    00000000    ....    DCD    0
    Region$$Table$$Base
        0x00006e80:    00006ea0    .n..    DCD    28320
        0x00006e84:    20000000    ...     DCD    536870912
        0x00006e88:    00000120     ...    DCD    288
        0x00006e8c:    00005f60    `_..    DCD    24416
        0x00006e90:    00006fc0    .o..    DCD    28608
        0x00006e94:    20000120     ..     DCD    536871200
        0x00006e98:    000006c0    ....    DCD    1728
        0x00006e9c:    00005f70    p_..    DCD    24432
    Region$$Table$$Limit

** Section #2 'ER_RW' (SHT_PROGBITS) [SHF_ALLOC + SHF_WRITE]
    Size   : 288 bytes (alignment 4)
    Address: 0x20000000


** Section #3 'ER_ZI' (SHT_NOBITS) [SHF_ALLOC + SHF_WRITE]
    Size   : 1728 bytes (alignment 4)
    Address: 0x20000120


** Section #4 '.debug_abbrev' (SHT_PROGBITS)
    Size   : 1476 bytes


** Section #5 '.debug_frame' (SHT_PROGBITS)
    Size   : 7592 bytes


** Section #6 '.debug_info' (SHT_PROGBITS)
    Size   : 58240 bytes


** Section #7 '.debug_line' (SHT_PROGBITS)
    Size   : 23292 bytes


** Section #8 '.debug_loc' (SHT_PROGBITS)
    Size   : 15980 bytes


** Section #9 '.debug_macinfo' (SHT_PROGBITS)
    Size   : 154424 bytes


** Section #10 '.debug_pubnames' (SHT_PROGBITS)
    Size   : 6100 bytes


** Section #11 '.symtab' (SHT_SYMTAB)
    Size   : 14672 bytes (alignment 4)
    String table #12 '.strtab'
    Last local symbol no. 500


** Section #12 '.strtab' (SHT_STRTAB)
    Size   : 11020 bytes


** Section #13 '.note' (SHT_NOTE)
    Size   : 28 bytes (alignment 4)


** Section #14 '.comment' (SHT_PROGBITS)
    Size   : 55632 bytes


** Section #15 '.shstrtab' (SHT_STRTAB)
    Size   : 156 bytes


