
========================================================================

** ELF Header Information

    File Name: .\output\HD_Drone.axf

    Machine class: ELFCLASS32 (32-bit)
    Data encoding: ELFDATA2LSB (Little endian)
    Header version: EV_CURRENT (Current version)
    Operating System ABI: none
    ABI Version: 0
    File Type: ET_EXEC (Executable) (2)
    Machine: EM_ARM (ARM)

    Image Entry point: 0x000012cd
    Flags: EF_ARM_HASENTRY + EF_ARM_ABI_FLOAT_SOFT (0x05000202)

    ARM ELF revision: 5 (ABI version 2)

    Conforms to Soft float procedure-call standard

    Built with
    Component: ARM Compiler 5.06 update 2 (build 183) Tool: armasm [4d35b2]
    Component: ARM Compiler 5.06 update 2 (build 183) Tool: armlink [4d35b7]

    Header size: 52 bytes (0x34)
    Program header entry size: 32 bytes (0x20)
    Section header entry size: 40 bytes (0x28)

    Program header entries: 1
    Section header entries: 16

    Program header offset: 376572 (0x0005befc)
    Section header offset: 376604 (0x0005bf1c)

    Section header string table index: 15

========================================================================

** Program header #0 (PT_LOAD) [PF_X + PF_W + PF_R + PF_ARM_ENTRY]
    Size : 29908 bytes (28256 bytes in file)
    Virtual address: 0x00000000 (Alignment 8)


========================================================================

** Section #1 'ER_RO' (SHT_PROGBITS) [SHF_ALLOC + SHF_EXECINSTR]
    Size   : 28040 bytes (alignment 8)
    Address: 0x00000000

    $d.realdata
    RESET
    __Vectors
        0x00000000:    20000dfc    ...     DCD    536874492
        0x00000004:    000012cd    ....    DCD    4813
        0x00000008:    000012d1    ....    DCD    4817
        0x0000000c:    000000d5    ....    DCD    213
        0x00000010:    00000000    ....    DCD    0
        0x00000014:    00000000    ....    DCD    0
        0x00000018:    00000000    ....    DCD    0
        0x0000001c:    00000000    ....    DCD    0
        0x00000020:    00000000    ....    DCD    0
        0x00000024:    00000000    ....    DCD    0
        0x00000028:    00000000    ....    DCD    0
        0x0000002c:    000012d5    ....    DCD    4821
        0x00000030:    00000000    ....    DCD    0
        0x00000034:    00000000    ....    DCD    0
        0x00000038:    000012d7    ....    DCD    4823
        0x0000003c:    00001107    ....    DCD    4359
        0x00000040:    000012db    ....    DCD    4827
        0x00000044:    000012db    ....    DCD    4827
        0x00000048:    000012db    ....    DCD    4827
        0x0000004c:    000012db    ....    DCD    4827
        0x00000050:    000012db    ....    DCD    4827
        0x00000054:    000012db    ....    DCD    4827
        0x00000058:    000012db    ....    DCD    4827
        0x0000005c:    000012db    ....    DCD    4827
        0x00000060:    000012db    ....    DCD    4827
        0x00000064:    00001eab    ....    DCD    7851
        0x00000068:    000012db    ....    DCD    4827
        0x0000006c:    000012db    ....    DCD    4827
        0x00000070:    000038a5    .8..    DCD    14501
        0x00000074:    000012db    ....    DCD    4827
        0x00000078:    000012db    ....    DCD    4827
        0x0000007c:    000012db    ....    DCD    4827
        0x00000080:    000012db    ....    DCD    4827
        0x00000084:    000012db    ....    DCD    4827
        0x00000088:    000012db    ....    DCD    4827
        0x0000008c:    000012db    ....    DCD    4827
        0x00000090:    000012db    ....    DCD    4827
        0x00000094:    000012db    ....    DCD    4827
        0x00000098:    000012db    ....    DCD    4827
        0x0000009c:    000012db    ....    DCD    4827
        0x000000a0:    000012db    ....    DCD    4827
        0x000000a4:    000012db    ....    DCD    4827
        0x000000a8:    000012db    ....    DCD    4827
        0x000000ac:    000012db    ....    DCD    4827
        0x000000b0:    000012db    ....    DCD    4827
        0x000000b4:    000012db    ....    DCD    4827
        0x000000b8:    000012db    ....    DCD    4827
        0x000000bc:    000012db    ....    DCD    4827
    $t
    .ARM.Collect$$$$00000000
    .ARM.Collect$$$$00000001
    __main
    _main_stk
        0x000000c0:    4803        .H      LDR      r0,__lit__00000000 ; [0xd0] = 0x20000dfc
        0x000000c2:    4685        .F      MOV      sp,r0
    .ARM.Collect$$$$00000004
    _main_scatterload
        0x000000c4:    f005f850    ..P.    BL       __scatterload ; 0x5168
    .ARM.Collect$$$$00000008
    .ARM.Collect$$$$0000000A
    .ARM.Collect$$$$0000000B
    __main_after_scatterload
    _main_clock
    _main_cpp_init
    _main_init
        0x000000c8:    4800        .H      LDR      r0,[pc,#0] ; [0xcc] = 0x1245
        0x000000ca:    4700        .G      BX       r0
    $d
        0x000000cc:    00001245    E...    DCD    4677
    .ARM.Collect$$$$00002712
    __lit__00000000
    .ARM.Collect$$$$0000000D
    .ARM.Collect$$$$0000000F
    __rt_final_cpp
    __rt_final_exit
        0x000000d0:    20000dfc    ...     DCD    536874492
    $t
    .emb_text
    HardFault_Handler
        0x000000d4:    2004        .       MOVS     r0,#4
        0x000000d6:    4671        qF      MOV      r1,lr
        0x000000d8:    4208        .B      TST      r0,r1
        0x000000da:    d002        ..      BEQ      0xe2 ; HardFault_Handler + 14
        0x000000dc:    f3ef8009    ....    MRS      r0,PSP
        0x000000e0:    e001        ..      B        0xe6 ; HardFault_Handler + 18
        0x000000e2:    f3ef8008    ....    MRS      r0,MSP
        0x000000e6:    4671        qF      MOV      r1,lr
        0x000000e8:    4a00        .J      LDR      r2,[pc,#0] ; [0xec] = 0x3d9f
        0x000000ea:    4710        .G      BX       r2
    $d
        0x000000ec:    00003d9f    .=..    DCD    15775
    $t
    .text
    configure_fifo
        0x000000f0:    b510        ..      PUSH     {r4,lr}
        0x000000f2:    22c0        ."      MOVS     r2,#0xc0
        0x000000f4:    2147        G!      MOVS     r1,#0x47
        0x000000f6:    20d0        .       MOVS     r0,#0xd0
        0x000000f8:    f002fed0    ....    BL       I2C_WriteByte ; 0x2e9c
        0x000000fc:    217d        }!      MOVS     r1,#0x7d
        0x000000fe:    00c9        ..      LSLS     r1,r1,#3
        0x00000100:    48fb        .H      LDR      r0,[pc,#1004] ; [0x4f0] = 0x40010000
        0x00000102:    f003ff23    ..#.    BL       TIMER_Delay ; 0x3f4c
        0x00000106:    22b0        ."      MOVS     r2,#0xb0
        0x00000108:    217e        ~!      MOVS     r1,#0x7e
        0x0000010a:    20d0        .       MOVS     r0,#0xd0
        0x0000010c:    f002fec6    ....    BL       I2C_WriteByte ; 0x2e9c
        0x00000110:    2001        .       MOVS     r0,#1
        0x00000112:    bd10        ..      POP      {r4,pc}
    configure_gyro
        0x00000114:    b570        p.      PUSH     {r4-r6,lr}
        0x00000116:    222c        ,"      MOVS     r2,#0x2c
        0x00000118:    2142        B!      MOVS     r1,#0x42
        0x0000011a:    20d0        .       MOVS     r0,#0xd0
        0x0000011c:    f002febe    ....    BL       I2C_WriteByte ; 0x2e9c
        0x00000120:    247d        }$      MOVS     r4,#0x7d
        0x00000122:    4df3        .M      LDR      r5,[pc,#972] ; [0x4f0] = 0x40010000
        0x00000124:    00e4        ..      LSLS     r4,r4,#3
        0x00000126:    4621        !F      MOV      r1,r4
        0x00000128:    4628        (F      MOV      r0,r5
        0x0000012a:    f003ff0f    ....    BL       TIMER_Delay ; 0x3f4c
        0x0000012e:    2201        ."      MOVS     r2,#1
        0x00000130:    2143        C!      MOVS     r1,#0x43
        0x00000132:    20d0        .       MOVS     r0,#0xd0
        0x00000134:    f002feb2    ....    BL       I2C_WriteByte ; 0x2e9c
        0x00000138:    4621        !F      MOV      r1,r4
        0x0000013a:    4628        (F      MOV      r0,r5
        0x0000013c:    f003ff06    ....    BL       TIMER_Delay ; 0x3f4c
        0x00000140:    49ed        .I      LDR      r1,[pc,#948] ; [0x4f8] = 0x20000000
        0x00000142:    48ec        .H      LDR      r0,[pc,#944] ; [0x4f4] = 0x3cfa0000
        0x00000144:    6048        H`      STR      r0,[r1,#4]
        0x00000146:    2001        .       MOVS     r0,#1
        0x00000148:    bd70        p.      POP      {r4-r6,pc}
    configure_accel
        0x0000014a:    b570        p.      PUSH     {r4-r6,lr}
        0x0000014c:    222c        ,"      MOVS     r2,#0x2c
        0x0000014e:    2140        @!      MOVS     r1,#0x40
        0x00000150:    20d0        .       MOVS     r0,#0xd0
        0x00000152:    f002fea3    ....    BL       I2C_WriteByte ; 0x2e9c
        0x00000156:    247d        }$      MOVS     r4,#0x7d
        0x00000158:    4de5        .M      LDR      r5,[pc,#916] ; [0x4f0] = 0x40010000
        0x0000015a:    00e4        ..      LSLS     r4,r4,#3
        0x0000015c:    4621        !F      MOV      r1,r4
        0x0000015e:    4628        (F      MOV      r0,r5
        0x00000160:    f003fef4    ....    BL       TIMER_Delay ; 0x3f4c
        0x00000164:    2205        ."      MOVS     r2,#5
        0x00000166:    2141        A!      MOVS     r1,#0x41
        0x00000168:    20d0        .       MOVS     r0,#0xd0
        0x0000016a:    f002fe97    ....    BL       I2C_WriteByte ; 0x2e9c
        0x0000016e:    4621        !F      MOV      r1,r4
        0x00000170:    4628        (F      MOV      r0,r5
        0x00000172:    f003feeb    ....    BL       TIMER_Delay ; 0x3f4c
        0x00000176:    49e0        .I      LDR      r1,[pc,#896] ; [0x4f8] = 0x20000000
        0x00000178:    48e0        .H      LDR      r0,[pc,#896] ; [0x4fc] = 0x3a9ce80a
        0x0000017a:    6008        .`      STR      r0,[r1,#0]
        0x0000017c:    2001        .       MOVS     r0,#1
        0x0000017e:    bd70        p.      POP      {r4-r6,pc}
    bmi160_init
        0x00000180:    b5f8        ..      PUSH     {r3-r7,lr}
        0x00000182:    4ddb        .M      LDR      r5,[pc,#876] ; [0x4f0] = 0x40010000
        0x00000184:    2600        .&      MOVS     r6,#0
        0x00000186:    4634        4F      MOV      r4,r6
        0x00000188:    49dd        .I      LDR      r1,[pc,#884] ; [0x500] = 0x2710
        0x0000018a:    4628        (F      MOV      r0,r5
        0x0000018c:    f003fede    ....    BL       TIMER_Delay ; 0x3f4c
        0x00000190:    277d        }'      MOVS     r7,#0x7d
        0x00000192:    017f        ..      LSLS     r7,r7,#5
        0x00000194:    22b6        ."      MOVS     r2,#0xb6
        0x00000196:    217e        ~!      MOVS     r1,#0x7e
        0x00000198:    20d0        .       MOVS     r0,#0xd0
        0x0000019a:    f002fe7f    ....    BL       I2C_WriteByte ; 0x2e9c
        0x0000019e:    49d9        .I      LDR      r1,[pc,#868] ; [0x504] = 0x186a0
        0x000001a0:    4628        (F      MOV      r0,r5
        0x000001a2:    f003fed3    ....    BL       TIMER_Delay ; 0x3f4c
        0x000001a6:    2100        .!      MOVS     r1,#0
        0x000001a8:    20d0        .       MOVS     r0,#0xd0
        0x000001aa:    f002fec2    ....    BL       I2C_ReadByte ; 0x2f32
        0x000001ae:    28d1        .(      CMP      r0,#0xd1
        0x000001b0:    d11f        ..      BNE      0x1f2 ; bmi160_init + 114
        0x000001b2:    2211        ."      MOVS     r2,#0x11
        0x000001b4:    217e        ~!      MOVS     r1,#0x7e
        0x000001b6:    20d0        .       MOVS     r0,#0xd0
        0x000001b8:    f002fe70    ..p.    BL       I2C_WriteByte ; 0x2e9c
        0x000001bc:    4639        9F      MOV      r1,r7
        0x000001be:    4628        (F      MOV      r0,r5
        0x000001c0:    f003fec4    ....    BL       TIMER_Delay ; 0x3f4c
        0x000001c4:    2215        ."      MOVS     r2,#0x15
        0x000001c6:    217e        ~!      MOVS     r1,#0x7e
        0x000001c8:    20d0        .       MOVS     r0,#0xd0
        0x000001ca:    f002fe67    ..g.    BL       I2C_WriteByte ; 0x2e9c
        0x000001ce:    49ce        .I      LDR      r1,[pc,#824] ; [0x508] = 0x13c68
        0x000001d0:    4628        (F      MOV      r0,r5
        0x000001d2:    f003febb    ....    BL       TIMER_Delay ; 0x3f4c
        0x000001d6:    f7ffffb8    ....    BL       configure_accel ; 0x14a
        0x000001da:    2800        .(      CMP      r0,#0
        0x000001dc:    d009        ..      BEQ      0x1f2 ; bmi160_init + 114
        0x000001de:    f7ffff99    ....    BL       configure_gyro ; 0x114
        0x000001e2:    2800        .(      CMP      r0,#0
        0x000001e4:    d005        ..      BEQ      0x1f2 ; bmi160_init + 114
        0x000001e6:    f7ffff83    ....    BL       configure_fifo ; 0xf0
        0x000001ea:    2800        .(      CMP      r0,#0
        0x000001ec:    d001        ..      BEQ      0x1f2 ; bmi160_init + 114
        0x000001ee:    2601        .&      MOVS     r6,#1
        0x000001f0:    e003        ..      B        0x1fa ; bmi160_init + 122
        0x000001f2:    1c64        d.      ADDS     r4,r4,#1
        0x000001f4:    b2e4        ..      UXTB     r4,r4
        0x000001f6:    2c05        .,      CMP      r4,#5
        0x000001f8:    d3cc        ..      BCC      0x194 ; bmi160_init + 20
        0x000001fa:    4630        0F      MOV      r0,r6
        0x000001fc:    bdf8        ..      POP      {r3-r7,pc}
    read_fifo
        0x000001fe:    b5f1        ..      PUSH     {r0,r4-r7,lr}
        0x00000200:    b0de        ..      SUB      sp,sp,#0x178
        0x00000202:    2000        .       MOVS     r0,#0
        0x00000204:    901a        ..      STR      r0,[sp,#0x68]
        0x00000206:    9016        ..      STR      r0,[sp,#0x58]
        0x00000208:    9018        ..      STR      r0,[sp,#0x60]
        0x0000020a:    9015        ..      STR      r0,[sp,#0x54]
        0x0000020c:    9011        ..      STR      r0,[sp,#0x44]
        0x0000020e:    9019        ..      STR      r0,[sp,#0x64]
        0x00000210:    9017        ..      STR      r0,[sp,#0x5c]
        0x00000212:    9010        ..      STR      r0,[sp,#0x40]
        0x00000214:    9013        ..      STR      r0,[sp,#0x4c]
        0x00000216:    901b        ..      STR      r0,[sp,#0x6c]
        0x00000218:    48bc        .H      LDR      r0,[pc,#752] ; [0x50c] = 0x6b9c
        0x0000021a:    2302        .#      MOVS     r3,#2
        0x0000021c:    c806        ..      LDM      r0!,{r1,r2}
        0x0000021e:    9201        ..      STR      r2,[sp,#4]
        0x00000220:    9100        ..      STR      r1,[sp,#0]
        0x00000222:    6842        Bh      LDR      r2,[r0,#4]
        0x00000224:    6801        .h      LDR      r1,[r0,#0]
        0x00000226:    9203        ..      STR      r2,[sp,#0xc]
        0x00000228:    9102        ..      STR      r1,[sp,#8]
        0x0000022a:    68c1        .h      LDR      r1,[r0,#0xc]
        0x0000022c:    6880        .h      LDR      r0,[r0,#8]
        0x0000022e:    9105        ..      STR      r1,[sp,#0x14]
        0x00000230:    49b6        .I      LDR      r1,[pc,#728] ; [0x50c] = 0x6b9c
        0x00000232:    9004        ..      STR      r0,[sp,#0x10]
        0x00000234:    6988        .i      LDR      r0,[r1,#0x18]
        0x00000236:    69c9        .i      LDR      r1,[r1,#0x1c]
        0x00000238:    9006        ..      STR      r0,[sp,#0x18]
        0x0000023a:    48b4        .H      LDR      r0,[pc,#720] ; [0x50c] = 0x6b9c
        0x0000023c:    9107        ..      STR      r1,[sp,#0x1c]
        0x0000023e:    4601        .F      MOV      r1,r0
        0x00000240:    6a42        Bj      LDR      r2,[r0,#0x24]
        0x00000242:    6a00        .j      LDR      r0,[r0,#0x20]
        0x00000244:    3120         1      ADDS     r1,r1,#0x20
        0x00000246:    9209        ..      STR      r2,[sp,#0x24]
        0x00000248:    9008        ..      STR      r0,[sp,#0x20]
        0x0000024a:    68ca        .h      LDR      r2,[r1,#0xc]
        0x0000024c:    6888        .h      LDR      r0,[r1,#8]
        0x0000024e:    920b        ..      STR      r2,[sp,#0x2c]
        0x00000250:    900a        ..      STR      r0,[sp,#0x28]
        0x00000252:    6908        .i      LDR      r0,[r1,#0x10]
        0x00000254:    6949        Ii      LDR      r1,[r1,#0x14]
        0x00000256:    910d        ..      STR      r1,[sp,#0x34]
        0x00000258:    49ac        .I      LDR      r1,[pc,#688] ; [0x50c] = 0x6b9c
        0x0000025a:    900c        ..      STR      r0,[sp,#0x30]
        0x0000025c:    6b88        .k      LDR      r0,[r1,#0x38]
        0x0000025e:    6bc9        .k      LDR      r1,[r1,#0x3c]
        0x00000260:    900e        ..      STR      r0,[sp,#0x38]
        0x00000262:    2000        .       MOVS     r0,#0
        0x00000264:    901d        ..      STR      r0,[sp,#0x74]
        0x00000266:    2001        .       MOVS     r0,#1
        0x00000268:    910f        ..      STR      r1,[sp,#0x3c]
        0x0000026a:    901c        ..      STR      r0,[sp,#0x70]
        0x0000026c:    aa10        ..      ADD      r2,sp,#0x40
        0x0000026e:    2122        "!      MOVS     r1,#0x22
        0x00000270:    20d0        .       MOVS     r0,#0xd0
        0x00000272:    f002fece    ....    BL       I2C_SequentialRead ; 0x3012
        0x00000276:    a810        ..      ADD      r0,sp,#0x40
        0x00000278:    7840        @x      LDRB     r0,[r0,#1]
        0x0000027a:    0740        @.      LSLS     r0,r0,#29
        0x0000027c:    0d44        D.      LSRS     r4,r0,#21
        0x0000027e:    a810        ..      ADD      r0,sp,#0x40
        0x00000280:    7800        .x      LDRB     r0,[r0,#0]
        0x00000282:    4304        .C      ORRS     r4,r4,r0
        0x00000284:    d009        ..      BEQ      0x29a ; read_fifo + 156
        0x00000286:    985e        ^.      LDR      r0,[sp,#0x178]
        0x00000288:    3080        .0      ADDS     r0,r0,#0x80
        0x0000028a:    9012        ..      STR      r0,[sp,#0x48]
        0x0000028c:    2cf0        .,      CMP      r4,#0xf0
        0x0000028e:    d908        ..      BLS      0x2a2 ; read_fifo + 164
        0x00000290:    3cf0        .<      SUBS     r4,r4,#0xf0
        0x00000292:    b2a0        ..      UXTH     r0,r4
        0x00000294:    24f0        .$      MOVS     r4,#0xf0
        0x00000296:    9014        ..      STR      r0,[sp,#0x50]
        0x00000298:    e005        ..      B        0x2a6 ; read_fifo + 168
        0x0000029a:    2000        .       MOVS     r0,#0
        0x0000029c:    901c        ..      STR      r0,[sp,#0x70]
        0x0000029e:    b05f        _.      ADD      sp,sp,#0x17c
        0x000002a0:    bdf0        ..      POP      {r4-r7,pc}
        0x000002a2:    2000        .       MOVS     r0,#0
        0x000002a4:    9014        ..      STR      r0,[sp,#0x50]
        0x000002a6:    4623        #F      MOV      r3,r4
        0x000002a8:    aa1e        ..      ADD      r2,sp,#0x78
        0x000002aa:    2124        $!      MOVS     r1,#0x24
        0x000002ac:    20d0        .       MOVS     r0,#0xd0
        0x000002ae:    f002feb0    ....    BL       I2C_SequentialRead ; 0x3012
        0x000002b2:    9814        ..      LDR      r0,[sp,#0x50]
        0x000002b4:    2800        .(      CMP      r0,#0
        0x000002b6:    d006        ..      BEQ      0x2c6 ; read_fifo + 200
        0x000002b8:    22b0        ."      MOVS     r2,#0xb0
        0x000002ba:    217e        ~!      MOVS     r1,#0x7e
        0x000002bc:    20d0        .       MOVS     r0,#0xd0
        0x000002be:    f002fded    ....    BL       I2C_WriteByte ; 0x2e9c
        0x000002c2:    2000        .       MOVS     r0,#0
        0x000002c4:    9014        ..      STR      r0,[sp,#0x50]
        0x000002c6:    210c        .!      MOVS     r1,#0xc
        0x000002c8:    4620         F      MOV      r0,r4
        0x000002ca:    f004fa6f    ..o.    BL       __aeabi_uidiv ; 0x47ac
        0x000002ce:    b2c0        ..      UXTB     r0,r0
        0x000002d0:    4684        .F      MOV      r12,r0
        0x000002d2:    9813        ..      LDR      r0,[sp,#0x4c]
        0x000002d4:    e108        ..      B        0x4e8 ; read_fifo + 746
        0x000002d6:    991b        ..      LDR      r1,[sp,#0x6c]
        0x000002d8:    a81e        ..      ADD      r0,sp,#0x78
        0x000002da:    1845        E.      ADDS     r5,r0,r1
        0x000002dc:    7868        hx      LDRB     r0,[r5,#1]
        0x000002de:    7829        )x      LDRB     r1,[r5,#0]
        0x000002e0:    0200        ..      LSLS     r0,r0,#8
        0x000002e2:    4308        .C      ORRS     r0,r0,r1
        0x000002e4:    b204        ..      SXTH     r4,r0
        0x000002e6:    9812        ..      LDR      r0,[sp,#0x48]
        0x000002e8:    8284        ..      STRH     r4,[r0,#0x14]
        0x000002ea:    78e8        .x      LDRB     r0,[r5,#3]
        0x000002ec:    78a9        .x      LDRB     r1,[r5,#2]
        0x000002ee:    0200        ..      LSLS     r0,r0,#8
        0x000002f0:    4308        .C      ORRS     r0,r0,r1
        0x000002f2:    b203        ..      SXTH     r3,r0
        0x000002f4:    9812        ..      LDR      r0,[sp,#0x48]
        0x000002f6:    82c3        ..      STRH     r3,[r0,#0x16]
        0x000002f8:    7968        hy      LDRB     r0,[r5,#5]
        0x000002fa:    7929        )y      LDRB     r1,[r5,#4]
        0x000002fc:    0200        ..      LSLS     r0,r0,#8
        0x000002fe:    4308        .C      ORRS     r0,r0,r1
        0x00000300:    b202        ..      SXTH     r2,r0
        0x00000302:    9812        ..      LDR      r0,[sp,#0x48]
        0x00000304:    8302        ..      STRH     r2,[r0,#0x18]
        0x00000306:    79e8        .y      LDRB     r0,[r5,#7]
        0x00000308:    79a9        .y      LDRB     r1,[r5,#6]
        0x0000030a:    0200        ..      LSLS     r0,r0,#8
        0x0000030c:    4308        .C      ORRS     r0,r0,r1
        0x0000030e:    b201        ..      SXTH     r1,r0
        0x00000310:    985e        ^.      LDR      r0,[sp,#0x178]
        0x00000312:    8001        ..      STRH     r1,[r0,#0]
        0x00000314:    7a68        hz      LDRB     r0,[r5,#9]
        0x00000316:    7a2e        .z      LDRB     r6,[r5,#8]
        0x00000318:    0200        ..      LSLS     r0,r0,#8
        0x0000031a:    4330        0C      ORRS     r0,r0,r6
        0x0000031c:    9e5e        ^.      LDR      r6,[sp,#0x178]
        0x0000031e:    b200        ..      SXTH     r0,r0
        0x00000320:    8070        p.      STRH     r0,[r6,#2]
        0x00000322:    7aee        .z      LDRB     r6,[r5,#0xb]
        0x00000324:    7aad        .z      LDRB     r5,[r5,#0xa]
        0x00000326:    0236        6.      LSLS     r6,r6,#8
        0x00000328:    432e        .C      ORRS     r6,r6,r5
        0x0000032a:    b235        5.      SXTH     r5,r6
        0x0000032c:    9e5e        ^.      LDR      r6,[sp,#0x178]
        0x0000032e:    80b5        ..      STRH     r5,[r6,#4]
        0x00000330:    9e1d        ..      LDR      r6,[sp,#0x74]
        0x00000332:    2e00        ..      CMP      r6,#0
        0x00000334:    d007        ..      BEQ      0x346 ; read_fifo + 328
        0x00000336:    466f        oF      MOV      r7,sp
        0x00000338:    2608        .&      MOVS     r6,#8
        0x0000033a:    5fbe        ._      LDRSH    r6,[r7,r6]
        0x0000033c:    42b4        .B      CMP      r4,r6
        0x0000033e:    dd1e        ..      BLE      0x37e ; read_fifo + 384
        0x00000340:    463e        >F      MOV      r6,r7
        0x00000342:    813c        <.      STRH     r4,[r7,#8]
        0x00000344:    e020         .      B        0x388 ; read_fifo + 394
        0x00000346:    2601        .&      MOVS     r6,#1
        0x00000348:    961d        ..      STR      r6,[sp,#0x74]
        0x0000034a:    466e        nF      MOV      r6,sp
        0x0000034c:    8231        1.      STRH     r1,[r6,#0x10]
        0x0000034e:    8031        1.      STRH     r1,[r6,#0]
        0x00000350:    8270        p.      STRH     r0,[r6,#0x12]
        0x00000352:    8070        p.      STRH     r0,[r6,#2]
        0x00000354:    82b5        ..      STRH     r5,[r6,#0x14]
        0x00000356:    80b5        ..      STRH     r5,[r6,#4]
        0x00000358:    8631        1.      STRH     r1,[r6,#0x30]
        0x0000035a:    8431        1.      STRH     r1,[r6,#0x20]
        0x0000035c:    8670        p.      STRH     r0,[r6,#0x32]
        0x0000035e:    8470        p.      STRH     r0,[r6,#0x22]
        0x00000360:    86b5        ..      STRH     r5,[r6,#0x34]
        0x00000362:    84b5        ..      STRH     r5,[r6,#0x24]
        0x00000364:    8334        4.      STRH     r4,[r6,#0x18]
        0x00000366:    8134        4.      STRH     r4,[r6,#8]
        0x00000368:    8373        s.      STRH     r3,[r6,#0x1a]
        0x0000036a:    8173        s.      STRH     r3,[r6,#0xa]
        0x0000036c:    83b2        ..      STRH     r2,[r6,#0x1c]
        0x0000036e:    81b2        ..      STRH     r2,[r6,#0xc]
        0x00000370:    8734        4.      STRH     r4,[r6,#0x38]
        0x00000372:    8534        4.      STRH     r4,[r6,#0x28]
        0x00000374:    8773        s.      STRH     r3,[r6,#0x3a]
        0x00000376:    8573        s.      STRH     r3,[r6,#0x2a]
        0x00000378:    87b2        ..      STRH     r2,[r6,#0x3c]
        0x0000037a:    85b2        ..      STRH     r2,[r6,#0x2c]
        0x0000037c:    e09a        ..      B        0x4b4 ; read_fifo + 694
        0x0000037e:    2618        .&      MOVS     r6,#0x18
        0x00000380:    5fbe        ._      LDRSH    r6,[r7,r6]
        0x00000382:    42b4        .B      CMP      r4,r6
        0x00000384:    dd02        ..      BLE      0x38c ; read_fifo + 398
        0x00000386:    463e        >F      MOV      r6,r7
        0x00000388:    8334        4.      STRH     r4,[r6,#0x18]
        0x0000038a:    e00c        ..      B        0x3a6 ; read_fifo + 424
        0x0000038c:    2628        (&      MOVS     r6,#0x28
        0x0000038e:    5fbe        ._      LDRSH    r6,[r7,r6]
        0x00000390:    42b4        .B      CMP      r4,r6
        0x00000392:    da02        ..      BGE      0x39a ; read_fifo + 412
        0x00000394:    463e        >F      MOV      r6,r7
        0x00000396:    853c        <.      STRH     r4,[r7,#0x28]
        0x00000398:    e004        ..      B        0x3a4 ; read_fifo + 422
        0x0000039a:    2638        8&      MOVS     r6,#0x38
        0x0000039c:    5fbe        ._      LDRSH    r6,[r7,r6]
        0x0000039e:    42b4        .B      CMP      r4,r6
        0x000003a0:    da01        ..      BGE      0x3a6 ; read_fifo + 424
        0x000003a2:    463e        >F      MOV      r6,r7
        0x000003a4:    8734        4.      STRH     r4,[r6,#0x38]
        0x000003a6:    260a        .&      MOVS     r6,#0xa
        0x000003a8:    5fbe        ._      LDRSH    r6,[r7,r6]
        0x000003aa:    42b3        .B      CMP      r3,r6
        0x000003ac:    dd02        ..      BLE      0x3b4 ; read_fifo + 438
        0x000003ae:    463e        >F      MOV      r6,r7
        0x000003b0:    817b        {.      STRH     r3,[r7,#0xa]
        0x000003b2:    e004        ..      B        0x3be ; read_fifo + 448
        0x000003b4:    261a        .&      MOVS     r6,#0x1a
        0x000003b6:    5fbe        ._      LDRSH    r6,[r7,r6]
        0x000003b8:    42b3        .B      CMP      r3,r6
        0x000003ba:    dd02        ..      BLE      0x3c2 ; read_fifo + 452
        0x000003bc:    463e        >F      MOV      r6,r7
        0x000003be:    8373        s.      STRH     r3,[r6,#0x1a]
        0x000003c0:    e00c        ..      B        0x3dc ; read_fifo + 478
        0x000003c2:    262a        *&      MOVS     r6,#0x2a
        0x000003c4:    5fbe        ._      LDRSH    r6,[r7,r6]
        0x000003c6:    42b3        .B      CMP      r3,r6
        0x000003c8:    da02        ..      BGE      0x3d0 ; read_fifo + 466
        0x000003ca:    463e        >F      MOV      r6,r7
        0x000003cc:    857b        {.      STRH     r3,[r7,#0x2a]
        0x000003ce:    e004        ..      B        0x3da ; read_fifo + 476
        0x000003d0:    263a        :&      MOVS     r6,#0x3a
        0x000003d2:    5fbe        ._      LDRSH    r6,[r7,r6]
        0x000003d4:    42b3        .B      CMP      r3,r6
        0x000003d6:    da01        ..      BGE      0x3dc ; read_fifo + 478
        0x000003d8:    463e        >F      MOV      r6,r7
        0x000003da:    8773        s.      STRH     r3,[r6,#0x3a]
        0x000003dc:    260c        .&      MOVS     r6,#0xc
        0x000003de:    5fbe        ._      LDRSH    r6,[r7,r6]
        0x000003e0:    42b2        .B      CMP      r2,r6
        0x000003e2:    dd02        ..      BLE      0x3ea ; read_fifo + 492
        0x000003e4:    463e        >F      MOV      r6,r7
        0x000003e6:    81ba        ..      STRH     r2,[r7,#0xc]
        0x000003e8:    e004        ..      B        0x3f4 ; read_fifo + 502
        0x000003ea:    261c        .&      MOVS     r6,#0x1c
        0x000003ec:    5fbe        ._      LDRSH    r6,[r7,r6]
        0x000003ee:    42b2        .B      CMP      r2,r6
        0x000003f0:    dd02        ..      BLE      0x3f8 ; read_fifo + 506
        0x000003f2:    463e        >F      MOV      r6,r7
        0x000003f4:    83b2        ..      STRH     r2,[r6,#0x1c]
        0x000003f6:    e00c        ..      B        0x412 ; read_fifo + 532
        0x000003f8:    262c        ,&      MOVS     r6,#0x2c
        0x000003fa:    5fbe        ._      LDRSH    r6,[r7,r6]
        0x000003fc:    42b2        .B      CMP      r2,r6
        0x000003fe:    da02        ..      BGE      0x406 ; read_fifo + 520
        0x00000400:    463e        >F      MOV      r6,r7
        0x00000402:    85ba        ..      STRH     r2,[r7,#0x2c]
        0x00000404:    e004        ..      B        0x410 ; read_fifo + 530
        0x00000406:    263c        <&      MOVS     r6,#0x3c
        0x00000408:    5fbe        ._      LDRSH    r6,[r7,r6]
        0x0000040a:    42b2        .B      CMP      r2,r6
        0x0000040c:    da01        ..      BGE      0x412 ; read_fifo + 532
        0x0000040e:    463e        >F      MOV      r6,r7
        0x00000410:    87b2        ..      STRH     r2,[r6,#0x3c]
        0x00000412:    2600        .&      MOVS     r6,#0
        0x00000414:    5fbe        ._      LDRSH    r6,[r7,r6]
        0x00000416:    42b1        .B      CMP      r1,r6
        0x00000418:    dd02        ..      BLE      0x420 ; read_fifo + 546
        0x0000041a:    463e        >F      MOV      r6,r7
        0x0000041c:    8039        9.      STRH     r1,[r7,#0]
        0x0000041e:    e004        ..      B        0x42a ; read_fifo + 556
        0x00000420:    2610        .&      MOVS     r6,#0x10
        0x00000422:    5fbe        ._      LDRSH    r6,[r7,r6]
        0x00000424:    42b1        .B      CMP      r1,r6
        0x00000426:    dd02        ..      BLE      0x42e ; read_fifo + 560
        0x00000428:    463e        >F      MOV      r6,r7
        0x0000042a:    8231        1.      STRH     r1,[r6,#0x10]
        0x0000042c:    e00c        ..      B        0x448 ; read_fifo + 586
        0x0000042e:    2620         &      MOVS     r6,#0x20
        0x00000430:    5fbe        ._      LDRSH    r6,[r7,r6]
        0x00000432:    42b1        .B      CMP      r1,r6
        0x00000434:    da02        ..      BGE      0x43c ; read_fifo + 574
        0x00000436:    463e        >F      MOV      r6,r7
        0x00000438:    8439        9.      STRH     r1,[r7,#0x20]
        0x0000043a:    e004        ..      B        0x446 ; read_fifo + 584
        0x0000043c:    2630        0&      MOVS     r6,#0x30
        0x0000043e:    5fbe        ._      LDRSH    r6,[r7,r6]
        0x00000440:    42b1        .B      CMP      r1,r6
        0x00000442:    da01        ..      BGE      0x448 ; read_fifo + 586
        0x00000444:    463e        >F      MOV      r6,r7
        0x00000446:    8631        1.      STRH     r1,[r6,#0x30]
        0x00000448:    2602        .&      MOVS     r6,#2
        0x0000044a:    5fbe        ._      LDRSH    r6,[r7,r6]
        0x0000044c:    42b0        .B      CMP      r0,r6
        0x0000044e:    dd02        ..      BLE      0x456 ; read_fifo + 600
        0x00000450:    463e        >F      MOV      r6,r7
        0x00000452:    8078        x.      STRH     r0,[r7,#2]
        0x00000454:    e004        ..      B        0x460 ; read_fifo + 610
        0x00000456:    2612        .&      MOVS     r6,#0x12
        0x00000458:    5fbe        ._      LDRSH    r6,[r7,r6]
        0x0000045a:    42b0        .B      CMP      r0,r6
        0x0000045c:    dd02        ..      BLE      0x464 ; read_fifo + 614
        0x0000045e:    463e        >F      MOV      r6,r7
        0x00000460:    8270        p.      STRH     r0,[r6,#0x12]
        0x00000462:    e00c        ..      B        0x47e ; read_fifo + 640
        0x00000464:    2622        "&      MOVS     r6,#0x22
        0x00000466:    5fbe        ._      LDRSH    r6,[r7,r6]
        0x00000468:    42b0        .B      CMP      r0,r6
        0x0000046a:    da02        ..      BGE      0x472 ; read_fifo + 628
        0x0000046c:    463e        >F      MOV      r6,r7
        0x0000046e:    8478        x.      STRH     r0,[r7,#0x22]
        0x00000470:    e004        ..      B        0x47c ; read_fifo + 638
        0x00000472:    2632        2&      MOVS     r6,#0x32
        0x00000474:    5fbe        ._      LDRSH    r6,[r7,r6]
        0x00000476:    42b0        .B      CMP      r0,r6
        0x00000478:    da01        ..      BGE      0x47e ; read_fifo + 640
        0x0000047a:    463e        >F      MOV      r6,r7
        0x0000047c:    8670        p.      STRH     r0,[r6,#0x32]
        0x0000047e:    2604        .&      MOVS     r6,#4
        0x00000480:    5fbe        ._      LDRSH    r6,[r7,r6]
        0x00000482:    42b5        .B      CMP      r5,r6
        0x00000484:    dd02        ..      BLE      0x48c ; read_fifo + 654
        0x00000486:    463e        >F      MOV      r6,r7
        0x00000488:    80bd        ..      STRH     r5,[r7,#4]
        0x0000048a:    e004        ..      B        0x496 ; read_fifo + 664
        0x0000048c:    2614        .&      MOVS     r6,#0x14
        0x0000048e:    5fbe        ._      LDRSH    r6,[r7,r6]
        0x00000490:    42b5        .B      CMP      r5,r6
        0x00000492:    dd02        ..      BLE      0x49a ; read_fifo + 668
        0x00000494:    463e        >F      MOV      r6,r7
        0x00000496:    82b5        ..      STRH     r5,[r6,#0x14]
        0x00000498:    e00c        ..      B        0x4b4 ; read_fifo + 694
        0x0000049a:    2624        $&      MOVS     r6,#0x24
        0x0000049c:    5fbe        ._      LDRSH    r6,[r7,r6]
        0x0000049e:    42b5        .B      CMP      r5,r6
        0x000004a0:    da02        ..      BGE      0x4a8 ; read_fifo + 682
        0x000004a2:    463e        >F      MOV      r6,r7
        0x000004a4:    84bd        ..      STRH     r5,[r7,#0x24]
        0x000004a6:    e004        ..      B        0x4b2 ; read_fifo + 692
        0x000004a8:    2634        4&      MOVS     r6,#0x34
        0x000004aa:    5fbe        ._      LDRSH    r6,[r7,r6]
        0x000004ac:    42b5        .B      CMP      r5,r6
        0x000004ae:    da01        ..      BGE      0x4b4 ; read_fifo + 694
        0x000004b0:    463e        >F      MOV      r6,r7
        0x000004b2:    86b5        ..      STRH     r5,[r6,#0x34]
        0x000004b4:    9e18        ..      LDR      r6,[sp,#0x60]
        0x000004b6:    1871        q.      ADDS     r1,r6,r1
        0x000004b8:    9118        ..      STR      r1,[sp,#0x60]
        0x000004ba:    9919        ..      LDR      r1,[sp,#0x64]
        0x000004bc:    1808        ..      ADDS     r0,r1,r0
        0x000004be:    9019        ..      STR      r0,[sp,#0x64]
        0x000004c0:    981a        ..      LDR      r0,[sp,#0x68]
        0x000004c2:    1940        @.      ADDS     r0,r0,r5
        0x000004c4:    901a        ..      STR      r0,[sp,#0x68]
        0x000004c6:    9815        ..      LDR      r0,[sp,#0x54]
        0x000004c8:    1900        ..      ADDS     r0,r0,r4
        0x000004ca:    9015        ..      STR      r0,[sp,#0x54]
        0x000004cc:    9816        ..      LDR      r0,[sp,#0x58]
        0x000004ce:    18c0        ..      ADDS     r0,r0,r3
        0x000004d0:    9016        ..      STR      r0,[sp,#0x58]
        0x000004d2:    9817        ..      LDR      r0,[sp,#0x5c]
        0x000004d4:    1880        ..      ADDS     r0,r0,r2
        0x000004d6:    9017        ..      STR      r0,[sp,#0x5c]
        0x000004d8:    981b        ..      LDR      r0,[sp,#0x6c]
        0x000004da:    300c        .0      ADDS     r0,r0,#0xc
        0x000004dc:    b280        ..      UXTH     r0,r0
        0x000004de:    901b        ..      STR      r0,[sp,#0x6c]
        0x000004e0:    9813        ..      LDR      r0,[sp,#0x4c]
        0x000004e2:    1c40        @.      ADDS     r0,r0,#1
        0x000004e4:    b2c0        ..      UXTB     r0,r0
        0x000004e6:    9013        ..      STR      r0,[sp,#0x4c]
        0x000004e8:    4560        `E      CMP      r0,r12
        0x000004ea:    d211        ..      BCS      0x510 ; read_fifo + 786
        0x000004ec:    e6f3        ..      B        0x2d6 ; read_fifo + 216
    $d
        0x000004ee:    0000        ..      DCW    0
        0x000004f0:    40010000    ...@    DCD    1073807360
        0x000004f4:    3cfa0000    ...<    DCD    1023016960
        0x000004f8:    20000000    ...     DCD    536870912
        0x000004fc:    3a9ce80a    ...:    DCD    983361546
        0x00000500:    00002710    .'..    DCD    10000
        0x00000504:    000186a0    ....    DCD    100000
        0x00000508:    00013c68    h<..    DCD    81000
        0x0000050c:    00006b9c    .k..    DCD    27548
    $t
        0x00000510:    9913        ..      LDR      r1,[sp,#0x4c]
        0x00000512:    9811        ..      LDR      r0,[sp,#0x44]
        0x00000514:    1840        @.      ADDS     r0,r0,r1
        0x00000516:    b2c0        ..      UXTB     r0,r0
        0x00000518:    9011        ..      STR      r0,[sp,#0x44]
        0x0000051a:    9814        ..      LDR      r0,[sp,#0x50]
        0x0000051c:    2800        .(      CMP      r0,#0
        0x0000051e:    d003        ..      BEQ      0x528 ; read_fifo + 810
        0x00000520:    4604        .F      MOV      r4,r0
        0x00000522:    2000        .       MOVS     r0,#0
        0x00000524:    9013        ..      STR      r0,[sp,#0x4c]
        0x00000526:    e6b1        ..      B        0x28c ; read_fifo + 142
        0x00000528:    466a        jF      MOV      r2,sp
        0x0000052a:    2100        .!      MOVS     r1,#0
        0x0000052c:    5e51        Q^      LDRSH    r1,[r2,r1]
        0x0000052e:    9818        ..      LDR      r0,[sp,#0x60]
        0x00000530:    1a41        A.      SUBS     r1,r0,r1
        0x00000532:    2020                MOVS     r0,#0x20
        0x00000534:    5e10        .^      LDRSH    r0,[r2,r0]
        0x00000536:    1a08        ..      SUBS     r0,r1,r0
        0x00000538:    9911        ..      LDR      r1,[sp,#0x44]
        0x0000053a:    1e89        ..      SUBS     r1,r1,#2
        0x0000053c:    f004f94c    ..L.    BL       __aeabi_idiv ; 0x47d8
        0x00000540:    995e        ^.      LDR      r1,[sp,#0x178]
        0x00000542:    466a        jF      MOV      r2,sp
        0x00000544:    80c8        ..      STRH     r0,[r1,#6]
        0x00000546:    2102        .!      MOVS     r1,#2
        0x00000548:    5e51        Q^      LDRSH    r1,[r2,r1]
        0x0000054a:    9819        ..      LDR      r0,[sp,#0x64]
        0x0000054c:    1a40        @.      SUBS     r0,r0,r1
        0x0000054e:    2122        "!      MOVS     r1,#0x22
        0x00000550:    5e51        Q^      LDRSH    r1,[r2,r1]
        0x00000552:    1a40        @.      SUBS     r0,r0,r1
        0x00000554:    9911        ..      LDR      r1,[sp,#0x44]
        0x00000556:    1e89        ..      SUBS     r1,r1,#2
        0x00000558:    f004f93e    ..>.    BL       __aeabi_idiv ; 0x47d8
        0x0000055c:    995e        ^.      LDR      r1,[sp,#0x178]
        0x0000055e:    466a        jF      MOV      r2,sp
        0x00000560:    8108        ..      STRH     r0,[r1,#8]
        0x00000562:    2104        .!      MOVS     r1,#4
        0x00000564:    5e51        Q^      LDRSH    r1,[r2,r1]
        0x00000566:    981a        ..      LDR      r0,[sp,#0x68]
        0x00000568:    1a40        @.      SUBS     r0,r0,r1
        0x0000056a:    2124        $!      MOVS     r1,#0x24
        0x0000056c:    5e51        Q^      LDRSH    r1,[r2,r1]
        0x0000056e:    1a40        @.      SUBS     r0,r0,r1
        0x00000570:    9911        ..      LDR      r1,[sp,#0x44]
        0x00000572:    1e89        ..      SUBS     r1,r1,#2
        0x00000574:    f004f930    ..0.    BL       __aeabi_idiv ; 0x47d8
        0x00000578:    995e        ^.      LDR      r1,[sp,#0x178]
        0x0000057a:    466a        jF      MOV      r2,sp
        0x0000057c:    8148        H.      STRH     r0,[r1,#0xa]
        0x0000057e:    2108        .!      MOVS     r1,#8
        0x00000580:    5e51        Q^      LDRSH    r1,[r2,r1]
        0x00000582:    9815        ..      LDR      r0,[sp,#0x54]
        0x00000584:    1a41        A.      SUBS     r1,r0,r1
        0x00000586:    2028        (       MOVS     r0,#0x28
        0x00000588:    5e10        .^      LDRSH    r0,[r2,r0]
        0x0000058a:    1a08        ..      SUBS     r0,r1,r0
        0x0000058c:    9911        ..      LDR      r1,[sp,#0x44]
        0x0000058e:    1e89        ..      SUBS     r1,r1,#2
        0x00000590:    f004f922    ..".    BL       __aeabi_idiv ; 0x47d8
        0x00000594:    9912        ..      LDR      r1,[sp,#0x48]
        0x00000596:    466a        jF      MOV      r2,sp
        0x00000598:    8348        H.      STRH     r0,[r1,#0x1a]
        0x0000059a:    210a        .!      MOVS     r1,#0xa
        0x0000059c:    5e51        Q^      LDRSH    r1,[r2,r1]
        0x0000059e:    9816        ..      LDR      r0,[sp,#0x58]
        0x000005a0:    1a40        @.      SUBS     r0,r0,r1
        0x000005a2:    212a        *!      MOVS     r1,#0x2a
        0x000005a4:    5e51        Q^      LDRSH    r1,[r2,r1]
        0x000005a6:    1a40        @.      SUBS     r0,r0,r1
        0x000005a8:    9911        ..      LDR      r1,[sp,#0x44]
        0x000005aa:    1e89        ..      SUBS     r1,r1,#2
        0x000005ac:    f004f914    ....    BL       __aeabi_idiv ; 0x47d8
        0x000005b0:    9912        ..      LDR      r1,[sp,#0x48]
        0x000005b2:    466a        jF      MOV      r2,sp
        0x000005b4:    8388        ..      STRH     r0,[r1,#0x1c]
        0x000005b6:    210c        .!      MOVS     r1,#0xc
        0x000005b8:    5e51        Q^      LDRSH    r1,[r2,r1]
        0x000005ba:    9817        ..      LDR      r0,[sp,#0x5c]
        0x000005bc:    1a40        @.      SUBS     r0,r0,r1
        0x000005be:    212c        ,!      MOVS     r1,#0x2c
        0x000005c0:    5e51        Q^      LDRSH    r1,[r2,r1]
        0x000005c2:    1a40        @.      SUBS     r0,r0,r1
        0x000005c4:    9911        ..      LDR      r1,[sp,#0x44]
        0x000005c6:    1e89        ..      SUBS     r1,r1,#2
        0x000005c8:    f004f906    ....    BL       __aeabi_idiv ; 0x47d8
        0x000005cc:    9912        ..      LDR      r1,[sp,#0x48]
        0x000005ce:    83c8        ..      STRH     r0,[r1,#0x1e]
        0x000005d0:    981c        ..      LDR      r0,[sp,#0x70]
        0x000005d2:    e664        d.      B        0x29e ; read_fifo + 160
    bmi160_read_raw
        0x000005d4:    b510        ..      PUSH     {r4,lr}
        0x000005d6:    f7fffe12    ....    BL       read_fifo ; 0x1fe
        0x000005da:    bd10        ..      POP      {r4,pc}
    .text
    calculate
        0x000005dc:    b5f0        ..      PUSH     {r4-r7,lr}
        0x000005de:    2000        .       MOVS     r0,#0
        0x000005e0:    b090        ..      SUB      sp,sp,#0x40
        0x000005e2:    900d        ..      STR      r0,[sp,#0x34]
        0x000005e4:    900c        ..      STR      r0,[sp,#0x30]
        0x000005e6:    900b        ..      STR      r0,[sp,#0x2c]
        0x000005e8:    900a        ..      STR      r0,[sp,#0x28]
        0x000005ea:    9009        ..      STR      r0,[sp,#0x24]
        0x000005ec:    9008        ..      STR      r0,[sp,#0x20]
        0x000005ee:    4684        .F      MOV      r12,r0
        0x000005f0:    9007        ..      STR      r0,[sp,#0x1c]
        0x000005f2:    48fe        .H      LDR      r0,[pc,#1016] ; [0x9ec] = 0x200000ec
        0x000005f4:    7800        .x      LDRB     r0,[r0,#0]
        0x000005f6:    900e        ..      STR      r0,[sp,#0x38]
        0x000005f8:    2803        .(      CMP      r0,#3
        0x000005fa:    d113        ..      BNE      0x624 ; calculate + 72
        0x000005fc:    48fc        .H      LDR      r0,[pc,#1008] ; [0x9f0] = 0x22f
        0x000005fe:    9007        ..      STR      r0,[sp,#0x1c]
        0x00000600:    48fb        .H      LDR      r0,[pc,#1004] ; [0x9f0] = 0x22f
        0x00000602:    380a        .8      SUBS     r0,r0,#0xa
        0x00000604:    4684        .F      MOV      r12,r0
        0x00000606:    207d        }       MOVS     r0,#0x7d
        0x00000608:    0100        ..      LSLS     r0,r0,#4
        0x0000060a:    900d        ..      STR      r0,[sp,#0x34]
        0x0000060c:    20af        .       MOVS     r0,#0xaf
        0x0000060e:    0080        ..      LSLS     r0,r0,#2
        0x00000610:    900c        ..      STR      r0,[sp,#0x30]
        0x00000612:    48f8        .H      LDR      r0,[pc,#992] ; [0x9f4] = 0xfffffa17
        0x00000614:    900b        ..      STR      r0,[sp,#0x2c]
        0x00000616:    202e        .       MOVS     r0,#0x2e
        0x00000618:    900a        ..      STR      r0,[sp,#0x28]
        0x0000061a:    48f7        .H      LDR      r0,[pc,#988] ; [0x9f8] = 0x333
        0x0000061c:    9009        ..      STR      r0,[sp,#0x24]
        0x0000061e:    2008        .       MOVS     r0,#8
        0x00000620:    43c0        .C      MVNS     r0,r0
        0x00000622:    9008        ..      STR      r0,[sp,#0x20]
        0x00000624:    48f5        .H      LDR      r0,[pc,#980] ; [0x9fc] = 0x20000008
        0x00000626:    7800        .x      LDRB     r0,[r0,#0]
        0x00000628:    900f        ..      STR      r0,[sp,#0x3c]
        0x0000062a:    0903        ..      LSRS     r3,r0,#4
        0x0000062c:    2001        .       MOVS     r0,#1
        0x0000062e:    05c0        ..      LSLS     r0,r0,#23
        0x00000630:    1a08        ..      SUBS     r0,r1,r0
        0x00000632:    49ee        .I      LDR      r1,[pc,#952] ; [0x9ec] = 0x200000ec
        0x00000634:    1100        ..      ASRS     r0,r0,#4
        0x00000636:    8b0a        ..      LDRH     r2,[r1,#0x18]
        0x00000638:    6acc        .j      LDR      r4,[r1,#0x2c]
        0x0000063a:    0112        ..      LSLS     r2,r2,#4
        0x0000063c:    1886        ..      ADDS     r6,r0,r2
        0x0000063e:    8b88        ..      LDRH     r0,[r1,#0x1c]
        0x00000640:    8b4f        O.      LDRH     r7,[r1,#0x1a]
        0x00000642:    38ff        .8      SUBS     r0,r0,#0xff
        0x00000644:    3801        .8      SUBS     r0,#1
        0x00000646:    4370        pC      MULS     r0,r6,r0
        0x00000648:    1385        ..      ASRS     r5,r0,#14
        0x0000064a:    8bc8        ..      LDRH     r0,[r1,#0x1e]
        0x0000064c:    8c0a        ..      LDRH     r2,[r1,#0x20]
        0x0000064e:    0124        $.      LSLS     r4,r4,#4
        0x00000650:    9401        ..      STR      r4,[sp,#4]
        0x00000652:    8c4c        L.      LDRH     r4,[r1,#0x22]
        0x00000654:    9406        ..      STR      r4,[sp,#0x18]
        0x00000656:    8c8c        ..      LDRH     r4,[r1,#0x24]
        0x00000658:    9405        ..      STR      r4,[sp,#0x14]
        0x0000065a:    684c        Lh      LDR      r4,[r1,#4]
        0x0000065c:    9400        ..      STR      r4,[sp,#0]
        0x0000065e:    8d4c        L.      LDRH     r4,[r1,#0x2a]
        0x00000660:    9404        ..      STR      r4,[sp,#0x10]
        0x00000662:    8ccc        ..      LDRH     r4,[r1,#0x26]
        0x00000664:    4370        pC      MULS     r0,r6,r0
        0x00000666:    9403        ..      STR      r4,[sp,#0xc]
        0x00000668:    1480        ..      ASRS     r0,r0,#18
        0x0000066a:    8d0c        ..      LDRH     r4,[r1,#0x28]
        0x0000066c:    4370        pC      MULS     r0,r6,r0
        0x0000066e:    9402        ..      STR      r4,[sp,#8]
        0x00000670:    1480        ..      ASRS     r0,r0,#18
        0x00000672:    6b0c        .k      LDR      r4,[r1,#0x30]
        0x00000674:    4375        uC      MULS     r5,r6,r5
        0x00000676:    4370        pC      MULS     r0,r6,r0
        0x00000678:    6b49        Ik      LDR      r1,[r1,#0x34]
        0x0000067a:    2b01        .+      CMP      r3,#1
        0x0000067c:    d02e        ..      BEQ      0x6dc ; calculate + 256
        0x0000067e:    9b0f        ..      LDR      r3,[sp,#0x3c]
        0x00000680:    071b        ..      LSLS     r3,r3,#28
        0x00000682:    0f1b        ..      LSRS     r3,r3,#28
        0x00000684:    2b01        .+      CMP      r3,#1
        0x00000686:    d029        ).      BEQ      0x6dc ; calculate + 256
        0x00000688:    4bdd        .K      LDR      r3,[pc,#884] ; [0xa00] = 0x1142
        0x0000068a:    18fb        ..      ADDS     r3,r7,r3
        0x0000068c:    4373        sC      MULS     r3,r6,r3
        0x0000068e:    105f        _.      ASRS     r7,r3,#1
        0x00000690:    112b        +.      ASRS     r3,r5,#4
        0x00000692:    4ddc        .M      LDR      r5,[pc,#880] ; [0xa04] = 0x4e20000
        0x00000694:    1bed        ..      SUBS     r5,r5,r7
        0x00000696:    1aed        ..      SUBS     r5,r5,r3
        0x00000698:    1a2d        -.      SUBS     r5,r5,r0
        0x0000069a:    18fb        ..      ADDS     r3,r7,r3
        0x0000069c:    1818        ..      ADDS     r0,r3,r0
        0x0000069e:    1300        ..      ASRS     r0,r0,#12
        0x000006a0:    4342        BC      MULS     r2,r0,r2
        0x000006a2:    1412        ..      ASRS     r2,r2,#16
        0x000006a4:    13ee        ..      ASRS     r6,r5,#15
        0x000006a6:    4623        #F      MOV      r3,r4
        0x000006a8:    4342        BC      MULS     r2,r0,r2
        0x000006aa:    4dd0        .M      LDR      r5,[pc,#832] ; [0x9ec] = 0x200000ec
        0x000006ac:    4343        CC      MULS     r3,r0,r3
        0x000006ae:    1092        ..      ASRS     r2,r2,#2
        0x000006b0:    189a        ..      ADDS     r2,r3,r2
        0x000006b2:    1293        ..      ASRS     r3,r2,#10
        0x000006b4:    612e        .a      STR      r6,[r5,#0x10]
        0x000006b6:    9a01        ..      LDR      r2,[sp,#4]
        0x000006b8:    189a        ..      ADDS     r2,r3,r2
        0x000006ba:    4bd3        .K      LDR      r3,[pc,#844] ; [0xa08] = 0x339580
        0x000006bc:    18d2        ..      ADDS     r2,r2,r3
        0x000006be:    9201        ..      STR      r2,[sp,#4]
        0x000006c0:    4bd2        .K      LDR      r3,[pc,#840] ; [0xa0c] = 0x1c29
        0x000006c2:    9a06        ..      LDR      r2,[sp,#0x18]
        0x000006c4:    18d2        ..      ADDS     r2,r2,r3
        0x000006c6:    9b05        ..      LDR      r3,[sp,#0x14]
        0x000006c8:    4342        BC      MULS     r2,r0,r2
        0x000006ca:    4343        CC      MULS     r3,r0,r3
        0x000006cc:    145b        [.      ASRS     r3,r3,#17
        0x000006ce:    4343        CC      MULS     r3,r0,r3
        0x000006d0:    1292        ..      ASRS     r2,r2,#10
        0x000006d2:    131b        ..      ASRS     r3,r3,#12
        0x000006d4:    4293        .B      CMP      r3,r2
        0x000006d6:    db40        @.      BLT      0x75a ; calculate + 382
        0x000006d8:    1a9d        ..      SUBS     r5,r3,r2
        0x000006da:    e03f        ?.      B        0x75c ; calculate + 384
        0x000006dc:    4bc8        .K      LDR      r3,[pc,#800] ; [0xa00] = 0x1142
        0x000006de:    3329        )3      ADDS     r3,r3,#0x29
        0x000006e0:    18fb        ..      ADDS     r3,r7,r3
        0x000006e2:    112f        /.      ASRS     r7,r5,#4
        0x000006e4:    4373        sC      MULS     r3,r6,r3
        0x000006e6:    4dc7        .M      LDR      r5,[pc,#796] ; [0xa04] = 0x4e20000
        0x000006e8:    105b        [.      ASRS     r3,r3,#1
        0x000006ea:    1aed        ..      SUBS     r5,r5,r3
        0x000006ec:    1bed        ..      SUBS     r5,r5,r7
        0x000006ee:    1a2d        -.      SUBS     r5,r5,r0
        0x000006f0:    19db        ..      ADDS     r3,r3,r7
        0x000006f2:    1818        ..      ADDS     r0,r3,r0
        0x000006f4:    1300        ..      ASRS     r0,r0,#12
        0x000006f6:    4bc6        .K      LDR      r3,[pc,#792] ; [0xa10] = 0xffffeea5
        0x000006f8:    4342        BC      MULS     r2,r0,r2
        0x000006fa:    1412        ..      ASRS     r2,r2,#16
        0x000006fc:    13ee        ..      ASRS     r6,r5,#15
        0x000006fe:    18e3        ..      ADDS     r3,r4,r3
        0x00000700:    4342        BC      MULS     r2,r0,r2
        0x00000702:    4dba        .M      LDR      r5,[pc,#744] ; [0x9ec] = 0x200000ec
        0x00000704:    4343        CC      MULS     r3,r0,r3
        0x00000706:    1092        ..      ASRS     r2,r2,#2
        0x00000708:    189a        ..      ADDS     r2,r3,r2
        0x0000070a:    1293        ..      ASRS     r3,r2,#10
        0x0000070c:    612e        .a      STR      r6,[r5,#0x10]
        0x0000070e:    9a01        ..      LDR      r2,[sp,#4]
        0x00000710:    189a        ..      ADDS     r2,r3,r2
        0x00000712:    4bc0        .K      LDR      r3,[pc,#768] ; [0xa14] = 0x1d70a0
        0x00000714:    18d2        ..      ADDS     r2,r2,r3
        0x00000716:    9201        ..      STR      r2,[sp,#4]
        0x00000718:    4bbc        .K      LDR      r3,[pc,#752] ; [0xa0c] = 0x1c29
        0x0000071a:    9a06        ..      LDR      r2,[sp,#0x18]
        0x0000071c:    3b1d        .;      SUBS     r3,r3,#0x1d
        0x0000071e:    18d2        ..      ADDS     r2,r2,r3
        0x00000720:    9b05        ..      LDR      r3,[sp,#0x14]
        0x00000722:    4342        BC      MULS     r2,r0,r2
        0x00000724:    4343        CC      MULS     r3,r0,r3
        0x00000726:    145b        [.      ASRS     r3,r3,#17
        0x00000728:    4343        CC      MULS     r3,r0,r3
        0x0000072a:    1292        ..      ASRS     r2,r2,#10
        0x0000072c:    131b        ..      ASRS     r3,r3,#12
        0x0000072e:    4293        .B      CMP      r3,r2
        0x00000730:    db01        ..      BLT      0x736 ; calculate + 346
        0x00000732:    1a9d        ..      SUBS     r5,r3,r2
        0x00000734:    e000        ..      B        0x738 ; calculate + 348
        0x00000736:    1ad5        ..      SUBS     r5,r2,r3
        0x00000738:    12ee        ..      ASRS     r6,r5,#11
        0x0000073a:    4fb7        .O      LDR      r7,[pc,#732] ; [0xa18] = 0x28a1a
        0x0000073c:    056d        m.      LSLS     r5,r5,#21
        0x0000073e:    19cf        ..      ADDS     r7,r1,r7
        0x00000740:    0d6d        m.      LSRS     r5,r5,#21
        0x00000742:    437d        }C      MULS     r5,r7,r5
        0x00000744:    437e        ~C      MULS     r6,r7,r6
        0x00000746:    0aed        ..      LSRS     r5,r5,#11
        0x00000748:    1a9a        ..      SUBS     r2,r3,r2
        0x0000074a:    d502        ..      BPL      0x752 ; calculate + 374
        0x0000074c:    1972        r.      ADDS     r2,r6,r5
        0x0000074e:    4252        RB      RSBS     r2,r2,#0
        0x00000750:    e000        ..      B        0x754 ; calculate + 376
        0x00000752:    1972        r.      ADDS     r2,r6,r5
        0x00000754:    12d3        ..      ASRS     r3,r2,#11
        0x00000756:    4ab0        .J      LDR      r2,[pc,#704] ; [0xa18] = 0x28a1a
        0x00000758:    e010        ..      B        0x77c ; calculate + 416
        0x0000075a:    1ad5        ..      SUBS     r5,r2,r3
        0x0000075c:    12ee        ..      ASRS     r6,r5,#11
        0x0000075e:    4faf        .O      LDR      r7,[pc,#700] ; [0xa1c] = 0x45b9a
        0x00000760:    056d        m.      LSLS     r5,r5,#21
        0x00000762:    19cf        ..      ADDS     r7,r1,r7
        0x00000764:    0d6d        m.      LSRS     r5,r5,#21
        0x00000766:    437d        }C      MULS     r5,r7,r5
        0x00000768:    437e        ~C      MULS     r6,r7,r6
        0x0000076a:    0aed        ..      LSRS     r5,r5,#11
        0x0000076c:    1a9a        ..      SUBS     r2,r3,r2
        0x0000076e:    d502        ..      BPL      0x776 ; calculate + 410
        0x00000770:    1972        r.      ADDS     r2,r6,r5
        0x00000772:    4252        RB      RSBS     r2,r2,#0
        0x00000774:    e000        ..      B        0x778 ; calculate + 412
        0x00000776:    1972        r.      ADDS     r2,r6,r5
        0x00000778:    12d3        ..      ASRS     r3,r2,#11
        0x0000077a:    4aa8        .J      LDR      r2,[pc,#672] ; [0xa1c] = 0x45b9a
        0x0000077c:    9d01        ..      LDR      r5,[sp,#4]
        0x0000077e:    189a        ..      ADDS     r2,r3,r2
        0x00000780:    1889        ..      ADDS     r1,r1,r2
        0x00000782:    9a00        ..      LDR      r2,[sp,#0]
        0x00000784:    4b99        .K      LDR      r3,[pc,#612] ; [0x9ec] = 0x200000ec
        0x00000786:    1b55        U.      SUBS     r5,r2,r5
        0x00000788:    2201        ."      MOVS     r2,#1
        0x0000078a:    05d2        ..      LSLS     r2,r2,#23
        0x0000078c:    1aaa        ..      SUBS     r2,r5,r2
        0x0000078e:    12cd        ..      ASRS     r5,r1,#11
        0x00000790:    10d2        ..      ASRS     r2,r2,#3
        0x00000792:    0549        I.      LSLS     r1,r1,#21
        0x00000794:    0d49        I.      LSRS     r1,r1,#21
        0x00000796:    4351        QC      MULS     r1,r2,r1
        0x00000798:    4355        UC      MULS     r5,r2,r5
        0x0000079a:    9a04        ..      LDR      r2,[sp,#0x10]
        0x0000079c:    12c9        ..      ASRS     r1,r1,#11
        0x0000079e:    4342        BC      MULS     r2,r0,r2
        0x000007a0:    2001        .       MOVS     r0,#1
        0x000007a2:    0540        @.      LSLS     r0,r0,#21
        0x000007a4:    1810        ..      ADDS     r0,r2,r0
        0x000007a6:    1869        i.      ADDS     r1,r5,r1
        0x000007a8:    10c0        ..      ASRS     r0,r0,#3
        0x000007aa:    9a03        ..      LDR      r2,[sp,#0xc]
        0x000007ac:    9d02        ..      LDR      r5,[sp,#8]
        0x000007ae:    4342        BC      MULS     r2,r0,r2
        0x000007b0:    1289        ..      ASRS     r1,r1,#10
        0x000007b2:    4345        EC      MULS     r5,r0,r5
        0x000007b4:    13e8        ..      ASRS     r0,r5,#15
        0x000007b6:    1452        R.      ASRS     r2,r2,#17
        0x000007b8:    4348        HC      MULS     r0,r1,r0
        0x000007ba:    434a        JC      MULS     r2,r1,r2
        0x000007bc:    1480        ..      ASRS     r0,r0,#18
        0x000007be:    1092        ..      ASRS     r2,r2,#2
        0x000007c0:    4348        HC      MULS     r0,r1,r0
        0x000007c2:    1810        ..      ADDS     r0,r2,r0
        0x000007c4:    13c0        ..      ASRS     r0,r0,#15
        0x000007c6:    1841        A.      ADDS     r1,r0,r1
        0x000007c8:    4895        .H      LDR      r0,[pc,#596] ; [0xa20] = 0x18628
        0x000007ca:    461a        .F      MOV      r2,r3
        0x000007cc:    1808        ..      ADDS     r0,r1,r0
        0x000007ce:    60d8        .`      STR      r0,[r3,#0xc]
        0x000007d0:    980e        ..      LDR      r0,[sp,#0x38]
        0x000007d2:    2803        .(      CMP      r0,#3
        0x000007d4:    d12d        -.      BNE      0x832 ; calculate + 598
        0x000007d6:    7851        Qx      LDRB     r1,[r2,#1]
        0x000007d8:    07c8        ..      LSLS     r0,r1,#31
        0x000007da:    d012        ..      BEQ      0x802 ; calculate + 550
        0x000007dc:    2001        .       MOVS     r0,#1
        0x000007de:    0380        ..      LSLS     r0,r0,#14
        0x000007e0:    1a23        #.      SUBS     r3,r4,r0
        0x000007e2:    4c90        .L      LDR      r4,[pc,#576] ; [0xa24] = 0xfffff63c
        0x000007e4:    6910        .i      LDR      r0,[r2,#0x10]
        0x000007e6:    1900        ..      ADDS     r0,r0,r4
        0x000007e8:    4664        dF      MOV      r4,r12
        0x000007ea:    435c        \C      MULS     r4,r3,r4
        0x000007ec:    9b07        ..      LDR      r3,[sp,#0x1c]
        0x000007ee:    1264        d.      ASRS     r4,r4,#9
        0x000007f0:    18e3        ..      ADDS     r3,r4,r3
        0x000007f2:    111b        ..      ASRS     r3,r3,#4
        0x000007f4:    4343        CC      MULS     r3,r0,r3
        0x000007f6:    13db        ..      ASRS     r3,r3,#15
        0x000007f8:    4343        CC      MULS     r3,r0,r3
        0x000007fa:    12d8        ..      ASRS     r0,r3,#11
        0x000007fc:    68d3        .h      LDR      r3,[r2,#0xc]
        0x000007fe:    1a18        ..      SUBS     r0,r3,r0
        0x00000800:    60d0        .`      STR      r0,[r2,#0xc]
        0x00000802:    0788        ..      LSLS     r0,r1,#30
        0x00000804:    d515        ..      BPL      0x832 ; calculate + 598
        0x00000806:    6910        .i      LDR      r0,[r2,#0x10]
        0x00000808:    990d        ..      LDR      r1,[sp,#0x34]
        0x0000080a:    4288        .B      CMP      r0,r1
        0x0000080c:    da11        ..      BGE      0x832 ; calculate + 598
        0x0000080e:    9b0b        ..      LDR      r3,[sp,#0x2c]
        0x00000810:    4601        .F      MOV      r1,r0
        0x00000812:    4359        YC      MULS     r1,r3,r1
        0x00000814:    140b        ..      ASRS     r3,r1,#16
        0x00000816:    990a        ..      LDR      r1,[sp,#0x28]
        0x00000818:    1859        Y.      ADDS     r1,r3,r1
        0x0000081a:    9b0c        ..      LDR      r3,[sp,#0x30]
        0x0000081c:    4298        .B      CMP      r0,r3
        0x0000081e:    da05        ..      BGE      0x82c ; calculate + 592
        0x00000820:    9b09        ..      LDR      r3,[sp,#0x24]
        0x00000822:    4358        XC      MULS     r0,r3,r0
        0x00000824:    1403        ..      ASRS     r3,r0,#16
        0x00000826:    9808        ..      LDR      r0,[sp,#0x20]
        0x00000828:    1818        ..      ADDS     r0,r3,r0
        0x0000082a:    1841        A.      ADDS     r1,r0,r1
        0x0000082c:    68d0        .h      LDR      r0,[r2,#0xc]
        0x0000082e:    1a40        @.      SUBS     r0,r0,r1
        0x00000830:    60d0        .`      STR      r0,[r2,#0xc]
        0x00000832:    b010        ..      ADD      sp,sp,#0x40
        0x00000834:    bdf0        ..      POP      {r4-r7,pc}
    fbm320_read_long_data
        0x00000836:    b508        ..      PUSH     {r3,lr}
        0x00000838:    2303        .#      MOVS     r3,#3
        0x0000083a:    466a        jF      MOV      r2,sp
        0x0000083c:    21f6        .!      MOVS     r1,#0xf6
        0x0000083e:    20d8        .       MOVS     r0,#0xd8
        0x00000840:    f002fbe7    ....    BL       I2C_SequentialRead ; 0x3012
        0x00000844:    4669        iF      MOV      r1,sp
        0x00000846:    7808        .x      LDRB     r0,[r1,#0]
        0x00000848:    7849        Ix      LDRB     r1,[r1,#1]
        0x0000084a:    0400        ..      LSLS     r0,r0,#16
        0x0000084c:    0209        ..      LSLS     r1,r1,#8
        0x0000084e:    4308        .C      ORRS     r0,r0,r1
        0x00000850:    4669        iF      MOV      r1,sp
        0x00000852:    7889        .x      LDRB     r1,[r1,#2]
        0x00000854:    4308        .C      ORRS     r0,r0,r1
        0x00000856:    bd08        ..      POP      {r3,pc}
    coefficient
        0x00000858:    b5f0        ..      PUSH     {r4-r7,lr}
        0x0000085a:    b085        ..      SUB      sp,sp,#0x14
        0x0000085c:    2400        .$      MOVS     r4,#0
        0x0000085e:    466f        oF      MOV      r7,sp
        0x00000860:    0065        e.      LSLS     r5,r4,#1
        0x00000862:    4629        )F      MOV      r1,r5
        0x00000864:    31aa        .1      ADDS     r1,r1,#0xaa
        0x00000866:    20d8        .       MOVS     r0,#0xd8
        0x00000868:    f002fb63    ..c.    BL       I2C_ReadByte ; 0x2f32
        0x0000086c:    0206        ..      LSLS     r6,r0,#8
        0x0000086e:    4629        )F      MOV      r1,r5
        0x00000870:    31ab        .1      ADDS     r1,r1,#0xab
        0x00000872:    20d8        .       MOVS     r0,#0xd8
        0x00000874:    f002fb5d    ..].    BL       I2C_ReadByte ; 0x2f32
        0x00000878:    4306        .C      ORRS     r6,r6,r0
        0x0000087a:    1c64        d.      ADDS     r4,r4,#1
        0x0000087c:    b2e4        ..      UXTB     r4,r4
        0x0000087e:    537e        ~S      STRH     r6,[r7,r5]
        0x00000880:    2c09        .,      CMP      r4,#9
        0x00000882:    d3ed        ..      BCC      0x860 ; coefficient + 8
        0x00000884:    21d0        .!      MOVS     r1,#0xd0
        0x00000886:    20d8        .       MOVS     r0,#0xd8
        0x00000888:    f002fb53    ..S.    BL       I2C_ReadByte ; 0x2f32
        0x0000088c:    0204        ..      LSLS     r4,r0,#8
        0x0000088e:    21f1        .!      MOVS     r1,#0xf1
        0x00000890:    20d8        .       MOVS     r0,#0xd8
        0x00000892:    f002fb4e    ..N.    BL       I2C_ReadByte ; 0x2f32
        0x00000896:    4304        .C      ORRS     r4,r4,r0
        0x00000898:    4668        hF      MOV      r0,sp
        0x0000089a:    8244        D.      STRH     r4,[r0,#0x12]
        0x0000089c:    4857        WH      LDR      r0,[pc,#348] ; [0x9fc] = 0x20000008
        0x0000089e:    7801        .x      LDRB     r1,[r0,#0]
        0x000008a0:    4852        RH      LDR      r0,[pc,#328] ; [0x9ec] = 0x200000ec
        0x000008a2:    090a        ..      LSRS     r2,r1,#4
        0x000008a4:    2a01        .*      CMP      r2,#1
        0x000008a6:    d045        E.      BEQ      0x934 ; coefficient + 220
        0x000008a8:    0709        ..      LSLS     r1,r1,#28
        0x000008aa:    0f09        ..      LSRS     r1,r1,#28
        0x000008ac:    2901        .)      CMP      r1,#1
        0x000008ae:    d041        A.      BEQ      0x934 ; coefficient + 220
        0x000008b0:    466d        mF      MOV      r5,sp
        0x000008b2:    882b        +.      LDRH     r3,[r5,#0]
        0x000008b4:    0919        ..      LSRS     r1,r3,#4
        0x000008b6:    8301        ..      STRH     r1,[r0,#0x18]
        0x000008b8:    8869        i.      LDRH     r1,[r5,#2]
        0x000008ba:    88ae        ..      LDRH     r6,[r5,#4]
        0x000008bc:    094a        J.      LSRS     r2,r1,#5
        0x000008be:    08d2        ..      LSRS     r2,r2,#3
        0x000008c0:    0775        u.      LSLS     r5,r6,#29
        0x000008c2:    00d2        ..      LSLS     r2,r2,#3
        0x000008c4:    0f6d        m.      LSRS     r5,r5,#29
        0x000008c6:    432a        *C      ORRS     r2,r2,r5
        0x000008c8:    8342        B.      STRH     r2,[r0,#0x1a]
        0x000008ca:    466d        mF      MOV      r5,sp
        0x000008cc:    892a        *.      LDRH     r2,[r5,#8]
        0x000008ce:    0609        ..      LSLS     r1,r1,#24
        0x000008d0:    07d5        ..      LSLS     r5,r2,#31
        0x000008d2:    0dc9        ..      LSRS     r1,r1,#23
        0x000008d4:    0fed        ..      LSRS     r5,r5,#31
        0x000008d6:    4329        )C      ORRS     r1,r1,r5
        0x000008d8:    8381        ..      STRH     r1,[r0,#0x1c]
        0x000008da:    08f1        ..      LSRS     r1,r6,#3
        0x000008dc:    83c1        ..      STRH     r1,[r0,#0x1e]
        0x000008de:    466d        mF      MOV      r5,sp
        0x000008e0:    88e9        ..      LDRH     r1,[r5,#6]
        0x000008e2:    0852        R.      LSRS     r2,r2,#1
        0x000008e4:    004e        N.      LSLS     r6,r1,#1
        0x000008e6:    8969        i.      LDRH     r1,[r5,#0xa]
        0x000008e8:    071b        ..      LSLS     r3,r3,#28
        0x000008ea:    07cd        ..      LSLS     r5,r1,#31
        0x000008ec:    0fed        ..      LSRS     r5,r5,#31
        0x000008ee:    432e        .C      ORRS     r6,r6,r5
        0x000008f0:    62c6        .b      STR      r6,[r0,#0x2c]
        0x000008f2:    6302        .c      STR      r2,[r0,#0x30]
        0x000008f4:    08ca        ..      LSRS     r2,r1,#3
        0x000008f6:    8402        ..      STRH     r2,[r0,#0x20]
        0x000008f8:    466d        mF      MOV      r5,sp
        0x000008fa:    89aa        ..      LDRH     r2,[r5,#0xc]
        0x000008fc:    0f9b        ..      LSRS     r3,r3,#30
        0x000008fe:    0092        ..      LSLS     r2,r2,#2
        0x00000900:    431a        .C      ORRS     r2,r2,r3
        0x00000902:    6342        Bc      STR      r2,[r0,#0x34]
        0x00000904:    89eb        ..      LDRH     r3,[r5,#0xe]
        0x00000906:    08da        ..      LSRS     r2,r3,#3
        0x00000908:    8442        B.      STRH     r2,[r0,#0x22]
        0x0000090a:    8a2a        *.      LDRH     r2,[r5,#0x10]
        0x0000090c:    0895        ..      LSRS     r5,r2,#2
        0x0000090e:    8485        ..      STRH     r5,[r0,#0x24]
        0x00000910:    09a5        ..      LSRS     r5,r4,#6
        0x00000912:    08ad        ..      LSRS     r5,r5,#2
        0x00000914:    0792        ..      LSLS     r2,r2,#30
        0x00000916:    00ad        ..      LSLS     r5,r5,#2
        0x00000918:    0f92        ..      LSRS     r2,r2,#30
        0x0000091a:    4315        .C      ORRS     r5,r5,r2
        0x0000091c:    84c5        ..      STRH     r5,[r0,#0x26]
        0x0000091e:    b2e2        ..      UXTB     r2,r4
        0x00000920:    8502        ..      STRH     r2,[r0,#0x28]
        0x00000922:    2206        ."      MOVS     r2,#6
        0x00000924:    4011        .@      ANDS     r1,r1,r2
        0x00000926:    0089        ..      LSLS     r1,r1,#2
        0x00000928:    075a        Z.      LSLS     r2,r3,#29
        0x0000092a:    0f52        R.      LSRS     r2,r2,#29
        0x0000092c:    4311        .C      ORRS     r1,r1,r2
        0x0000092e:    8541        A.      STRH     r1,[r0,#0x2a]
        0x00000930:    b005        ..      ADD      sp,sp,#0x14
        0x00000932:    bdf0        ..      POP      {r4-r7,pc}
        0x00000934:    466d        mF      MOV      r5,sp
        0x00000936:    8829        ).      LDRH     r1,[r5,#0]
        0x00000938:    090a        ..      LSRS     r2,r1,#4
        0x0000093a:    8302        ..      STRH     r2,[r0,#0x18]
        0x0000093c:    886b        k.      LDRH     r3,[r5,#2]
        0x0000093e:    095a        Z.      LSRS     r2,r3,#5
        0x00000940:    08d6        ..      LSRS     r6,r2,#3
        0x00000942:    88aa        ..      LDRH     r2,[r5,#4]
        0x00000944:    00f6        ..      LSLS     r6,r6,#3
        0x00000946:    0755        U.      LSLS     r5,r2,#29
        0x00000948:    0f6d        m.      LSRS     r5,r5,#29
        0x0000094a:    432e        .C      ORRS     r6,r6,r5
        0x0000094c:    8346        F.      STRH     r6,[r0,#0x1a]
        0x0000094e:    061b        ..      LSLS     r3,r3,#24
        0x00000950:    0dde        ..      LSRS     r6,r3,#23
        0x00000952:    466d        mF      MOV      r5,sp
        0x00000954:    892b        +.      LDRH     r3,[r5,#8]
        0x00000956:    08d2        ..      LSRS     r2,r2,#3
        0x00000958:    07dd        ..      LSLS     r5,r3,#31
        0x0000095a:    0fed        ..      LSRS     r5,r5,#31
        0x0000095c:    432e        .C      ORRS     r6,r6,r5
        0x0000095e:    8386        ..      STRH     r6,[r0,#0x1c]
        0x00000960:    83c2        ..      STRH     r2,[r0,#0x1e]
        0x00000962:    466d        mF      MOV      r5,sp
        0x00000964:    88ea        ..      LDRH     r2,[r5,#6]
        0x00000966:    078d        ..      LSLS     r5,r1,#30
        0x00000968:    0092        ..      LSLS     r2,r2,#2
        0x0000096a:    0fad        ..      LSRS     r5,r5,#30
        0x0000096c:    432a        *C      ORRS     r2,r2,r5
        0x0000096e:    62c2        .b      STR      r2,[r0,#0x2c]
        0x00000970:    085a        Z.      LSRS     r2,r3,#1
        0x00000972:    466d        mF      MOV      r5,sp
        0x00000974:    6302        .c      STR      r2,[r0,#0x30]
        0x00000976:    896a        j.      LDRH     r2,[r5,#0xa]
        0x00000978:    08d3        ..      LSRS     r3,r2,#3
        0x0000097a:    8403        ..      STRH     r3,[r0,#0x20]
        0x0000097c:    89ab        ..      LDRH     r3,[r5,#0xc]
        0x0000097e:    0752        R.      LSLS     r2,r2,#29
        0x00000980:    00db        ..      LSLS     r3,r3,#3
        0x00000982:    0f52        R.      LSRS     r2,r2,#29
        0x00000984:    4313        .C      ORRS     r3,r3,r2
        0x00000986:    6343        Cc      STR      r3,[r0,#0x34]
        0x00000988:    89ea        ..      LDRH     r2,[r5,#0xe]
        0x0000098a:    08d3        ..      LSRS     r3,r2,#3
        0x0000098c:    8443        C.      STRH     r3,[r0,#0x22]
        0x0000098e:    8a2b        +.      LDRH     r3,[r5,#0x10]
        0x00000990:    0752        R.      LSLS     r2,r2,#29
        0x00000992:    089d        ..      LSRS     r5,r3,#2
        0x00000994:    8485        ..      STRH     r5,[r0,#0x24]
        0x00000996:    09a5        ..      LSRS     r5,r4,#6
        0x00000998:    08ad        ..      LSRS     r5,r5,#2
        0x0000099a:    079b        ..      LSLS     r3,r3,#30
        0x0000099c:    00ad        ..      LSLS     r5,r5,#2
        0x0000099e:    0f9b        ..      LSRS     r3,r3,#30
        0x000009a0:    431d        .C      ORRS     r5,r5,r3
        0x000009a2:    84c5        ..      STRH     r5,[r0,#0x26]
        0x000009a4:    b2e3        ..      UXTB     r3,r4
        0x000009a6:    8503        ..      STRH     r3,[r0,#0x28]
        0x000009a8:    230c        .#      MOVS     r3,#0xc
        0x000009aa:    4019        .@      ANDS     r1,r1,r3
        0x000009ac:    0049        I.      LSLS     r1,r1,#1
        0x000009ae:    0f52        R.      LSRS     r2,r2,#29
        0x000009b0:    e7bc        ..      B        0x92c ; coefficient + 212
    fbm320_init
        0x000009b2:    b570        p.      PUSH     {r4-r6,lr}
        0x000009b4:    216b        k!      MOVS     r1,#0x6b
        0x000009b6:    20d8        .       MOVS     r0,#0xd8
        0x000009b8:    f002fabb    ....    BL       I2C_ReadByte ; 0x2f32
        0x000009bc:    2842        B(      CMP      r0,#0x42
        0x000009be:    d001        ..      BEQ      0x9c4 ; fbm320_init + 18
        0x000009c0:    2000        .       MOVS     r0,#0
        0x000009c2:    bd70        p.      POP      {r4-r6,pc}
        0x000009c4:    21a5        .!      MOVS     r1,#0xa5
        0x000009c6:    20d8        .       MOVS     r0,#0xd8
        0x000009c8:    f002fab3    ....    BL       I2C_ReadByte ; 0x2f32
        0x000009cc:    2170        p!      MOVS     r1,#0x70
        0x000009ce:    4008        .@      ANDS     r0,r0,r1
        0x000009d0:    0885        ..      LSRS     r5,r0,#2
        0x000009d2:    21f4        .!      MOVS     r1,#0xf4
        0x000009d4:    20d8        .       MOVS     r0,#0xd8
        0x000009d6:    f002faac    ....    BL       I2C_ReadByte ; 0x2f32
        0x000009da:    0980        ..      LSRS     r0,r0,#6
        0x000009dc:    4305        .C      ORRS     r5,r5,r0
        0x000009de:    4c03        .L      LDR      r4,[pc,#12] ; [0x9ec] = 0x200000ec
        0x000009e0:    2003        .       MOVS     r0,#3
        0x000009e2:    7025        %p      STRB     r5,[r4,#0]
        0x000009e4:    7060        `p      STRB     r0,[r4,#1]
        0x000009e6:    4805        .H      LDR      r0,[pc,#20] ; [0x9fc] = 0x20000008
        0x000009e8:    7801        .x      LDRB     r1,[r0,#0]
        0x000009ea:    e01d        ..      B        0xa28 ; fbm320_init + 118
    $d
        0x000009ec:    200000ec    ...     DCD    536871148
        0x000009f0:    0000022f    /...    DCD    559
        0x000009f4:    fffffa17    ....    DCD    4294965783
        0x000009f8:    00000333    3...    DCD    819
        0x000009fc:    20000008    ...     DCD    536870920
        0x00000a00:    00001142    B...    DCD    4418
        0x00000a04:    04e20000    ....    DCD    81920000
        0x00000a08:    00339580    ..3.    DCD    3380608
        0x00000a0c:    00001c29    )...    DCD    7209
        0x00000a10:    ffffeea5    ....    DCD    4294962853
        0x00000a14:    001d70a0    .p..    DCD    1929376
        0x00000a18:    00028a1a    ....    DCD    166426
        0x00000a1c:    00045b9a    .[..    DCD    285594
        0x00000a20:    00018628    (...    DCD    99880
        0x00000a24:    fffff63c    <...    DCD    4294964796
    $t
        0x00000a28:    2201        ."      MOVS     r2,#1
        0x00000a2a:    4311        .C      ORRS     r1,r1,r2
        0x00000a2c:    7001        .p      STRB     r1,[r0,#0]
        0x00000a2e:    f7ffff13    ....    BL       coefficient ; 0x858
        0x00000a32:    222e        ."      MOVS     r2,#0x2e
        0x00000a34:    21f4        .!      MOVS     r1,#0xf4
        0x00000a36:    20d8        .       MOVS     r0,#0xd8
        0x00000a38:    f002fa30    ..0.    BL       I2C_WriteByte ; 0x2e9c
        0x00000a3c:    4d9b        .M      LDR      r5,[pc,#620] ; [0xcac] = 0x40010000
        0x00000a3e:    499a        .I      LDR      r1,[pc,#616] ; [0xca8] = 0x1388
        0x00000a40:    4628        (F      MOV      r0,r5
        0x00000a42:    f003fa83    ....    BL       TIMER_Delay ; 0x3f4c
        0x00000a46:    f7fffef6    ....    BL       fbm320_read_long_data ; 0x836
        0x00000a4a:    22f4        ."      MOVS     r2,#0xf4
        0x00000a4c:    60a0        .`      STR      r0,[r4,#8]
        0x00000a4e:    4611        .F      MOV      r1,r2
        0x00000a50:    20d8        .       MOVS     r0,#0xd8
        0x00000a52:    f002fa23    ..#.    BL       I2C_WriteByte ; 0x2e9c
        0x00000a56:    4996        .I      LDR      r1,[pc,#600] ; [0xcb0] = 0x4e20
        0x00000a58:    4628        (F      MOV      r0,r5
        0x00000a5a:    f003fa77    ..w.    BL       TIMER_Delay ; 0x3f4c
        0x00000a5e:    f7fffeea    ....    BL       fbm320_read_long_data ; 0x836
        0x00000a62:    6060        ``      STR      r0,[r4,#4]
        0x00000a64:    68a1        .h      LDR      r1,[r4,#8]
        0x00000a66:    f7fffdb9    ....    BL       calculate ; 0x5dc
        0x00000a6a:    222e        ."      MOVS     r2,#0x2e
        0x00000a6c:    21f4        .!      MOVS     r1,#0xf4
        0x00000a6e:    20d8        .       MOVS     r0,#0xd8
        0x00000a70:    f002fa14    ....    BL       I2C_WriteByte ; 0x2e9c
        0x00000a74:    2000        .       MOVS     r0,#0
        0x00000a76:    6160        `a      STR      r0,[r4,#0x14]
        0x00000a78:    2001        .       MOVS     r0,#1
        0x00000a7a:    bd70        p.      POP      {r4-r6,pc}
    abs_altitude
        0x00000a7c:    b530        0.      PUSH     {r4,r5,lr}
        0x00000a7e:    498d        .I      LDR      r1,[pc,#564] ; [0xcb4] = 0x19258
        0x00000a80:    4288        .B      CMP      r0,r1
        0x00000a82:    db05        ..      BLT      0xa90 ; abs_altitude + 20
        0x00000a84:    2367        g#      MOVS     r3,#0x67
        0x00000a86:    22ff        ."      MOVS     r2,#0xff
        0x00000a88:    4c8b        .L      LDR      r4,[pc,#556] ; [0xcb8] = 0xfffde2f5
        0x00000a8a:    498c        .I      LDR      r1,[pc,#560] ; [0xcbc] = 0xffffadf1
        0x00000a8c:    3238        82      ADDS     r2,r2,#0x38
        0x00000a8e:    e07d        }.      B        0xb8c ; abs_altitude + 272
        0x00000a90:    498b        .I      LDR      r1,[pc,#556] ; [0xcc0] = 0x17ed0
        0x00000a92:    4288        .B      CMP      r0,r1
        0x00000a94:    db05        ..      BLT      0xaa2 ; abs_altitude + 38
        0x00000a96:    2362        b#      MOVS     r3,#0x62
        0x00000a98:    22ff        ."      MOVS     r2,#0xff
        0x00000a9a:    4c8a        .L      LDR      r4,[pc,#552] ; [0xcc4] = 0x447d3
        0x00000a9c:    498a        .I      LDR      r1,[pc,#552] ; [0xcc8] = 0xffffaa93
        0x00000a9e:    3253        S2      ADDS     r2,r2,#0x53
        0x00000aa0:    e074        t.      B        0xb8c ; abs_altitude + 272
        0x00000aa2:    498a        .I      LDR      r1,[pc,#552] ; [0xccc] = 0x16b48
        0x00000aa4:    4288        .B      CMP      r0,r1
        0x00000aa6:    db05        ..      BLT      0xab4 ; abs_altitude + 56
        0x00000aa8:    235d        ]#      MOVS     r3,#0x5d
        0x00000aaa:    22ff        ."      MOVS     r2,#0xff
        0x00000aac:    4c88        .L      LDR      r4,[pc,#544] ; [0xcd0] = 0xaf1c5
        0x00000aae:    4989        .I      LDR      r1,[pc,#548] ; [0xcd4] = 0xffffa6e3
        0x00000ab0:    3273        s2      ADDS     r2,r2,#0x73
        0x00000ab2:    e06b        k.      B        0xb8c ; abs_altitude + 272
        0x00000ab4:    4988        .I      LDR      r1,[pc,#544] ; [0xcd8] = 0x157c0
        0x00000ab6:    4288        .B      CMP      r0,r1
        0x00000ab8:    db05        ..      BLT      0xac6 ; abs_altitude + 74
        0x00000aba:    2358        X#      MOVS     r3,#0x58
        0x00000abc:    22ff        ."      MOVS     r2,#0xff
        0x00000abe:    4c87        .L      LDR      r4,[pc,#540] ; [0xcdc] = 0x11e7ad
        0x00000ac0:    4987        .I      LDR      r1,[pc,#540] ; [0xce0] = 0xffffa2d2
        0x00000ac2:    3298        .2      ADDS     r2,r2,#0x98
        0x00000ac4:    e062        b.      B        0xb8c ; abs_altitude + 272
        0x00000ac6:    4987        .I      LDR      r1,[pc,#540] ; [0xce4] = 0x14438
        0x00000ac8:    4288        .B      CMP      r0,r1
        0x00000aca:    db05        ..      BLT      0xad8 ; abs_altitude + 92
        0x00000acc:    2353        S#      MOVS     r3,#0x53
        0x00000ace:    22ff        ."      MOVS     r2,#0xff
        0x00000ad0:    4c85        .L      LDR      r4,[pc,#532] ; [0xce8] = 0x19318c
        0x00000ad2:    4986        .I      LDR      r1,[pc,#536] ; [0xcec] = 0xffff9e51
        0x00000ad4:    32c3        .2      ADDS     r2,r2,#0xc3
        0x00000ad6:    e059        Y.      B        0xb8c ; abs_altitude + 272
        0x00000ad8:    4985        .I      LDR      r1,[pc,#532] ; [0xcf0] = 0x130b0
        0x00000ada:    4288        .B      CMP      r0,r1
        0x00000adc:    db05        ..      BLT      0xaea ; abs_altitude + 110
        0x00000ade:    234e        N#      MOVS     r3,#0x4e
        0x00000ae0:    22ff        ."      MOVS     r2,#0xff
        0x00000ae2:    4c84        .L      LDR      r4,[pc,#528] ; [0xcf4] = 0x20d8c5
        0x00000ae4:    4984        .I      LDR      r1,[pc,#528] ; [0xcf8] = 0xffff994c
        0x00000ae6:    32f6        .2      ADDS     r2,r2,#0xf6
        0x00000ae8:    e050        P.      B        0xb8c ; abs_altitude + 272
        0x00000aea:    4984        .I      LDR      r1,[pc,#528] ; [0xcfc] = 0x11d28
        0x00000aec:    4288        .B      CMP      r0,r1
        0x00000aee:    db05        ..      BLT      0xafc ; abs_altitude + 128
        0x00000af0:    2349        I#      MOVS     r3,#0x49
        0x00000af2:    2223        #"      MOVS     r2,#0x23
        0x00000af4:    4c82        .L      LDR      r4,[pc,#520] ; [0xd00] = 0x28e87a
        0x00000af6:    4983        .I      LDR      r1,[pc,#524] ; [0xd04] = 0xffff93a9
        0x00000af8:    0112        ..      LSLS     r2,r2,#4
        0x00000afa:    e047        G.      B        0xb8c ; abs_altitude + 272
        0x00000afc:    4982        .I      LDR      r1,[pc,#520] ; [0xd08] = 0x109a0
        0x00000afe:    4288        .B      CMP      r0,r1
        0x00000b00:    db05        ..      BLT      0xb0e ; abs_altitude + 146
        0x00000b02:    2344        D#      MOVS     r3,#0x44
        0x00000b04:    224f        O"      MOVS     r2,#0x4f
        0x00000b06:    4c81        .L      LDR      r4,[pc,#516] ; [0xd0c] = 0x316e02
        0x00000b08:    4981        .I      LDR      r1,[pc,#516] ; [0xd10] = 0xffff8d4a
        0x00000b0a:    00d2        ..      LSLS     r2,r2,#3
        0x00000b0c:    e03e        >.      B        0xb8c ; abs_altitude + 272
        0x00000b0e:    4981        .I      LDR      r1,[pc,#516] ; [0xd14] = 0xf618
        0x00000b10:    4288        .B      CMP      r0,r1
        0x00000b12:    db04        ..      BLT      0xb1e ; abs_altitude + 162
        0x00000b14:    233f        ?#      MOVS     r3,#0x3f
        0x00000b16:    4c80        .L      LDR      r4,[pc,#512] ; [0xd18] = 0x3a798c
        0x00000b18:    4980        .I      LDR      r1,[pc,#512] ; [0xd1c] = 0xffff8603
        0x00000b1a:    4a81        .J      LDR      r2,[pc,#516] ; [0xd20] = 0x2cf
        0x00000b1c:    e036        6.      B        0xb8c ; abs_altitude + 272
        0x00000b1e:    4981        .I      LDR      r1,[pc,#516] ; [0xd24] = 0xe290
        0x00000b20:    4288        .B      CMP      r0,r1
        0x00000b22:    db05        ..      BLT      0xb30 ; abs_altitude + 180
        0x00000b24:    4a7e        ~J      LDR      r2,[pc,#504] ; [0xd20] = 0x2cf
        0x00000b26:    233a        :#      MOVS     r3,#0x3a
        0x00000b28:    4c7f        .L      LDR      r4,[pc,#508] ; [0xd28] = 0x441f03
        0x00000b2a:    4980        .I      LDR      r1,[pc,#512] ; [0xd2c] = 0xffff7d9f
        0x00000b2c:    326b        k2      ADDS     r2,r2,#0x6b
        0x00000b2e:    e02d        -.      B        0xb8c ; abs_altitude + 272
        0x00000b30:    497f        .I      LDR      r1,[pc,#508] ; [0xd30] = 0xcf08
        0x00000b32:    4288        .B      CMP      r0,r1
        0x00000b34:    db05        ..      BLT      0xb42 ; abs_altitude + 198
        0x00000b36:    2335        5#      MOVS     r3,#0x35
        0x00000b38:    220f        ."      MOVS     r2,#0xf
        0x00000b3a:    4c7e        ~L      LDR      r4,[pc,#504] ; [0xd34] = 0x4e7757
        0x00000b3c:    497e        ~I      LDR      r1,[pc,#504] ; [0xd38] = 0xffff73d3
        0x00000b3e:    0192        ..      LSLS     r2,r2,#6
        0x00000b40:    e024        $.      B        0xb8c ; abs_altitude + 272
        0x00000b42:    497e        ~I      LDR      r1,[pc,#504] ; [0xd3c] = 0xbb80
        0x00000b44:    4288        .B      CMP      r0,r1
        0x00000b46:    db04        ..      BLT      0xb52 ; abs_altitude + 214
        0x00000b48:    2330        0#      MOVS     r3,#0x30
        0x00000b4a:    4c7d        }L      LDR      r4,[pc,#500] ; [0xd40] = 0x59a25c
        0x00000b4c:    497d        }I      LDR      r1,[pc,#500] ; [0xd44] = 0xffff6839
        0x00000b4e:    4a7e        ~J      LDR      r2,[pc,#504] ; [0xd48] = 0x46b
        0x00000b50:    e01c        ..      B        0xb8c ; abs_altitude + 272
        0x00000b52:    497e        ~I      LDR      r1,[pc,#504] ; [0xd4c] = 0xa7f8
        0x00000b54:    4288        .B      CMP      r0,r1
        0x00000b56:    db05        ..      BLT      0xb64 ; abs_altitude + 232
        0x00000b58:    4a7b        {J      LDR      r2,[pc,#492] ; [0xd48] = 0x46b
        0x00000b5a:    232b        +#      MOVS     r3,#0x2b
        0x00000b5c:    4c7c        |L      LDR      r4,[pc,#496] ; [0xd50] = 0x65c9aa
        0x00000b5e:    497d        }I      LDR      r1,[pc,#500] ; [0xd54] = 0xffff5a3e
        0x00000b60:    32df        .2      ADDS     r2,r2,#0xdf
        0x00000b62:    e013        ..      B        0xb8c ; abs_altitude + 272
        0x00000b64:    497c        |I      LDR      r1,[pc,#496] ; [0xd58] = 0x9470
        0x00000b66:    4288        .B      CMP      r0,r1
        0x00000b68:    db04        ..      BLT      0xb74 ; abs_altitude + 248
        0x00000b6a:    2326        &#      MOVS     r3,#0x26
        0x00000b6c:    4c7b        {L      LDR      r4,[pc,#492] ; [0xd5c] = 0x73252d
        0x00000b6e:    497c        |I      LDR      r1,[pc,#496] ; [0xd60] = 0xffff4907
        0x00000b70:    4a7c        |J      LDR      r2,[pc,#496] ; [0xd64] = 0x676
        0x00000b72:    e00b        ..      B        0xb8c ; abs_altitude + 272
        0x00000b74:    497c        |I      LDR      r1,[pc,#496] ; [0xd68] = 0x80e8
        0x00000b76:    4288        .B      CMP      r0,r1
        0x00000b78:    db04        ..      BLT      0xb84 ; abs_altitude + 264
        0x00000b7a:    2321        !#      MOVS     r3,#0x21
        0x00000b7c:    4c7b        {L      LDR      r4,[pc,#492] ; [0xd6c] = 0x8202cb
        0x00000b7e:    497c        |I      LDR      r1,[pc,#496] ; [0xd70] = 0xffff3344
        0x00000b80:    4a7c        |J      LDR      r2,[pc,#496] ; [0xd74] = 0x818
        0x00000b82:    e003        ..      B        0xb8c ; abs_altitude + 272
        0x00000b84:    4c7c        |L      LDR      r4,[pc,#496] ; [0xd78] = 0x92d408
        0x00000b86:    497d        }I      LDR      r1,[pc,#500] ; [0xd7c] = 0xffff16c8
        0x00000b88:    4a7d        }J      LDR      r2,[pc,#500] ; [0xd80] = 0xa7a
        0x00000b8a:    231c        .#      MOVS     r3,#0x1c
        0x00000b8c:    257d        }%      MOVS     r5,#0x7d
        0x00000b8e:    00ed        ..      LSLS     r5,r5,#3
        0x00000b90:    436b        kC      MULS     r3,r5,r3
        0x00000b92:    1ac0        ..      SUBS     r0,r0,r3
        0x00000b94:    b200        ..      SXTH     r0,r0
        0x00000b96:    4342        BC      MULS     r2,r0,r2
        0x00000b98:    4341        AC      MULS     r1,r0,r1
        0x00000b9a:    1292        ..      ASRS     r2,r2,#10
        0x00000b9c:    4342        BC      MULS     r2,r0,r2
        0x00000b9e:    1110        ..      ASRS     r0,r2,#4
        0x00000ba0:    1089        ..      ASRS     r1,r1,#2
        0x00000ba2:    01a2        ..      LSLS     r2,r4,#6
        0x00000ba4:    1851        Q.      ADDS     r1,r2,r1
        0x00000ba6:    1808        ..      ADDS     r0,r1,r0
        0x00000ba8:    1180        ..      ASRS     r0,r0,#6
        0x00000baa:    bd30        0.      POP      {r4,r5,pc}
    fbm320_timer_procedure
        0x00000bac:    b5f8        ..      PUSH     {r3-r7,lr}
        0x00000bae:    4875        uH      LDR      r0,[pc,#468] ; [0xd84] = 0x20000008
        0x00000bb0:    2401        .$      MOVS     r4,#1
        0x00000bb2:    8840        @.      LDRH     r0,[r0,#2]
        0x00000bb4:    2800        .(      CMP      r0,#0
        0x00000bb6:    d005        ..      BEQ      0xbc4 ; fbm320_timer_procedure + 24
        0x00000bb8:    4d73        sM      LDR      r5,[pc,#460] ; [0xd88] = 0x200000ec
        0x00000bba:    2801        .(      CMP      r0,#1
        0x00000bbc:    d004        ..      BEQ      0xbc8 ; fbm320_timer_procedure + 28
        0x00000bbe:    2802        .(      CMP      r0,#2
        0x00000bc0:    d169        i.      BNE      0xc96 ; fbm320_timer_procedure + 234
        0x00000bc2:    e00a        ..      B        0xbda ; fbm320_timer_procedure + 46
        0x00000bc4:    22f4        ."      MOVS     r2,#0xf4
        0x00000bc6:    e003        ..      B        0xbd0 ; fbm320_timer_procedure + 36
        0x00000bc8:    f7fffe35    ..5.    BL       fbm320_read_long_data ; 0x836
        0x00000bcc:    222e        ."      MOVS     r2,#0x2e
        0x00000bce:    6068        h`      STR      r0,[r5,#4]
        0x00000bd0:    21f4        .!      MOVS     r1,#0xf4
        0x00000bd2:    20d8        .       MOVS     r0,#0xd8
        0x00000bd4:    f002f962    ..b.    BL       I2C_WriteByte ; 0x2e9c
        0x00000bd8:    e05d        ].      B        0xc96 ; fbm320_timer_procedure + 234
        0x00000bda:    f7fffe2c    ..,.    BL       fbm320_read_long_data ; 0x836
        0x00000bde:    22f4        ."      MOVS     r2,#0xf4
        0x00000be0:    60a8        .`      STR      r0,[r5,#8]
        0x00000be2:    4611        .F      MOV      r1,r2
        0x00000be4:    20d8        .       MOVS     r0,#0xd8
        0x00000be6:    f002f959    ..Y.    BL       I2C_WriteByte ; 0x2e9c
        0x00000bea:    68a9        .h      LDR      r1,[r5,#8]
        0x00000bec:    6868        hh      LDR      r0,[r5,#4]
        0x00000bee:    f7fffcf5    ....    BL       calculate ; 0x5dc
        0x00000bf2:    68e8        .h      LDR      r0,[r5,#0xc]
        0x00000bf4:    f7ffff42    ..B.    BL       abs_altitude ; 0xa7c
        0x00000bf8:    f004f890    ....    BL       __aeabi_i2f ; 0x4d1c
        0x00000bfc:    4963        cI      LDR      r1,[pc,#396] ; [0xd8c] = 0x447a0000
        0x00000bfe:    f003feb1    ....    BL       __aeabi_fdiv ; 0x4964
        0x00000c02:    4e63        cN      LDR      r6,[pc,#396] ; [0xd90] = 0x20000134
        0x00000c04:    79f1        .y      LDRB     r1,[r6,#7]
        0x00000c06:    2900        .)      CMP      r1,#0
        0x00000c08:    d016        ..      BEQ      0xc38 ; fbm320_timer_procedure + 140
        0x00000c0a:    4602        .F      MOV      r2,r0
        0x00000c0c:    485e        ^H      LDR      r0,[pc,#376] ; [0xd88] = 0x200000ec
        0x00000c0e:    2105        .!      MOVS     r1,#5
        0x00000c10:    3814        .8      SUBS     r0,r0,#0x14
        0x00000c12:    f000fc17    ....    BL       Moving_Average ; 0x1444
        0x00000c16:    9000        ..      STR      r0,[sp,#0]
        0x00000c18:    6969        ii      LDR      r1,[r5,#0x14]
        0x00000c1a:    f003fe5e    ..^.    BL       __aeabi_fsub ; 0x48da
        0x00000c1e:    f004f8bc    ....    BL       __aeabi_f2d ; 0x4d9a
        0x00000c22:    0049        I.      LSLS     r1,r1,#1
        0x00000c24:    0849        I.      LSRS     r1,r1,#1
        0x00000c26:    280a        .(      CMP      r0,#0xa
        0x00000c28:    da19        ..      BGE      0xc5e ; fbm320_timer_procedure + 178
        0x00000c2a:    696f        oi      LDR      r7,[r5,#0x14]
        0x00000c2c:    9800        ..      LDR      r0,[sp,#0]
        0x00000c2e:    4639        9F      MOV      r1,r7
        0x00000c30:    f003fe53    ..S.    BL       __aeabi_fsub ; 0x48da
        0x00000c34:    4957        WI      LDR      r1,[pc,#348] ; [0xd94] = 0x3e8c154d
        0x00000c36:    e026        &.      B        0xc86 ; fbm320_timer_procedure + 218
        0x00000c38:    6969        ii      LDR      r1,[r5,#0x14]
        0x00000c3a:    004a        J.      LSLS     r2,r1,#1
        0x00000c3c:    0e12        ..      LSRS     r2,r2,#24
        0x00000c3e:    d00c        ..      BEQ      0xc5a ; fbm320_timer_procedure + 174
        0x00000c40:    f003fe4b    ..K.    BL       __aeabi_fsub ; 0x48da
        0x00000c44:    f004f8a9    ....    BL       __aeabi_f2d ; 0x4d9a
        0x00000c48:    0049        I.      LSLS     r1,r1,#1
        0x00000c4a:    0849        I.      LSRS     r1,r1,#1
        0x00000c4c:    f004f866    ..f.    BL       __aeabi_i2f ; 0x4d1c
        0x00000c50:    4951        QI      LDR      r1,[pc,#324] ; [0xd98] = 0x3dcccccd
        0x00000c52:    4288        .B      CMP      r0,r1
        0x00000c54:    da1f        ..      BGE      0xc96 ; fbm320_timer_procedure + 234
        0x00000c56:    71f4        .q      STRB     r4,[r6,#7]
        0x00000c58:    e01d        ..      B        0xc96 ; fbm320_timer_procedure + 234
        0x00000c5a:    6168        ha      STR      r0,[r5,#0x14]
        0x00000c5c:    e01b        ..      B        0xc96 ; fbm320_timer_procedure + 234
        0x00000c5e:    6969        ii      LDR      r1,[r5,#0x14]
        0x00000c60:    9800        ..      LDR      r0,[sp,#0]
        0x00000c62:    f003fe3a    ..:.    BL       __aeabi_fsub ; 0x48da
        0x00000c66:    f004f898    ....    BL       __aeabi_f2d ; 0x4d9a
        0x00000c6a:    0049        I.      LSLS     r1,r1,#1
        0x00000c6c:    0849        I.      LSRS     r1,r1,#1
        0x00000c6e:    2832        2(      CMP      r0,#0x32
        0x00000c70:    696f        oi      LDR      r7,[r5,#0x14]
        0x00000c72:    9800        ..      LDR      r0,[sp,#0]
        0x00000c74:    4639        9F      MOV      r1,r7
        0x00000c76:    da03        ..      BGE      0xc80 ; fbm320_timer_procedure + 212
        0x00000c78:    f003fe2f    ../.    BL       __aeabi_fsub ; 0x48da
        0x00000c7c:    4947        GI      LDR      r1,[pc,#284] ; [0xd9c] = 0x3e224dd3
        0x00000c7e:    e002        ..      B        0xc86 ; fbm320_timer_procedure + 218
        0x00000c80:    f003fe2b    ..+.    BL       __aeabi_fsub ; 0x48da
        0x00000c84:    4946        FI      LDR      r1,[pc,#280] ; [0xda0] = 0x3db020c5
        0x00000c86:    f003fe30    ..0.    BL       __aeabi_fmul ; 0x48ea
        0x00000c8a:    4639        9F      MOV      r1,r7
        0x00000c8c:    f003fdd4    ....    BL       __aeabi_fadd ; 0x4838
        0x00000c90:    6168        ha      STR      r0,[r5,#0x14]
        0x00000c92:    70f4        .p      STRB     r4,[r6,#3]
        0x00000c94:    7134        4q      STRB     r4,[r6,#4]
        0x00000c96:    493b        ;I      LDR      r1,[pc,#236] ; [0xd84] = 0x20000008
        0x00000c98:    8848        H.      LDRH     r0,[r1,#2]
        0x00000c9a:    2803        .(      CMP      r0,#3
        0x00000c9c:    d202        ..      BCS      0xca4 ; fbm320_timer_procedure + 248
        0x00000c9e:    1c40        @.      ADDS     r0,r0,#1
        0x00000ca0:    8048        H.      STRH     r0,[r1,#2]
        0x00000ca2:    bdf8        ..      POP      {r3-r7,pc}
        0x00000ca4:    804c        L.      STRH     r4,[r1,#2]
        0x00000ca6:    bdf8        ..      POP      {r3-r7,pc}
    $d
        0x00000ca8:    00001388    ....    DCD    5000
        0x00000cac:    40010000    ...@    DCD    1073807360
        0x00000cb0:    00004e20     N..    DCD    20000
        0x00000cb4:    00019258    X...    DCD    103000
        0x00000cb8:    fffde2f5    ....    DCD    4294828789
        0x00000cbc:    ffffadf1    ....    DCD    4294946289
        0x00000cc0:    00017ed0    .~..    DCD    98000
        0x00000cc4:    000447d3    .G..    DCD    280531
        0x00000cc8:    ffffaa93    ....    DCD    4294945427
        0x00000ccc:    00016b48    Hk..    DCD    93000
        0x00000cd0:    000af1c5    ....    DCD    717253
        0x00000cd4:    ffffa6e3    ....    DCD    4294944483
        0x00000cd8:    000157c0    .W..    DCD    88000
        0x00000cdc:    0011e7ad    ....    DCD    1173421
        0x00000ce0:    ffffa2d2    ....    DCD    4294943442
        0x00000ce4:    00014438    8D..    DCD    83000
        0x00000ce8:    0019318c    .1..    DCD    1651084
        0x00000cec:    ffff9e51    Q...    DCD    4294942289
        0x00000cf0:    000130b0    .0..    DCD    78000
        0x00000cf4:    0020d8c5    .. .    DCD    2152645
        0x00000cf8:    ffff994c    L...    DCD    4294941004
        0x00000cfc:    00011d28    (...    DCD    73000
        0x00000d00:    0028e87a    z.(.    DCD    2680954
        0x00000d04:    ffff93a9    ....    DCD    4294939561
        0x00000d08:    000109a0    ....    DCD    68000
        0x00000d0c:    00316e02    .n1.    DCD    3239426
        0x00000d10:    ffff8d4a    J...    DCD    4294937930
        0x00000d14:    0000f618    ....    DCD    63000
        0x00000d18:    003a798c    .y:.    DCD    3832204
        0x00000d1c:    ffff8603    ....    DCD    4294936067
        0x00000d20:    000002cf    ....    DCD    719
        0x00000d24:    0000e290    ....    DCD    58000
        0x00000d28:    00441f03    ..D.    DCD    4464387
        0x00000d2c:    ffff7d9f    .}..    DCD    4294933919
        0x00000d30:    0000cf08    ....    DCD    53000
        0x00000d34:    004e7757    WwN.    DCD    5142359
        0x00000d38:    ffff73d3    .s..    DCD    4294931411
        0x00000d3c:    0000bb80    ....    DCD    48000
        0x00000d40:    0059a25c    \.Y.    DCD    5874268
        0x00000d44:    ffff6839    9h..    DCD    4294928441
        0x00000d48:    0000046b    k...    DCD    1131
        0x00000d4c:    0000a7f8    ....    DCD    43000
        0x00000d50:    0065c9aa    ..e.    DCD    6670762
        0x00000d54:    ffff5a3e    >Z..    DCD    4294924862
        0x00000d58:    00009470    p...    DCD    38000
        0x00000d5c:    0073252d    -%s.    DCD    7546157
        0x00000d60:    ffff4907    .I..    DCD    4294920455
        0x00000d64:    00000676    v...    DCD    1654
        0x00000d68:    000080e8    ....    DCD    33000
        0x00000d6c:    008202cb    ....    DCD    8520395
        0x00000d70:    ffff3344    D3..    DCD    4294914884
        0x00000d74:    00000818    ....    DCD    2072
        0x00000d78:    0092d408    ....    DCD    9622536
        0x00000d7c:    ffff16c8    ....    DCD    4294907592
        0x00000d80:    00000a7a    z...    DCD    2682
        0x00000d84:    20000008    ...     DCD    536870920
        0x00000d88:    200000ec    ...     DCD    536871148
        0x00000d8c:    447a0000    ..zD    DCD    1148846080
        0x00000d90:    20000134    4..     DCD    536871220
        0x00000d94:    3e8c154d    M..>    DCD    1049367885
        0x00000d98:    3dcccccd    ...=    DCD    1036831949
        0x00000d9c:    3e224dd3    .M">    DCD    1042435539
        0x00000da0:    3db020c5    . .=    DCD    1034952901
    $t
    .text
    motor_init
        0x00000da4:    b57c        |.      PUSH     {r2-r6,lr}
        0x00000da6:    4d3b        ;M      LDR      r5,[pc,#236] ; [0xe94] = 0x55f0
        0x00000da8:    4c3b        ;L      LDR      r4,[pc,#236] ; [0xe98] = 0x40040000
        0x00000daa:    2301        .#      MOVS     r3,#1
        0x00000dac:    462a        *F      MOV      r2,r5
        0x00000dae:    2100        .!      MOVS     r1,#0
        0x00000db0:    4620         F      MOV      r0,r4
        0x00000db2:    f002ff37    ..7.    BL       PWM_ConfigOutputChannel ; 0x3c24
        0x00000db6:    2301        .#      MOVS     r3,#1
        0x00000db8:    462a        *F      MOV      r2,r5
        0x00000dba:    4619        .F      MOV      r1,r3
        0x00000dbc:    4620         F      MOV      r0,r4
        0x00000dbe:    f002ff31    ..1.    BL       PWM_ConfigOutputChannel ; 0x3c24
        0x00000dc2:    2301        .#      MOVS     r3,#1
        0x00000dc4:    462a        *F      MOV      r2,r5
        0x00000dc6:    2102        .!      MOVS     r1,#2
        0x00000dc8:    4620         F      MOV      r0,r4
        0x00000dca:    f002ff2b    ..+.    BL       PWM_ConfigOutputChannel ; 0x3c24
        0x00000dce:    2301        .#      MOVS     r3,#1
        0x00000dd0:    462a        *F      MOV      r2,r5
        0x00000dd2:    2103        .!      MOVS     r1,#3
        0x00000dd4:    4620         F      MOV      r0,r4
        0x00000dd6:    f002ff25    ..%.    BL       PWM_ConfigOutputChannel ; 0x3c24
        0x00000dda:    210f        .!      MOVS     r1,#0xf
        0x00000ddc:    4620         F      MOV      r0,r4
        0x00000dde:    f002ffae    ....    BL       PWM_EnableOutput ; 0x3d3e
        0x00000de2:    210f        .!      MOVS     r1,#0xf
        0x00000de4:    4620         F      MOV      r0,r4
        0x00000de6:    f002ff96    ....    BL       PWM_Start ; 0x3d16
        0x00000dea:    68e0        .h      LDR      r0,[r4,#0xc]
        0x00000dec:    492b        +I      LDR      r1,[pc,#172] ; [0xe9c] = 0x2000000c
        0x00000dee:    6008        .`      STR      r0,[r1,#0]
        0x00000df0:    69a1        .i      LDR      r1,[r4,#0x18]
        0x00000df2:    9100        ..      STR      r1,[sp,#0]
        0x00000df4:    9001        ..      STR      r0,[sp,#4]
        0x00000df6:    6963        ci      LDR      r3,[r4,#0x14]
        0x00000df8:    6922        "i      LDR      r2,[r4,#0x10]
        0x00000dfa:    68e1        .h      LDR      r1,[r4,#0xc]
        0x00000dfc:    4828        (H      LDR      r0,[pc,#160] ; [0xea0] = 0x6d20
        0x00000dfe:    f004fa43    ..C.    BL       __0printf ; 0x5288
        0x00000e02:    6ae0        .j      LDR      r0,[r4,#0x2c]
        0x00000e04:    0c00        ..      LSRS     r0,r0,#16
        0x00000e06:    0400        ..      LSLS     r0,r0,#16
        0x00000e08:    62e0        .b      STR      r0,[r4,#0x2c]
        0x00000e0a:    6b20         k      LDR      r0,[r4,#0x30]
        0x00000e0c:    0c00        ..      LSRS     r0,r0,#16
        0x00000e0e:    0400        ..      LSLS     r0,r0,#16
        0x00000e10:    6320         c      STR      r0,[r4,#0x30]
        0x00000e12:    6b60        `k      LDR      r0,[r4,#0x34]
        0x00000e14:    0c00        ..      LSRS     r0,r0,#16
        0x00000e16:    0400        ..      LSLS     r0,r0,#16
        0x00000e18:    6360        `c      STR      r0,[r4,#0x34]
        0x00000e1a:    6ba0        .k      LDR      r0,[r4,#0x38]
        0x00000e1c:    0c00        ..      LSRS     r0,r0,#16
        0x00000e1e:    0400        ..      LSLS     r0,r0,#16
        0x00000e20:    63a0        .c      STR      r0,[r4,#0x38]
        0x00000e22:    bd7c        |.      POP      {r2-r6,pc}
    motor_update
        0x00000e24:    b5f8        ..      PUSH     {r3-r7,lr}
        0x00000e26:    4606        .F      MOV      r6,r0
        0x00000e28:    2400        .$      MOVS     r4,#0
        0x00000e2a:    00a5        ..      LSLS     r5,r4,#2
        0x00000e2c:    217f        .!      MOVS     r1,#0x7f
        0x00000e2e:    5970        pY      LDR      r0,[r6,r5]
        0x00000e30:    2200        ."      MOVS     r2,#0
        0x00000e32:    05c9        ..      LSLS     r1,r1,#23
        0x00000e34:    f000fb46    ..F.    BL       data_limit ; 0x14c4
        0x00000e38:    5170        pQ      STR      r0,[r6,r5]
        0x00000e3a:    4607        .F      MOV      r7,r0
        0x00000e3c:    4817        .H      LDR      r0,[pc,#92] ; [0xe9c] = 0x2000000c
        0x00000e3e:    6800        .h      LDR      r0,[r0,#0]
        0x00000e40:    f003ff77    ..w.    BL       __aeabi_ui2f ; 0x4d32
        0x00000e44:    4639        9F      MOV      r1,r7
        0x00000e46:    f003fd50    ..P.    BL       __aeabi_fmul ; 0x48ea
        0x00000e4a:    f003ff92    ....    BL       __aeabi_f2uiz ; 0x4d72
        0x00000e4e:    2800        .(      CMP      r0,#0
        0x00000e50:    d000        ..      BEQ      0xe54 ; motor_update + 48
        0x00000e52:    1e40        @.      SUBS     r0,r0,#1
        0x00000e54:    b281        ..      UXTH     r1,r0
        0x00000e56:    4810        .H      LDR      r0,[pc,#64] ; [0xe98] = 0x40040000
        0x00000e58:    1828        (.      ADDS     r0,r5,r0
        0x00000e5a:    6ac2        .j      LDR      r2,[r0,#0x2c]
        0x00000e5c:    0c12        ..      LSRS     r2,r2,#16
        0x00000e5e:    0412        ..      LSLS     r2,r2,#16
        0x00000e60:    4311        .C      ORRS     r1,r1,r2
        0x00000e62:    62c1        .b      STR      r1,[r0,#0x2c]
        0x00000e64:    1c64        d.      ADDS     r4,r4,#1
        0x00000e66:    b2e4        ..      UXTB     r4,r4
        0x00000e68:    2c04        .,      CMP      r4,#4
        0x00000e6a:    d3de        ..      BCC      0xe2a ; motor_update + 6
        0x00000e6c:    bdf8        ..      POP      {r3-r7,pc}
    motor_stop
        0x00000e6e:    480a        .H      LDR      r0,[pc,#40] ; [0xe98] = 0x40040000
        0x00000e70:    6ac1        .j      LDR      r1,[r0,#0x2c]
        0x00000e72:    0c09        ..      LSRS     r1,r1,#16
        0x00000e74:    0409        ..      LSLS     r1,r1,#16
        0x00000e76:    62c1        .b      STR      r1,[r0,#0x2c]
        0x00000e78:    6b01        .k      LDR      r1,[r0,#0x30]
        0x00000e7a:    0c09        ..      LSRS     r1,r1,#16
        0x00000e7c:    0409        ..      LSLS     r1,r1,#16
        0x00000e7e:    6301        .c      STR      r1,[r0,#0x30]
        0x00000e80:    6b41        Ak      LDR      r1,[r0,#0x34]
        0x00000e82:    0c09        ..      LSRS     r1,r1,#16
        0x00000e84:    0409        ..      LSLS     r1,r1,#16
        0x00000e86:    6341        Ac      STR      r1,[r0,#0x34]
        0x00000e88:    6b81        .k      LDR      r1,[r0,#0x38]
        0x00000e8a:    0c09        ..      LSRS     r1,r1,#16
        0x00000e8c:    0409        ..      LSLS     r1,r1,#16
        0x00000e8e:    6381        .c      STR      r1,[r0,#0x38]
        0x00000e90:    4770        pG      BX       lr
    $d
        0x00000e92:    0000        ..      DCW    0
        0x00000e94:    000055f0    .U..    DCD    22000
        0x00000e98:    40040000    ...@    DCD    1074003968
        0x00000e9c:    2000000c    ...     DCD    536870924
        0x00000ea0:    00006d20     m..    DCD    27936
    $t
    .text
    system_init
        0x00000ea4:    b5f8        ..      PUSH     {r3-r7,lr}
        0x00000ea6:    2059        Y       MOVS     r0,#0x59
        0x00000ea8:    4ca2        .L      LDR      r4,[pc,#648] ; [0x1134] = 0x50000100
        0x00000eaa:    2116        .!      MOVS     r1,#0x16
        0x00000eac:    2288        ."      MOVS     r2,#0x88
        0x00000eae:    6020         `      STR      r0,[r4,#0]
        0x00000eb0:    6021        !`      STR      r1,[r4,#0]
        0x00000eb2:    6022        "`      STR      r2,[r4,#0]
        0x00000eb4:    6823        #h      LDR      r3,[r4,#0]
        0x00000eb6:    2b00        .+      CMP      r3,#0
        0x00000eb8:    d0f9        ..      BEQ      0xeae ; system_init + 10
        0x00000eba:    f002fe5b    ..[.    BL       CLK_InitHIRC ; 0x3b74
        0x00000ebe:    f000f9d1    ....    BL       SystemCoreClockUpdate ; 0x1264
        0x00000ec2:    2505        .%      MOVS     r5,#5
        0x00000ec4:    072d        -.      LSLS     r5,r5,#28
        0x00000ec6:    6b28        (k      LDR      r0,[r5,#0x30]
        0x00000ec8:    499b        .I      LDR      r1,[pc,#620] ; [0x1138] = 0x303
        0x00000eca:    4308        .C      ORRS     r0,r0,r1
        0x00000ecc:    6328        (c      STR      r0,[r5,#0x30]
        0x00000ece:    4f9b        .O      LDR      r7,[pc,#620] ; [0x113c] = 0x50004000
        0x00000ed0:    6878        xh      LDR      r0,[r7,#4]
        0x00000ed2:    2601        .&      MOVS     r6,#1
        0x00000ed4:    0476        v.      LSLS     r6,r6,#17
        0x00000ed6:    43b0        .C      BICS     r0,r0,r6
        0x00000ed8:    6078        x`      STR      r0,[r7,#4]
        0x00000eda:    4899        .H      LDR      r0,[pc,#612] ; [0x1140] = 0xa7803d10
        0x00000edc:    f002fe2f    ../.    BL       CLK_EnableModuleClock ; 0x3b3e
        0x00000ee0:    4898        .H      LDR      r0,[pc,#608] ; [0x1144] = 0xae800002
        0x00000ee2:    f002fe2c    ..,.    BL       CLK_EnableModuleClock ; 0x3b3e
        0x00000ee6:    2100        .!      MOVS     r1,#0
        0x00000ee8:    4896        .H      LDR      r0,[pc,#600] ; [0x1144] = 0xae800002
        0x00000eea:    f002fe15    ....    BL       CLK_SetModuleClock ; 0x3b18
        0x00000eee:    4896        .H      LDR      r0,[pc,#600] ; [0x1148] = 0xaec00003
        0x00000ef0:    f002fe25    ..%.    BL       CLK_EnableModuleClock ; 0x3b3e
        0x00000ef4:    2100        .!      MOVS     r1,#0
        0x00000ef6:    4894        .H      LDR      r0,[pc,#592] ; [0x1148] = 0xaec00003
        0x00000ef8:    f002fe0e    ....    BL       CLK_SetModuleClock ; 0x3b18
        0x00000efc:    4893        .H      LDR      r0,[pc,#588] ; [0x114c] = 0xa7c00014
        0x00000efe:    f002fe1e    ....    BL       CLK_EnableModuleClock ; 0x3b3e
        0x00000f02:    4893        .H      LDR      r0,[pc,#588] ; [0x1150] = 0xa7e00015
        0x00000f04:    f002fe1b    ....    BL       CLK_EnableModuleClock ; 0x3b3e
        0x00000f08:    4892        .H      LDR      r0,[pc,#584] ; [0x1154] = 0xe6600017
        0x00000f0a:    f002fe18    ....    BL       CLK_EnableModuleClock ; 0x3b3e
        0x00000f0e:    200f        .       MOVS     r0,#0xf
        0x00000f10:    0280        ..      LSLS     r0,r0,#10
        0x00000f12:    63a8        .c      STR      r0,[r5,#0x38]
        0x00000f14:    4987        .I      LDR      r1,[pc,#540] ; [0x1134] = 0x50000100
        0x00000f16:    4890        .H      LDR      r0,[pc,#576] ; [0x1158] = 0x8080
        0x00000f18:    39c0        .9      SUBS     r1,r1,#0xc0
        0x00000f1a:    6048        H`      STR      r0,[r1,#4]
        0x00000f1c:    488f        .H      LDR      r0,[pc,#572] ; [0x115c] = 0x80000008
        0x00000f1e:    f002fe0e    ....    BL       CLK_EnableModuleClock ; 0x3b3e
        0x00000f22:    6be8        .k      LDR      r0,[r5,#0x3c]
        0x00000f24:    2103        .!      MOVS     r1,#3
        0x00000f26:    0309        ..      LSLS     r1,r1,#12
        0x00000f28:    4308        .C      ORRS     r0,r0,r1
        0x00000f2a:    63e8        .c      STR      r0,[r5,#0x3c]
        0x00000f2c:    4883        .H      LDR      r0,[pc,#524] ; [0x113c] = 0x50004000
        0x00000f2e:    30c0        .0      ADDS     r0,r0,#0xc0
        0x00000f30:    6841        Ah      LDR      r1,[r0,#4]
        0x00000f32:    2203        ."      MOVS     r2,#3
        0x00000f34:    0512        ..      LSLS     r2,r2,#20
        0x00000f36:    4391        .C      BICS     r1,r1,r2
        0x00000f38:    6041        A`      STR      r1,[r0,#4]
        0x00000f3a:    6b28        (k      LDR      r0,[r5,#0x30]
        0x00000f3c:    2108        .!      MOVS     r1,#8
        0x00000f3e:    4308        .C      ORRS     r0,r0,r1
        0x00000f40:    6328        (c      STR      r0,[r5,#0x30]
        0x00000f42:    6b68        hk      LDR      r0,[r5,#0x34]
        0x00000f44:    21c2        .!      MOVS     r1,#0xc2
        0x00000f46:    4308        .C      ORRS     r0,r0,r1
        0x00000f48:    6368        hc      STR      r0,[r5,#0x34]
        0x00000f4a:    6878        xh      LDR      r0,[r7,#4]
        0x00000f4c:    00b1        ..      LSLS     r1,r6,#2
        0x00000f4e:    4388        .C      BICS     r0,r0,r1
        0x00000f50:    6078        x`      STR      r0,[r7,#4]
        0x00000f52:    487a        zH      LDR      r0,[pc,#488] ; [0x113c] = 0x50004000
        0x00000f54:    3040        @0      ADDS     r0,r0,#0x40
        0x00000f56:    6841        Ah      LDR      r1,[r0,#4]
        0x00000f58:    43b1        .C      BICS     r1,r1,r6
        0x00000f5a:    6041        A`      STR      r1,[r0,#4]
        0x00000f5c:    6841        Ah      LDR      r1,[r0,#4]
        0x00000f5e:    0172        r.      LSLS     r2,r6,#5
        0x00000f60:    4391        .C      BICS     r1,r1,r2
        0x00000f62:    6041        A`      STR      r1,[r0,#4]
        0x00000f64:    6841        Ah      LDR      r1,[r0,#4]
        0x00000f66:    0052        R.      LSLS     r2,r2,#1
        0x00000f68:    4391        .C      BICS     r1,r1,r2
        0x00000f6a:    6041        A`      STR      r1,[r0,#4]
        0x00000f6c:    487c        |H      LDR      r0,[pc,#496] ; [0x1160] = 0xa660000d
        0x00000f6e:    f002fde6    ....    BL       CLK_EnableModuleClock ; 0x3b3e
        0x00000f72:    2000        .       MOVS     r0,#0
        0x00000f74:    6020         `      STR      r0,[r4,#0]
        0x00000f76:    bdf8        ..      POP      {r3-r7,pc}
    param_load
        0x00000f78:    b5fe        ..      PUSH     {r1-r7,lr}
        0x00000f7a:    2400        .$      MOVS     r4,#0
        0x00000f7c:    4e7a        zN      LDR      r6,[pc,#488] ; [0x1168] = 0x43160000
        0x00000f7e:    4d79        yM      LDR      r5,[pc,#484] ; [0x1164] = 0x3c23d70a
        0x00000f80:    9400        ..      STR      r4,[sp,#0]
        0x00000f82:    4623        #F      MOV      r3,r4
        0x00000f84:    4622        "F      MOV      r2,r4
        0x00000f86:    4631        1F      MOV      r1,r6
        0x00000f88:    4878        xH      LDR      r0,[pc,#480] ; [0x116c] = 0x20000200
        0x00000f8a:    9502        ..      STR      r5,[sp,#8]
        0x00000f8c:    9401        ..      STR      r4,[sp,#4]
        0x00000f8e:    f000fad7    ....    BL       set_pid_param ; 0x1540
        0x00000f92:    4876        vH      LDR      r0,[pc,#472] ; [0x116c] = 0x20000200
        0x00000f94:    2300        .#      MOVS     r3,#0
        0x00000f96:    9400        ..      STR      r4,[sp,#0]
        0x00000f98:    461a        .F      MOV      r2,r3
        0x00000f9a:    4631        1F      MOV      r1,r6
        0x00000f9c:    3830        08      SUBS     r0,r0,#0x30
        0x00000f9e:    9502        ..      STR      r5,[sp,#8]
        0x00000fa0:    9401        ..      STR      r4,[sp,#4]
        0x00000fa2:    f000facd    ....    BL       set_pid_param ; 0x1540
        0x00000fa6:    4871        qH      LDR      r0,[pc,#452] ; [0x116c] = 0x20000200
        0x00000fa8:    2300        .#      MOVS     r3,#0
        0x00000faa:    9400        ..      STR      r4,[sp,#0]
        0x00000fac:    461a        .F      MOV      r2,r3
        0x00000fae:    4970        pI      LDR      r1,[pc,#448] ; [0x1170] = 0x42c80000
        0x00000fb0:    3030        00      ADDS     r0,r0,#0x30
        0x00000fb2:    9502        ..      STR      r5,[sp,#8]
        0x00000fb4:    9401        ..      STR      r4,[sp,#4]
        0x00000fb6:    f000fac3    ....    BL       set_pid_param ; 0x1540
        0x00000fba:    486c        lH      LDR      r0,[pc,#432] ; [0x116c] = 0x20000200
        0x00000fbc:    4e6d        mN      LDR      r6,[pc,#436] ; [0x1174] = 0x41a00000
        0x00000fbe:    4f6e        nO      LDR      r7,[pc,#440] ; [0x1178] = 0x3e99999a
        0x00000fc0:    4b6e        nK      LDR      r3,[pc,#440] ; [0x117c] = 0x3c1ba5e3
        0x00000fc2:    2200        ."      MOVS     r2,#0
        0x00000fc4:    496e        nI      LDR      r1,[pc,#440] ; [0x1180] = 0x3e3851ec
        0x00000fc6:    3890        .8      SUBS     r0,r0,#0x90
        0x00000fc8:    9700        ..      STR      r7,[sp,#0]
        0x00000fca:    9601        ..      STR      r6,[sp,#4]
        0x00000fcc:    9502        ..      STR      r5,[sp,#8]
        0x00000fce:    f000fab7    ....    BL       set_pid_param ; 0x1540
        0x00000fd2:    4866        fH      LDR      r0,[pc,#408] ; [0x116c] = 0x20000200
        0x00000fd4:    4b69        iK      LDR      r3,[pc,#420] ; [0x117c] = 0x3c1ba5e3
        0x00000fd6:    2200        ."      MOVS     r2,#0
        0x00000fd8:    4969        iI      LDR      r1,[pc,#420] ; [0x1180] = 0x3e3851ec
        0x00000fda:    38c0        .8      SUBS     r0,r0,#0xc0
        0x00000fdc:    9700        ..      STR      r7,[sp,#0]
        0x00000fde:    9601        ..      STR      r6,[sp,#4]
        0x00000fe0:    9502        ..      STR      r5,[sp,#8]
        0x00000fe2:    f000faad    ....    BL       set_pid_param ; 0x1540
        0x00000fe6:    203f        ?       MOVS     r0,#0x3f
        0x00000fe8:    0600        ..      LSLS     r0,r0,#24
        0x00000fea:    9001        ..      STR      r0,[sp,#4]
        0x00000fec:    485f        _H      LDR      r0,[pc,#380] ; [0x116c] = 0x20000200
        0x00000fee:    2300        .#      MOVS     r3,#0
        0x00000ff0:    461a        .F      MOV      r2,r3
        0x00000ff2:    0769        i.      LSLS     r1,r5,#29
        0x00000ff4:    9700        ..      STR      r7,[sp,#0]
        0x00000ff6:    9502        ..      STR      r5,[sp,#8]
        0x00000ff8:    3860        `8      SUBS     r0,r0,#0x60
        0x00000ffa:    f000faa1    ....    BL       set_pid_param ; 0x1540
        0x00000ffe:    485b        [H      LDR      r0,[pc,#364] ; [0x116c] = 0x20000200
        0x00001000:    2300        .#      MOVS     r3,#0
        0x00001002:    217f        .!      MOVS     r1,#0x7f
        0x00001004:    9400        ..      STR      r4,[sp,#0]
        0x00001006:    461a        .F      MOV      r2,r3
        0x00001008:    05c9        ..      LSLS     r1,r1,#23
        0x0000100a:    30c0        .0      ADDS     r0,r0,#0xc0
        0x0000100c:    9502        ..      STR      r5,[sp,#8]
        0x0000100e:    9401        ..      STR      r4,[sp,#4]
        0x00001010:    f000fa96    ....    BL       set_pid_param ; 0x1540
        0x00001014:    485b        [H      LDR      r0,[pc,#364] ; [0x1184] = 0x20000350
        0x00001016:    2300        .#      MOVS     r3,#0
        0x00001018:    217f        .!      MOVS     r1,#0x7f
        0x0000101a:    9400        ..      STR      r4,[sp,#0]
        0x0000101c:    461a        .F      MOV      r2,r3
        0x0000101e:    05c9        ..      LSLS     r1,r1,#23
        0x00001020:    4607        .F      MOV      r7,r0
        0x00001022:    9502        ..      STR      r5,[sp,#8]
        0x00001024:    9401        ..      STR      r4,[sp,#4]
        0x00001026:    f000fa8b    ....    BL       set_pid_param ; 0x1540
        0x0000102a:    2300        .#      MOVS     r3,#0
        0x0000102c:    9400        ..      STR      r4,[sp,#0]
        0x0000102e:    461a        .F      MOV      r2,r3
        0x00001030:    4955        UI      LDR      r1,[pc,#340] ; [0x1188] = 0x40a00000
        0x00001032:    4638        8F      MOV      r0,r7
        0x00001034:    9502        ..      STR      r5,[sp,#8]
        0x00001036:    9401        ..      STR      r4,[sp,#4]
        0x00001038:    f000fa82    ....    BL       set_pid_param ; 0x1540
        0x0000103c:    4853        SH      LDR      r0,[pc,#332] ; [0x118c] = 0x44480000
        0x0000103e:    227f        ."      MOVS     r2,#0x7f
        0x00001040:    213f        ?!      MOVS     r1,#0x3f
        0x00001042:    9001        ..      STR      r0,[sp,#4]
        0x00001044:    2300        .#      MOVS     r3,#0
        0x00001046:    05d2        ..      LSLS     r2,r2,#23
        0x00001048:    0609        ..      LSLS     r1,r1,#24
        0x0000104a:    9600        ..      STR      r6,[sp,#0]
        0x0000104c:    9502        ..      STR      r5,[sp,#8]
        0x0000104e:    4638        8F      MOV      r0,r7
        0x00001050:    f000fa76    ..v.    BL       set_pid_param ; 0x1540
        0x00001054:    bdfe        ..      POP      {r1-r7,pc}
    peripheral_init
        0x00001056:    b510        ..      PUSH     {r4,lr}
        0x00001058:    21e1        .!      MOVS     r1,#0xe1
        0x0000105a:    0249        I.      LSLS     r1,r1,#9
        0x0000105c:    484c        LH      LDR      r0,[pc,#304] ; [0x1190] = 0x40050000
        0x0000105e:    f002f85b    ..[.    BL       uart_console_init ; 0x3118
        0x00001062:    a04c        L.      ADR      r0,{pc}+0x132 ; 0x1194
        0x00001064:    f004f910    ....    BL       __0printf ; 0x5288
        0x00001068:    4950        PI      LDR      r1,[pc,#320] ; [0x11ac] = 0xf4240
        0x0000106a:    4851        QH      LDR      r0,[pc,#324] ; [0x11b0] = 0x40020000
        0x0000106c:    f001ff12    ....    BL       I2C_Init ; 0x2e94
        0x00001070:    f7fffc9f    ....    BL       fbm320_init ; 0x9b2
        0x00001074:    a04f        O.      ADR      r0,{pc}+0x140 ; 0x11b4
        0x00001076:    f004f907    ....    BL       __0printf ; 0x5288
        0x0000107a:    f7fff881    ....    BL       bmi160_init ; 0x180
        0x0000107e:    a053        S.      ADR      r0,{pc}+0x14e ; 0x11cc
        0x00001080:    f004f902    ....    BL       __0printf ; 0x5288
        0x00001084:    f7fffe8e    ....    BL       motor_init ; 0xda4
        0x00001088:    f000fe88    ....    BL       scheduler_init ; 0x1d9c
        0x0000108c:    f003f83b    ..;.    BL       rc_channel_init ; 0x4106
        0x00001090:    f7ffff72    ..r.    BL       param_load ; 0xf78
        0x00001094:    a053        S.      ADR      r0,{pc}+0x150 ; 0x11e4
        0x00001096:    f004f8f7    ....    BL       __0printf ; 0x5288
        0x0000109a:    a058        X.      ADR      r0,{pc}+0x162 ; 0x11fc
        0x0000109c:    f004f8f4    ....    BL       __0printf ; 0x5288
        0x000010a0:    f001fc64    ..d.    BL       gyro_offset ; 0x296c
        0x000010a4:    f001fce7    ....    BL       accel_offset ; 0x2a76
        0x000010a8:    f001fba4    ....    BL       inertial_sensor_init ; 0x27f4
        0x000010ac:    a05a        Z.      ADR      r0,{pc}+0x16c ; 0x1218
        0x000010ae:    f004f8eb    ....    BL       __0printf ; 0x5288
        0x000010b2:    bd10        ..      POP      {r4,pc}
    fc_status_reset
        0x000010b4:    485d        ]H      LDR      r0,[pc,#372] ; [0x122c] = 0x20000134
        0x000010b6:    2100        .!      MOVS     r1,#0
        0x000010b8:    7001        .p      STRB     r1,[r0,#0]
        0x000010ba:    2201        ."      MOVS     r2,#1
        0x000010bc:    7042        Bp      STRB     r2,[r0,#1]
        0x000010be:    7081        .p      STRB     r1,[r0,#2]
        0x000010c0:    70c1        .p      STRB     r1,[r0,#3]
        0x000010c2:    7101        .q      STRB     r1,[r0,#4]
        0x000010c4:    7141        Aq      STRB     r1,[r0,#5]
        0x000010c6:    7181        .q      STRB     r1,[r0,#6]
        0x000010c8:    71c1        .q      STRB     r1,[r0,#7]
        0x000010ca:    2106        .!      MOVS     r1,#6
        0x000010cc:    7201        .r      STRB     r1,[r0,#8]
        0x000010ce:    217d        }!      MOVS     r1,#0x7d
        0x000010d0:    0109        ..      LSLS     r1,r1,#4
        0x000010d2:    8141        A.      STRH     r1,[r0,#0xa]
        0x000010d4:    4770        pG      BX       lr
    systick_config
        0x000010d6:    4956        VI      LDR      r1,[pc,#344] ; [0x1230] = 0xffffff
        0x000010d8:    b510        ..      PUSH     {r4,lr}
        0x000010da:    4288        .B      CMP      r0,r1
        0x000010dc:    d901        ..      BLS      0x10e2 ; systick_config + 12
        0x000010de:    2001        .       MOVS     r0,#1
        0x000010e0:    bd10        ..      POP      {r4,pc}
        0x000010e2:    0201        ..      LSLS     r1,r0,#8
        0x000010e4:    0a09        ..      LSRS     r1,r1,#8
        0x000010e6:    4853        SH      LDR      r0,[pc,#332] ; [0x1234] = 0xe000e000
        0x000010e8:    1e49        I.      SUBS     r1,r1,#1
        0x000010ea:    6141        Aa      STR      r1,[r0,#0x14]
        0x000010ec:    4952        RI      LDR      r1,[pc,#328] ; [0x1238] = 0xe000ed04
        0x000010ee:    2207        ."      MOVS     r2,#7
        0x000010f0:    69cb        .i      LDR      r3,[r1,#0x1c]
        0x000010f2:    021b        ..      LSLS     r3,r3,#8
        0x000010f4:    0a1b        ..      LSRS     r3,r3,#8
        0x000010f6:    0444        D.      LSLS     r4,r0,#17
        0x000010f8:    4323        #C      ORRS     r3,r3,r4
        0x000010fa:    61cb        .a      STR      r3,[r1,#0x1c]
        0x000010fc:    2100        .!      MOVS     r1,#0
        0x000010fe:    6181        .a      STR      r1,[r0,#0x18]
        0x00001100:    6102        .a      STR      r2,[r0,#0x10]
        0x00001102:    4608        .F      MOV      r0,r1
        0x00001104:    bd10        ..      POP      {r4,pc}
    SysTick_Handler
        0x00001106:    484b        KH      LDR      r0,[pc,#300] ; [0x1234] = 0xe000e000
        0x00001108:    6900        .i      LDR      r0,[r0,#0x10]
        0x0000110a:    03c0        ..      LSLS     r0,r0,#15
        0x0000110c:    d503        ..      BPL      0x1116 ; SysTick_Handler + 16
        0x0000110e:    484b        KH      LDR      r0,[pc,#300] ; [0x123c] = 0x20000010
        0x00001110:    6801        .h      LDR      r1,[r0,#0]
        0x00001112:    1c49        I.      ADDS     r1,r1,#1
        0x00001114:    6001        .`      STR      r1,[r0,#0]
        0x00001116:    4770        pG      BX       lr
    sys_micro
        0x00001118:    b510        ..      PUSH     {r4,lr}
        0x0000111a:    4846        FH      LDR      r0,[pc,#280] ; [0x1234] = 0xe000e000
        0x0000111c:    6980        .i      LDR      r0,[r0,#0x18]
        0x0000111e:    4948        HI      LDR      r1,[pc,#288] ; [0x1240] = 0x2000001c
        0x00001120:    6809        .h      LDR      r1,[r1,#0]
        0x00001122:    f003fb43    ..C.    BL       __aeabi_uidiv ; 0x47ac
        0x00001126:    4945        EI      LDR      r1,[pc,#276] ; [0x123c] = 0x20000010
        0x00001128:    227d        }"      MOVS     r2,#0x7d
        0x0000112a:    6809        .h      LDR      r1,[r1,#0]
        0x0000112c:    00d2        ..      LSLS     r2,r2,#3
        0x0000112e:    4351        QC      MULS     r1,r2,r1
        0x00001130:    1840        @.      ADDS     r0,r0,r1
        0x00001132:    bd10        ..      POP      {r4,pc}
    $d
        0x00001134:    50000100    ...P    DCD    1342177536
        0x00001138:    00000303    ....    DCD    771
        0x0000113c:    50004000    .@.P    DCD    1342193664
        0x00001140:    a7803d10    .=..    DCD    2810199312
        0x00001144:    ae800002    ....    DCD    2927624194
        0x00001148:    aec00003    ....    DCD    2931818499
        0x0000114c:    a7c00014    ....    DCD    2814378004
        0x00001150:    a7e00015    ....    DCD    2816475157
        0x00001154:    e6600017    ..`.    DCD    3865051159
        0x00001158:    00008080    ....    DCD    32896
        0x0000115c:    80000008    ....    DCD    2147483656
        0x00001160:    a660000d    ..`.    DCD    2791309325
        0x00001164:    3c23d70a    ..#<    DCD    1008981770
        0x00001168:    43160000    ...C    DCD    1125515264
        0x0000116c:    20000200    ...     DCD    536871424
        0x00001170:    42c80000    ...B    DCD    1120403456
        0x00001174:    41a00000    ...A    DCD    1101004800
        0x00001178:    3e99999a    ...>    DCD    1050253722
        0x0000117c:    3c1ba5e3    ...<    DCD    1008444899
        0x00001180:    3e3851ec    .Q8>    DCD    1043878380
        0x00001184:    20000350    P..     DCD    536871760
        0x00001188:    40a00000    ...@    DCD    1084227584
        0x0000118c:    44480000    ..HD    DCD    1145569280
        0x00001190:    40050000    ...@    DCD    1074069504
        0x00001194:    736e6f63    cons    DCD    1936617315
        0x00001198:    20656c6f    ole     DCD    543517807
        0x0000119c:    74696e69    init    DCD    1953066601
        0x000011a0:    63757320     suc    DCD    1668641568
        0x000011a4:    73736563    cess    DCD    1936942435
        0x000011a8:    00000a21    !...    DCD    2593
        0x000011ac:    000f4240    @B..    DCD    1000000
        0x000011b0:    40020000    ...@    DCD    1073872896
        0x000011b4:    336d6266    fbm3    DCD    862806630
        0x000011b8:    69203032    20 i    DCD    1763717170
        0x000011bc:    2074696e    nit     DCD    544500078
        0x000011c0:    63637573    succ    DCD    1667462515
        0x000011c4:    21737365    ess!    DCD    561214309
        0x000011c8:    0000000a    ....    DCD    10
        0x000011cc:    31696d62    bmi1    DCD    828992866
        0x000011d0:    69203036    60 i    DCD    1763717174
        0x000011d4:    2074696e    nit     DCD    544500078
        0x000011d8:    63637573    succ    DCD    1667462515
        0x000011dc:    21737365    ess!    DCD    561214309
        0x000011e0:    0000000a    ....    DCD    10
        0x000011e4:    445f4448    HD_D    DCD    1147094088
        0x000011e8:    656e6f72    rone    DCD    1701736306
        0x000011ec:    696e6920     ini    DCD    1768843552
        0x000011f0:    75732074    t su    DCD    1970479220
        0x000011f4:    73656363    cces    DCD    1936024419
        0x000011f8:    000a2173    s!..    DCD    663923
        0x000011fc:    736e6573    sens    DCD    1936614771
        0x00001200:    6320726f    or c    DCD    1663070831
        0x00001204:    656c6c6f    olle    DCD    1701604463
        0x00001208:    6f207463    ct o    DCD    1864397923
        0x0000120c:    65736666    ffse    DCD    1702061670
        0x00001210:    2e2e2e74    t...    DCD    774778484
        0x00001214:    0000000a    ....    DCD    10
        0x00001218:    6c6c6f63    coll    DCD    1819045731
        0x0000121c:    20746365    ect     DCD    544498533
        0x00001220:    706d6f63    comp    DCD    1886220131
        0x00001224:    6574656c    lete    DCD    1702126956
        0x00001228:    0000000a    ....    DCD    10
        0x0000122c:    20000134    4..     DCD    536871220
        0x00001230:    00ffffff    ....    DCD    16777215
        0x00001234:    e000e000    ....    DCD    3758153728
        0x00001238:    e000ed04    ....    DCD    3758157060
        0x0000123c:    20000010    ...     DCD    536870928
        0x00001240:    2000001c    ...     DCD    536870940
    $t
    .text
    main
        0x00001244:    f7fffe2e    ....    BL       system_init ; 0xea4
        0x00001248:    f7ffff34    ..4.    BL       fc_status_reset ; 0x10b4
        0x0000124c:    f7ffff03    ....    BL       peripheral_init ; 0x1056
        0x00001250:    4803        .H      LDR      r0,[pc,#12] ; [0x1260] = 0x40010020
        0x00001252:    6801        .h      LDR      r1,[r0,#0]
        0x00001254:    0642        B.      LSLS     r2,r0,#25
        0x00001256:    4311        .C      ORRS     r1,r1,r2
        0x00001258:    6001        .`      STR      r1,[r0,#0]
        0x0000125a:    f001f8ed    ....    BL       scheduler_run ; 0x2438
        0x0000125e:    e7fc        ..      B        0x125a ; main + 22
    $d
        0x00001260:    40010020     ..@    DCD    1073807392
    $t
    .text
    SystemCoreClockUpdate
        0x00001264:    b510        ..      PUSH     {r4,lr}
        0x00001266:    4a13        .J      LDR      r2,[pc,#76] ; [0x12b4] = 0x50000200
        0x00001268:    6a10        .j      LDR      r0,[r2,#0x20]
        0x0000126a:    03c1        ..      LSLS     r1,r0,#15
        0x0000126c:    4812        .H      LDR      r0,[pc,#72] ; [0x12b8] = 0x2dc6c00
        0x0000126e:    d501        ..      BPL      0x1274 ; SystemCoreClockUpdate + 16
        0x00001270:    2100        .!      MOVS     r1,#0
        0x00001272:    e000        ..      B        0x1276 ; SystemCoreClockUpdate + 18
        0x00001274:    4601        .F      MOV      r1,r0
        0x00001276:    4c11        .L      LDR      r4,[pc,#68] ; [0x12bc] = 0x20000014
        0x00001278:    6021        !`      STR      r1,[r4,#0]
        0x0000127a:    6911        .i      LDR      r1,[r2,#0x10]
        0x0000127c:    0789        ..      LSLS     r1,r1,#30
        0x0000127e:    0f89        ..      LSRS     r1,r1,#30
        0x00001280:    d009        ..      BEQ      0x1296 ; SystemCoreClockUpdate + 50
        0x00001282:    2901        .)      CMP      r1,#1
        0x00001284:    d007        ..      BEQ      0x1296 ; SystemCoreClockUpdate + 50
        0x00001286:    2902        .)      CMP      r1,#2
        0x00001288:    d002        ..      BEQ      0x1290 ; SystemCoreClockUpdate + 44
        0x0000128a:    2903        .)      CMP      r1,#3
        0x0000128c:    d002        ..      BEQ      0x1294 ; SystemCoreClockUpdate + 48
        0x0000128e:    e002        ..      B        0x1296 ; SystemCoreClockUpdate + 50
        0x00001290:    480b        .H      LDR      r0,[pc,#44] ; [0x12c0] = 0x2710
        0x00001292:    e000        ..      B        0x1296 ; SystemCoreClockUpdate + 50
        0x00001294:    480b        .H      LDR      r0,[pc,#44] ; [0x12c4] = 0xf42400
        0x00001296:    6991        .i      LDR      r1,[r2,#0x18]
        0x00001298:    078a        ..      LSLS     r2,r1,#30
        0x0000129a:    0f92        ..      LSRS     r2,r2,#30
        0x0000129c:    2101        .!      MOVS     r1,#1
        0x0000129e:    4091        .@      LSLS     r1,r1,r2
        0x000012a0:    f003fa84    ....    BL       __aeabi_uidiv ; 0x47ac
        0x000012a4:    4908        .I      LDR      r1,[pc,#32] ; [0x12c8] = 0xf4240
        0x000012a6:    6060        ``      STR      r0,[r4,#4]
        0x000012a8:    104a        J.      ASRS     r2,r1,#1
        0x000012aa:    1880        ..      ADDS     r0,r0,r2
        0x000012ac:    f003fa7e    ..~.    BL       __aeabi_uidiv ; 0x47ac
        0x000012b0:    60a0        .`      STR      r0,[r4,#8]
        0x000012b2:    bd10        ..      POP      {r4,pc}
    $d
        0x000012b4:    50000200    ...P    DCD    1342177792
        0x000012b8:    02dc6c00    .l..    DCD    48000000
        0x000012bc:    20000014    ...     DCD    536870932
        0x000012c0:    00002710    .'..    DCD    10000
        0x000012c4:    00f42400    .$..    DCD    16000000
        0x000012c8:    000f4240    @B..    DCD    1000000
    $t
    .text
    Reset_Handler
        0x000012cc:    4803        .H      LDR      r0,[pc,#12] ; [0x12dc] = 0xc1
        0x000012ce:    4700        .G      BX       r0
    NMI_Handler
        0x000012d0:    e7fe        ..      B        NMI_Handler ; 0x12d0
        0x000012d2:    e7fe        ..      B        0x12d2 ; NMI_Handler + 2
    SVC_Handler
        0x000012d4:    e7fe        ..      B        SVC_Handler ; 0x12d4
    PendSV_Handler
        0x000012d6:    e7fe        ..      B        PendSV_Handler ; 0x12d6
        0x000012d8:    e7fe        ..      B        0x12d8 ; PendSV_Handler + 2
    Default_Handler
    ACMP_IRQHandler
    ADC_IRQHandler
    BOD_IRQHandler
    EINT0_IRQHandler
    EINT1_IRQHandler
    EINT2_IRQHandler
    FB_IRQHandler
    GPIO01_IRQHandler
    GPIO234_IRQHandler
    GPIO5_IRQHandler
    HIRC_IRQHandler
    I2C0_IRQHandler
    I2C1_IRQHandler
    PDWU_IRQHandler
    PWM_IRQHandler
    SPI0_IRQHandler
    SPI1_IRQHandler
    TMR0_IRQHandler
    TMR2_IRQHandler
    UART1_IRQHandler
    WDT_IRQHandler
        0x000012da:    e7fe        ..      B        Default_Handler ; 0x12da
    $d
        0x000012dc:    000000c1    ....    DCD    193
    $t
    .text
    LPF2pSetCutoffFreq
        0x000012e0:    b5fe        ..      PUSH     {r1-r7,lr}
        0x000012e2:    4615        .F      MOV      r5,r2
        0x000012e4:    460a        .F      MOV      r2,r1
        0x000012e6:    4604        .F      MOV      r4,r0
        0x000012e8:    4629        )F      MOV      r1,r5
        0x000012ea:    4610        .F      MOV      r0,r2
        0x000012ec:    f003fb3a    ..:.    BL       __aeabi_fdiv ; 0x4964
        0x000012f0:    4601        .F      MOV      r1,r0
        0x000012f2:    4866        fH      LDR      r0,[pc,#408] ; [0x148c] = 0x40490fdb
        0x000012f4:    f003fb36    ..6.    BL       __aeabi_fdiv ; 0x4964
        0x000012f8:    f005fb98    ....    BL       tanf ; 0x6a2c
        0x000012fc:    4601        .F      MOV      r1,r0
        0x000012fe:    9000        ..      STR      r0,[sp,#0]
        0x00001300:    f003faf3    ....    BL       __aeabi_fmul ; 0x48ea
        0x00001304:    4606        .F      MOV      r6,r0
        0x00001306:    9001        ..      STR      r0,[sp,#4]
        0x00001308:    4861        aH      LDR      r0,[pc,#388] ; [0x1490] = 0x3f490fdb
        0x0000130a:    f005fa9f    ....    BL       cosf ; 0x684c
        0x0000130e:    2101        .!      MOVS     r1,#1
        0x00001310:    f003fb66    ..f.    BL       __ARM_scalbnf ; 0x49e0
        0x00001314:    9900        ..      LDR      r1,[sp,#0]
        0x00001316:    f003fae8    ....    BL       __aeabi_fmul ; 0x48ea
        0x0000131a:    277f        .'      MOVS     r7,#0x7f
        0x0000131c:    05ff        ..      LSLS     r7,r7,#23
        0x0000131e:    4639        9F      MOV      r1,r7
        0x00001320:    f003fa8a    ....    BL       __aeabi_fadd ; 0x4838
        0x00001324:    4631        1F      MOV      r1,r6
        0x00001326:    f003fa87    ....    BL       __aeabi_fadd ; 0x4838
        0x0000132a:    4606        .F      MOV      r6,r0
        0x0000132c:    2001        .       MOVS     r0,#1
        0x0000132e:    05c0        ..      LSLS     r0,r0,#23
        0x00001330:    6025        %`      STR      r5,[r4,#0]
        0x00001332:    4285        .B      CMP      r5,r0
        0x00001334:    db29        ).      BLT      0x138a ; LPF2pSetCutoffFreq + 170
        0x00001336:    4631        1F      MOV      r1,r6
        0x00001338:    9801        ..      LDR      r0,[sp,#4]
        0x0000133a:    f003fb13    ....    BL       __aeabi_fdiv ; 0x4964
        0x0000133e:    4605        .F      MOV      r5,r0
        0x00001340:    2101        .!      MOVS     r1,#1
        0x00001342:    60e0        .`      STR      r0,[r4,#0xc]
        0x00001344:    f003fb4c    ..L.    BL       __ARM_scalbnf ; 0x49e0
        0x00001348:    6165        ea      STR      r5,[r4,#0x14]
        0x0000134a:    6120         a      STR      r0,[r4,#0x10]
        0x0000134c:    4639        9F      MOV      r1,r7
        0x0000134e:    9801        ..      LDR      r0,[sp,#4]
        0x00001350:    f003fac3    ....    BL       __aeabi_fsub ; 0x48da
        0x00001354:    2101        .!      MOVS     r1,#1
        0x00001356:    f003fb43    ..C.    BL       __ARM_scalbnf ; 0x49e0
        0x0000135a:    4631        1F      MOV      r1,r6
        0x0000135c:    f003fb02    ....    BL       __aeabi_fdiv ; 0x4964
        0x00001360:    6060        ``      STR      r0,[r4,#4]
        0x00001362:    484b        KH      LDR      r0,[pc,#300] ; [0x1490] = 0x3f490fdb
        0x00001364:    9d01        ..      LDR      r5,[sp,#4]
        0x00001366:    f005fa71    ..q.    BL       cosf ; 0x684c
        0x0000136a:    2101        .!      MOVS     r1,#1
        0x0000136c:    f003fb38    ..8.    BL       __ARM_scalbnf ; 0x49e0
        0x00001370:    9900        ..      LDR      r1,[sp,#0]
        0x00001372:    f003faba    ....    BL       __aeabi_fmul ; 0x48ea
        0x00001376:    4639        9F      MOV      r1,r7
        0x00001378:    f003fab3    ....    BL       __aeabi_frsub ; 0x48e2
        0x0000137c:    4629        )F      MOV      r1,r5
        0x0000137e:    f003fa5b    ..[.    BL       __aeabi_fadd ; 0x4838
        0x00001382:    4631        1F      MOV      r1,r6
        0x00001384:    f003faee    ....    BL       __aeabi_fdiv ; 0x4964
        0x00001388:    60a0        .`      STR      r0,[r4,#8]
        0x0000138a:    2000        .       MOVS     r0,#0
        0x0000138c:    61a0        .a      STR      r0,[r4,#0x18]
        0x0000138e:    61e0        .a      STR      r0,[r4,#0x1c]
        0x00001390:    bdfe        ..      POP      {r1-r7,pc}
    LPF2pApply
        0x00001392:    b5f8        ..      PUSH     {r3-r7,lr}
        0x00001394:    460f        .F      MOV      r7,r1
        0x00001396:    4604        .F      MOV      r4,r0
        0x00001398:    6800        .h      LDR      r0,[r0,#0]
        0x0000139a:    2101        .!      MOVS     r1,#1
        0x0000139c:    05c9        ..      LSLS     r1,r1,#23
        0x0000139e:    4288        .B      CMP      r0,r1
        0x000013a0:    da01        ..      BGE      0x13a6 ; LPF2pApply + 20
        0x000013a2:    4638        8F      MOV      r0,r7
        0x000013a4:    bdf8        ..      POP      {r3-r7,pc}
        0x000013a6:    68a1        .h      LDR      r1,[r4,#8]
        0x000013a8:    69e0        .i      LDR      r0,[r4,#0x1c]
        0x000013aa:    9000        ..      STR      r0,[sp,#0]
        0x000013ac:    f003fa9d    ....    BL       __aeabi_fmul ; 0x48ea
        0x000013b0:    69a6        .i      LDR      r6,[r4,#0x18]
        0x000013b2:    4605        .F      MOV      r5,r0
        0x000013b4:    4630        0F      MOV      r0,r6
        0x000013b6:    6861        ah      LDR      r1,[r4,#4]
        0x000013b8:    f003fa97    ....    BL       __aeabi_fmul ; 0x48ea
        0x000013bc:    4639        9F      MOV      r1,r7
        0x000013be:    f003fa90    ....    BL       __aeabi_frsub ; 0x48e2
        0x000013c2:    4629        )F      MOV      r1,r5
        0x000013c4:    f003fa89    ....    BL       __aeabi_fsub ; 0x48da
        0x000013c8:    4605        .F      MOV      r5,r0
        0x000013ca:    0040        @.      LSLS     r0,r0,#1
        0x000013cc:    21ff        .!      MOVS     r1,#0xff
        0x000013ce:    0840        @.      LSRS     r0,r0,#1
        0x000013d0:    05c9        ..      LSLS     r1,r1,#23
        0x000013d2:    1a08        ..      SUBS     r0,r1,r0
        0x000013d4:    0fc0        ..      LSRS     r0,r0,#31
        0x000013d6:    d108        ..      BNE      0x13ea ; LPF2pApply + 88
        0x000013d8:    0068        h.      LSLS     r0,r5,#1
        0x000013da:    0049        I.      LSLS     r1,r1,#1
        0x000013dc:    4288        .B      CMP      r0,r1
        0x000013de:    d101        ..      BNE      0x13e4 ; LPF2pApply + 82
        0x000013e0:    2001        .       MOVS     r0,#1
        0x000013e2:    e000        ..      B        0x13e6 ; LPF2pApply + 84
        0x000013e4:    2000        .       MOVS     r0,#0
        0x000013e6:    2800        .(      CMP      r0,#0
        0x000013e8:    d000        ..      BEQ      0x13ec ; LPF2pApply + 90
        0x000013ea:    463d        =F      MOV      r5,r7
        0x000013ec:    6961        ai      LDR      r1,[r4,#0x14]
        0x000013ee:    9800        ..      LDR      r0,[sp,#0]
        0x000013f0:    f003fa7b    ..{.    BL       __aeabi_fmul ; 0x48ea
        0x000013f4:    9000        ..      STR      r0,[sp,#0]
        0x000013f6:    4630        0F      MOV      r0,r6
        0x000013f8:    6921        !i      LDR      r1,[r4,#0x10]
        0x000013fa:    f003fa76    ..v.    BL       __aeabi_fmul ; 0x48ea
        0x000013fe:    4607        .F      MOV      r7,r0
        0x00001400:    4628        (F      MOV      r0,r5
        0x00001402:    68e1        .h      LDR      r1,[r4,#0xc]
        0x00001404:    f003fa71    ..q.    BL       __aeabi_fmul ; 0x48ea
        0x00001408:    4639        9F      MOV      r1,r7
        0x0000140a:    f003fa15    ....    BL       __aeabi_fadd ; 0x4838
        0x0000140e:    9900        ..      LDR      r1,[sp,#0]
        0x00001410:    f003fa12    ....    BL       __aeabi_fadd ; 0x4838
        0x00001414:    61e6        .a      STR      r6,[r4,#0x1c]
        0x00001416:    61a5        .a      STR      r5,[r4,#0x18]
        0x00001418:    bdf8        ..      POP      {r3-r7,pc}
    LPF_1st
        0x0000141a:    b570        p.      PUSH     {r4-r6,lr}
        0x0000141c:    4616        .F      MOV      r6,r2
        0x0000141e:    460a        .F      MOV      r2,r1
        0x00001420:    4605        .F      MOV      r5,r0
        0x00001422:    4631        1F      MOV      r1,r6
        0x00001424:    4610        .F      MOV      r0,r2
        0x00001426:    f003fa60    ..`.    BL       __aeabi_fmul ; 0x48ea
        0x0000142a:    4604        .F      MOV      r4,r0
        0x0000142c:    207f        .       MOVS     r0,#0x7f
        0x0000142e:    4631        1F      MOV      r1,r6
        0x00001430:    05c0        ..      LSLS     r0,r0,#23
        0x00001432:    f003fa52    ..R.    BL       __aeabi_fsub ; 0x48da
        0x00001436:    4629        )F      MOV      r1,r5
        0x00001438:    f003fa57    ..W.    BL       __aeabi_fmul ; 0x48ea
        0x0000143c:    4621        !F      MOV      r1,r4
        0x0000143e:    f003f9fb    ....    BL       __aeabi_fadd ; 0x4838
        0x00001442:    bd70        p.      POP      {r4-r6,pc}
    Moving_Average
        0x00001444:    b5f7        ..      PUSH     {r0-r2,r4-r7,lr}
        0x00001446:    4605        .F      MOV      r5,r0
        0x00001448:    2000        .       MOVS     r0,#0
        0x0000144a:    2401        .$      MOVS     r4,#1
        0x0000144c:    e009        ..      B        0x1462 ; Moving_Average + 30
        0x0000144e:    00a7        ..      LSLS     r7,r4,#2
        0x00001450:    59ee        .Y      LDR      r6,[r5,r7]
        0x00001452:    4631        1F      MOV      r1,r6
        0x00001454:    f003f9f0    ....    BL       __aeabi_fadd ; 0x4838
        0x00001458:    1979        y.      ADDS     r1,r7,r5
        0x0000145a:    3980        .9      SUBS     r1,r1,#0x80
        0x0000145c:    1c64        d.      ADDS     r4,r4,#1
        0x0000145e:    b2e4        ..      UXTB     r4,r4
        0x00001460:    67ce        .g      STR      r6,[r1,#0x7c]
        0x00001462:    9901        ..      LDR      r1,[sp,#4]
        0x00001464:    428c        .B      CMP      r4,r1
        0x00001466:    d3f2        ..      BCC      0x144e ; Moving_Average + 10
        0x00001468:    9a01        ..      LDR      r2,[sp,#4]
        0x0000146a:    9902        ..      LDR      r1,[sp,#8]
        0x0000146c:    0092        ..      LSLS     r2,r2,#2
        0x0000146e:    1952        R.      ADDS     r2,r2,r5
        0x00001470:    3a80        .:      SUBS     r2,r2,#0x80
        0x00001472:    67d1        .g      STR      r1,[r2,#0x7c]
        0x00001474:    9902        ..      LDR      r1,[sp,#8]
        0x00001476:    f003f9df    ....    BL       __aeabi_fadd ; 0x4838
        0x0000147a:    4604        .F      MOV      r4,r0
        0x0000147c:    9801        ..      LDR      r0,[sp,#4]
        0x0000147e:    f003fc58    ..X.    BL       __aeabi_ui2f ; 0x4d32
        0x00001482:    4601        .F      MOV      r1,r0
        0x00001484:    4620         F      MOV      r0,r4
        0x00001486:    f003fa6d    ..m.    BL       __aeabi_fdiv ; 0x4964
        0x0000148a:    bdfe        ..      POP      {r1-r7,pc}
    $d
        0x0000148c:    40490fdb    ..I@    DCD    1078530011
        0x00001490:    3f490fdb    ..I?    DCD    1061752795
    $t
    .text
    Q_rsqrt
        0x00001494:    b570        p.      PUSH     {r4-r6,lr}
        0x00001496:    25ff        .%      MOVS     r5,#0xff
        0x00001498:    2100        .!      MOVS     r1,#0
        0x0000149a:    4604        .F      MOV      r4,r0
        0x0000149c:    05ad        ..      LSLS     r5,r5,#22
        0x0000149e:    43c9        .C      MVNS     r1,r1
        0x000014a0:    f003fa9e    ....    BL       __ARM_scalbnf ; 0x49e0
        0x000014a4:    4a1c        .J      LDR      r2,[pc,#112] ; [0x1518] = 0x5f3759df
        0x000014a6:    1061        a.      ASRS     r1,r4,#1
        0x000014a8:    1a54        T.      SUBS     r4,r2,r1
        0x000014aa:    4621        !F      MOV      r1,r4
        0x000014ac:    f003fa1d    ....    BL       __aeabi_fmul ; 0x48ea
        0x000014b0:    4621        !F      MOV      r1,r4
        0x000014b2:    f003fa1a    ....    BL       __aeabi_fmul ; 0x48ea
        0x000014b6:    4629        )F      MOV      r1,r5
        0x000014b8:    f003fa13    ....    BL       __aeabi_frsub ; 0x48e2
        0x000014bc:    4621        !F      MOV      r1,r4
        0x000014be:    f003fa14    ....    BL       __aeabi_fmul ; 0x48ea
        0x000014c2:    bd70        p.      POP      {r4-r6,pc}
    data_limit
        0x000014c4:    b570        p.      PUSH     {r4-r6,lr}
        0x000014c6:    4615        .F      MOV      r5,r2
        0x000014c8:    460e        .F      MOV      r6,r1
        0x000014ca:    4604        .F      MOV      r4,r0
        0x000014cc:    f003fcb4    ....    BL       __aeabi_cfrcmple ; 0x4e38
        0x000014d0:    d201        ..      BCS      0x14d6 ; data_limit + 18
        0x000014d2:    4634        4F      MOV      r4,r6
        0x000014d4:    e005        ..      B        0x14e2 ; data_limit + 30
        0x000014d6:    4629        )F      MOV      r1,r5
        0x000014d8:    4620         F      MOV      r0,r4
        0x000014da:    f003fca3    ....    BL       __aeabi_cfcmpeq ; 0x4e24
        0x000014de:    d200        ..      BCS      0x14e2 ; data_limit + 30
        0x000014e0:    462c        ,F      MOV      r4,r5
        0x000014e2:    4620         F      MOV      r0,r4
        0x000014e4:    bd70        p.      POP      {r4-r6,pc}
    VariableParameter
        0x000014e6:    207f        .       MOVS     r0,#0x7f
        0x000014e8:    05c0        ..      LSLS     r0,r0,#23
        0x000014ea:    4770        pG      BX       lr
    Rad
        0x000014ec:    b510        ..      PUSH     {r4,lr}
        0x000014ee:    2203        ."      MOVS     r2,#3
        0x000014f0:    0752        R.      LSLS     r2,r2,#29
        0x000014f2:    4b0a        .K      LDR      r3,[pc,#40] ; [0x151c] = 0x400921fb
        0x000014f4:    f003fb32    ..2.    BL       __aeabi_dmul ; 0x4b5c
        0x000014f8:    2200        ."      MOVS     r2,#0
        0x000014fa:    4b09        .K      LDR      r3,[pc,#36] ; [0x1520] = 0x40668000
        0x000014fc:    f003fb96    ....    BL       __aeabi_ddiv ; 0x4c2c
        0x00001500:    bd10        ..      POP      {r4,pc}
    Degree
        0x00001502:    b510        ..      PUSH     {r4,lr}
        0x00001504:    2203        ."      MOVS     r2,#3
        0x00001506:    0752        R.      LSLS     r2,r2,#29
        0x00001508:    4b04        .K      LDR      r3,[pc,#16] ; [0x151c] = 0x400921fb
        0x0000150a:    f003fb8f    ....    BL       __aeabi_ddiv ; 0x4c2c
        0x0000150e:    2200        ."      MOVS     r2,#0
        0x00001510:    4b03        .K      LDR      r3,[pc,#12] ; [0x1520] = 0x40668000
        0x00001512:    f003fb23    ..#.    BL       __aeabi_dmul ; 0x4b5c
        0x00001516:    bd10        ..      POP      {r4,pc}
    $d
        0x00001518:    5f3759df    .Y7_    DCD    1597463007
        0x0000151c:    400921fb    .!.@    DCD    1074340347
        0x00001520:    40668000    ..f@    DCD    1080459264
    $t
    .text
    set_pid_filt_hz
        0x00001524:    b510        ..      PUSH     {r4,lr}
        0x00001526:    4604        .F      MOV      r4,r0
        0x00001528:    61c1        .a      STR      r1,[r0,#0x1c]
        0x0000152a:    4608        .F      MOV      r0,r1
        0x0000152c:    f003fc35    ..5.    BL       __aeabi_f2d ; 0x4d9a
        0x00001530:    2200        ."      MOVS     r2,#0
        0x00001532:    4b4d        MK      LDR      r3,[pc,#308] ; [0x1668] = 0x3ff00000
        0x00001534:    f005fa46    ..F.    BL       fmax ; 0x69c4
        0x00001538:    f003fbf0    ....    BL       __aeabi_i2f ; 0x4d1c
        0x0000153c:    61e0        .a      STR      r0,[r4,#0x1c]
        0x0000153e:    bd10        ..      POP      {r4,pc}
    set_pid_param
        0x00001540:    b4f0        ..      PUSH     {r4-r7}
        0x00001542:    af04        ..      ADD      r7,sp,#0x10
        0x00001544:    cf70        p.      LDM      r7!,{r4-r6}
        0x00001546:    6186        .a      STR      r6,[r0,#0x18]
        0x00001548:    6104        .a      STR      r4,[r0,#0x10]
        0x0000154a:    c00e        ..      STM      r0!,{r1-r3}
        0x0000154c:    2100        .!      MOVS     r1,#0
        0x0000154e:    6001        .`      STR      r1,[r0,#0]
        0x00001550:    6081        .`      STR      r1,[r0,#8]
        0x00001552:    4629        )F      MOV      r1,r5
        0x00001554:    bcf0        ..      POP      {r4-r7}
        0x00001556:    380c        .8      SUBS     r0,r0,#0xc
        0x00001558:    e7e4        ..      B        set_pid_filt_hz ; 0x1524
    set_pid_param_p
        0x0000155a:    6001        .`      STR      r1,[r0,#0]
        0x0000155c:    4770        pG      BX       lr
    set_pid_param_i
        0x0000155e:    6041        A`      STR      r1,[r0,#4]
        0x00001560:    2100        .!      MOVS     r1,#0
        0x00001562:    60c1        .`      STR      r1,[r0,#0xc]
        0x00001564:    4770        pG      BX       lr
    set_pid_param_d
        0x00001566:    6081        .`      STR      r1,[r0,#8]
        0x00001568:    2100        .!      MOVS     r1,#0
        0x0000156a:    6141        Aa      STR      r1,[r0,#0x14]
        0x0000156c:    4770        pG      BX       lr
    get_pd_output
        0x0000156e:    b510        ..      PUSH     {r4,lr}
        0x00001570:    4604        .F      MOV      r4,r0
        0x00001572:    6a01        .j      LDR      r1,[r0,#0x20]
        0x00001574:    6800        .h      LDR      r0,[r0,#0]
        0x00001576:    f003f9b8    ....    BL       __aeabi_fmul ; 0x48ea
        0x0000157a:    6260        `b      STR      r0,[r4,#0x24]
        0x0000157c:    6961        ai      LDR      r1,[r4,#0x14]
        0x0000157e:    68a0        .h      LDR      r0,[r4,#8]
        0x00001580:    f003f9b3    ....    BL       __aeabi_fmul ; 0x48ea
        0x00001584:    62e0        .b      STR      r0,[r4,#0x2c]
        0x00001586:    bd10        ..      POP      {r4,pc}
    get_filt_alpha
        0x00001588:    b570        p.      PUSH     {r4-r6,lr}
        0x0000158a:    4604        .F      MOV      r4,r0
        0x0000158c:    69c0        .i      LDR      r0,[r0,#0x1c]
        0x0000158e:    4d37        7M      LDR      r5,[pc,#220] ; [0x166c] = 0x3f800000
        0x00001590:    0041        A.      LSLS     r1,r0,#1
        0x00001592:    0e09        ..      LSRS     r1,r1,#24
        0x00001594:    d010        ..      BEQ      0x15b8 ; get_filt_alpha + 48
        0x00001596:    4936        6I      LDR      r1,[pc,#216] ; [0x1670] = 0x40c90fdb
        0x00001598:    f003f9a7    ....    BL       __aeabi_fmul ; 0x48ea
        0x0000159c:    4601        .F      MOV      r1,r0
        0x0000159e:    4628        (F      MOV      r0,r5
        0x000015a0:    f003f9e0    ....    BL       __aeabi_fdiv ; 0x4964
        0x000015a4:    69a4        .i      LDR      r4,[r4,#0x18]
        0x000015a6:    4601        .F      MOV      r1,r0
        0x000015a8:    4620         F      MOV      r0,r4
        0x000015aa:    f003f945    ..E.    BL       __aeabi_fadd ; 0x4838
        0x000015ae:    4601        .F      MOV      r1,r0
        0x000015b0:    4620         F      MOV      r0,r4
        0x000015b2:    f003f9d7    ....    BL       __aeabi_fdiv ; 0x4964
        0x000015b6:    bd70        p.      POP      {r4-r6,pc}
        0x000015b8:    4628        (F      MOV      r0,r5
        0x000015ba:    bd70        p.      POP      {r4-r6,pc}
    set_pid_input
        0x000015bc:    b570        p.      PUSH     {r4-r6,lr}
        0x000015be:    4604        .F      MOV      r4,r0
        0x000015c0:    6985        .i      LDR      r5,[r0,#0x18]
        0x000015c2:    2001        .       MOVS     r0,#1
        0x000015c4:    05c0        ..      LSLS     r0,r0,#23
        0x000015c6:    460e        .F      MOV      r6,r1
        0x000015c8:    4285        .B      CMP      r5,r0
        0x000015ca:    db14        ..      BLT      0x15f6 ; set_pid_input + 58
        0x000015cc:    4630        0F      MOV      r0,r6
        0x000015ce:    6a21        !j      LDR      r1,[r4,#0x20]
        0x000015d0:    f003f983    ....    BL       __aeabi_fsub ; 0x48da
        0x000015d4:    4629        )F      MOV      r1,r5
        0x000015d6:    f003f9c5    ....    BL       __aeabi_fdiv ; 0x4964
        0x000015da:    6961        ai      LDR      r1,[r4,#0x14]
        0x000015dc:    f003f97d    ..}.    BL       __aeabi_fsub ; 0x48da
        0x000015e0:    4605        .F      MOV      r5,r0
        0x000015e2:    4620         F      MOV      r0,r4
        0x000015e4:    f7ffffd0    ....    BL       get_filt_alpha ; 0x1588
        0x000015e8:    4629        )F      MOV      r1,r5
        0x000015ea:    f003f97e    ..~.    BL       __aeabi_fmul ; 0x48ea
        0x000015ee:    6961        ai      LDR      r1,[r4,#0x14]
        0x000015f0:    f003f922    ..".    BL       __aeabi_fadd ; 0x4838
        0x000015f4:    6160        `a      STR      r0,[r4,#0x14]
        0x000015f6:    4620         F      MOV      r0,r4
        0x000015f8:    6226        &b      STR      r6,[r4,#0x20]
        0x000015fa:    f7ffffb8    ....    BL       get_pd_output ; 0x156e
        0x000015fe:    bd70        p.      POP      {r4-r6,pc}
    get_i_output
        0x00001600:    b570        p.      PUSH     {r4-r6,lr}
        0x00001602:    6841        Ah      LDR      r1,[r0,#4]
        0x00001604:    4604        .F      MOV      r4,r0
        0x00001606:    0048        H.      LSLS     r0,r1,#1
        0x00001608:    0e00        ..      LSRS     r0,r0,#24
        0x0000160a:    d022        ".      BEQ      0x1652 ; get_i_output + 82
        0x0000160c:    69a5        .i      LDR      r5,[r4,#0x18]
        0x0000160e:    4e19        .N      LDR      r6,[pc,#100] ; [0x1674] = 0x80000000
        0x00001610:    0068        h.      LSLS     r0,r5,#1
        0x00001612:    0e00        ..      LSRS     r0,r0,#24
        0x00001614:    d01d        ..      BEQ      0x1652 ; get_i_output + 82
        0x00001616:    6a20         j      LDR      r0,[r4,#0x20]
        0x00001618:    f003f967    ..g.    BL       __aeabi_fmul ; 0x48ea
        0x0000161c:    4629        )F      MOV      r1,r5
        0x0000161e:    f003f964    ..d.    BL       __aeabi_fmul ; 0x48ea
        0x00001622:    68e1        .h      LDR      r1,[r4,#0xc]
        0x00001624:    f003f908    ....    BL       __aeabi_fadd ; 0x4838
        0x00001628:    60e0        .`      STR      r0,[r4,#0xc]
        0x0000162a:    6922        "i      LDR      r2,[r4,#0x10]
        0x0000162c:    4601        .F      MOV      r1,r0
        0x0000162e:    4072        r@      EORS     r2,r2,r6
        0x00001630:    4610        .F      MOV      r0,r2
        0x00001632:    f003fc01    ....    BL       __aeabi_cfrcmple ; 0x4e38
        0x00001636:    d202        ..      BCS      0x163e ; get_i_output + 62
        0x00001638:    6920         i      LDR      r0,[r4,#0x10]
        0x0000163a:    4070        p@      EORS     r0,r0,r6
        0x0000163c:    e007        ..      B        0x164e ; get_i_output + 78
        0x0000163e:    6921        !i      LDR      r1,[r4,#0x10]
        0x00001640:    68e0        .h      LDR      r0,[r4,#0xc]
        0x00001642:    f003fbf9    ....    BL       __aeabi_cfrcmple ; 0x4e38
        0x00001646:    d301        ..      BCC      0x164c ; get_i_output + 76
        0x00001648:    68e0        .h      LDR      r0,[r4,#0xc]
        0x0000164a:    e001        ..      B        0x1650 ; get_i_output + 80
        0x0000164c:    6920         i      LDR      r0,[r4,#0x10]
        0x0000164e:    60e0        .`      STR      r0,[r4,#0xc]
        0x00001650:    62a0        .b      STR      r0,[r4,#0x28]
        0x00001652:    6aa0        .j      LDR      r0,[r4,#0x28]
        0x00001654:    bd70        p.      POP      {r4-r6,pc}
    reset_pid_I
        0x00001656:    2100        .!      MOVS     r1,#0
        0x00001658:    60c1        .`      STR      r1,[r0,#0xc]
        0x0000165a:    4770        pG      BX       lr
    reset_pid_D
        0x0000165c:    2100        .!      MOVS     r1,#0
        0x0000165e:    6141        Aa      STR      r1,[r0,#0x14]
        0x00001660:    4770        pG      BX       lr
    get_integrator
        0x00001662:    68c0        .h      LDR      r0,[r0,#0xc]
        0x00001664:    4770        pG      BX       lr
    $d
        0x00001666:    0000        ..      DCW    0
        0x00001668:    3ff00000    ...?    DCD    1072693248
        0x0000166c:    3f800000    ...?    DCD    1065353216
        0x00001670:    40c90fdb    ...@    DCD    1086918619
        0x00001674:    80000000    ....    DCD    2147483648
    $t
    .text
    Quaternion_vectorGravity
        0x00001678:    b5f3        ..      PUSH     {r0,r1,r4-r7,lr}
        0x0000167a:    460c        .F      MOV      r4,r1
        0x0000167c:    6889        .h      LDR      r1,[r1,#8]
        0x0000167e:    b081        ..      SUB      sp,sp,#4
        0x00001680:    6820         h      LDR      r0,[r4,#0]
        0x00001682:    f003f932    ..2.    BL       __aeabi_fmul ; 0x48ea
        0x00001686:    68e1        .h      LDR      r1,[r4,#0xc]
        0x00001688:    4605        .F      MOV      r5,r0
        0x0000168a:    6860        `h      LDR      r0,[r4,#4]
        0x0000168c:    f003f92d    ..-.    BL       __aeabi_fmul ; 0x48ea
        0x00001690:    4629        )F      MOV      r1,r5
        0x00001692:    f003f922    ..".    BL       __aeabi_fsub ; 0x48da
        0x00001696:    2101        .!      MOVS     r1,#1
        0x00001698:    f003f9a2    ....    BL       __ARM_scalbnf ; 0x49e0
        0x0000169c:    68e1        .h      LDR      r1,[r4,#0xc]
        0x0000169e:    4605        .F      MOV      r5,r0
        0x000016a0:    68a0        .h      LDR      r0,[r4,#8]
        0x000016a2:    f003f922    ..".    BL       __aeabi_fmul ; 0x48ea
        0x000016a6:    6861        ah      LDR      r1,[r4,#4]
        0x000016a8:    4606        .F      MOV      r6,r0
        0x000016aa:    6820         h      LDR      r0,[r4,#0]
        0x000016ac:    f003f91d    ....    BL       __aeabi_fmul ; 0x48ea
        0x000016b0:    4631        1F      MOV      r1,r6
        0x000016b2:    f003f8c1    ....    BL       __aeabi_fadd ; 0x4838
        0x000016b6:    2101        .!      MOVS     r1,#1
        0x000016b8:    f003f992    ....    BL       __ARM_scalbnf ; 0x49e0
        0x000016bc:    68a1        .h      LDR      r1,[r4,#8]
        0x000016be:    4606        .F      MOV      r6,r0
        0x000016c0:    68a0        .h      LDR      r0,[r4,#8]
        0x000016c2:    f003f912    ....    BL       __aeabi_fmul ; 0x48ea
        0x000016c6:    6861        ah      LDR      r1,[r4,#4]
        0x000016c8:    4607        .F      MOV      r7,r0
        0x000016ca:    6860        `h      LDR      r0,[r4,#4]
        0x000016cc:    f003f90d    ....    BL       __aeabi_fmul ; 0x48ea
        0x000016d0:    4639        9F      MOV      r1,r7
        0x000016d2:    f003f8b1    ....    BL       __aeabi_fadd ; 0x4838
        0x000016d6:    2101        .!      MOVS     r1,#1
        0x000016d8:    f003f982    ....    BL       __ARM_scalbnf ; 0x49e0
        0x000016dc:    217f        .!      MOVS     r1,#0x7f
        0x000016de:    05c9        ..      LSLS     r1,r1,#23
        0x000016e0:    f003f8ff    ....    BL       __aeabi_frsub ; 0x48e2
        0x000016e4:    4601        .F      MOV      r1,r0
        0x000016e6:    9801        ..      LDR      r0,[sp,#4]
        0x000016e8:    6081        .`      STR      r1,[r0,#8]
        0x000016ea:    c060        `.      STM      r0!,{r5,r6}
        0x000016ec:    bdfe        ..      POP      {r1-r7,pc}
    Quaternion_ToMatrix
        0x000016ee:    b5f8        ..      PUSH     {r3-r7,lr}
        0x000016f0:    460d        .F      MOV      r5,r1
        0x000016f2:    68c1        .h      LDR      r1,[r0,#0xc]
        0x000016f4:    4604        .F      MOV      r4,r0
        0x000016f6:    68c0        .h      LDR      r0,[r0,#0xc]
        0x000016f8:    f003f8f7    ....    BL       __aeabi_fmul ; 0x48ea
        0x000016fc:    9000        ..      STR      r0,[sp,#0]
        0x000016fe:    68a1        .h      LDR      r1,[r4,#8]
        0x00001700:    68a0        .h      LDR      r0,[r4,#8]
        0x00001702:    f003f8f2    ....    BL       __aeabi_fmul ; 0x48ea
        0x00001706:    6861        ah      LDR      r1,[r4,#4]
        0x00001708:    4607        .F      MOV      r7,r0
        0x0000170a:    6860        `h      LDR      r0,[r4,#4]
        0x0000170c:    f003f8ed    ....    BL       __aeabi_fmul ; 0x48ea
        0x00001710:    6821        !h      LDR      r1,[r4,#0]
        0x00001712:    4606        .F      MOV      r6,r0
        0x00001714:    6820         h      LDR      r0,[r4,#0]
        0x00001716:    f003f8e8    ....    BL       __aeabi_fmul ; 0x48ea
        0x0000171a:    4631        1F      MOV      r1,r6
        0x0000171c:    f003f88c    ....    BL       __aeabi_fadd ; 0x4838
        0x00001720:    4639        9F      MOV      r1,r7
        0x00001722:    f003f8da    ....    BL       __aeabi_fsub ; 0x48da
        0x00001726:    9900        ..      LDR      r1,[sp,#0]
        0x00001728:    f003f8d7    ....    BL       __aeabi_fsub ; 0x48da
        0x0000172c:    6028        (`      STR      r0,[r5,#0]
        0x0000172e:    68a1        .h      LDR      r1,[r4,#8]
        0x00001730:    6860        `h      LDR      r0,[r4,#4]
        0x00001732:    f003f8da    ....    BL       __aeabi_fmul ; 0x48ea
        0x00001736:    68e1        .h      LDR      r1,[r4,#0xc]
        0x00001738:    4606        .F      MOV      r6,r0
        0x0000173a:    6820         h      LDR      r0,[r4,#0]
        0x0000173c:    f003f8d5    ....    BL       __aeabi_fmul ; 0x48ea
        0x00001740:    4631        1F      MOV      r1,r6
        0x00001742:    f003f879    ..y.    BL       __aeabi_fadd ; 0x4838
        0x00001746:    2101        .!      MOVS     r1,#1
        0x00001748:    f003f94a    ..J.    BL       __ARM_scalbnf ; 0x49e0
        0x0000174c:    6068        h`      STR      r0,[r5,#4]
        0x0000174e:    68a1        .h      LDR      r1,[r4,#8]
        0x00001750:    6820         h      LDR      r0,[r4,#0]
        0x00001752:    f003f8ca    ....    BL       __aeabi_fmul ; 0x48ea
        0x00001756:    68e1        .h      LDR      r1,[r4,#0xc]
        0x00001758:    4606        .F      MOV      r6,r0
        0x0000175a:    6860        `h      LDR      r0,[r4,#4]
        0x0000175c:    f003f8c5    ....    BL       __aeabi_fmul ; 0x48ea
        0x00001760:    4631        1F      MOV      r1,r6
        0x00001762:    f003f8ba    ....    BL       __aeabi_fsub ; 0x48da
        0x00001766:    2101        .!      MOVS     r1,#1
        0x00001768:    f003f93a    ..:.    BL       __ARM_scalbnf ; 0x49e0
        0x0000176c:    60a8        .`      STR      r0,[r5,#8]
        0x0000176e:    68e1        .h      LDR      r1,[r4,#0xc]
        0x00001770:    6820         h      LDR      r0,[r4,#0]
        0x00001772:    f003f8ba    ....    BL       __aeabi_fmul ; 0x48ea
        0x00001776:    68a1        .h      LDR      r1,[r4,#8]
        0x00001778:    4606        .F      MOV      r6,r0
        0x0000177a:    6860        `h      LDR      r0,[r4,#4]
        0x0000177c:    f003f8b5    ....    BL       __aeabi_fmul ; 0x48ea
        0x00001780:    4631        1F      MOV      r1,r6
        0x00001782:    f003f8aa    ....    BL       __aeabi_fsub ; 0x48da
        0x00001786:    2101        .!      MOVS     r1,#1
        0x00001788:    f003f92a    ..*.    BL       __ARM_scalbnf ; 0x49e0
        0x0000178c:    60e8        .`      STR      r0,[r5,#0xc]
        0x0000178e:    68e1        .h      LDR      r1,[r4,#0xc]
        0x00001790:    68e0        .h      LDR      r0,[r4,#0xc]
        0x00001792:    f003f8aa    ....    BL       __aeabi_fmul ; 0x48ea
        0x00001796:    9000        ..      STR      r0,[sp,#0]
        0x00001798:    68a1        .h      LDR      r1,[r4,#8]
        0x0000179a:    68a0        .h      LDR      r0,[r4,#8]
        0x0000179c:    f003f8a5    ....    BL       __aeabi_fmul ; 0x48ea
        0x000017a0:    6861        ah      LDR      r1,[r4,#4]
        0x000017a2:    4607        .F      MOV      r7,r0
        0x000017a4:    6860        `h      LDR      r0,[r4,#4]
        0x000017a6:    f003f8a0    ....    BL       __aeabi_fmul ; 0x48ea
        0x000017aa:    6821        !h      LDR      r1,[r4,#0]
        0x000017ac:    4606        .F      MOV      r6,r0
        0x000017ae:    6820         h      LDR      r0,[r4,#0]
        0x000017b0:    f003f89b    ....    BL       __aeabi_fmul ; 0x48ea
        0x000017b4:    4631        1F      MOV      r1,r6
        0x000017b6:    f003f890    ....    BL       __aeabi_fsub ; 0x48da
        0x000017ba:    4639        9F      MOV      r1,r7
        0x000017bc:    f003f83c    ..<.    BL       __aeabi_fadd ; 0x4838
        0x000017c0:    9900        ..      LDR      r1,[sp,#0]
        0x000017c2:    f003f88a    ....    BL       __aeabi_fsub ; 0x48da
        0x000017c6:    6128        (a      STR      r0,[r5,#0x10]
        0x000017c8:    68e1        .h      LDR      r1,[r4,#0xc]
        0x000017ca:    68a0        .h      LDR      r0,[r4,#8]
        0x000017cc:    f003f88d    ....    BL       __aeabi_fmul ; 0x48ea
        0x000017d0:    6861        ah      LDR      r1,[r4,#4]
        0x000017d2:    4606        .F      MOV      r6,r0
        0x000017d4:    6820         h      LDR      r0,[r4,#0]
        0x000017d6:    f003f888    ....    BL       __aeabi_fmul ; 0x48ea
        0x000017da:    4631        1F      MOV      r1,r6
        0x000017dc:    f003f82c    ..,.    BL       __aeabi_fadd ; 0x4838
        0x000017e0:    2101        .!      MOVS     r1,#1
        0x000017e2:    f003f8fd    ....    BL       __ARM_scalbnf ; 0x49e0
        0x000017e6:    6168        ha      STR      r0,[r5,#0x14]
        0x000017e8:    68a1        .h      LDR      r1,[r4,#8]
        0x000017ea:    6820         h      LDR      r0,[r4,#0]
        0x000017ec:    f003f87d    ..}.    BL       __aeabi_fmul ; 0x48ea
        0x000017f0:    68e1        .h      LDR      r1,[r4,#0xc]
        0x000017f2:    4606        .F      MOV      r6,r0
        0x000017f4:    6860        `h      LDR      r0,[r4,#4]
        0x000017f6:    f003f878    ..x.    BL       __aeabi_fmul ; 0x48ea
        0x000017fa:    4631        1F      MOV      r1,r6
        0x000017fc:    f003f81c    ....    BL       __aeabi_fadd ; 0x4838
        0x00001800:    2101        .!      MOVS     r1,#1
        0x00001802:    f003f8ed    ....    BL       __ARM_scalbnf ; 0x49e0
        0x00001806:    61a8        .a      STR      r0,[r5,#0x18]
        0x00001808:    6861        ah      LDR      r1,[r4,#4]
        0x0000180a:    6820         h      LDR      r0,[r4,#0]
        0x0000180c:    f003f86d    ..m.    BL       __aeabi_fmul ; 0x48ea
        0x00001810:    68e1        .h      LDR      r1,[r4,#0xc]
        0x00001812:    4606        .F      MOV      r6,r0
        0x00001814:    68a0        .h      LDR      r0,[r4,#8]
        0x00001816:    f003f868    ..h.    BL       __aeabi_fmul ; 0x48ea
        0x0000181a:    4631        1F      MOV      r1,r6
        0x0000181c:    f003f85d    ..].    BL       __aeabi_fsub ; 0x48da
        0x00001820:    2101        .!      MOVS     r1,#1
        0x00001822:    f003f8dd    ....    BL       __ARM_scalbnf ; 0x49e0
        0x00001826:    61e8        .a      STR      r0,[r5,#0x1c]
        0x00001828:    68e1        .h      LDR      r1,[r4,#0xc]
        0x0000182a:    68e0        .h      LDR      r0,[r4,#0xc]
        0x0000182c:    f003f85d    ..].    BL       __aeabi_fmul ; 0x48ea
        0x00001830:    9000        ..      STR      r0,[sp,#0]
        0x00001832:    68a1        .h      LDR      r1,[r4,#8]
        0x00001834:    68a0        .h      LDR      r0,[r4,#8]
        0x00001836:    f003f858    ..X.    BL       __aeabi_fmul ; 0x48ea
        0x0000183a:    6861        ah      LDR      r1,[r4,#4]
        0x0000183c:    4607        .F      MOV      r7,r0
        0x0000183e:    6860        `h      LDR      r0,[r4,#4]
        0x00001840:    f003f853    ..S.    BL       __aeabi_fmul ; 0x48ea
        0x00001844:    6821        !h      LDR      r1,[r4,#0]
        0x00001846:    4606        .F      MOV      r6,r0
        0x00001848:    6820         h      LDR      r0,[r4,#0]
        0x0000184a:    f003f84e    ..N.    BL       __aeabi_fmul ; 0x48ea
        0x0000184e:    4631        1F      MOV      r1,r6
        0x00001850:    f003f843    ..C.    BL       __aeabi_fsub ; 0x48da
        0x00001854:    4639        9F      MOV      r1,r7
        0x00001856:    f003f840    ..@.    BL       __aeabi_fsub ; 0x48da
        0x0000185a:    9900        ..      LDR      r1,[sp,#0]
        0x0000185c:    f002ffec    ....    BL       __aeabi_fadd ; 0x4838
        0x00001860:    6228        (b      STR      r0,[r5,#0x20]
        0x00001862:    bdf8        ..      POP      {r3-r7,pc}
    Quaternion_ToAngE
        0x00001864:    b570        p.      PUSH     {r4-r6,lr}
        0x00001866:    460d        .F      MOV      r5,r1
        0x00001868:    4614        .F      MOV      r4,r2
        0x0000186a:    4611        .F      MOV      r1,r2
        0x0000186c:    f7ffff3f    ..?.    BL       Quaternion_ToMatrix ; 0x16ee
        0x00001870:    68a0        .h      LDR      r0,[r4,#8]
        0x00001872:    f004fde5    ....    BL       asinf ; 0x6440
        0x00001876:    2101        .!      MOVS     r1,#1
        0x00001878:    07c9        ..      LSLS     r1,r1,#31
        0x0000187a:    4048        H@      EORS     r0,r0,r1
        0x0000187c:    6028        (`      STR      r0,[r5,#0]
        0x0000187e:    6a21        !j      LDR      r1,[r4,#0x20]
        0x00001880:    6960        `i      LDR      r0,[r4,#0x14]
        0x00001882:    f004fe69    ..i.    BL       atan2f ; 0x6558
        0x00001886:    6068        h`      STR      r0,[r5,#4]
        0x00001888:    6821        !h      LDR      r1,[r4,#0]
        0x0000188a:    6860        `h      LDR      r0,[r4,#4]
        0x0000188c:    f004fe64    ..d.    BL       atan2f ; 0x6558
        0x00001890:    60a8        .`      STR      r0,[r5,#8]
        0x00001892:    bd70        p.      POP      {r4-r6,pc}
    Quaternion_Normalize
        0x00001894:    b5f8        ..      PUSH     {r3-r7,lr}
        0x00001896:    68c1        .h      LDR      r1,[r0,#0xc]
        0x00001898:    4604        .F      MOV      r4,r0
        0x0000189a:    68c0        .h      LDR      r0,[r0,#0xc]
        0x0000189c:    f003f825    ..%.    BL       __aeabi_fmul ; 0x48ea
        0x000018a0:    68a1        .h      LDR      r1,[r4,#8]
        0x000018a2:    4607        .F      MOV      r7,r0
        0x000018a4:    68a0        .h      LDR      r0,[r4,#8]
        0x000018a6:    f003f820    .. .    BL       __aeabi_fmul ; 0x48ea
        0x000018aa:    6861        ah      LDR      r1,[r4,#4]
        0x000018ac:    4606        .F      MOV      r6,r0
        0x000018ae:    6860        `h      LDR      r0,[r4,#4]
        0x000018b0:    f003f81b    ....    BL       __aeabi_fmul ; 0x48ea
        0x000018b4:    6821        !h      LDR      r1,[r4,#0]
        0x000018b6:    4605        .F      MOV      r5,r0
        0x000018b8:    6820         h      LDR      r0,[r4,#0]
        0x000018ba:    f003f816    ....    BL       __aeabi_fmul ; 0x48ea
        0x000018be:    4629        )F      MOV      r1,r5
        0x000018c0:    f002ffba    ....    BL       __aeabi_fadd ; 0x4838
        0x000018c4:    4631        1F      MOV      r1,r6
        0x000018c6:    f002ffb7    ....    BL       __aeabi_fadd ; 0x4838
        0x000018ca:    4639        9F      MOV      r1,r7
        0x000018cc:    f002ffb4    ....    BL       __aeabi_fadd ; 0x4838
        0x000018d0:    f7fffde0    ....    BL       Q_rsqrt ; 0x1494
        0x000018d4:    4605        .F      MOV      r5,r0
        0x000018d6:    6820         h      LDR      r0,[r4,#0]
        0x000018d8:    4629        )F      MOV      r1,r5
        0x000018da:    f003f806    ....    BL       __aeabi_fmul ; 0x48ea
        0x000018de:    6020         `      STR      r0,[r4,#0]
        0x000018e0:    6860        `h      LDR      r0,[r4,#4]
        0x000018e2:    4629        )F      MOV      r1,r5
        0x000018e4:    f003f801    ....    BL       __aeabi_fmul ; 0x48ea
        0x000018e8:    6060        ``      STR      r0,[r4,#4]
        0x000018ea:    68a0        .h      LDR      r0,[r4,#8]
        0x000018ec:    4629        )F      MOV      r1,r5
        0x000018ee:    f002fffc    ....    BL       __aeabi_fmul ; 0x48ea
        0x000018f2:    60a0        .`      STR      r0,[r4,#8]
        0x000018f4:    68e0        .h      LDR      r0,[r4,#0xc]
        0x000018f6:    4629        )F      MOV      r1,r5
        0x000018f8:    f002fff7    ....    BL       __aeabi_fmul ; 0x48ea
        0x000018fc:    60e0        .`      STR      r0,[r4,#0xc]
        0x000018fe:    bdf8        ..      POP      {r3-r7,pc}
    Quaternion_RungeKutta
        0x00001900:    b5ff        ..      PUSH     {r0-r7,lr}
        0x00001902:    4604        .F      MOV      r4,r0
        0x00001904:    6800        .h      LDR      r0,[r0,#0]
        0x00001906:    b083        ..      SUB      sp,sp,#0xc
        0x00001908:    9000        ..      STR      r0,[sp,#0]
        0x0000190a:    6865        eh      LDR      r5,[r4,#4]
        0x0000190c:    68a7        .h      LDR      r7,[r4,#8]
        0x0000190e:    68e6        .h      LDR      r6,[r4,#0xc]
        0x00001910:    9906        ..      LDR      r1,[sp,#0x18]
        0x00001912:    4630        0F      MOV      r0,r6
        0x00001914:    f002ffe9    ....    BL       __aeabi_fmul ; 0x48ea
        0x00001918:    9002        ..      STR      r0,[sp,#8]
        0x0000191a:    4638        8F      MOV      r0,r7
        0x0000191c:    9905        ..      LDR      r1,[sp,#0x14]
        0x0000191e:    f002ffe4    ....    BL       __aeabi_fmul ; 0x48ea
        0x00001922:    9001        ..      STR      r0,[sp,#4]
        0x00001924:    2001        .       MOVS     r0,#1
        0x00001926:    07c0        ..      LSLS     r0,r0,#31
        0x00001928:    4068        h@      EORS     r0,r0,r5
        0x0000192a:    9904        ..      LDR      r1,[sp,#0x10]
        0x0000192c:    f002ffdd    ....    BL       __aeabi_fmul ; 0x48ea
        0x00001930:    9901        ..      LDR      r1,[sp,#4]
        0x00001932:    f002ffd2    ....    BL       __aeabi_fsub ; 0x48da
        0x00001936:    9902        ..      LDR      r1,[sp,#8]
        0x00001938:    f002ffcf    ....    BL       __aeabi_fsub ; 0x48da
        0x0000193c:    990c        ..      LDR      r1,[sp,#0x30]
        0x0000193e:    f002ffd4    ....    BL       __aeabi_fmul ; 0x48ea
        0x00001942:    6821        !h      LDR      r1,[r4,#0]
        0x00001944:    f002ff78    ..x.    BL       __aeabi_fadd ; 0x4838
        0x00001948:    6020         `      STR      r0,[r4,#0]
        0x0000194a:    4638        8F      MOV      r0,r7
        0x0000194c:    9906        ..      LDR      r1,[sp,#0x18]
        0x0000194e:    f002ffcc    ....    BL       __aeabi_fmul ; 0x48ea
        0x00001952:    9002        ..      STR      r0,[sp,#8]
        0x00001954:    4630        0F      MOV      r0,r6
        0x00001956:    9905        ..      LDR      r1,[sp,#0x14]
        0x00001958:    f002ffc7    ....    BL       __aeabi_fmul ; 0x48ea
        0x0000195c:    9001        ..      STR      r0,[sp,#4]
        0x0000195e:    9904        ..      LDR      r1,[sp,#0x10]
        0x00001960:    9800        ..      LDR      r0,[sp,#0]
        0x00001962:    f002ffc2    ....    BL       __aeabi_fmul ; 0x48ea
        0x00001966:    9901        ..      LDR      r1,[sp,#4]
        0x00001968:    f002ffb7    ....    BL       __aeabi_fsub ; 0x48da
        0x0000196c:    9902        ..      LDR      r1,[sp,#8]
        0x0000196e:    f002ff63    ..c.    BL       __aeabi_fadd ; 0x4838
        0x00001972:    990c        ..      LDR      r1,[sp,#0x30]
        0x00001974:    f002ffb9    ....    BL       __aeabi_fmul ; 0x48ea
        0x00001978:    6861        ah      LDR      r1,[r4,#4]
        0x0000197a:    f002ff5d    ..].    BL       __aeabi_fadd ; 0x4838
        0x0000197e:    6060        ``      STR      r0,[r4,#4]
        0x00001980:    4628        (F      MOV      r0,r5
        0x00001982:    9906        ..      LDR      r1,[sp,#0x18]
        0x00001984:    f002ffb1    ....    BL       __aeabi_fmul ; 0x48ea
        0x00001988:    9002        ..      STR      r0,[sp,#8]
        0x0000198a:    9905        ..      LDR      r1,[sp,#0x14]
        0x0000198c:    9800        ..      LDR      r0,[sp,#0]
        0x0000198e:    f002ffac    ....    BL       __aeabi_fmul ; 0x48ea
        0x00001992:    9001        ..      STR      r0,[sp,#4]
        0x00001994:    4630        0F      MOV      r0,r6
        0x00001996:    9904        ..      LDR      r1,[sp,#0x10]
        0x00001998:    f002ffa7    ....    BL       __aeabi_fmul ; 0x48ea
        0x0000199c:    9901        ..      LDR      r1,[sp,#4]
        0x0000199e:    f002ff4b    ..K.    BL       __aeabi_fadd ; 0x4838
        0x000019a2:    9902        ..      LDR      r1,[sp,#8]
        0x000019a4:    f002ff99    ....    BL       __aeabi_fsub ; 0x48da
        0x000019a8:    990c        ..      LDR      r1,[sp,#0x30]
        0x000019aa:    f002ff9e    ....    BL       __aeabi_fmul ; 0x48ea
        0x000019ae:    68a1        .h      LDR      r1,[r4,#8]
        0x000019b0:    f002ff42    ..B.    BL       __aeabi_fadd ; 0x4838
        0x000019b4:    60a0        .`      STR      r0,[r4,#8]
        0x000019b6:    9906        ..      LDR      r1,[sp,#0x18]
        0x000019b8:    9800        ..      LDR      r0,[sp,#0]
        0x000019ba:    f002ff96    ....    BL       __aeabi_fmul ; 0x48ea
        0x000019be:    4606        .F      MOV      r6,r0
        0x000019c0:    4638        8F      MOV      r0,r7
        0x000019c2:    9904        ..      LDR      r1,[sp,#0x10]
        0x000019c4:    f002ff91    ....    BL       __aeabi_fmul ; 0x48ea
        0x000019c8:    4607        .F      MOV      r7,r0
        0x000019ca:    4628        (F      MOV      r0,r5
        0x000019cc:    9905        ..      LDR      r1,[sp,#0x14]
        0x000019ce:    f002ff8c    ....    BL       __aeabi_fmul ; 0x48ea
        0x000019d2:    4639        9F      MOV      r1,r7
        0x000019d4:    f002ff81    ....    BL       __aeabi_fsub ; 0x48da
        0x000019d8:    4631        1F      MOV      r1,r6
        0x000019da:    f002ff2d    ..-.    BL       __aeabi_fadd ; 0x4838
        0x000019de:    990c        ..      LDR      r1,[sp,#0x30]
        0x000019e0:    f002ff83    ....    BL       __aeabi_fmul ; 0x48ea
        0x000019e4:    68e1        .h      LDR      r1,[r4,#0xc]
        0x000019e6:    f002ff27    ..'.    BL       __aeabi_fadd ; 0x4838
        0x000019ea:    60e0        .`      STR      r0,[r4,#0xc]
        0x000019ec:    b007        ..      ADD      sp,sp,#0x1c
        0x000019ee:    bdf0        ..      POP      {r4-r7,pc}
    .text
    axis_target_pid_cal
        0x000019f0:    b570        p.      PUSH     {r4-r6,lr}
        0x000019f2:    4605        .F      MOV      r5,r0
        0x000019f4:    4608        .F      MOV      r0,r1
        0x000019f6:    f003f9d0    ....    BL       __aeabi_f2d ; 0x4d9a
        0x000019fa:    f7fffd77    ..w.    BL       Rad ; 0x14ec
        0x000019fe:    f003f9f5    ....    BL       __aeabi_d2f ; 0x4dec
        0x00001a02:    4604        .F      MOV      r4,r0
        0x00001a04:    4601        .F      MOV      r1,r0
        0x00001a06:    4628        (F      MOV      r0,r5
        0x00001a08:    f7fffdd8    ....    BL       set_pid_input ; 0x15bc
        0x00001a0c:    4628        (F      MOV      r0,r5
        0x00001a0e:    f7fffe28    ..(.    BL       get_integrator ; 0x1662
        0x00001a12:    4601        .F      MOV      r1,r0
        0x00001a14:    2201        ."      MOVS     r2,#1
        0x00001a16:    05d2        ..      LSLS     r2,r2,#23
        0x00001a18:    485f        _H      LDR      r0,[pc,#380] ; [0x1b98] = 0x80800000
        0x00001a1a:    4291        .B      CMP      r1,r2
        0x00001a1c:    db01        ..      BLT      0x1a22 ; axis_target_pid_cal + 50
        0x00001a1e:    4284        .B      CMP      r4,r0
        0x00001a20:    d203        ..      BCS      0x1a2a ; axis_target_pid_cal + 58
        0x00001a22:    4281        .B      CMP      r1,r0
        0x00001a24:    d305        ..      BCC      0x1a32 ; axis_target_pid_cal + 66
        0x00001a26:    4294        .B      CMP      r4,r2
        0x00001a28:    db03        ..      BLT      0x1a32 ; axis_target_pid_cal + 66
        0x00001a2a:    4628        (F      MOV      r0,r5
        0x00001a2c:    f7fffde8    ....    BL       get_i_output ; 0x1600
        0x00001a30:    4601        .F      MOV      r1,r0
        0x00001a32:    6a68        hj      LDR      r0,[r5,#0x24]
        0x00001a34:    f002ff00    ....    BL       __aeabi_fadd ; 0x4838
        0x00001a38:    6ae9        .j      LDR      r1,[r5,#0x2c]
        0x00001a3a:    f002fefd    ....    BL       __aeabi_fadd ; 0x4838
        0x00001a3e:    bd70        p.      POP      {r4-r6,pc}
    attitude_angle_rate_controller
        0x00001a40:    b53e        >.      PUSH     {r1-r5,lr}
        0x00001a42:    4668        hF      MOV      r0,sp
        0x00001a44:    f001f84d    ..M.    BL       get_inertial_vel ; 0x2ae2
        0x00001a48:    4c54        TL      LDR      r4,[pc,#336] ; [0x1b9c] = 0x200004a0
        0x00001a4a:    9900        ..      LDR      r1,[sp,#0]
        0x00001a4c:    6820         h      LDR      r0,[r4,#0]
        0x00001a4e:    f002ff44    ..D.    BL       __aeabi_fsub ; 0x48da
        0x00001a52:    4601        .F      MOV      r1,r0
        0x00001a54:    4852        RH      LDR      r0,[pc,#328] ; [0x1ba0] = 0x20000140
        0x00001a56:    f7ffffcb    ....    BL       axis_target_pid_cal ; 0x19f0
        0x00001a5a:    f000f983    ....    BL       set_motor_roll ; 0x1d64
        0x00001a5e:    9901        ..      LDR      r1,[sp,#4]
        0x00001a60:    6860        `h      LDR      r0,[r4,#4]
        0x00001a62:    f002ff3a    ..:.    BL       __aeabi_fsub ; 0x48da
        0x00001a66:    4601        .F      MOV      r1,r0
        0x00001a68:    484d        MH      LDR      r0,[pc,#308] ; [0x1ba0] = 0x20000140
        0x00001a6a:    3030        00      ADDS     r0,r0,#0x30
        0x00001a6c:    f7ffffc0    ....    BL       axis_target_pid_cal ; 0x19f0
        0x00001a70:    f000f97b    ..{.    BL       set_motor_pitch ; 0x1d6a
        0x00001a74:    9902        ..      LDR      r1,[sp,#8]
        0x00001a76:    68a0        .h      LDR      r0,[r4,#8]
        0x00001a78:    f002ff2f    ../.    BL       __aeabi_fsub ; 0x48da
        0x00001a7c:    4601        .F      MOV      r1,r0
        0x00001a7e:    4848        HH      LDR      r0,[pc,#288] ; [0x1ba0] = 0x20000140
        0x00001a80:    3060        `0      ADDS     r0,r0,#0x60
        0x00001a82:    f7ffffb5    ....    BL       axis_target_pid_cal ; 0x19f0
        0x00001a86:    f000f973    ..s.    BL       set_motor_yaw ; 0x1d70
        0x00001a8a:    bd3e        >.      POP      {r1-r5,pc}
    attitude_angle_euler_controller
        0x00001a8c:    b5ff        ..      PUSH     {r0-r7,lr}
        0x00001a8e:    4e45        EN      LDR      r6,[pc,#276] ; [0x1ba4] = 0x200004f0
        0x00001a90:    460f        .F      MOV      r7,r1
        0x00001a92:    b081        ..      SUB      sp,sp,#4
        0x00001a94:    4615        .F      MOV      r5,r2
        0x00001a96:    6831        1h      LDR      r1,[r6,#0]
        0x00001a98:    f002ff1f    ....    BL       __aeabi_fsub ; 0x48da
        0x00001a9c:    4601        .F      MOV      r1,r0
        0x00001a9e:    4840        @H      LDR      r0,[pc,#256] ; [0x1ba0] = 0x20000140
        0x00001aa0:    3090        .0      ADDS     r0,r0,#0x90
        0x00001aa2:    f7ffffa5    ....    BL       axis_target_pid_cal ; 0x19f0
        0x00001aa6:    9904        ..      LDR      r1,[sp,#0x10]
        0x00001aa8:    f002ff1f    ....    BL       __aeabi_fmul ; 0x48ea
        0x00001aac:    4c3b        ;L      LDR      r4,[pc,#236] ; [0x1b9c] = 0x200004a0
        0x00001aae:    6020         `      STR      r0,[r4,#0]
        0x00001ab0:    4638        8F      MOV      r0,r7
        0x00001ab2:    6871        qh      LDR      r1,[r6,#4]
        0x00001ab4:    f002ff11    ....    BL       __aeabi_fsub ; 0x48da
        0x00001ab8:    4601        .F      MOV      r1,r0
        0x00001aba:    4839        9H      LDR      r0,[pc,#228] ; [0x1ba0] = 0x20000140
        0x00001abc:    30c0        .0      ADDS     r0,r0,#0xc0
        0x00001abe:    f7ffff97    ....    BL       axis_target_pid_cal ; 0x19f0
        0x00001ac2:    9904        ..      LDR      r1,[sp,#0x10]
        0x00001ac4:    f002ff11    ....    BL       __aeabi_fmul ; 0x48ea
        0x00001ac8:    6060        ``      STR      r0,[r4,#4]
        0x00001aca:    4835        5H      LDR      r0,[pc,#212] ; [0x1ba0] = 0x20000140
        0x00001acc:    4629        )F      MOV      r1,r5
        0x00001ace:    30f0        .0      ADDS     r0,r0,#0xf0
        0x00001ad0:    f7ffff8e    ....    BL       axis_target_pid_cal ; 0x19f0
        0x00001ad4:    9904        ..      LDR      r1,[sp,#0x10]
        0x00001ad6:    f002ff08    ....    BL       __aeabi_fmul ; 0x48ea
        0x00001ada:    60a0        .`      STR      r0,[r4,#8]
        0x00001adc:    b005        ..      ADD      sp,sp,#0x14
        0x00001ade:    bdf0        ..      POP      {r4-r7,pc}
    get_throttle_boosted
        0x00001ae0:    b5f8        ..      PUSH     {r3-r7,lr}
        0x00001ae2:    4f31        1O      LDR      r7,[pc,#196] ; [0x1ba8] = 0x200004e4
        0x00001ae4:    4606        .F      MOV      r6,r0
        0x00001ae6:    6878        xh      LDR      r0,[r7,#4]
        0x00001ae8:    f003f957    ..W.    BL       __aeabi_f2d ; 0x4d9a
        0x00001aec:    f004fe62    ..b.    BL       cos ; 0x67b4
        0x00001af0:    4604        .F      MOV      r4,r0
        0x00001af2:    460d        .F      MOV      r5,r1
        0x00001af4:    6838        8h      LDR      r0,[r7,#0]
        0x00001af6:    f003f950    ..P.    BL       __aeabi_f2d ; 0x4d9a
        0x00001afa:    f004fe5b    ..[.    BL       cos ; 0x67b4
        0x00001afe:    4622        "F      MOV      r2,r4
        0x00001b00:    462b        +F      MOV      r3,r5
        0x00001b02:    f003f82b    ..+.    BL       __aeabi_dmul ; 0x4b5c
        0x00001b06:    f003f971    ..q.    BL       __aeabi_d2f ; 0x4dec
        0x00001b0a:    4607        .F      MOV      r7,r0
        0x00001b0c:    2101        .!      MOVS     r1,#1
        0x00001b0e:    f002ff67    ..g.    BL       __ARM_scalbnf ; 0x49e0
        0x00001b12:    247f        .$      MOVS     r4,#0x7f
        0x00001b14:    05e4        ..      LSLS     r4,r4,#23
        0x00001b16:    2200        ."      MOVS     r2,#0
        0x00001b18:    4621        !F      MOV      r1,r4
        0x00001b1a:    f7fffcd3    ....    BL       data_limit ; 0x14c4
        0x00001b1e:    4605        .F      MOV      r5,r0
        0x00001b20:    223f        ?"      MOVS     r2,#0x3f
        0x00001b22:    0612        ..      LSLS     r2,r2,#24
        0x00001b24:    4621        !F      MOV      r1,r4
        0x00001b26:    4638        8F      MOV      r0,r7
        0x00001b28:    f7fffccc    ....    BL       data_limit ; 0x14c4
        0x00001b2c:    4601        .F      MOV      r1,r0
        0x00001b2e:    4620         F      MOV      r0,r4
        0x00001b30:    f002ff18    ....    BL       __aeabi_fdiv ; 0x4964
        0x00001b34:    4604        .F      MOV      r4,r0
        0x00001b36:    4629        )F      MOV      r1,r5
        0x00001b38:    4630        0F      MOV      r0,r6
        0x00001b3a:    f002fed6    ....    BL       __aeabi_fmul ; 0x48ea
        0x00001b3e:    4621        !F      MOV      r1,r4
        0x00001b40:    f002fed3    ....    BL       __aeabi_fmul ; 0x48ea
        0x00001b44:    4604        .F      MOV      r4,r0
        0x00001b46:    2200        ."      MOVS     r2,#0
        0x00001b48:    4918        .I      LDR      r1,[pc,#96] ; [0x1bac] = 0x3f733333
        0x00001b4a:    f7fffcbb    ....    BL       data_limit ; 0x14c4
        0x00001b4e:    4620         F      MOV      r0,r4
        0x00001b50:    bdf8        ..      POP      {r3-r7,pc}
    attitude_throttle_controller
        0x00001b52:    b510        ..      PUSH     {r4,lr}
        0x00001b54:    4614        .F      MOV      r4,r2
        0x00001b56:    2900        .)      CMP      r1,#0
        0x00001b58:    d001        ..      BEQ      0x1b5e ; attitude_throttle_controller + 12
        0x00001b5a:    f7ffffc1    ....    BL       get_throttle_boosted ; 0x1ae0
        0x00001b5e:    4621        !F      MOV      r1,r4
        0x00001b60:    f000f909    ....    BL       set_motor_throttle ; 0x1d76
        0x00001b64:    bd10        ..      POP      {r4,pc}
    reset_pid_param
        0x00001b66:    b570        p.      PUSH     {r4-r6,lr}
        0x00001b68:    480d        .H      LDR      r0,[pc,#52] ; [0x1ba0] = 0x20000140
        0x00001b6a:    f7fffd74    ..t.    BL       reset_pid_I ; 0x1656
        0x00001b6e:    480c        .H      LDR      r0,[pc,#48] ; [0x1ba0] = 0x20000140
        0x00001b70:    3030        00      ADDS     r0,r0,#0x30
        0x00001b72:    4604        .F      MOV      r4,r0
        0x00001b74:    f7fffd6f    ..o.    BL       reset_pid_I ; 0x1656
        0x00001b78:    4809        .H      LDR      r0,[pc,#36] ; [0x1ba0] = 0x20000140
        0x00001b7a:    3060        `0      ADDS     r0,r0,#0x60
        0x00001b7c:    4605        .F      MOV      r5,r0
        0x00001b7e:    f7fffd6a    ..j.    BL       reset_pid_I ; 0x1656
        0x00001b82:    4807        .H      LDR      r0,[pc,#28] ; [0x1ba0] = 0x20000140
        0x00001b84:    f7fffd6a    ..j.    BL       reset_pid_D ; 0x165c
        0x00001b88:    4620         F      MOV      r0,r4
        0x00001b8a:    f7fffd67    ..g.    BL       reset_pid_D ; 0x165c
        0x00001b8e:    4628        (F      MOV      r0,r5
        0x00001b90:    f7fffd64    ..d.    BL       reset_pid_D ; 0x165c
        0x00001b94:    bd70        p.      POP      {r4-r6,pc}
    $d
        0x00001b96:    0000        ..      DCW    0
        0x00001b98:    80800000    ....    DCD    2155872256
        0x00001b9c:    200004a0    ...     DCD    536872096
        0x00001ba0:    20000140    @..     DCD    536871232
        0x00001ba4:    200004f0    ...     DCD    536872176
        0x00001ba8:    200004e4    ...     DCD    536872164
        0x00001bac:    3f733333    33s?    DCD    1064514355
    $t
    .text
    stabilize_init
        0x00001bb0:    b510        ..      PUSH     {r4,lr}
        0x00001bb2:    4604        .F      MOV      r4,r0
        0x00001bb4:    f7ffffd7    ....    BL       reset_pid_param ; 0x1b66
        0x00001bb8:    2001        .       MOVS     r0,#1
        0x00001bba:    bd10        ..      POP      {r4,pc}
    set_flight_mode
        0x00001bbc:    b570        p.      PUSH     {r4-r6,lr}
        0x00001bbe:    4d39        9M      LDR      r5,[pc,#228] ; [0x1ca4] = 0x20000020
        0x00001bc0:    4604        .F      MOV      r4,r0
        0x00001bc2:    7829        )x      LDRB     r1,[r5,#0]
        0x00001bc4:    2000        .       MOVS     r0,#0
        0x00001bc6:    2201        ."      MOVS     r2,#1
        0x00001bc8:    428c        .B      CMP      r4,r1
        0x00001bca:    d102        ..      BNE      0x1bd2 ; set_flight_mode + 22
        0x00001bcc:    7069        ip      STRB     r1,[r5,#1]
        0x00001bce:    2001        .       MOVS     r0,#1
        0x00001bd0:    bd70        p.      POP      {r4-r6,pc}
        0x00001bd2:    0023        #.      MOVS     r3,r4
        0x00001bd4:    f003fb98    ....    BL       __ARM_common_switch8 ; 0x5308
    $d
        0x00001bd8:    06060304    ....    DCD    101057284
        0x00001bdc:    060c        ..      DCW    1548
    $t
        0x00001bde:    4610        .F      MOV      r0,r2
        0x00001be0:    f7ffffe6    ....    BL       stabilize_init ; 0x1bb0
        0x00001be4:    2800        .(      CMP      r0,#0
        0x00001be6:    d0f3        ..      BEQ      0x1bd0 ; set_flight_mode + 20
        0x00001be8:    7829        )x      LDRB     r1,[r5,#0]
        0x00001bea:    7069        ip      STRB     r1,[r5,#1]
        0x00001bec:    702c        ,p      STRB     r4,[r5,#0]
        0x00001bee:    bd70        p.      POP      {r4-r6,pc}
        0x00001bf0:    f7ffffb9    ....    BL       reset_pid_param ; 0x1b66
        0x00001bf4:    2001        .       MOVS     r0,#1
        0x00001bf6:    e7f7        ..      B        0x1be8 ; set_flight_mode + 44
    acro_run
        0x00001bf8:    b510        ..      PUSH     {r4,lr}
        0x00001bfa:    482b        +H      LDR      r0,[pc,#172] ; [0x1ca8] = 0x20000134
        0x00001bfc:    7800        .x      LDRB     r0,[r0,#0]
        0x00001bfe:    2802        .(      CMP      r0,#2
        0x00001c00:    d113        ..      BNE      0x1c2a ; acro_run + 50
        0x00001c02:    f002fc13    ....    BL       get_desired_throttle_expo ; 0x442c
        0x00001c06:    4604        .F      MOV      r4,r0
        0x00001c08:    4928        (I      LDR      r1,[pc,#160] ; [0x1cac] = 0x41f00000
        0x00001c0a:    4829        )H      LDR      r0,[pc,#164] ; [0x1cb0] = 0x200004b8
        0x00001c0c:    f002fbc9    ....    BL       get_desired_leans_angles ; 0x43a2
        0x00001c10:    2200        ."      MOVS     r2,#0
        0x00001c12:    2101        .!      MOVS     r1,#1
        0x00001c14:    4620         F      MOV      r0,r4
        0x00001c16:    f7ffff9c    ....    BL       attitude_throttle_controller ; 0x1b52
        0x00001c1a:    4825        %H      LDR      r0,[pc,#148] ; [0x1cb0] = 0x200004b8
        0x00001c1c:    4925        %I      LDR      r1,[pc,#148] ; [0x1cb4] = 0x200004a0
        0x00001c1e:    6802        .h      LDR      r2,[r0,#0]
        0x00001c20:    600a        .`      STR      r2,[r1,#0]
        0x00001c22:    6842        Bh      LDR      r2,[r0,#4]
        0x00001c24:    604a        J`      STR      r2,[r1,#4]
        0x00001c26:    6880        .h      LDR      r0,[r0,#8]
        0x00001c28:    6088        .`      STR      r0,[r1,#8]
        0x00001c2a:    bd10        ..      POP      {r4,pc}
    get_smoothing_gain
        0x00001c2c:    207f        .       MOVS     r0,#0x7f
        0x00001c2e:    05c0        ..      LSLS     r0,r0,#23
        0x00001c30:    4770        pG      BX       lr
    stabilize_run
        0x00001c32:    b5f8        ..      PUSH     {r3-r7,lr}
        0x00001c34:    f7fffa70    ..p.    BL       sys_micro ; 0x1118
        0x00001c38:    4d1a        .M      LDR      r5,[pc,#104] ; [0x1ca4] = 0x20000020
        0x00001c3a:    4604        .F      MOV      r4,r0
        0x00001c3c:    6868        hh      LDR      r0,[r5,#4]
        0x00001c3e:    2800        .(      CMP      r0,#0
        0x00001c40:    d005        ..      BEQ      0x1c4e ; stabilize_run + 28
        0x00001c42:    1a20         .      SUBS     r0,r4,r0
        0x00001c44:    f003f875    ..u.    BL       __aeabi_ui2f ; 0x4d32
        0x00001c48:    491b        .I      LDR      r1,[pc,#108] ; [0x1cb8] = 0x49742400
        0x00001c4a:    f002fe8b    ....    BL       __aeabi_fdiv ; 0x4964
        0x00001c4e:    4606        .F      MOV      r6,r0
        0x00001c50:    4815        .H      LDR      r0,[pc,#84] ; [0x1ca8] = 0x20000134
        0x00001c52:    606c        l`      STR      r4,[r5,#4]
        0x00001c54:    7800        .x      LDRB     r0,[r0,#0]
        0x00001c56:    2802        .(      CMP      r0,#2
        0x00001c58:    d113        ..      BNE      0x1c82 ; stabilize_run + 80
        0x00001c5a:    f002fbe7    ....    BL       get_desired_throttle_expo ; 0x442c
        0x00001c5e:    4605        .F      MOV      r5,r0
        0x00001c60:    4912        .I      LDR      r1,[pc,#72] ; [0x1cac] = 0x41f00000
        0x00001c62:    4813        .H      LDR      r0,[pc,#76] ; [0x1cb0] = 0x200004b8
        0x00001c64:    f002fb9d    ....    BL       get_desired_leans_angles ; 0x43a2
        0x00001c68:    f7ffffe0    ....    BL       get_smoothing_gain ; 0x1c2c
        0x00001c6c:    4c10        .L      LDR      r4,[pc,#64] ; [0x1cb0] = 0x200004b8
        0x00001c6e:    4603        .F      MOV      r3,r0
        0x00001c70:    9600        ..      STR      r6,[sp,#0]
        0x00001c72:    cc07        ..      LDM      r4!,{r0-r2}
        0x00001c74:    f7ffff0a    ....    BL       attitude_angle_euler_controller ; 0x1a8c
        0x00001c78:    2200        ."      MOVS     r2,#0
        0x00001c7a:    2101        .!      MOVS     r1,#1
        0x00001c7c:    4628        (F      MOV      r0,r5
        0x00001c7e:    f7ffff68    ..h.    BL       attitude_throttle_controller ; 0x1b52
        0x00001c82:    bdf8        ..      POP      {r3-r7,pc}
    update_flight_mode
        0x00001c84:    b510        ..      PUSH     {r4,lr}
        0x00001c86:    4807        .H      LDR      r0,[pc,#28] ; [0x1ca4] = 0x20000020
        0x00001c88:    7800        .x      LDRB     r0,[r0,#0]
        0x00001c8a:    0003        ..      MOVS     r3,r0
        0x00001c8c:    f003fb3c    ..<.    BL       __ARM_common_switch8 ; 0x5308
    $d
        0x00001c90:    05050304    ....    DCD    84214532
        0x00001c94:    0506        ..      DCW    1286
    $t
        0x00001c96:    f7ffffcc    ....    BL       stabilize_run ; 0x1c32
        0x00001c9a:    bd10        ..      POP      {r4,pc}
        0x00001c9c:    f7ffffac    ....    BL       acro_run ; 0x1bf8
        0x00001ca0:    bd10        ..      POP      {r4,pc}
    $d
        0x00001ca2:    0000        ..      DCW    0
        0x00001ca4:    20000020     ..     DCD    536870944
        0x00001ca8:    20000134    4..     DCD    536871220
        0x00001cac:    41f00000    ...A    DCD    1106247680
        0x00001cb0:    200004b8    ...     DCD    536872120
        0x00001cb4:    200004a0    ...     DCD    536872096
        0x00001cb8:    49742400    .$tI    DCD    1232348160
    $t
    .text
    motors_output
        0x00001cbc:    b5fe        ..      PUSH     {r1-r7,lr}
        0x00001cbe:    4831        1H      LDR      r0,[pc,#196] ; [0x1d84] = 0x20000134
        0x00001cc0:    4d31        1M      LDR      r5,[pc,#196] ; [0x1d88] = 0x20000124
        0x00001cc2:    7800        .x      LDRB     r0,[r0,#0]
        0x00001cc4:    2802        .(      CMP      r0,#2
        0x00001cc6:    d006        ..      BEQ      0x1cd6 ; motors_output + 26
        0x00001cc8:    2801        .(      CMP      r0,#1
        0x00001cca:    d042        B.      BEQ      0x1d52 ; motors_output + 150
        0x00001ccc:    2803        .(      CMP      r0,#3
        0x00001cce:    d001        ..      BEQ      0x1cd4 ; motors_output + 24
        0x00001cd0:    f7fff8cd    ....    BL       motor_stop ; 0xe6e
        0x00001cd4:    bdfe        ..      POP      {r1-r7,pc}
        0x00001cd6:    4c2d        -L      LDR      r4,[pc,#180] ; [0x1d8c] = 0x200004c4
        0x00001cd8:    4e2e        .N      LDR      r6,[pc,#184] ; [0x1d94] = 0x20000028
        0x00001cda:    492d        -I      LDR      r1,[pc,#180] ; [0x1d90] = 0x3c23d70a
        0x00001cdc:    6922        "i      LDR      r2,[r4,#0x10]
        0x00001cde:    6870        ph      LDR      r0,[r6,#4]
        0x00001ce0:    428a        .B      CMP      r2,r1
        0x00001ce2:    dd04        ..      BLE      0x1cee ; motors_output + 50
        0x00001ce4:    68e1        .h      LDR      r1,[r4,#0xc]
        0x00001ce6:    f7fffb98    ....    BL       LPF_1st ; 0x141a
        0x00001cea:    60e0        .`      STR      r0,[r4,#0xc]
        0x00001cec:    e003        ..      B        0x1cf6 ; motors_output + 58
        0x00001cee:    0040        @.      LSLS     r0,r0,#1
        0x00001cf0:    0e00        ..      LSRS     r0,r0,#24
        0x00001cf2:    d001        ..      BEQ      0x1cf8 ; motors_output + 60
        0x00001cf4:    2000        .       MOVS     r0,#0
        0x00001cf6:    6070        p`      STR      r0,[r6,#4]
        0x00001cf8:    6860        `h      LDR      r0,[r4,#4]
        0x00001cfa:    9000        ..      STR      r0,[sp,#0]
        0x00001cfc:    68e7        .h      LDR      r7,[r4,#0xc]
        0x00001cfe:    4601        .F      MOV      r1,r0
        0x00001d00:    4638        8F      MOV      r0,r7
        0x00001d02:    f002fd99    ....    BL       __aeabi_fadd ; 0x4838
        0x00001d06:    9001        ..      STR      r0,[sp,#4]
        0x00001d08:    6826        &h      LDR      r6,[r4,#0]
        0x00001d0a:    4631        1F      MOV      r1,r6
        0x00001d0c:    f002fde5    ....    BL       __aeabi_fsub ; 0x48da
        0x00001d10:    68a4        .h      LDR      r4,[r4,#8]
        0x00001d12:    4621        !F      MOV      r1,r4
        0x00001d14:    f002fd90    ....    BL       __aeabi_fadd ; 0x4838
        0x00001d18:    60e8        .`      STR      r0,[r5,#0xc]
        0x00001d1a:    4638        8F      MOV      r0,r7
        0x00001d1c:    9900        ..      LDR      r1,[sp,#0]
        0x00001d1e:    f002fddc    ....    BL       __aeabi_fsub ; 0x48da
        0x00001d22:    4607        .F      MOV      r7,r0
        0x00001d24:    4631        1F      MOV      r1,r6
        0x00001d26:    f002fd87    ....    BL       __aeabi_fadd ; 0x4838
        0x00001d2a:    4621        !F      MOV      r1,r4
        0x00001d2c:    f002fd84    ....    BL       __aeabi_fadd ; 0x4838
        0x00001d30:    60a8        .`      STR      r0,[r5,#8]
        0x00001d32:    4631        1F      MOV      r1,r6
        0x00001d34:    9801        ..      LDR      r0,[sp,#4]
        0x00001d36:    f002fd7f    ....    BL       __aeabi_fadd ; 0x4838
        0x00001d3a:    4621        !F      MOV      r1,r4
        0x00001d3c:    f002fdcd    ....    BL       __aeabi_fsub ; 0x48da
        0x00001d40:    6068        h`      STR      r0,[r5,#4]
        0x00001d42:    4638        8F      MOV      r0,r7
        0x00001d44:    4631        1F      MOV      r1,r6
        0x00001d46:    f002fdc8    ....    BL       __aeabi_fsub ; 0x48da
        0x00001d4a:    4621        !F      MOV      r1,r4
        0x00001d4c:    f002fdc5    ....    BL       __aeabi_fsub ; 0x48da
        0x00001d50:    e003        ..      B        0x1d5a ; motors_output + 158
        0x00001d52:    4811        .H      LDR      r0,[pc,#68] ; [0x1d98] = 0x3dcccccd
        0x00001d54:    60e8        .`      STR      r0,[r5,#0xc]
        0x00001d56:    60a8        .`      STR      r0,[r5,#8]
        0x00001d58:    6068        h`      STR      r0,[r5,#4]
        0x00001d5a:    6028        (`      STR      r0,[r5,#0]
        0x00001d5c:    480a        .H      LDR      r0,[pc,#40] ; [0x1d88] = 0x20000124
        0x00001d5e:    f7fff861    ..a.    BL       motor_update ; 0xe24
        0x00001d62:    bdfe        ..      POP      {r1-r7,pc}
    set_motor_roll
        0x00001d64:    4909        .I      LDR      r1,[pc,#36] ; [0x1d8c] = 0x200004c4
        0x00001d66:    6008        .`      STR      r0,[r1,#0]
        0x00001d68:    4770        pG      BX       lr
    set_motor_pitch
        0x00001d6a:    4908        .I      LDR      r1,[pc,#32] ; [0x1d8c] = 0x200004c4
        0x00001d6c:    6048        H`      STR      r0,[r1,#4]
        0x00001d6e:    4770        pG      BX       lr
    set_motor_yaw
        0x00001d70:    4906        .I      LDR      r1,[pc,#24] ; [0x1d8c] = 0x200004c4
        0x00001d72:    6088        .`      STR      r0,[r1,#8]
        0x00001d74:    4770        pG      BX       lr
    set_motor_throttle
        0x00001d76:    4a05        .J      LDR      r2,[pc,#20] ; [0x1d8c] = 0x200004c4
        0x00001d78:    6111        .a      STR      r1,[r2,#0x10]
        0x00001d7a:    60d0        .`      STR      r0,[r2,#0xc]
        0x00001d7c:    4770        pG      BX       lr
    set_trace_throttle
        0x00001d7e:    4903        .I      LDR      r1,[pc,#12] ; [0x1d8c] = 0x200004c4
        0x00001d80:    60c8        .`      STR      r0,[r1,#0xc]
        0x00001d82:    4770        pG      BX       lr
    $d
        0x00001d84:    20000134    4..     DCD    536871220
        0x00001d88:    20000124    $..     DCD    536871204
        0x00001d8c:    200004c4    ...     DCD    536872132
        0x00001d90:    3c23d70a    ..#<    DCD    1008981770
        0x00001d94:    20000028    (..     DCD    536870952
        0x00001d98:    3dcccccd    ...=    DCD    1036831949
    $t
    .text
    scheduler_init
        0x00001d9c:    b510        ..      PUSH     {r4,lr}
        0x00001d9e:    49ff        .I      LDR      r1,[pc,#1020] ; [0x219c] = 0x200004d8
        0x00001da0:    2000        .       MOVS     r0,#0
        0x00001da2:    7008        .p      STRB     r0,[r1,#0]
        0x00001da4:    7048        Hp      STRB     r0,[r1,#1]
        0x00001da6:    7088        .p      STRB     r0,[r1,#2]
        0x00001da8:    70c8        .p      STRB     r0,[r1,#3]
        0x00001daa:    7108        .q      STRB     r0,[r1,#4]
        0x00001dac:    7148        Hq      STRB     r0,[r1,#5]
        0x00001dae:    7188        .q      STRB     r0,[r1,#6]
        0x00001db0:    71c8        .q      STRB     r0,[r1,#7]
        0x00001db2:    7208        .r      STRB     r0,[r1,#8]
        0x00001db4:    48fa        .H      LDR      r0,[pc,#1000] ; [0x21a0] = 0x2000001c
        0x00001db6:    217d        }!      MOVS     r1,#0x7d
        0x00001db8:    6800        .h      LDR      r0,[r0,#0]
        0x00001dba:    00c9        ..      LSLS     r1,r1,#3
        0x00001dbc:    4348        HC      MULS     r0,r1,r0
        0x00001dbe:    f7fff98a    ....    BL       systick_config ; 0x10d6
        0x00001dc2:    2800        .(      CMP      r0,#0
        0x00001dc4:    d102        ..      BNE      0x1dcc ; scheduler_init + 48
        0x00001dc6:    a0f7        ..      ADR      r0,{pc}+0x3de ; 0x21a4
        0x00001dc8:    f003fa5e    ..^.    BL       __0printf ; 0x5288
        0x00001dcc:    4cfb        .L      LDR      r4,[pc,#1004] ; [0x21bc] = 0x40010020
        0x00001dce:    22ff        ."      MOVS     r2,#0xff
        0x00001dd0:    2101        .!      MOVS     r1,#1
        0x00001dd2:    3291        .2      ADDS     r2,r2,#0x91
        0x00001dd4:    06c9        ..      LSLS     r1,r1,#27
        0x00001dd6:    4620         F      MOV      r0,r4
        0x00001dd8:    f002f889    ....    BL       TIMER_Open ; 0x3eee
        0x00001ddc:    6821        !h      LDR      r1,[r4,#0]
        0x00001dde:    0622        ".      LSLS     r2,r4,#24
        0x00001de0:    4311        .C      ORRS     r1,r1,r2
        0x00001de2:    6021        !`      STR      r1,[r4,#0]
        0x00001de4:    49f6        .I      LDR      r1,[pc,#984] ; [0x21c0] = 0xe000e100
        0x00001de6:    1510        ..      ASRS     r0,r2,#20
        0x00001de8:    6008        .`      STR      r0,[r1,#0]
        0x00001dea:    4af6        .J      LDR      r2,[pc,#984] ; [0x21c4] = 0xe000e408
        0x00001dec:    6811        .h      LDR      r1,[r2,#0]
        0x00001dee:    20ff        .       MOVS     r0,#0xff
        0x00001df0:    0200        ..      LSLS     r0,r0,#8
        0x00001df2:    4381        .C      BICS     r1,r1,r0
        0x00001df4:    2001        .       MOVS     r0,#1
        0x00001df6:    03c0        ..      LSLS     r0,r0,#15
        0x00001df8:    4301        .C      ORRS     r1,r1,r0
        0x00001dfa:    6011        .`      STR      r1,[r2,#0]
        0x00001dfc:    6820         h      LDR      r0,[r4,#0]
        0x00001dfe:    06d1        ..      LSLS     r1,r2,#27
        0x00001e00:    4388        .C      BICS     r0,r0,r1
        0x00001e02:    6020         `      STR      r0,[r4,#0]
        0x00001e04:    bd10        ..      POP      {r4,pc}
    time_slice
        0x00001e06:    b5fe        ..      PUSH     {r1-r7,lr}
        0x00001e08:    4bef        .K      LDR      r3,[pc,#956] ; [0x21c8] = 0x20000030
        0x00001e0a:    27ff        .'      MOVS     r7,#0xff
        0x00001e0c:    8818        ..      LDRH     r0,[r3,#0]
        0x00001e0e:    3791        .7      ADDS     r7,r7,#0x91
        0x00001e10:    1c40        @.      ADDS     r0,r0,#1
        0x00001e12:    b286        ..      UXTH     r6,r0
        0x00001e14:    801e        ..      STRH     r6,[r3,#0]
        0x00001e16:    8858        X.      LDRH     r0,[r3,#2]
        0x00001e18:    2101        .!      MOVS     r1,#1
        0x00001e1a:    1c40        @.      ADDS     r0,r0,#1
        0x00001e1c:    b280        ..      UXTH     r0,r0
        0x00001e1e:    8058        X.      STRH     r0,[r3,#2]
        0x00001e20:    4684        .F      MOV      r12,r0
        0x00001e22:    8898        ..      LDRH     r0,[r3,#4]
        0x00001e24:    4add        .J      LDR      r2,[pc,#884] ; [0x219c] = 0x200004d8
        0x00001e26:    1c40        @.      ADDS     r0,r0,#1
        0x00001e28:    b280        ..      UXTH     r0,r0
        0x00001e2a:    8098        ..      STRH     r0,[r3,#4]
        0x00001e2c:    9002        ..      STR      r0,[sp,#8]
        0x00001e2e:    88d8        ..      LDRH     r0,[r3,#6]
        0x00001e30:    1c40        @.      ADDS     r0,r0,#1
        0x00001e32:    b280        ..      UXTH     r0,r0
        0x00001e34:    80d8        ..      STRH     r0,[r3,#6]
        0x00001e36:    9001        ..      STR      r0,[sp,#4]
        0x00001e38:    8918        ..      LDRH     r0,[r3,#8]
        0x00001e3a:    1c40        @.      ADDS     r0,r0,#1
        0x00001e3c:    b280        ..      UXTH     r0,r0
        0x00001e3e:    8118        ..      STRH     r0,[r3,#8]
        0x00001e40:    9000        ..      STR      r0,[sp,#0]
        0x00001e42:    8958        X.      LDRH     r0,[r3,#0xa]
        0x00001e44:    1c40        @.      ADDS     r0,r0,#1
        0x00001e46:    b280        ..      UXTH     r0,r0
        0x00001e48:    8158        X.      STRH     r0,[r3,#0xa]
        0x00001e4a:    4686        .F      MOV      lr,r0
        0x00001e4c:    8998        ..      LDRH     r0,[r3,#0xc]
        0x00001e4e:    1c40        @.      ADDS     r0,r0,#1
        0x00001e50:    b285        ..      UXTH     r5,r0
        0x00001e52:    819d        ..      STRH     r5,[r3,#0xc]
        0x00001e54:    89d8        ..      LDRH     r0,[r3,#0xe]
        0x00001e56:    1c40        @.      ADDS     r0,r0,#1
        0x00001e58:    b284        ..      UXTH     r4,r0
        0x00001e5a:    2000        .       MOVS     r0,#0
        0x00001e5c:    81dc        ..      STRH     r4,[r3,#0xe]
        0x00001e5e:    42be        .B      CMP      r6,r7
        0x00001e60:    d301        ..      BCC      0x1e66 ; time_slice + 96
        0x00001e62:    7011        .p      STRB     r1,[r2,#0]
        0x00001e64:    8018        ..      STRH     r0,[r3,#0]
        0x00001e66:    4666        fF      MOV      r6,r12
        0x00001e68:    2e50        P.      CMP      r6,#0x50
        0x00001e6a:    d301        ..      BCC      0x1e70 ; time_slice + 106
        0x00001e6c:    7051        Qp      STRB     r1,[r2,#1]
        0x00001e6e:    8058        X.      STRH     r0,[r3,#2]
        0x00001e70:    9e02        ..      LDR      r6,[sp,#8]
        0x00001e72:    2e28        (.      CMP      r6,#0x28
        0x00001e74:    d301        ..      BCC      0x1e7a ; time_slice + 116
        0x00001e76:    7091        .p      STRB     r1,[r2,#2]
        0x00001e78:    8098        ..      STRH     r0,[r3,#4]
        0x00001e7a:    9e01        ..      LDR      r6,[sp,#4]
        0x00001e7c:    2e14        ..      CMP      r6,#0x14
        0x00001e7e:    d301        ..      BCC      0x1e84 ; time_slice + 126
        0x00001e80:    70d1        .p      STRB     r1,[r2,#3]
        0x00001e82:    80d8        ..      STRH     r0,[r3,#6]
        0x00001e84:    9e00        ..      LDR      r6,[sp,#0]
        0x00001e86:    2e08        ..      CMP      r6,#8
        0x00001e88:    d301        ..      BCC      0x1e8e ; time_slice + 136
        0x00001e8a:    7111        .q      STRB     r1,[r2,#4]
        0x00001e8c:    8118        ..      STRH     r0,[r3,#8]
        0x00001e8e:    4676        vF      MOV      r6,lr
        0x00001e90:    2e04        ..      CMP      r6,#4
        0x00001e92:    d301        ..      BCC      0x1e98 ; time_slice + 146
        0x00001e94:    7151        Qq      STRB     r1,[r2,#5]
        0x00001e96:    8158        X.      STRH     r0,[r3,#0xa]
        0x00001e98:    2d02        .-      CMP      r5,#2
        0x00001e9a:    d301        ..      BCC      0x1ea0 ; time_slice + 154
        0x00001e9c:    7191        .q      STRB     r1,[r2,#6]
        0x00001e9e:    8198        ..      STRH     r0,[r3,#0xc]
        0x00001ea0:    2c04        .,      CMP      r4,#4
        0x00001ea2:    d301        ..      BCC      0x1ea8 ; time_slice + 162
        0x00001ea4:    7211        .r      STRB     r1,[r2,#8]
        0x00001ea6:    81d8        ..      STRH     r0,[r3,#0xe]
        0x00001ea8:    bdfe        ..      POP      {r1-r7,pc}
    TMR1_IRQHandler
        0x00001eaa:    b500        ..      PUSH     {lr}
        0x00001eac:    49c6        .I      LDR      r1,[pc,#792] ; [0x21c8] = 0x20000030
        0x00001eae:    2208        ."      MOVS     r2,#8
        0x00001eb0:    6908        .i      LDR      r0,[r1,#0x10]
        0x00001eb2:    1c40        @.      ADDS     r0,r0,#1
        0x00001eb4:    6108        .a      STR      r0,[r1,#0x10]
        0x00001eb6:    42d0        .B      CMN      r0,r2
        0x00001eb8:    d301        ..      BCC      0x1ebe ; TMR1_IRQHandler + 20
        0x00001eba:    2000        .       MOVS     r0,#0
        0x00001ebc:    6108        .a      STR      r0,[r1,#0x10]
        0x00001ebe:    f7ffffa2    ....    BL       time_slice ; 0x1e06
        0x00001ec2:    49be        .I      LDR      r1,[pc,#760] ; [0x21bc] = 0x40010020
        0x00001ec4:    2001        .       MOVS     r0,#1
        0x00001ec6:    6088        .`      STR      r0,[r1,#8]
        0x00001ec8:    bd00        ..      POP      {pc}
    sched_1Hzloop
        0x00001eca:    b5f8        ..      PUSH     {r3-r7,lr}
        0x00001ecc:    4fb3        .O      LDR      r7,[pc,#716] ; [0x219c] = 0x200004d8
        0x00001ece:    7838        8x      LDRB     r0,[r7,#0]
        0x00001ed0:    2800        .(      CMP      r0,#0
        0x00001ed2:    d007        ..      BEQ      0x1ee4 ; sched_1Hzloop + 26
        0x00001ed4:    4ebd        .N      LDR      r6,[pc,#756] ; [0x21cc] = 0x20000134
        0x00001ed6:    4cbc        .L      LDR      r4,[pc,#752] ; [0x21c8] = 0x20000030
        0x00001ed8:    7a30        0z      LDRB     r0,[r6,#8]
        0x00001eda:    2500        .%      MOVS     r5,#0
        0x00001edc:    28ff        .(      CMP      r0,#0xff
        0x00001ede:    d002        ..      BEQ      0x1ee6 ; sched_1Hzloop + 28
        0x00001ee0:    61a5        .a      STR      r5,[r4,#0x18]
        0x00001ee2:    703d        =p      STRB     r5,[r7,#0]
        0x00001ee4:    bdf8        ..      POP      {r3-r7,pc}
        0x00001ee6:    2003        .       MOVS     r0,#3
        0x00001ee8:    7030        0p      STRB     r0,[r6,#0]
        0x00001eea:    69a0        .i      LDR      r0,[r4,#0x18]
        0x00001eec:    f002ff55    ..U.    BL       __aeabi_f2d ; 0x4d9a
        0x00001ef0:    4ab7        .J      LDR      r2,[pc,#732] ; [0x21d0] = 0x9999999a
        0x00001ef2:    4bb8        .K      LDR      r3,[pc,#736] ; [0x21d4] = 0x3fb99999
        0x00001ef4:    f002fd80    ....    BL       __aeabi_dadd ; 0x49f8
        0x00001ef8:    f002ff78    ..x.    BL       __aeabi_d2f ; 0x4dec
        0x00001efc:    217f        .!      MOVS     r1,#0x7f
        0x00001efe:    05c9        ..      LSLS     r1,r1,#23
        0x00001f00:    61a0        .a      STR      r0,[r4,#0x18]
        0x00001f02:    4288        .B      CMP      r0,r1
        0x00001f04:    dd2d        -.      BLE      0x1f62 ; sched_1Hzloop + 152
        0x00001f06:    61a5        .a      STR      r5,[r4,#0x18]
        0x00001f08:    8970        p.      LDRH     r0,[r6,#0xa]
        0x00001f0a:    217d        }!      MOVS     r1,#0x7d
        0x00001f0c:    00c9        ..      LSLS     r1,r1,#3
        0x00001f0e:    1840        @.      ADDS     r0,r0,r1
        0x00001f10:    b281        ..      UXTH     r1,r0
        0x00001f12:    8171        q.      STRH     r1,[r6,#0xa]
        0x00001f14:    a0b0        ..      ADR      r0,{pc}+0x2c4 ; 0x21d8
        0x00001f16:    f003f9b7    ....    BL       __0printf ; 0x5288
        0x00001f1a:    8972        r.      LDRH     r2,[r6,#0xa]
        0x00001f1c:    2301        .#      MOVS     r3,#1
        0x00001f1e:    2100        .!      MOVS     r1,#0
        0x00001f20:    48b4        .H      LDR      r0,[pc,#720] ; [0x21f4] = 0x40040000
        0x00001f22:    f001fe7f    ....    BL       PWM_ConfigOutputChannel ; 0x3c24
        0x00001f26:    2301        .#      MOVS     r3,#1
        0x00001f28:    8972        r.      LDRH     r2,[r6,#0xa]
        0x00001f2a:    4619        .F      MOV      r1,r3
        0x00001f2c:    48b1        .H      LDR      r0,[pc,#708] ; [0x21f4] = 0x40040000
        0x00001f2e:    f001fe79    ..y.    BL       PWM_ConfigOutputChannel ; 0x3c24
        0x00001f32:    8972        r.      LDRH     r2,[r6,#0xa]
        0x00001f34:    2301        .#      MOVS     r3,#1
        0x00001f36:    2102        .!      MOVS     r1,#2
        0x00001f38:    48ae        .H      LDR      r0,[pc,#696] ; [0x21f4] = 0x40040000
        0x00001f3a:    f001fe73    ..s.    BL       PWM_ConfigOutputChannel ; 0x3c24
        0x00001f3e:    8972        r.      LDRH     r2,[r6,#0xa]
        0x00001f40:    2301        .#      MOVS     r3,#1
        0x00001f42:    2103        .!      MOVS     r1,#3
        0x00001f44:    48ab        .H      LDR      r0,[pc,#684] ; [0x21f4] = 0x40040000
        0x00001f46:    f001fe6d    ..m.    BL       PWM_ConfigOutputChannel ; 0x3c24
        0x00001f4a:    210f        .!      MOVS     r1,#0xf
        0x00001f4c:    48a9        .H      LDR      r0,[pc,#676] ; [0x21f4] = 0x40040000
        0x00001f4e:    f001fef6    ....    BL       PWM_EnableOutput ; 0x3d3e
        0x00001f52:    210f        .!      MOVS     r1,#0xf
        0x00001f54:    48a7        .H      LDR      r0,[pc,#668] ; [0x21f4] = 0x40040000
        0x00001f56:    f001fede    ....    BL       PWM_Start ; 0x3d16
        0x00001f5a:    48a6        .H      LDR      r0,[pc,#664] ; [0x21f4] = 0x40040000
        0x00001f5c:    68c0        .h      LDR      r0,[r0,#0xc]
        0x00001f5e:    49a6        .I      LDR      r1,[pc,#664] ; [0x21f8] = 0x2000000c
        0x00001f60:    6008        .`      STR      r0,[r1,#0]
        0x00001f62:    49a6        .I      LDR      r1,[pc,#664] ; [0x21fc] = 0x20000124
        0x00001f64:    69a0        .i      LDR      r0,[r4,#0x18]
        0x00001f66:    60c8        .`      STR      r0,[r1,#0xc]
        0x00001f68:    6088        .`      STR      r0,[r1,#8]
        0x00001f6a:    6048        H`      STR      r0,[r1,#4]
        0x00001f6c:    6008        .`      STR      r0,[r1,#0]
        0x00001f6e:    4608        .F      MOV      r0,r1
        0x00001f70:    f7feff58    ..X.    BL       motor_update ; 0xe24
        0x00001f74:    e7b5        ..      B        0x1ee2 ; sched_1Hzloop + 24
    sched_10Hzloop
        0x00001f76:    b510        ..      PUSH     {r4,lr}
        0x00001f78:    4c88        .L      LDR      r4,[pc,#544] ; [0x219c] = 0x200004d8
        0x00001f7a:    78a0        .x      LDRB     r0,[r4,#2]
        0x00001f7c:    2800        .(      CMP      r0,#0
        0x00001f7e:    d003        ..      BEQ      0x1f88 ; sched_10Hzloop + 18
        0x00001f80:    f002facd    ....    BL       check_motor_armed ; 0x451e
        0x00001f84:    2000        .       MOVS     r0,#0
        0x00001f86:    70a0        .p      STRB     r0,[r4,#2]
        0x00001f88:    bd10        ..      POP      {r4,pc}
    sched_20Hzloop
        0x00001f8a:    b510        ..      PUSH     {r4,lr}
        0x00001f8c:    4c83        .L      LDR      r4,[pc,#524] ; [0x219c] = 0x200004d8
        0x00001f8e:    78e0        .x      LDRB     r0,[r4,#3]
        0x00001f90:    2800        .(      CMP      r0,#0
        0x00001f92:    d003        ..      BEQ      0x1f9c ; sched_20Hzloop + 18
        0x00001f94:    f000ff13    ....    BL       update_home_pos ; 0x2dbe
        0x00001f98:    2000        .       MOVS     r0,#0
        0x00001f9a:    70e0        .p      STRB     r0,[r4,#3]
        0x00001f9c:    bd10        ..      POP      {r4,pc}
    sched_50Hzloop
        0x00001f9e:    b5f0        ..      PUSH     {r4-r7,lr}
        0x00001fa0:    b087        ..      SUB      sp,sp,#0x1c
        0x00001fa2:    a804        ..      ADD      r0,sp,#0x10
        0x00001fa4:    f000fd9d    ....    BL       get_inertial_vel ; 0x2ae2
        0x00001fa8:    487c        |H      LDR      r0,[pc,#496] ; [0x219c] = 0x200004d8
        0x00001faa:    7900        .y      LDRB     r0,[r0,#4]
        0x00001fac:    2800        .(      CMP      r0,#0
        0x00001fae:    d07d        }.      BEQ      0x20ac ; sched_50Hzloop + 270
        0x00001fb0:    f002f937    ..7.    BL       rc_channel_read ; 0x4222
        0x00001fb4:    f7fefdfa    ....    BL       fbm320_timer_procedure ; 0xbac
        0x00001fb8:    f000fefd    ....    BL       inertial_nav_update ; 0x2db6
        0x00001fbc:    4883        .H      LDR      r0,[pc,#524] ; [0x21cc] = 0x20000134
        0x00001fbe:    7a00        .z      LDRB     r0,[r0,#8]
        0x00001fc0:    2800        .(      CMP      r0,#0
        0x00001fc2:    d010        ..      BEQ      0x1fe6 ; sched_50Hzloop + 72
        0x00001fc4:    28ff        .(      CMP      r0,#0xff
        0x00001fc6:    d00e        ..      BEQ      0x1fe6 ; sched_50Hzloop + 72
        0x00001fc8:    4e8d        .N      LDR      r6,[pc,#564] ; [0x2200] = 0x41200000
        0x00001fca:    2801        .(      CMP      r0,#1
        0x00001fcc:    d04f        O.      BEQ      0x206e ; sched_50Hzloop + 208
        0x00001fce:    4c8d        .L      LDR      r4,[pc,#564] ; [0x2204] = 0x20000520
        0x00001fd0:    2802        .(      CMP      r0,#2
        0x00001fd2:    d06c        l.      BEQ      0x20ae ; sched_50Hzloop + 272
        0x00001fd4:    2803        .(      CMP      r0,#3
        0x00001fd6:    d06b        k.      BEQ      0x20b0 ; sched_50Hzloop + 274
        0x00001fd8:    2804        .(      CMP      r0,#4
        0x00001fda:    d06a        j.      BEQ      0x20b2 ; sched_50Hzloop + 276
        0x00001fdc:    2805        .(      CMP      r0,#5
        0x00001fde:    d069        i.      BEQ      0x20b4 ; sched_50Hzloop + 278
        0x00001fe0:    2806        .(      CMP      r0,#6
        0x00001fe2:    d068        h.      BEQ      0x20b6 ; sched_50Hzloop + 280
        0x00001fe4:    e1f5        ..      B        0x23d2 ; sched_50Hzloop + 1076
        0x00001fe6:    4c88        .L      LDR      r4,[pc,#544] ; [0x2208] = 0x200004b8
        0x00001fe8:    2101        .!      MOVS     r1,#1
        0x00001fea:    68a0        .h      LDR      r0,[r4,#8]
        0x00001fec:    f002fcf8    ....    BL       __ARM_scalbnf ; 0x49e0
        0x00001ff0:    4986        .I      LDR      r1,[pc,#536] ; [0x220c] = 0x43480000
        0x00001ff2:    f002fc72    ..r.    BL       __aeabi_fsub ; 0x48da
        0x00001ff6:    f002fea3    ....    BL       __aeabi_f2iz ; 0x4d40
        0x00001ffa:    b200        ..      SXTH     r0,r0
        0x00001ffc:    9000        ..      STR      r0,[sp,#0]
        0x00001ffe:    2101        .!      MOVS     r1,#1
        0x00002000:    6860        `h      LDR      r0,[r4,#4]
        0x00002002:    f002fced    ....    BL       __ARM_scalbnf ; 0x49e0
        0x00002006:    4981        .I      LDR      r1,[pc,#516] ; [0x220c] = 0x43480000
        0x00002008:    f002fc67    ..g.    BL       __aeabi_fsub ; 0x48da
        0x0000200c:    f002fe98    ....    BL       __aeabi_f2iz ; 0x4d40
        0x00002010:    b202        ..      SXTH     r2,r0
        0x00002012:    9201        ..      STR      r2,[sp,#4]
        0x00002014:    2101        .!      MOVS     r1,#1
        0x00002016:    6820         h      LDR      r0,[r4,#0]
        0x00002018:    f002fce2    ....    BL       __ARM_scalbnf ; 0x49e0
        0x0000201c:    497b        {I      LDR      r1,[pc,#492] ; [0x220c] = 0x43480000
        0x0000201e:    f002fc5c    ..\.    BL       __aeabi_fsub ; 0x48da
        0x00002022:    f002fe8d    ....    BL       __aeabi_f2iz ; 0x4d40
        0x00002026:    4c7a        zL      LDR      r4,[pc,#488] ; [0x2210] = 0x200004f0
        0x00002028:    b207        ..      SXTH     r7,r0
        0x0000202a:    2101        .!      MOVS     r1,#1
        0x0000202c:    68a0        .h      LDR      r0,[r4,#8]
        0x0000202e:    f002fcd7    ....    BL       __ARM_scalbnf ; 0x49e0
        0x00002032:    4976        vI      LDR      r1,[pc,#472] ; [0x220c] = 0x43480000
        0x00002034:    f002fc00    ....    BL       __aeabi_fadd ; 0x4838
        0x00002038:    f002fe82    ....    BL       __aeabi_f2iz ; 0x4d40
        0x0000203c:    b206        ..      SXTH     r6,r0
        0x0000203e:    2101        .!      MOVS     r1,#1
        0x00002040:    6860        `h      LDR      r0,[r4,#4]
        0x00002042:    f002fccd    ....    BL       __ARM_scalbnf ; 0x49e0
        0x00002046:    4971        qI      LDR      r1,[pc,#452] ; [0x220c] = 0x43480000
        0x00002048:    f002fbf6    ....    BL       __aeabi_fadd ; 0x4838
        0x0000204c:    f002fe78    ..x.    BL       __aeabi_f2iz ; 0x4d40
        0x00002050:    b205        ..      SXTH     r5,r0
        0x00002052:    2101        .!      MOVS     r1,#1
        0x00002054:    6820         h      LDR      r0,[r4,#0]
        0x00002056:    f002fcc3    ....    BL       __ARM_scalbnf ; 0x49e0
        0x0000205a:    496c        lI      LDR      r1,[pc,#432] ; [0x220c] = 0x43480000
        0x0000205c:    f002fbec    ....    BL       __aeabi_fadd ; 0x4838
        0x00002060:    f002fe6e    ..n.    BL       __aeabi_f2iz ; 0x4d40
        0x00002064:    b201        ..      SXTH     r1,r0
        0x00002066:    9800        ..      LDR      r0,[sp,#0]
        0x00002068:    9700        ..      STR      r7,[sp,#0]
        0x0000206a:    9002        ..      STR      r0,[sp,#8]
        0x0000206c:    e11c        ..      B        0x22a8 ; sched_50Hzloop + 778
        0x0000206e:    4c69        iL      LDR      r4,[pc,#420] ; [0x2214] = 0x200004a0
        0x00002070:    4963        cI      LDR      r1,[pc,#396] ; [0x2200] = 0x41200000
        0x00002072:    68a0        .h      LDR      r0,[r4,#8]
        0x00002074:    f002fc39    ..9.    BL       __aeabi_fmul ; 0x48ea
        0x00002078:    f002fe62    ..b.    BL       __aeabi_f2iz ; 0x4d40
        0x0000207c:    b205        ..      SXTH     r5,r0
        0x0000207e:    4960        `I      LDR      r1,[pc,#384] ; [0x2200] = 0x41200000
        0x00002080:    6860        `h      LDR      r0,[r4,#4]
        0x00002082:    f002fc32    ..2.    BL       __aeabi_fmul ; 0x48ea
        0x00002086:    f002fe5b    ..[.    BL       __aeabi_f2iz ; 0x4d40
        0x0000208a:    b200        ..      SXTH     r0,r0
        0x0000208c:    9000        ..      STR      r0,[sp,#0]
        0x0000208e:    495c        \I      LDR      r1,[pc,#368] ; [0x2200] = 0x41200000
        0x00002090:    6820         h      LDR      r0,[r4,#0]
        0x00002092:    f002fc2a    ..*.    BL       __aeabi_fmul ; 0x48ea
        0x00002096:    f002fe53    ..S.    BL       __aeabi_f2iz ; 0x4d40
        0x0000209a:    b207        ..      SXTH     r7,r0
        0x0000209c:    4958        XI      LDR      r1,[pc,#352] ; [0x2200] = 0x41200000
        0x0000209e:    9806        ..      LDR      r0,[sp,#0x18]
        0x000020a0:    f002fc23    ..#.    BL       __aeabi_fmul ; 0x48ea
        0x000020a4:    f002fe4c    ..L.    BL       __aeabi_f2iz ; 0x4d40
        0x000020a8:    b206        ..      SXTH     r6,r0
        0x000020aa:    e005        ..      B        0x20b8 ; sched_50Hzloop + 282
        0x000020ac:    e194        ..      B        0x23d8 ; sched_50Hzloop + 1082
        0x000020ae:    e018        ..      B        0x20e2 ; sched_50Hzloop + 324
        0x000020b0:    e0b6        ..      B        0x2220 ; sched_50Hzloop + 642
        0x000020b2:    e0ff        ..      B        0x22b4 ; sched_50Hzloop + 790
        0x000020b4:    e127        '.      B        0x2306 ; sched_50Hzloop + 872
        0x000020b6:    e142        B.      B        0x233e ; sched_50Hzloop + 928
        0x000020b8:    4951        QI      LDR      r1,[pc,#324] ; [0x2200] = 0x41200000
        0x000020ba:    9805        ..      LDR      r0,[sp,#0x14]
        0x000020bc:    f002fc15    ....    BL       __aeabi_fmul ; 0x48ea
        0x000020c0:    f002fe3e    ..>.    BL       __aeabi_f2iz ; 0x4d40
        0x000020c4:    b204        ..      SXTH     r4,r0
        0x000020c6:    494e        NI      LDR      r1,[pc,#312] ; [0x2200] = 0x41200000
        0x000020c8:    9804        ..      LDR      r0,[sp,#0x10]
        0x000020ca:    f002fc0e    ....    BL       __aeabi_fmul ; 0x48ea
        0x000020ce:    f002fe37    ..7.    BL       __aeabi_f2iz ; 0x4d40
        0x000020d2:    b201        ..      SXTH     r1,r0
        0x000020d4:    9800        ..      LDR      r0,[sp,#0]
        0x000020d6:    4633        3F      MOV      r3,r6
        0x000020d8:    4622        "F      MOV      r2,r4
        0x000020da:    9700        ..      STR      r7,[sp,#0]
        0x000020dc:    9502        ..      STR      r5,[sp,#8]
        0x000020de:    9001        ..      STR      r0,[sp,#4]
        0x000020e0:    e0e4        ..      B        0x22ac ; sched_50Hzloop + 782
        0x000020e2:    4631        1F      MOV      r1,r6
        0x000020e4:    69e0        .i      LDR      r0,[r4,#0x1c]
        0x000020e6:    f002fc00    ....    BL       __aeabi_fmul ; 0x48ea
        0x000020ea:    f002fe29    ..).    BL       __aeabi_f2iz ; 0x4d40
        0x000020ee:    b200        ..      SXTH     r0,r0
        0x000020f0:    9000        ..      STR      r0,[sp,#0]
        0x000020f2:    4949        II      LDR      r1,[pc,#292] ; [0x2218] = 0x41f00000
        0x000020f4:    69a0        .i      LDR      r0,[r4,#0x18]
        0x000020f6:    f002fbf8    ....    BL       __aeabi_fmul ; 0x48ea
        0x000020fa:    4944        DI      LDR      r1,[pc,#272] ; [0x220c] = 0x43480000
        0x000020fc:    f002fbed    ....    BL       __aeabi_fsub ; 0x48da
        0x00002100:    f002fe1e    ....    BL       __aeabi_f2iz ; 0x4d40
        0x00002104:    b205        ..      SXTH     r5,r0
        0x00002106:    4944        DI      LDR      r1,[pc,#272] ; [0x2218] = 0x41f00000
        0x00002108:    6960        `i      LDR      r0,[r4,#0x14]
        0x0000210a:    f002fbee    ....    BL       __aeabi_fmul ; 0x48ea
        0x0000210e:    493f        ?I      LDR      r1,[pc,#252] ; [0x220c] = 0x43480000
        0x00002110:    f002fbe3    ....    BL       __aeabi_fsub ; 0x48da
        0x00002114:    f002fe14    ....    BL       __aeabi_f2iz ; 0x4d40
        0x00002118:    b202        ..      SXTH     r2,r0
        0x0000211a:    9201        ..      STR      r2,[sp,#4]
        0x0000211c:    200a        .       MOVS     r0,#0xa
        0x0000211e:    2130        0!      MOVS     r1,#0x30
        0x00002120:    5e20         ^      LDRSH    r0,[r4,r0]
        0x00002122:    5e61        a^      LDRSH    r1,[r4,r1]
        0x00002124:    1a40        @.      SUBS     r0,r0,r1
        0x00002126:    f002fdf9    ....    BL       __aeabi_i2f ; 0x4d1c
        0x0000212a:    493c        <I      LDR      r1,[pc,#240] ; [0x221c] = 0x20000000
        0x0000212c:    6809        .h      LDR      r1,[r1,#0]
        0x0000212e:    9102        ..      STR      r1,[sp,#8]
        0x00002130:    f002fbdb    ....    BL       __aeabi_fmul ; 0x48ea
        0x00002134:    4631        1F      MOV      r1,r6
        0x00002136:    f002fbd8    ....    BL       __aeabi_fmul ; 0x48ea
        0x0000213a:    f002fe01    ....    BL       __aeabi_f2iz ; 0x4d40
        0x0000213e:    b207        ..      SXTH     r7,r0
        0x00002140:    2008        .       MOVS     r0,#8
        0x00002142:    212e        .!      MOVS     r1,#0x2e
        0x00002144:    5e20         ^      LDRSH    r0,[r4,r0]
        0x00002146:    5e61        a^      LDRSH    r1,[r4,r1]
        0x00002148:    1a40        @.      SUBS     r0,r0,r1
        0x0000214a:    f002fde7    ....    BL       __aeabi_i2f ; 0x4d1c
        0x0000214e:    9902        ..      LDR      r1,[sp,#8]
        0x00002150:    f002fbcb    ....    BL       __aeabi_fmul ; 0x48ea
        0x00002154:    4930        0I      LDR      r1,[pc,#192] ; [0x2218] = 0x41f00000
        0x00002156:    f002fbc8    ....    BL       __aeabi_fmul ; 0x48ea
        0x0000215a:    492c        ,I      LDR      r1,[pc,#176] ; [0x220c] = 0x43480000
        0x0000215c:    f002fb6c    ..l.    BL       __aeabi_fadd ; 0x4838
        0x00002160:    f002fdee    ....    BL       __aeabi_f2iz ; 0x4d40
        0x00002164:    b206        ..      SXTH     r6,r0
        0x00002166:    2006        .       MOVS     r0,#6
        0x00002168:    212c        ,!      MOVS     r1,#0x2c
        0x0000216a:    5e20         ^      LDRSH    r0,[r4,r0]
        0x0000216c:    5e61        a^      LDRSH    r1,[r4,r1]
        0x0000216e:    1a40        @.      SUBS     r0,r0,r1
        0x00002170:    f002fdd4    ....    BL       __aeabi_i2f ; 0x4d1c
        0x00002174:    9902        ..      LDR      r1,[sp,#8]
        0x00002176:    f002fbb8    ....    BL       __aeabi_fmul ; 0x48ea
        0x0000217a:    4927        'I      LDR      r1,[pc,#156] ; [0x2218] = 0x41f00000
        0x0000217c:    f002fbb5    ....    BL       __aeabi_fmul ; 0x48ea
        0x00002180:    4922        "I      LDR      r1,[pc,#136] ; [0x220c] = 0x43480000
        0x00002182:    f002fb59    ..Y.    BL       __aeabi_fadd ; 0x4838
        0x00002186:    f002fddb    ....    BL       __aeabi_f2iz ; 0x4d40
        0x0000218a:    b201        ..      SXTH     r1,r0
        0x0000218c:    9a01        ..      LDR      r2,[sp,#4]
        0x0000218e:    9800        ..      LDR      r0,[sp,#0]
        0x00002190:    9200        ..      STR      r2,[sp,#0]
        0x00002192:    463b        ;F      MOV      r3,r7
        0x00002194:    9501        ..      STR      r5,[sp,#4]
        0x00002196:    9002        ..      STR      r0,[sp,#8]
        0x00002198:    4632        2F      MOV      r2,r6
        0x0000219a:    e087        ..      B        0x22ac ; sched_50Hzloop + 782
    $d
        0x0000219c:    200004d8    ...     DCD    536872152
        0x000021a0:    2000001c    ...     DCD    536870940
        0x000021a4:    74737973    syst    DCD    1953724787
        0x000021a8:    206b6369    ick     DCD    543908713
        0x000021ac:    74696e69    init    DCD    1953066601
        0x000021b0:    63757320     suc    DCD    1668641568
        0x000021b4:    73736563    cess    DCD    1936942435
        0x000021b8:    0000000a    ....    DCD    10
        0x000021bc:    40010020     ..@    DCD    1073807392
        0x000021c0:    e000e100    ....    DCD    3758153984
        0x000021c4:    e000e408    ....    DCD    3758154760
        0x000021c8:    20000030    0..     DCD    536870960
        0x000021cc:    20000134    4..     DCD    536871220
        0x000021d0:    9999999a    ....    DCD    2576980378
        0x000021d4:    3fb99999    ...?    DCD    1069128089
        0x000021d8:    72727563    curr    DCD    1920103779
        0x000021dc:    20746e65    ent     DCD    544501349
        0x000021e0:    6f746f6d    moto    DCD    1869901677
        0x000021e4:    57502072    r PW    DCD    1464868978
        0x000021e8:    7266204d    M fr    DCD    1919295565
        0x000021ec:    253a7165    eq:%    DCD    624587109
        0x000021f0:    00000a64    d...    DCD    2660
        0x000021f4:    40040000    ...@    DCD    1074003968
        0x000021f8:    2000000c    ...     DCD    536870924
        0x000021fc:    20000124    $..     DCD    536871204
        0x00002200:    41200000    .. A    DCD    1092616192
        0x00002204:    20000520     ..     DCD    536872224
        0x00002208:    200004b8    ...     DCD    536872120
        0x0000220c:    43480000    ..HC    DCD    1128792064
        0x00002210:    200004f0    ...     DCD    536872176
        0x00002214:    200004a0    ...     DCD    536872096
        0x00002218:    41f00000    ...A    DCD    1106247680
        0x0000221c:    20000000    ...     DCD    536870912
    $t
        0x00002220:    4c88        .L      LDR      r4,[pc,#544] ; [0x2444] = 0x200005a0
        0x00002222:    4989        .I      LDR      r1,[pc,#548] ; [0x2448] = 0x43480000
        0x00002224:    6b20         k      LDR      r0,[r4,#0x30]
        0x00002226:    f002fb58    ..X.    BL       __aeabi_fsub ; 0x48da
        0x0000222a:    f002fd89    ....    BL       __aeabi_f2iz ; 0x4d40
        0x0000222e:    b202        ..      SXTH     r2,r0
        0x00002230:    9200        ..      STR      r2,[sp,#0]
        0x00002232:    4985        .I      LDR      r1,[pc,#532] ; [0x2448] = 0x43480000
        0x00002234:    6ae0        .j      LDR      r0,[r4,#0x2c]
        0x00002236:    f002fb50    ..P.    BL       __aeabi_fsub ; 0x48da
        0x0000223a:    f002fd81    ....    BL       __aeabi_f2iz ; 0x4d40
        0x0000223e:    b200        ..      SXTH     r0,r0
        0x00002240:    9001        ..      STR      r0,[sp,#4]
        0x00002242:    4981        .I      LDR      r1,[pc,#516] ; [0x2448] = 0x43480000
        0x00002244:    6aa0        .j      LDR      r0,[r4,#0x28]
        0x00002246:    f002fb48    ..H.    BL       __aeabi_fsub ; 0x48da
        0x0000224a:    f002fd79    ..y.    BL       __aeabi_f2iz ; 0x4d40
        0x0000224e:    b207        ..      SXTH     r7,r0
        0x00002250:    201e        .       MOVS     r0,#0x1e
        0x00002252:    5e20         ^      LDRSH    r0,[r4,r0]
        0x00002254:    f002fd62    ..b.    BL       __aeabi_i2f ; 0x4d1c
        0x00002258:    497c        |I      LDR      r1,[pc,#496] ; [0x244c] = 0x20000004
        0x0000225a:    6809        .h      LDR      r1,[r1,#0]
        0x0000225c:    9102        ..      STR      r1,[sp,#8]
        0x0000225e:    f002fb44    ..D.    BL       __aeabi_fmul ; 0x48ea
        0x00002262:    4979        yI      LDR      r1,[pc,#484] ; [0x2448] = 0x43480000
        0x00002264:    f002fae8    ....    BL       __aeabi_fadd ; 0x4838
        0x00002268:    f002fd6a    ..j.    BL       __aeabi_f2iz ; 0x4d40
        0x0000226c:    b206        ..      SXTH     r6,r0
        0x0000226e:    201c        .       MOVS     r0,#0x1c
        0x00002270:    5e20         ^      LDRSH    r0,[r4,r0]
        0x00002272:    f002fd53    ..S.    BL       __aeabi_i2f ; 0x4d1c
        0x00002276:    9902        ..      LDR      r1,[sp,#8]
        0x00002278:    f002fb37    ..7.    BL       __aeabi_fmul ; 0x48ea
        0x0000227c:    4972        rI      LDR      r1,[pc,#456] ; [0x2448] = 0x43480000
        0x0000227e:    f002fadb    ....    BL       __aeabi_fadd ; 0x4838
        0x00002282:    f002fd5d    ..].    BL       __aeabi_f2iz ; 0x4d40
        0x00002286:    b205        ..      SXTH     r5,r0
        0x00002288:    201a        .       MOVS     r0,#0x1a
        0x0000228a:    5e20         ^      LDRSH    r0,[r4,r0]
        0x0000228c:    f002fd46    ..F.    BL       __aeabi_i2f ; 0x4d1c
        0x00002290:    9902        ..      LDR      r1,[sp,#8]
        0x00002292:    f002fb2a    ..*.    BL       __aeabi_fmul ; 0x48ea
        0x00002296:    496c        lI      LDR      r1,[pc,#432] ; [0x2448] = 0x43480000
        0x00002298:    f002face    ....    BL       __aeabi_fadd ; 0x4838
        0x0000229c:    f002fd50    ..P.    BL       __aeabi_f2iz ; 0x4d40
        0x000022a0:    9a00        ..      LDR      r2,[sp,#0]
        0x000022a2:    b201        ..      SXTH     r1,r0
        0x000022a4:    9700        ..      STR      r7,[sp,#0]
        0x000022a6:    9202        ..      STR      r2,[sp,#8]
        0x000022a8:    4633        3F      MOV      r3,r6
        0x000022aa:    462a        *F      MOV      r2,r5
        0x000022ac:    a068        h.      ADR      r0,{pc}+0x1a4 ; 0x2450
        0x000022ae:    f002ffeb    ....    BL       __0printf ; 0x5288
        0x000022b2:    e08e        ..      B        0x23d2 ; sched_50Hzloop + 1076
        0x000022b4:    4c6b        kL      LDR      r4,[pc,#428] ; [0x2464] = 0x20000124
        0x000022b6:    496c        lI      LDR      r1,[pc,#432] ; [0x2468] = 0x43fa0000
        0x000022b8:    6820         h      LDR      r0,[r4,#0]
        0x000022ba:    f002fb16    ....    BL       __aeabi_fmul ; 0x48ea
        0x000022be:    496b        kI      LDR      r1,[pc,#428] ; [0x246c] = 0x43960000
        0x000022c0:    f002fb0b    ....    BL       __aeabi_fsub ; 0x48da
        0x000022c4:    f002fd3c    ..<.    BL       __aeabi_f2iz ; 0x4d40
        0x000022c8:    b207        ..      SXTH     r7,r0
        0x000022ca:    4967        gI      LDR      r1,[pc,#412] ; [0x2468] = 0x43fa0000
        0x000022cc:    6860        `h      LDR      r0,[r4,#4]
        0x000022ce:    f002fb0c    ....    BL       __aeabi_fmul ; 0x48ea
        0x000022d2:    4966        fI      LDR      r1,[pc,#408] ; [0x246c] = 0x43960000
        0x000022d4:    f002fb01    ....    BL       __aeabi_fsub ; 0x48da
        0x000022d8:    f002fd32    ..2.    BL       __aeabi_f2iz ; 0x4d40
        0x000022dc:    b206        ..      SXTH     r6,r0
        0x000022de:    4962        bI      LDR      r1,[pc,#392] ; [0x2468] = 0x43fa0000
        0x000022e0:    68a0        .h      LDR      r0,[r4,#8]
        0x000022e2:    f002fb02    ....    BL       __aeabi_fmul ; 0x48ea
        0x000022e6:    4961        aI      LDR      r1,[pc,#388] ; [0x246c] = 0x43960000
        0x000022e8:    f002faf7    ....    BL       __aeabi_fsub ; 0x48da
        0x000022ec:    f002fd28    ..(.    BL       __aeabi_f2iz ; 0x4d40
        0x000022f0:    b205        ..      SXTH     r5,r0
        0x000022f2:    495d        ]I      LDR      r1,[pc,#372] ; [0x2468] = 0x43fa0000
        0x000022f4:    68e0        .h      LDR      r0,[r4,#0xc]
        0x000022f6:    f002faf8    ....    BL       __aeabi_fmul ; 0x48ea
        0x000022fa:    495c        \I      LDR      r1,[pc,#368] ; [0x246c] = 0x43960000
        0x000022fc:    f002faed    ....    BL       __aeabi_fsub ; 0x48da
        0x00002300:    f002fd1e    ....    BL       __aeabi_f2iz ; 0x4d40
        0x00002304:    e013        ..      B        0x232e ; sched_50Hzloop + 912
        0x00002306:    4c5a        ZL      LDR      r4,[pc,#360] ; [0x2470] = 0x2000070a
        0x00002308:    2105        .!      MOVS     r1,#5
        0x0000230a:    8ca0        ..      LDRH     r0,[r4,#0x24]
        0x0000230c:    f002fa4e    ..N.    BL       __aeabi_uidiv ; 0x47ac
        0x00002310:    b207        ..      SXTH     r7,r0
        0x00002312:    8b20         .      LDRH     r0,[r4,#0x18]
        0x00002314:    2105        .!      MOVS     r1,#5
        0x00002316:    f002fa49    ..I.    BL       __aeabi_uidiv ; 0x47ac
        0x0000231a:    b206        ..      SXTH     r6,r0
        0x0000231c:    89a0        ..      LDRH     r0,[r4,#0xc]
        0x0000231e:    2105        .!      MOVS     r1,#5
        0x00002320:    f002fa44    ..D.    BL       __aeabi_uidiv ; 0x47ac
        0x00002324:    b205        ..      SXTH     r5,r0
        0x00002326:    8820         .      LDRH     r0,[r4,#0]
        0x00002328:    2105        .!      MOVS     r1,#5
        0x0000232a:    f002fa3f    ..?.    BL       __aeabi_uidiv ; 0x47ac
        0x0000232e:    b201        ..      SXTH     r1,r0
        0x00002330:    4633        3F      MOV      r3,r6
        0x00002332:    462a        *F      MOV      r2,r5
        0x00002334:    a04f        O.      ADR      r0,{pc}+0x140 ; 0x2474
        0x00002336:    9700        ..      STR      r7,[sp,#0]
        0x00002338:    f002ffa6    ....    BL       __0printf ; 0x5288
        0x0000233c:    e049        I.      B        0x23d2 ; sched_50Hzloop + 1076
        0x0000233e:    4852        RH      LDR      r0,[pc,#328] ; [0x2488] = 0x200006cc
        0x00002340:    4952        RI      LDR      r1,[pc,#328] ; [0x248c] = 0x42c80000
        0x00002342:    6885        .h      LDR      r5,[r0,#8]
        0x00002344:    4628        (F      MOV      r0,r5
        0x00002346:    f002fad0    ....    BL       __aeabi_fmul ; 0x48ea
        0x0000234a:    f002fcf9    ....    BL       __aeabi_f2iz ; 0x4d40
        0x0000234e:    b200        ..      SXTH     r0,r0
        0x00002350:    9000        ..      STR      r0,[sp,#0]
        0x00002352:    494f        OI      LDR      r1,[pc,#316] ; [0x2490] = 0x411ce80a
        0x00002354:    69e0        .i      LDR      r0,[r4,#0x1c]
        0x00002356:    f002fac0    ....    BL       __aeabi_fsub ; 0x48da
        0x0000235a:    494c        LI      LDR      r1,[pc,#304] ; [0x248c] = 0x42c80000
        0x0000235c:    f002fac5    ....    BL       __aeabi_fmul ; 0x48ea
        0x00002360:    f002fcee    ....    BL       __aeabi_f2iz ; 0x4d40
        0x00002364:    b202        ..      SXTH     r2,r0
        0x00002366:    484b        KH      LDR      r0,[pc,#300] ; [0x2494] = 0x200000a8
        0x00002368:    9201        ..      STR      r2,[sp,#4]
        0x0000236a:    6880        .h      LDR      r0,[r0,#8]
        0x0000236c:    4947        GI      LDR      r1,[pc,#284] ; [0x248c] = 0x42c80000
        0x0000236e:    f002fabc    ....    BL       __aeabi_fmul ; 0x48ea
        0x00002372:    f002fce5    ....    BL       __aeabi_f2iz ; 0x4d40
        0x00002376:    b203        ..      SXTH     r3,r0
        0x00002378:    4c47        GL      LDR      r4,[pc,#284] ; [0x2498] = 0x20000648
        0x0000237a:    9302        ..      STR      r3,[sp,#8]
        0x0000237c:    4943        CI      LDR      r1,[pc,#268] ; [0x248c] = 0x42c80000
        0x0000237e:    6a20         j      LDR      r0,[r4,#0x20]
        0x00002380:    f002fab3    ....    BL       __aeabi_fmul ; 0x48ea
        0x00002384:    f002fcdc    ....    BL       __aeabi_f2iz ; 0x4d40
        0x00002388:    b207        ..      SXTH     r7,r0
        0x0000238a:    4940        @I      LDR      r1,[pc,#256] ; [0x248c] = 0x42c80000
        0x0000238c:    6960        `i      LDR      r0,[r4,#0x14]
        0x0000238e:    f002faac    ....    BL       __aeabi_fmul ; 0x48ea
        0x00002392:    f002fcd5    ....    BL       __aeabi_f2iz ; 0x4d40
        0x00002396:    b206        ..      SXTH     r6,r0
        0x00002398:    4940        @I      LDR      r1,[pc,#256] ; [0x249c] = 0xc2c80000
        0x0000239a:    68a0        .h      LDR      r0,[r4,#8]
        0x0000239c:    f002faa5    ....    BL       __aeabi_fmul ; 0x48ea
        0x000023a0:    f002fcce    ....    BL       __aeabi_f2iz ; 0x4d40
        0x000023a4:    b204        ..      SXTH     r4,r0
        0x000023a6:    483e        >H      LDR      r0,[pc,#248] ; [0x24a0] = 0x200000ec
        0x000023a8:    4629        )F      MOV      r1,r5
        0x000023aa:    6940        @i      LDR      r0,[r0,#0x14]
        0x000023ac:    f002fa95    ....    BL       __aeabi_fsub ; 0x48da
        0x000023b0:    4936        6I      LDR      r1,[pc,#216] ; [0x248c] = 0x42c80000
        0x000023b2:    f002fa9a    ....    BL       __aeabi_fmul ; 0x48ea
        0x000023b6:    f002fcc3    ....    BL       __aeabi_f2iz ; 0x4d40
        0x000023ba:    b201        ..      SXTH     r1,r0
        0x000023bc:    466d        mF      MOV      r5,sp
        0x000023be:    cd0d        ..      LDM      r5!,{r0,r2,r3}
        0x000023c0:    9301        ..      STR      r3,[sp,#4]
        0x000023c2:    9202        ..      STR      r2,[sp,#8]
        0x000023c4:    9003        ..      STR      r0,[sp,#0xc]
        0x000023c6:    9700        ..      STR      r7,[sp,#0]
        0x000023c8:    4633        3F      MOV      r3,r6
        0x000023ca:    4622        "F      MOV      r2,r4
        0x000023cc:    a035        5.      ADR      r0,{pc}+0xd8 ; 0x24a4
        0x000023ce:    f002ff5b    ..[.    BL       __0printf ; 0x5288
        0x000023d2:    483c        <H      LDR      r0,[pc,#240] ; [0x24c4] = 0x200004d8
        0x000023d4:    2100        .!      MOVS     r1,#0
        0x000023d6:    7101        .q      STRB     r1,[r0,#4]
        0x000023d8:    b007        ..      ADD      sp,sp,#0x1c
        0x000023da:    bdf0        ..      POP      {r4-r7,pc}
    sched_100Hzloop
        0x000023dc:    4839        9H      LDR      r0,[pc,#228] ; [0x24c4] = 0x200004d8
        0x000023de:    7941        Ay      LDRB     r1,[r0,#5]
        0x000023e0:    2900        .)      CMP      r1,#0
        0x000023e2:    d001        ..      BEQ      0x23e8 ; sched_100Hzloop + 12
        0x000023e4:    2100        .!      MOVS     r1,#0
        0x000023e6:    7141        Aq      STRB     r1,[r0,#5]
        0x000023e8:    4770        pG      BX       lr
    low_priority_loop
        0x000023ea:    b510        ..      PUSH     {r4,lr}
        0x000023ec:    f7fffff6    ....    BL       sched_100Hzloop ; 0x23dc
        0x000023f0:    f7fffdd5    ....    BL       sched_50Hzloop ; 0x1f9e
        0x000023f4:    f7fffdc9    ....    BL       sched_20Hzloop ; 0x1f8a
        0x000023f8:    f7fffdbd    ....    BL       sched_10Hzloop ; 0x1f76
        0x000023fc:    f7fffd65    ..e.    BL       sched_1Hzloop ; 0x1eca
        0x00002400:    bd10        ..      POP      {r4,pc}
    fast_loop
        0x00002402:    b570        p.      PUSH     {r4-r6,lr}
        0x00002404:    f7fefe88    ....    BL       sys_micro ; 0x1118
        0x00002408:    4c2f        /L      LDR      r4,[pc,#188] ; [0x24c8] = 0x20000030
        0x0000240a:    4d2e        .M      LDR      r5,[pc,#184] ; [0x24c4] = 0x200004d8
        0x0000240c:    6160        `a      STR      r0,[r4,#0x14]
        0x0000240e:    7a28        (z      LDRB     r0,[r5,#8]
        0x00002410:    2800        .(      CMP      r0,#0
        0x00002412:    d010        ..      BEQ      0x2436 ; fast_loop + 52
        0x00002414:    f000fa15    ....    BL       inertial_sensor_read ; 0x2842
        0x00002418:    f7fffb12    ....    BL       attitude_angle_rate_controller ; 0x1a40
        0x0000241c:    f7fffc4e    ..N.    BL       motors_output ; 0x1cbc
        0x00002420:    f000f950    ..P.    BL       AHRS_Update ; 0x26c4
        0x00002424:    f7fffc2e    ....    BL       update_flight_mode ; 0x1c84
        0x00002428:    2000        .       MOVS     r0,#0
        0x0000242a:    7228        (r      STRB     r0,[r5,#8]
        0x0000242c:    f7fefe74    ..t.    BL       sys_micro ; 0x1118
        0x00002430:    6961        ai      LDR      r1,[r4,#0x14]
        0x00002432:    1a40        @.      SUBS     r0,r0,r1
        0x00002434:    6160        `a      STR      r0,[r4,#0x14]
        0x00002436:    bd70        p.      POP      {r4-r6,pc}
    scheduler_run
        0x00002438:    b510        ..      PUSH     {r4,lr}
        0x0000243a:    f7ffffe2    ....    BL       fast_loop ; 0x2402
        0x0000243e:    f7ffffd4    ....    BL       low_priority_loop ; 0x23ea
        0x00002442:    bd10        ..      POP      {r4,pc}
    $d
        0x00002444:    200005a0    ...     DCD    536872352
        0x00002448:    43480000    ..HC    DCD    1128792064
        0x0000244c:    20000004    ...     DCD    536870916
        0x00002450:    252c6425    %d,%    DCD    623666213
        0x00002454:    64252c64    d,%d    DCD    1680157796
        0x00002458:    2c64252c    ,%d,    DCD    744760620
        0x0000245c:    252c6425    %d,%    DCD    623666213
        0x00002460:    000a2c64    d,..    DCD    666724
        0x00002464:    20000124    $..     DCD    536871204
        0x00002468:    43fa0000    ...C    DCD    1140457472
        0x0000246c:    43960000    ...C    DCD    1133903872
        0x00002470:    2000070a    ...     DCD    536872714
        0x00002474:    202c6425    %d,     DCD    539780133
        0x00002478:    202c6425    %d,     DCD    539780133
        0x0000247c:    202c6425    %d,     DCD    539780133
        0x00002480:    0a2c6425    %d,.    DCD    170681381
        0x00002484:    00000000    ....    DCD    0
        0x00002488:    200006cc    ...     DCD    536872652
        0x0000248c:    42c80000    ...B    DCD    1120403456
        0x00002490:    411ce80a    ...A    DCD    1092413450
        0x00002494:    200000a8    ...     DCD    536871080
        0x00002498:    20000648    H..     DCD    536872520
        0x0000249c:    c2c80000    ....    DCD    3267887104
        0x000024a0:    200000ec    ...     DCD    536871148
        0x000024a4:    202c6425    %d,     DCD    539780133
        0x000024a8:    202c6425    %d,     DCD    539780133
        0x000024ac:    202c6425    %d,     DCD    539780133
        0x000024b0:    202c6425    %d,     DCD    539780133
        0x000024b4:    202c6425    %d,     DCD    539780133
        0x000024b8:    202c6425    %d,     DCD    539780133
        0x000024bc:    0a2c6425    %d,.    DCD    170681381
        0x000024c0:    00000000    ....    DCD    0
        0x000024c4:    200004d8    ...     DCD    536872152
        0x000024c8:    20000030    0..     DCD    536870960
    $t
    .text
    AHRS_GetQ
        0x000024cc:    b5f0        ..      PUSH     {r4-r7,lr}
        0x000024ce:    b087        ..      SUB      sp,sp,#0x1c
        0x000024d0:    f7fefe22    ..".    BL       sys_micro ; 0x1118
        0x000024d4:    4cbc        .L      LDR      r4,[pc,#752] ; [0x27c8] = 0x2000004c
        0x000024d6:    4605        .F      MOV      r5,r0
        0x000024d8:    6960        `i      LDR      r0,[r4,#0x14]
        0x000024da:    2800        .(      CMP      r0,#0
        0x000024dc:    d005        ..      BEQ      0x24ea ; AHRS_GetQ + 30
        0x000024de:    1a28        (.      SUBS     r0,r5,r0
        0x000024e0:    f002fc27    ..'.    BL       __aeabi_ui2f ; 0x4d32
        0x000024e4:    49b9        .I      LDR      r1,[pc,#740] ; [0x27cc] = 0x49742400
        0x000024e6:    f002fa3d    ..=.    BL       __aeabi_fdiv ; 0x4964
        0x000024ea:    9006        ..      STR      r0,[sp,#0x18]
        0x000024ec:    6165        ea      STR      r5,[r4,#0x14]
        0x000024ee:    4db8        .M      LDR      r5,[pc,#736] ; [0x27d0] = 0x20000520
        0x000024f0:    69e8        .i      LDR      r0,[r5,#0x1c]
        0x000024f2:    4601        .F      MOV      r1,r0
        0x000024f4:    f002f9f9    ....    BL       __aeabi_fmul ; 0x48ea
        0x000024f8:    4607        .F      MOV      r7,r0
        0x000024fa:    69a8        .i      LDR      r0,[r5,#0x18]
        0x000024fc:    4601        .F      MOV      r1,r0
        0x000024fe:    f002f9f4    ....    BL       __aeabi_fmul ; 0x48ea
        0x00002502:    4606        .F      MOV      r6,r0
        0x00002504:    6968        hi      LDR      r0,[r5,#0x14]
        0x00002506:    4601        .F      MOV      r1,r0
        0x00002508:    f002f9ef    ....    BL       __aeabi_fmul ; 0x48ea
        0x0000250c:    4631        1F      MOV      r1,r6
        0x0000250e:    f002f993    ....    BL       __aeabi_fadd ; 0x4838
        0x00002512:    4639        9F      MOV      r1,r7
        0x00002514:    f002f990    ....    BL       __aeabi_fadd ; 0x4838
        0x00002518:    f7feffbc    ....    BL       Q_rsqrt ; 0x1494
        0x0000251c:    4606        .F      MOV      r6,r0
        0x0000251e:    4631        1F      MOV      r1,r6
        0x00002520:    6968        hi      LDR      r0,[r5,#0x14]
        0x00002522:    f002f9e2    ....    BL       __aeabi_fmul ; 0x48ea
        0x00002526:    9005        ..      STR      r0,[sp,#0x14]
        0x00002528:    4631        1F      MOV      r1,r6
        0x0000252a:    69a8        .i      LDR      r0,[r5,#0x18]
        0x0000252c:    f002f9dd    ....    BL       __aeabi_fmul ; 0x48ea
        0x00002530:    9003        ..      STR      r0,[sp,#0xc]
        0x00002532:    4631        1F      MOV      r1,r6
        0x00002534:    69e8        .i      LDR      r0,[r5,#0x1c]
        0x00002536:    f002f9d8    ....    BL       __aeabi_fmul ; 0x48ea
        0x0000253a:    49a3        .I      LDR      r1,[pc,#652] ; [0x27c8] = 0x2000004c
        0x0000253c:    9004        ..      STR      r0,[sp,#0x10]
        0x0000253e:    3118        .1      ADDS     r1,r1,#0x18
        0x00002540:    4668        hF      MOV      r0,sp
        0x00002542:    f7fff899    ....    BL       Quaternion_vectorGravity ; 0x1678
        0x00002546:    466a        jF      MOV      r2,sp
        0x00002548:    cac2        ..      LDM      r2!,{r1,r6,r7}
        0x0000254a:    460d        .F      MOV      r5,r1
        0x0000254c:    4631        1F      MOV      r1,r6
        0x0000254e:    9804        ..      LDR      r0,[sp,#0x10]
        0x00002550:    f002f9cb    ....    BL       __aeabi_fmul ; 0x48ea
        0x00002554:    9000        ..      STR      r0,[sp,#0]
        0x00002556:    4639        9F      MOV      r1,r7
        0x00002558:    9803        ..      LDR      r0,[sp,#0xc]
        0x0000255a:    f002f9c6    ....    BL       __aeabi_fmul ; 0x48ea
        0x0000255e:    9900        ..      LDR      r1,[sp,#0]
        0x00002560:    f002f9bb    ....    BL       __aeabi_fsub ; 0x48da
        0x00002564:    9000        ..      STR      r0,[sp,#0]
        0x00002566:    4639        9F      MOV      r1,r7
        0x00002568:    9805        ..      LDR      r0,[sp,#0x14]
        0x0000256a:    f002f9be    ....    BL       __aeabi_fmul ; 0x48ea
        0x0000256e:    4607        .F      MOV      r7,r0
        0x00002570:    4629        )F      MOV      r1,r5
        0x00002572:    9804        ..      LDR      r0,[sp,#0x10]
        0x00002574:    f002f9b9    ....    BL       __aeabi_fmul ; 0x48ea
        0x00002578:    4639        9F      MOV      r1,r7
        0x0000257a:    f002f9ae    ....    BL       __aeabi_fsub ; 0x48da
        0x0000257e:    9004        ..      STR      r0,[sp,#0x10]
        0x00002580:    4629        )F      MOV      r1,r5
        0x00002582:    9803        ..      LDR      r0,[sp,#0xc]
        0x00002584:    f002f9b1    ....    BL       __aeabi_fmul ; 0x48ea
        0x00002588:    4605        .F      MOV      r5,r0
        0x0000258a:    4631        1F      MOV      r1,r6
        0x0000258c:    9805        ..      LDR      r0,[sp,#0x14]
        0x0000258e:    f002f9ac    ....    BL       __aeabi_fmul ; 0x48ea
        0x00002592:    4629        )F      MOV      r1,r5
        0x00002594:    f002f9a1    ....    BL       __aeabi_fsub ; 0x48da
        0x00002598:    9003        ..      STR      r0,[sp,#0xc]
        0x0000259a:    6861        ah      LDR      r1,[r4,#4]
        0x0000259c:    9800        ..      LDR      r0,[sp,#0]
        0x0000259e:    460e        .F      MOV      r6,r1
        0x000025a0:    f002f9a3    ....    BL       __aeabi_fmul ; 0x48ea
        0x000025a4:    68a1        .h      LDR      r1,[r4,#8]
        0x000025a6:    f002f947    ..G.    BL       __aeabi_fadd ; 0x4838
        0x000025aa:    4605        .F      MOV      r5,r0
        0x000025ac:    60a0        .`      STR      r0,[r4,#8]
        0x000025ae:    4631        1F      MOV      r1,r6
        0x000025b0:    9804        ..      LDR      r0,[sp,#0x10]
        0x000025b2:    f002f99a    ....    BL       __aeabi_fmul ; 0x48ea
        0x000025b6:    68e1        .h      LDR      r1,[r4,#0xc]
        0x000025b8:    f002f93e    ..>.    BL       __aeabi_fadd ; 0x4838
        0x000025bc:    60e0        .`      STR      r0,[r4,#0xc]
        0x000025be:    4631        1F      MOV      r1,r6
        0x000025c0:    9803        ..      LDR      r0,[sp,#0xc]
        0x000025c2:    f002f992    ....    BL       __aeabi_fmul ; 0x48ea
        0x000025c6:    6921        !i      LDR      r1,[r4,#0x10]
        0x000025c8:    f002f936    ..6.    BL       __aeabi_fadd ; 0x4838
        0x000025cc:    6120         a      STR      r0,[r4,#0x10]
        0x000025ce:    4628        (F      MOV      r0,r5
        0x000025d0:    f002fbe3    ....    BL       __aeabi_f2d ; 0x4d9a
        0x000025d4:    4607        .F      MOV      r7,r0
        0x000025d6:    9101        ..      STR      r1,[sp,#4]
        0x000025d8:    9800        ..      LDR      r0,[sp,#0]
        0x000025da:    f7feff84    ....    BL       VariableParameter ; 0x14e6
        0x000025de:    6821        !h      LDR      r1,[r4,#0]
        0x000025e0:    f002f983    ....    BL       __aeabi_fmul ; 0x48ea
        0x000025e4:    9900        ..      LDR      r1,[sp,#0]
        0x000025e6:    f002f980    ....    BL       __aeabi_fmul ; 0x48ea
        0x000025ea:    f002fbd6    ....    BL       __aeabi_f2d ; 0x4d9a
        0x000025ee:    4d78        xM      LDR      r5,[pc,#480] ; [0x27d0] = 0x20000520
        0x000025f0:    9000        ..      STR      r0,[sp,#0]
        0x000025f2:    3580        .5      ADDS     r5,r5,#0x80
        0x000025f4:    460e        .F      MOV      r6,r1
        0x000025f6:    6aa8        .j      LDR      r0,[r5,#0x28]
        0x000025f8:    f002fbcf    ....    BL       __aeabi_f2d ; 0x4d9a
        0x000025fc:    f7feff76    ..v.    BL       Rad ; 0x14ec
        0x00002600:    4633        3F      MOV      r3,r6
        0x00002602:    9a00        ..      LDR      r2,[sp,#0]
        0x00002604:    f002f9f8    ....    BL       __aeabi_dadd ; 0x49f8
        0x00002608:    463a        :F      MOV      r2,r7
        0x0000260a:    9b01        ..      LDR      r3,[sp,#4]
        0x0000260c:    f002f9f4    ....    BL       __aeabi_dadd ; 0x49f8
        0x00002610:    f002fbec    ....    BL       __aeabi_d2f ; 0x4dec
        0x00002614:    9002        ..      STR      r0,[sp,#8]
        0x00002616:    68e0        .h      LDR      r0,[r4,#0xc]
        0x00002618:    f002fbbf    ....    BL       __aeabi_f2d ; 0x4d9a
        0x0000261c:    9000        ..      STR      r0,[sp,#0]
        0x0000261e:    9101        ..      STR      r1,[sp,#4]
        0x00002620:    9804        ..      LDR      r0,[sp,#0x10]
        0x00002622:    f7feff60    ..`.    BL       VariableParameter ; 0x14e6
        0x00002626:    6821        !h      LDR      r1,[r4,#0]
        0x00002628:    f002f95f    .._.    BL       __aeabi_fmul ; 0x48ea
        0x0000262c:    9904        ..      LDR      r1,[sp,#0x10]
        0x0000262e:    f002f95c    ..\.    BL       __aeabi_fmul ; 0x48ea
        0x00002632:    f002fbb2    ....    BL       __aeabi_f2d ; 0x4d9a
        0x00002636:    4606        .F      MOV      r6,r0
        0x00002638:    460f        .F      MOV      r7,r1
        0x0000263a:    6ae8        .j      LDR      r0,[r5,#0x2c]
        0x0000263c:    f002fbad    ....    BL       __aeabi_f2d ; 0x4d9a
        0x00002640:    f7feff54    ..T.    BL       Rad ; 0x14ec
        0x00002644:    4632        2F      MOV      r2,r6
        0x00002646:    463b        ;F      MOV      r3,r7
        0x00002648:    f002f9d6    ....    BL       __aeabi_dadd ; 0x49f8
        0x0000264c:    9b01        ..      LDR      r3,[sp,#4]
        0x0000264e:    9a00        ..      LDR      r2,[sp,#0]
        0x00002650:    f002f9d2    ....    BL       __aeabi_dadd ; 0x49f8
        0x00002654:    f002fbca    ....    BL       __aeabi_d2f ; 0x4dec
        0x00002658:    9001        ..      STR      r0,[sp,#4]
        0x0000265a:    6920         i      LDR      r0,[r4,#0x10]
        0x0000265c:    f002fb9d    ....    BL       __aeabi_f2d ; 0x4d9a
        0x00002660:    9000        ..      STR      r0,[sp,#0]
        0x00002662:    460e        .F      MOV      r6,r1
        0x00002664:    9803        ..      LDR      r0,[sp,#0xc]
        0x00002666:    f7feff3e    ..>.    BL       VariableParameter ; 0x14e6
        0x0000266a:    6821        !h      LDR      r1,[r4,#0]
        0x0000266c:    f002f93d    ..=.    BL       __aeabi_fmul ; 0x48ea
        0x00002670:    9903        ..      LDR      r1,[sp,#0xc]
        0x00002672:    f002f93a    ..:.    BL       __aeabi_fmul ; 0x48ea
        0x00002676:    f002fb90    ....    BL       __aeabi_f2d ; 0x4d9a
        0x0000267a:    4604        .F      MOV      r4,r0
        0x0000267c:    460f        .F      MOV      r7,r1
        0x0000267e:    6b28        (k      LDR      r0,[r5,#0x30]
        0x00002680:    f002fb8b    ....    BL       __aeabi_f2d ; 0x4d9a
        0x00002684:    f7feff32    ..2.    BL       Rad ; 0x14ec
        0x00002688:    4622        "F      MOV      r2,r4
        0x0000268a:    463b        ;F      MOV      r3,r7
        0x0000268c:    f002f9b4    ....    BL       __aeabi_dadd ; 0x49f8
        0x00002690:    4633        3F      MOV      r3,r6
        0x00002692:    9a00        ..      LDR      r2,[sp,#0]
        0x00002694:    f002f9b0    ....    BL       __aeabi_dadd ; 0x49f8
        0x00002698:    f002fba8    ....    BL       __aeabi_d2f ; 0x4dec
        0x0000269c:    4604        .F      MOV      r4,r0
        0x0000269e:    2100        .!      MOVS     r1,#0
        0x000026a0:    43c9        .C      MVNS     r1,r1
        0x000026a2:    9806        ..      LDR      r0,[sp,#0x18]
        0x000026a4:    f002f99c    ....    BL       __ARM_scalbnf ; 0x49e0
        0x000026a8:    9000        ..      STR      r0,[sp,#0]
        0x000026aa:    4847        GH      LDR      r0,[pc,#284] ; [0x27c8] = 0x2000004c
        0x000026ac:    4623        #F      MOV      r3,r4
        0x000026ae:    3018        .0      ADDS     r0,r0,#0x18
        0x000026b0:    9a01        ..      LDR      r2,[sp,#4]
        0x000026b2:    9902        ..      LDR      r1,[sp,#8]
        0x000026b4:    f7fff924    ..$.    BL       Quaternion_RungeKutta ; 0x1900
        0x000026b8:    4843        CH      LDR      r0,[pc,#268] ; [0x27c8] = 0x2000004c
        0x000026ba:    3018        .0      ADDS     r0,r0,#0x18
        0x000026bc:    f7fff8ea    ....    BL       Quaternion_Normalize ; 0x1894
        0x000026c0:    b007        ..      ADD      sp,sp,#0x1c
        0x000026c2:    bdf0        ..      POP      {r4-r7,pc}
    AHRS_Update
        0x000026c4:    b570        p.      PUSH     {r4-r6,lr}
        0x000026c6:    2400        .$      MOVS     r4,#0
        0x000026c8:    f7ffff00    ....    BL       AHRS_GetQ ; 0x24cc
        0x000026cc:    4a3e        >J      LDR      r2,[pc,#248] ; [0x27c8] = 0x2000004c
        0x000026ce:    4941        AI      LDR      r1,[pc,#260] ; [0x27d4] = 0x200004e4
        0x000026d0:    3228        (2      ADDS     r2,r2,#0x28
        0x000026d2:    4610        .F      MOV      r0,r2
        0x000026d4:    3810        .8      SUBS     r0,r0,#0x10
        0x000026d6:    f7fff8c5    ....    BL       Quaternion_ToAngE ; 0x1864
        0x000026da:    493b        ;I      LDR      r1,[pc,#236] ; [0x27c8] = 0x2000004c
        0x000026dc:    4d3d        =M      LDR      r5,[pc,#244] ; [0x27d4] = 0x200004e4
        0x000026de:    3128        (1      ADDS     r1,r1,#0x28
        0x000026e0:    350c        .5      ADDS     r5,r5,#0xc
        0x000026e2:    00a0        ..      LSLS     r0,r4,#2
        0x000026e4:    580a        .X      LDR      r2,[r1,r0]
        0x000026e6:    1940        @.      ADDS     r0,r0,r5
        0x000026e8:    1c64        d.      ADDS     r4,r4,#1
        0x000026ea:    60c2        .`      STR      r2,[r0,#0xc]
        0x000026ec:    2c09        .,      CMP      r4,#9
        0x000026ee:    dbf8        ..      BLT      0x26e2 ; AHRS_Update + 30
        0x000026f0:    4c38        8L      LDR      r4,[pc,#224] ; [0x27d4] = 0x200004e4
        0x000026f2:    68a0        .h      LDR      r0,[r4,#8]
        0x000026f4:    f002fb51    ..Q.    BL       __aeabi_f2d ; 0x4d9a
        0x000026f8:    f7feff03    ....    BL       Degree ; 0x1502
        0x000026fc:    f002fb76    ..v.    BL       __aeabi_d2f ; 0x4dec
        0x00002700:    2601        .&      MOVS     r6,#1
        0x00002702:    07f6        ..      LSLS     r6,r6,#31
        0x00002704:    4070        p@      EORS     r0,r0,r6
        0x00002706:    60a8        .`      STR      r0,[r5,#8]
        0x00002708:    6860        `h      LDR      r0,[r4,#4]
        0x0000270a:    f002fb46    ..F.    BL       __aeabi_f2d ; 0x4d9a
        0x0000270e:    f7fefef8    ....    BL       Degree ; 0x1502
        0x00002712:    f002fb6b    ..k.    BL       __aeabi_d2f ; 0x4dec
        0x00002716:    4070        p@      EORS     r0,r0,r6
        0x00002718:    6028        (`      STR      r0,[r5,#0]
        0x0000271a:    6820         h      LDR      r0,[r4,#0]
        0x0000271c:    f002fb3d    ..=.    BL       __aeabi_f2d ; 0x4d9a
        0x00002720:    f7fefeef    ....    BL       Degree ; 0x1502
        0x00002724:    f002fb62    ..b.    BL       __aeabi_d2f ; 0x4dec
        0x00002728:    6068        h`      STR      r0,[r5,#4]
        0x0000272a:    bd70        p.      POP      {r4-r6,pc}
    AHRS_set_complementary_filter_kp
        0x0000272c:    b570        p.      PUSH     {r4-r6,lr}
        0x0000272e:    4d2a        *M      LDR      r5,[pc,#168] ; [0x27d8] = 0x40010020
        0x00002730:    6829        )h      LDR      r1,[r5,#0]
        0x00002732:    066e        n.      LSLS     r6,r5,#25
        0x00002734:    43b1        .C      BICS     r1,r1,r6
        0x00002736:    6029        )`      STR      r1,[r5,#0]
        0x00002738:    4c23        #L      LDR      r4,[pc,#140] ; [0x27c8] = 0x2000004c
        0x0000273a:    6020         `      STR      r0,[r4,#0]
        0x0000273c:    f002fb2d    ..-.    BL       __aeabi_f2d ; 0x4d9a
        0x00002740:    4602        .F      MOV      r2,r0
        0x00002742:    460b        .F      MOV      r3,r1
        0x00002744:    a025        %.      ADR      r0,{pc}+0x98 ; 0x27dc
        0x00002746:    f002fd9f    ....    BL       __0printf ; 0x5288
        0x0000274a:    2000        .       MOVS     r0,#0
        0x0000274c:    61a0        .a      STR      r0,[r4,#0x18]
        0x0000274e:    61e0        .a      STR      r0,[r4,#0x1c]
        0x00002750:    6220         b      STR      r0,[r4,#0x20]
        0x00002752:    6260        `b      STR      r0,[r4,#0x24]
        0x00002754:    217f        .!      MOVS     r1,#0x7f
        0x00002756:    05c9        ..      LSLS     r1,r1,#23
        0x00002758:    4622        "F      MOV      r2,r4
        0x0000275a:    3218        .2      ADDS     r2,r2,#0x18
        0x0000275c:    6011        .`      STR      r1,[r2,#0]
        0x0000275e:    491d        .I      LDR      r1,[pc,#116] ; [0x27d4] = 0x200004e4
        0x00002760:    6008        .`      STR      r0,[r1,#0]
        0x00002762:    6048        H`      STR      r0,[r1,#4]
        0x00002764:    6088        .`      STR      r0,[r1,#8]
        0x00002766:    60c8        .`      STR      r0,[r1,#0xc]
        0x00002768:    6108        .a      STR      r0,[r1,#0x10]
        0x0000276a:    6148        Ha      STR      r0,[r1,#0x14]
        0x0000276c:    60a0        .`      STR      r0,[r4,#8]
        0x0000276e:    f000f982    ....    BL       accel_offset ; 0x2a76
        0x00002772:    6828        (h      LDR      r0,[r5,#0]
        0x00002774:    4330        0C      ORRS     r0,r0,r6
        0x00002776:    6028        (`      STR      r0,[r5,#0]
        0x00002778:    bd70        p.      POP      {r4-r6,pc}
    AHRS_set_complementary_filter_ki
        0x0000277a:    b570        p.      PUSH     {r4-r6,lr}
        0x0000277c:    4d16        .M      LDR      r5,[pc,#88] ; [0x27d8] = 0x40010020
        0x0000277e:    6829        )h      LDR      r1,[r5,#0]
        0x00002780:    066e        n.      LSLS     r6,r5,#25
        0x00002782:    43b1        .C      BICS     r1,r1,r6
        0x00002784:    6029        )`      STR      r1,[r5,#0]
        0x00002786:    4c10        .L      LDR      r4,[pc,#64] ; [0x27c8] = 0x2000004c
        0x00002788:    6060        ``      STR      r0,[r4,#4]
        0x0000278a:    f002fb06    ....    BL       __aeabi_f2d ; 0x4d9a
        0x0000278e:    4602        .F      MOV      r2,r0
        0x00002790:    460b        .F      MOV      r3,r1
        0x00002792:    a015        ..      ADR      r0,{pc}+0x56 ; 0x27e8
        0x00002794:    f002fd78    ..x.    BL       __0printf ; 0x5288
        0x00002798:    2000        .       MOVS     r0,#0
        0x0000279a:    61a0        .a      STR      r0,[r4,#0x18]
        0x0000279c:    61e0        .a      STR      r0,[r4,#0x1c]
        0x0000279e:    6220         b      STR      r0,[r4,#0x20]
        0x000027a0:    6260        `b      STR      r0,[r4,#0x24]
        0x000027a2:    217f        .!      MOVS     r1,#0x7f
        0x000027a4:    05c9        ..      LSLS     r1,r1,#23
        0x000027a6:    4622        "F      MOV      r2,r4
        0x000027a8:    3218        .2      ADDS     r2,r2,#0x18
        0x000027aa:    6011        .`      STR      r1,[r2,#0]
        0x000027ac:    4909        .I      LDR      r1,[pc,#36] ; [0x27d4] = 0x200004e4
        0x000027ae:    6008        .`      STR      r0,[r1,#0]
        0x000027b0:    6048        H`      STR      r0,[r1,#4]
        0x000027b2:    6088        .`      STR      r0,[r1,#8]
        0x000027b4:    60c8        .`      STR      r0,[r1,#0xc]
        0x000027b6:    6108        .a      STR      r0,[r1,#0x10]
        0x000027b8:    6148        Ha      STR      r0,[r1,#0x14]
        0x000027ba:    60a0        .`      STR      r0,[r4,#8]
        0x000027bc:    f000f95b    ..[.    BL       accel_offset ; 0x2a76
        0x000027c0:    6828        (h      LDR      r0,[r5,#0]
        0x000027c2:    4330        0C      ORRS     r0,r0,r6
        0x000027c4:    6028        (`      STR      r0,[r5,#0]
        0x000027c6:    bd70        p.      POP      {r4-r6,pc}
    $d
        0x000027c8:    2000004c    L..     DCD    536870988
        0x000027cc:    49742400    .$tI    DCD    1232348160
        0x000027d0:    20000520     ..     DCD    536872224
        0x000027d4:    200004e4    ...     DCD    536872164
        0x000027d8:    40010020     ..@    DCD    1073807392
        0x000027dc:    203a706b    kp:     DCD    540700779
        0x000027e0:    66362e25    %.6f    DCD    1714826789
        0x000027e4:    0000000a    ....    DCD    10
        0x000027e8:    203a696b    ki:     DCD    540698987
        0x000027ec:    66362e25    %.6f    DCD    1714826789
        0x000027f0:    0000000a    ....    DCD    10
    $t
    .text
    inertial_sensor_init
        0x000027f4:    b570        p.      PUSH     {r4-r6,lr}
        0x000027f6:    4cc1        .L      LDR      r4,[pc,#772] ; [0x2afc] = 0x41f00000
        0x000027f8:    4dc1        .M      LDR      r5,[pc,#772] ; [0x2b00] = 0x42c80000
        0x000027fa:    4622        "F      MOV      r2,r4
        0x000027fc:    4629        )F      MOV      r1,r5
        0x000027fe:    48c1        .H      LDR      r0,[pc,#772] ; [0x2b04] = 0x20000554
        0x00002800:    f7fefd6e    ..n.    BL       LPF2pSetCutoffFreq ; 0x12e0
        0x00002804:    48bf        .H      LDR      r0,[pc,#764] ; [0x2b04] = 0x20000554
        0x00002806:    4622        "F      MOV      r2,r4
        0x00002808:    4629        )F      MOV      r1,r5
        0x0000280a:    3020         0      ADDS     r0,r0,#0x20
        0x0000280c:    f7fefd68    ..h.    BL       LPF2pSetCutoffFreq ; 0x12e0
        0x00002810:    48bc        .H      LDR      r0,[pc,#752] ; [0x2b04] = 0x20000554
        0x00002812:    4622        "F      MOV      r2,r4
        0x00002814:    4629        )F      MOV      r1,r5
        0x00002816:    3040        @0      ADDS     r0,r0,#0x40
        0x00002818:    f7fefd62    ..b.    BL       LPF2pSetCutoffFreq ; 0x12e0
        0x0000281c:    48b9        .H      LDR      r0,[pc,#740] ; [0x2b04] = 0x20000554
        0x0000281e:    4622        "F      MOV      r2,r4
        0x00002820:    4629        )F      MOV      r1,r5
        0x00002822:    3094        .0      ADDS     r0,r0,#0x94
        0x00002824:    f7fefd5c    ..\.    BL       LPF2pSetCutoffFreq ; 0x12e0
        0x00002828:    48b6        .H      LDR      r0,[pc,#728] ; [0x2b04] = 0x20000554
        0x0000282a:    4622        "F      MOV      r2,r4
        0x0000282c:    4629        )F      MOV      r1,r5
        0x0000282e:    30b4        .0      ADDS     r0,r0,#0xb4
        0x00002830:    f7fefd56    ..V.    BL       LPF2pSetCutoffFreq ; 0x12e0
        0x00002834:    48b3        .H      LDR      r0,[pc,#716] ; [0x2b04] = 0x20000554
        0x00002836:    4622        "F      MOV      r2,r4
        0x00002838:    4629        )F      MOV      r1,r5
        0x0000283a:    30d4        .0      ADDS     r0,r0,#0xd4
        0x0000283c:    f7fefd50    ..P.    BL       LPF2pSetCutoffFreq ; 0x12e0
        0x00002840:    bd70        p.      POP      {r4-r6,pc}
    inertial_sensor_read
        0x00002842:    b570        p.      PUSH     {r4-r6,lr}
        0x00002844:    48af        .H      LDR      r0,[pc,#700] ; [0x2b04] = 0x20000554
        0x00002846:    3834        48      SUBS     r0,r0,#0x34
        0x00002848:    f7fdfec4    ....    BL       bmi160_read_raw ; 0x5d4
        0x0000284c:    4dad        .M      LDR      r5,[pc,#692] ; [0x2b04] = 0x20000554
        0x0000284e:    3d34        4=      SUBS     r5,r5,#0x34
        0x00002850:    88e8        ..      LDRH     r0,[r5,#6]
        0x00002852:    8da9        ..      LDRH     r1,[r5,#0x2c]
        0x00002854:    462c        ,F      MOV      r4,r5
        0x00002856:    1a40        @.      SUBS     r0,r0,r1
        0x00002858:    b200        ..      SXTH     r0,r0
        0x0000285a:    81a8        ..      STRH     r0,[r5,#0xc]
        0x0000285c:    8929        ).      LDRH     r1,[r5,#8]
        0x0000285e:    8dea        ..      LDRH     r2,[r5,#0x2e]
        0x00002860:    3480        .4      ADDS     r4,r4,#0x80
        0x00002862:    1a89        ..      SUBS     r1,r1,r2
        0x00002864:    81e9        ..      STRH     r1,[r5,#0xe]
        0x00002866:    8969        i.      LDRH     r1,[r5,#0xa]
        0x00002868:    8e2a        *.      LDRH     r2,[r5,#0x30]
        0x0000286a:    1a89        ..      SUBS     r1,r1,r2
        0x0000286c:    8229        ).      STRH     r1,[r5,#0x10]
        0x0000286e:    4621        !F      MOV      r1,r4
        0x00002870:    3140        @1      ADDS     r1,r1,#0x40
        0x00002872:    8b62        b.      LDRH     r2,[r4,#0x1a]
        0x00002874:    880b        ..      LDRH     r3,[r1,#0]
        0x00002876:    1ad2        ..      SUBS     r2,r2,r3
        0x00002878:    8422        ".      STRH     r2,[r4,#0x20]
        0x0000287a:    8ba2        ..      LDRH     r2,[r4,#0x1c]
        0x0000287c:    884b        K.      LDRH     r3,[r1,#2]
        0x0000287e:    1ad2        ..      SUBS     r2,r2,r3
        0x00002880:    8462        b.      STRH     r2,[r4,#0x22]
        0x00002882:    8be2        ..      LDRH     r2,[r4,#0x1e]
        0x00002884:    8889        ..      LDRH     r1,[r1,#4]
        0x00002886:    1a51        Q.      SUBS     r1,r2,r1
        0x00002888:    84a1        ..      STRH     r1,[r4,#0x24]
        0x0000288a:    f002fa47    ..G.    BL       __aeabi_i2f ; 0x4d1c
        0x0000288e:    4e9e        .N      LDR      r6,[pc,#632] ; [0x2b08] = 0x20000000
        0x00002890:    6831        1h      LDR      r1,[r6,#0]
        0x00002892:    f002f82a    ..*.    BL       __aeabi_fmul ; 0x48ea
        0x00002896:    4601        .F      MOV      r1,r0
        0x00002898:    489a        .H      LDR      r0,[pc,#616] ; [0x2b04] = 0x20000554
        0x0000289a:    f7fefd7a    ..z.    BL       LPF2pApply ; 0x1392
        0x0000289e:    6168        ha      STR      r0,[r5,#0x14]
        0x000028a0:    200e        .       MOVS     r0,#0xe
        0x000028a2:    5e28        (^      LDRSH    r0,[r5,r0]
        0x000028a4:    f002fa3a    ..:.    BL       __aeabi_i2f ; 0x4d1c
        0x000028a8:    6831        1h      LDR      r1,[r6,#0]
        0x000028aa:    f002f81e    ....    BL       __aeabi_fmul ; 0x48ea
        0x000028ae:    4601        .F      MOV      r1,r0
        0x000028b0:    4620         F      MOV      r0,r4
        0x000028b2:    382c        ,8      SUBS     r0,r0,#0x2c
        0x000028b4:    f7fefd6d    ..m.    BL       LPF2pApply ; 0x1392
        0x000028b8:    61a8        .a      STR      r0,[r5,#0x18]
        0x000028ba:    2010        .       MOVS     r0,#0x10
        0x000028bc:    5e28        (^      LDRSH    r0,[r5,r0]
        0x000028be:    f002fa2d    ..-.    BL       __aeabi_i2f ; 0x4d1c
        0x000028c2:    6831        1h      LDR      r1,[r6,#0]
        0x000028c4:    f002f811    ....    BL       __aeabi_fmul ; 0x48ea
        0x000028c8:    4601        .F      MOV      r1,r0
        0x000028ca:    4620         F      MOV      r0,r4
        0x000028cc:    380c        .8      SUBS     r0,r0,#0xc
        0x000028ce:    f7fefd60    ..`.    BL       LPF2pApply ; 0x1392
        0x000028d2:    61e8        .a      STR      r0,[r5,#0x1c]
        0x000028d4:    2020                MOVS     r0,#0x20
        0x000028d6:    5e20         ^      LDRSH    r0,[r4,r0]
        0x000028d8:    f002fa20    .. .    BL       __aeabi_i2f ; 0x4d1c
        0x000028dc:    4d8b        .M      LDR      r5,[pc,#556] ; [0x2b0c] = 0x20000004
        0x000028de:    6829        )h      LDR      r1,[r5,#0]
        0x000028e0:    f002f803    ....    BL       __aeabi_fmul ; 0x48ea
        0x000028e4:    4601        .F      MOV      r1,r0
        0x000028e6:    4620         F      MOV      r0,r4
        0x000028e8:    3048        H0      ADDS     r0,r0,#0x48
        0x000028ea:    f7fefd52    ..R.    BL       LPF2pApply ; 0x1392
        0x000028ee:    62a0        .b      STR      r0,[r4,#0x28]
        0x000028f0:    2022        "       MOVS     r0,#0x22
        0x000028f2:    5e20         ^      LDRSH    r0,[r4,r0]
        0x000028f4:    f002fa12    ....    BL       __aeabi_i2f ; 0x4d1c
        0x000028f8:    6829        )h      LDR      r1,[r5,#0]
        0x000028fa:    f001fff6    ....    BL       __aeabi_fmul ; 0x48ea
        0x000028fe:    4601        .F      MOV      r1,r0
        0x00002900:    4620         F      MOV      r0,r4
        0x00002902:    3068        h0      ADDS     r0,r0,#0x68
        0x00002904:    f7fefd45    ..E.    BL       LPF2pApply ; 0x1392
        0x00002908:    62e0        .b      STR      r0,[r4,#0x2c]
        0x0000290a:    2024        $       MOVS     r0,#0x24
        0x0000290c:    5e20         ^      LDRSH    r0,[r4,r0]
        0x0000290e:    f002fa05    ....    BL       __aeabi_i2f ; 0x4d1c
        0x00002912:    6829        )h      LDR      r1,[r5,#0]
        0x00002914:    f001ffe9    ....    BL       __aeabi_fmul ; 0x48ea
        0x00002918:    4601        .F      MOV      r1,r0
        0x0000291a:    4620         F      MOV      r0,r4
        0x0000291c:    3088        .0      ADDS     r0,r0,#0x88
        0x0000291e:    f7fefd38    ..8.    BL       LPF2pApply ; 0x1392
        0x00002922:    6320         c      STR      r0,[r4,#0x30]
        0x00002924:    497a        zI      LDR      r1,[pc,#488] ; [0x2b10] = 0x20000134
        0x00002926:    2001        .       MOVS     r0,#1
        0x00002928:    7148        Hq      STRB     r0,[r1,#5]
        0x0000292a:    bd70        p.      POP      {r4-r6,pc}
    gyro_caloffest
        0x0000292c:    b5f8        ..      PUSH     {r3-r7,lr}
        0x0000292e:    4604        .F      MOV      r4,r0
        0x00002930:    4616        .F      MOV      r6,r2
        0x00002932:    460f        .F      MOV      r7,r1
        0x00002934:    4618        .F      MOV      r0,r3
        0x00002936:    f002f9fc    ....    BL       __aeabi_ui2f ; 0x4d32
        0x0000293a:    4605        .F      MOV      r5,r0
        0x0000293c:    4629        )F      MOV      r1,r5
        0x0000293e:    4620         F      MOV      r0,r4
        0x00002940:    f002f810    ....    BL       __aeabi_fdiv ; 0x4964
        0x00002944:    f002f9fc    ....    BL       __aeabi_f2iz ; 0x4d40
        0x00002948:    4c6e        nL      LDR      r4,[pc,#440] ; [0x2b04] = 0x20000554
        0x0000294a:    4629        )F      MOV      r1,r5
        0x0000294c:    348c        .4      ADDS     r4,r4,#0x8c
        0x0000294e:    8020         .      STRH     r0,[r4,#0]
        0x00002950:    4638        8F      MOV      r0,r7
        0x00002952:    f002f807    ....    BL       __aeabi_fdiv ; 0x4964
        0x00002956:    f002f9f3    ....    BL       __aeabi_f2iz ; 0x4d40
        0x0000295a:    8060        `.      STRH     r0,[r4,#2]
        0x0000295c:    4629        )F      MOV      r1,r5
        0x0000295e:    4630        0F      MOV      r0,r6
        0x00002960:    f002f800    ....    BL       __aeabi_fdiv ; 0x4964
        0x00002964:    f002f9ec    ....    BL       __aeabi_f2iz ; 0x4d40
        0x00002968:    80a0        ..      STRH     r0,[r4,#4]
        0x0000296a:    bdf8        ..      POP      {r3-r7,pc}
    gyro_offset
        0x0000296c:    b5f0        ..      PUSH     {r4-r7,lr}
        0x0000296e:    2400        .$      MOVS     r4,#0
        0x00002970:    b089        ..      SUB      sp,sp,#0x24
        0x00002972:    9406        ..      STR      r4,[sp,#0x18]
        0x00002974:    4967        gI      LDR      r1,[pc,#412] ; [0x2b14] = 0x20000098
        0x00002976:    9400        ..      STR      r4,[sp,#0]
        0x00002978:    9401        ..      STR      r4,[sp,#4]
        0x0000297a:    9402        ..      STR      r4,[sp,#8]
        0x0000297c:    9403        ..      STR      r4,[sp,#0xc]
        0x0000297e:    9404        ..      STR      r4,[sp,#0x10]
        0x00002980:    4f65        eO      LDR      r7,[pc,#404] ; [0x2b18] = 0x16e360
        0x00002982:    700c        .p      STRB     r4,[r1,#0]
        0x00002984:    4625        %F      MOV      r5,r4
        0x00002986:    4626        &F      MOV      r6,r4
        0x00002988:    4639        9F      MOV      r1,r7
        0x0000298a:    4864        dH      LDR      r0,[pc,#400] ; [0x2b1c] = 0x40010000
        0x0000298c:    f001fade    ....    BL       TIMER_Delay ; 0x3f4c
        0x00002990:    4639        9F      MOV      r1,r7
        0x00002992:    4862        bH      LDR      r0,[pc,#392] ; [0x2b1c] = 0x40010000
        0x00002994:    f001fada    ....    BL       TIMER_Delay ; 0x3f4c
        0x00002998:    4f5a        ZO      LDR      r7,[pc,#360] ; [0x2b04] = 0x20000554
        0x0000299a:    374c        L7      ADDS     r7,r7,#0x4c
        0x0000299c:    e065        e.      B        0x2a6a ; gyro_offset + 254
        0x0000299e:    2c64        d,      CMP      r4,#0x64
        0x000029a0:    d233        3.      BCS      0x2a0a ; gyro_offset + 158
        0x000029a2:    4858        XH      LDR      r0,[pc,#352] ; [0x2b04] = 0x20000554
        0x000029a4:    3834        48      SUBS     r0,r0,#0x34
        0x000029a6:    f7fdfe15    ....    BL       bmi160_read_raw ; 0x5d4
        0x000029aa:    221a        ."      MOVS     r2,#0x1a
        0x000029ac:    5eba        .^      LDRSH    r2,[r7,r2]
        0x000029ae:    9802        ..      LDR      r0,[sp,#8]
        0x000029b0:    4694        .F      MOV      r12,r2
        0x000029b2:    4460        `D      ADD      r0,r0,r12
        0x000029b4:    9002        ..      STR      r0,[sp,#8]
        0x000029b6:    211c        .!      MOVS     r1,#0x1c
        0x000029b8:    5e79        y^      LDRSH    r1,[r7,r1]
        0x000029ba:    9803        ..      LDR      r0,[sp,#0xc]
        0x000029bc:    9b04        ..      LDR      r3,[sp,#0x10]
        0x000029be:    1840        @.      ADDS     r0,r0,r1
        0x000029c0:    9003        ..      STR      r0,[sp,#0xc]
        0x000029c2:    201e        .       MOVS     r0,#0x1e
        0x000029c4:    5e38        8^      LDRSH    r0,[r7,r0]
        0x000029c6:    466a        jF      MOV      r2,sp
        0x000029c8:    181b        ..      ADDS     r3,r3,r0
        0x000029ca:    9304        ..      STR      r3,[sp,#0x10]
        0x000029cc:    2300        .#      MOVS     r3,#0
        0x000029ce:    5ed3        .^      LDRSH    r3,[r2,r3]
        0x000029d0:    4662        bF      MOV      r2,r12
        0x000029d2:    1aaa        ..      SUBS     r2,r5,r2
        0x000029d4:    d501        ..      BPL      0x29da ; gyro_offset + 110
        0x000029d6:    4662        bF      MOV      r2,r12
        0x000029d8:    1b52        R.      SUBS     r2,r2,r5
        0x000029da:    189b        ..      ADDS     r3,r3,r2
        0x000029dc:    466a        jF      MOV      r2,sp
        0x000029de:    8013        ..      STRH     r3,[r2,#0]
        0x000029e0:    2302        .#      MOVS     r3,#2
        0x000029e2:    5ed3        .^      LDRSH    r3,[r2,r3]
        0x000029e4:    1a72        r.      SUBS     r2,r6,r1
        0x000029e6:    d500        ..      BPL      0x29ea ; gyro_offset + 126
        0x000029e8:    1b8a        ..      SUBS     r2,r1,r6
        0x000029ea:    189a        ..      ADDS     r2,r3,r2
        0x000029ec:    466d        mF      MOV      r5,sp
        0x000029ee:    806a        j.      STRH     r2,[r5,#2]
        0x000029f0:    2304        .#      MOVS     r3,#4
        0x000029f2:    9a06        ..      LDR      r2,[sp,#0x18]
        0x000029f4:    5eeb        .^      LDRSH    r3,[r5,r3]
        0x000029f6:    1a12        ..      SUBS     r2,r2,r0
        0x000029f8:    d501        ..      BPL      0x29fe ; gyro_offset + 146
        0x000029fa:    9a06        ..      LDR      r2,[sp,#0x18]
        0x000029fc:    1a82        ..      SUBS     r2,r0,r2
        0x000029fe:    189a        ..      ADDS     r2,r3,r2
        0x00002a00:    80aa        ..      STRH     r2,[r5,#4]
        0x00002a02:    4665        eF      MOV      r5,r12
        0x00002a04:    460e        .F      MOV      r6,r1
        0x00002a06:    9006        ..      STR      r0,[sp,#0x18]
        0x00002a08:    e02d        -.      B        0x2a66 ; gyro_offset + 250
        0x00002a0a:    4669        iF      MOV      r1,sp
        0x00002a0c:    2000        .       MOVS     r0,#0
        0x00002a0e:    5e08        .^      LDRSH    r0,[r1,r0]
        0x00002a10:    2864        d(      CMP      r0,#0x64
        0x00002a12:    da07        ..      BGE      0x2a24 ; gyro_offset + 184
        0x00002a14:    2002        .       MOVS     r0,#2
        0x00002a16:    5e08        .^      LDRSH    r0,[r1,r0]
        0x00002a18:    2864        d(      CMP      r0,#0x64
        0x00002a1a:    da03        ..      BGE      0x2a24 ; gyro_offset + 184
        0x00002a1c:    2004        .       MOVS     r0,#4
        0x00002a1e:    5e08        .^      LDRSH    r0,[r1,r0]
        0x00002a20:    2864        d(      CMP      r0,#0x64
        0x00002a22:    db0d        ..      BLT      0x2a40 ; gyro_offset + 212
        0x00002a24:    2400        .$      MOVS     r4,#0
        0x00002a26:    4620         F      MOV      r0,r4
        0x00002a28:    4621        !F      MOV      r1,r4
        0x00002a2a:    0043        C.      LSLS     r3,r0,#1
        0x00002a2c:    466a        jF      MOV      r2,sp
        0x00002a2e:    52d1        .R      STRH     r1,[r2,r3]
        0x00002a30:    0083        ..      LSLS     r3,r0,#2
        0x00002a32:    1c40        @.      ADDS     r0,r0,#1
        0x00002a34:    aa02        ..      ADD      r2,sp,#8
        0x00002a36:    b2c0        ..      UXTB     r0,r0
        0x00002a38:    50d1        .P      STR      r1,[r2,r3]
        0x00002a3a:    2803        .(      CMP      r0,#3
        0x00002a3c:    d3f5        ..      BCC      0x2a2a ; gyro_offset + 190
        0x00002a3e:    e012        ..      B        0x2a66 ; gyro_offset + 250
        0x00002a40:    9804        ..      LDR      r0,[sp,#0x10]
        0x00002a42:    f002f96b    ..k.    BL       __aeabi_i2f ; 0x4d1c
        0x00002a46:    9007        ..      STR      r0,[sp,#0x1c]
        0x00002a48:    9803        ..      LDR      r0,[sp,#0xc]
        0x00002a4a:    f002f967    ..g.    BL       __aeabi_i2f ; 0x4d1c
        0x00002a4e:    9008        ..      STR      r0,[sp,#0x20]
        0x00002a50:    9802        ..      LDR      r0,[sp,#8]
        0x00002a52:    f002f963    ..c.    BL       __aeabi_i2f ; 0x4d1c
        0x00002a56:    23c8        .#      MOVS     r3,#0xc8
        0x00002a58:    9a07        ..      LDR      r2,[sp,#0x1c]
        0x00002a5a:    9908        ..      LDR      r1,[sp,#0x20]
        0x00002a5c:    f7ffff66    ..f.    BL       gyro_caloffest ; 0x292c
        0x00002a60:    482c        ,H      LDR      r0,[pc,#176] ; [0x2b14] = 0x20000098
        0x00002a62:    2101        .!      MOVS     r1,#1
        0x00002a64:    7001        .p      STRB     r1,[r0,#0]
        0x00002a66:    1c64        d.      ADDS     r4,r4,#1
        0x00002a68:    b2e4        ..      UXTB     r4,r4
        0x00002a6a:    482a        *H      LDR      r0,[pc,#168] ; [0x2b14] = 0x20000098
        0x00002a6c:    7800        .x      LDRB     r0,[r0,#0]
        0x00002a6e:    2800        .(      CMP      r0,#0
        0x00002a70:    d095        ..      BEQ      0x299e ; gyro_offset + 50
        0x00002a72:    b009        ..      ADD      sp,sp,#0x24
        0x00002a74:    bdf0        ..      POP      {r4-r7,pc}
    accel_offset
        0x00002a76:    b5f8        ..      PUSH     {r3-r7,lr}
        0x00002a78:    2700        .'      MOVS     r7,#0
        0x00002a7a:    4822        "H      LDR      r0,[pc,#136] ; [0x2b04] = 0x20000554
        0x00002a7c:    463e        >F      MOV      r6,r7
        0x00002a7e:    3834        48      SUBS     r0,r0,#0x34
        0x00002a80:    8587        ..      STRH     r7,[r0,#0x2c]
        0x00002a82:    85c7        ..      STRH     r7,[r0,#0x2e]
        0x00002a84:    463d        =F      MOV      r5,r7
        0x00002a86:    463c        <F      MOV      r4,r7
        0x00002a88:    8607        ..      STRH     r7,[r0,#0x30]
        0x00002a8a:    481e        .H      LDR      r0,[pc,#120] ; [0x2b04] = 0x20000554
        0x00002a8c:    3834        48      SUBS     r0,r0,#0x34
        0x00002a8e:    f7fdfda1    ....    BL       bmi160_read_raw ; 0x5d4
        0x00002a92:    4923        #I      LDR      r1,[pc,#140] ; [0x2b20] = 0x2710
        0x00002a94:    4821        !H      LDR      r0,[pc,#132] ; [0x2b1c] = 0x40010000
        0x00002a96:    f001fa59    ..Y.    BL       TIMER_Delay ; 0x3f4c
        0x00002a9a:    481a        .H      LDR      r0,[pc,#104] ; [0x2b04] = 0x20000554
        0x00002a9c:    2106        .!      MOVS     r1,#6
        0x00002a9e:    3834        48      SUBS     r0,r0,#0x34
        0x00002aa0:    5e41        A^      LDRSH    r1,[r0,r1]
        0x00002aa2:    1c64        d.      ADDS     r4,r4,#1
        0x00002aa4:    19cf        ..      ADDS     r7,r1,r7
        0x00002aa6:    2108        .!      MOVS     r1,#8
        0x00002aa8:    5e41        A^      LDRSH    r1,[r0,r1]
        0x00002aaa:    b2e4        ..      UXTB     r4,r4
        0x00002aac:    198e        ..      ADDS     r6,r1,r6
        0x00002aae:    210a        .!      MOVS     r1,#0xa
        0x00002ab0:    5e41        A^      LDRSH    r1,[r0,r1]
        0x00002ab2:    194d        M.      ADDS     r5,r1,r5
        0x00002ab4:    2c32        2,      CMP      r4,#0x32
        0x00002ab6:    d3e8        ..      BCC      0x2a8a ; accel_offset + 20
        0x00002ab8:    4621        !F      MOV      r1,r4
        0x00002aba:    4638        8F      MOV      r0,r7
        0x00002abc:    f001fe8c    ....    BL       __aeabi_idiv ; 0x47d8
        0x00002ac0:    4f10        .O      LDR      r7,[pc,#64] ; [0x2b04] = 0x20000554
        0x00002ac2:    4621        !F      MOV      r1,r4
        0x00002ac4:    3f34        4?      SUBS     r7,r7,#0x34
        0x00002ac6:    85b8        ..      STRH     r0,[r7,#0x2c]
        0x00002ac8:    4630        0F      MOV      r0,r6
        0x00002aca:    f001fe85    ....    BL       __aeabi_idiv ; 0x47d8
        0x00002ace:    85f8        ..      STRH     r0,[r7,#0x2e]
        0x00002ad0:    4621        !F      MOV      r1,r4
        0x00002ad2:    4628        (F      MOV      r0,r5
        0x00002ad4:    f001fe80    ....    BL       __aeabi_idiv ; 0x47d8
        0x00002ad8:    2101        .!      MOVS     r1,#1
        0x00002ada:    0349        I.      LSLS     r1,r1,#13
        0x00002adc:    1a08        ..      SUBS     r0,r1,r0
        0x00002ade:    8638        8.      STRH     r0,[r7,#0x30]
        0x00002ae0:    bdf8        ..      POP      {r3-r7,pc}
    get_inertial_vel
        0x00002ae2:    b510        ..      PUSH     {r4,lr}
        0x00002ae4:    4907        .I      LDR      r1,[pc,#28] ; [0x2b04] = 0x20000554
        0x00002ae6:    2401        .$      MOVS     r4,#1
        0x00002ae8:    314c        L1      ADDS     r1,r1,#0x4c
        0x00002aea:    6a8a        .j      LDR      r2,[r1,#0x28]
        0x00002aec:    6acb        .j      LDR      r3,[r1,#0x2c]
        0x00002aee:    07e4        ..      LSLS     r4,r4,#31
        0x00002af0:    6b09        .k      LDR      r1,[r1,#0x30]
        0x00002af2:    4062        b@      EORS     r2,r2,r4
        0x00002af4:    4061        a@      EORS     r1,r1,r4
        0x00002af6:    6081        .`      STR      r1,[r0,#8]
        0x00002af8:    c00c        ..      STM      r0!,{r2,r3}
        0x00002afa:    bd10        ..      POP      {r4,pc}
    $d
        0x00002afc:    41f00000    ...A    DCD    1106247680
        0x00002b00:    42c80000    ...B    DCD    1120403456
        0x00002b04:    20000554    T..     DCD    536872276
        0x00002b08:    20000000    ...     DCD    536870912
        0x00002b0c:    20000004    ...     DCD    536870916
        0x00002b10:    20000134    4..     DCD    536871220
        0x00002b14:    20000098    ...     DCD    536871064
        0x00002b18:    0016e360    `...    DCD    1500000
        0x00002b1c:    40010000    ...@    DCD    1073807360
        0x00002b20:    00002710    .'..    DCD    10000
    $t
    .text
    inertial_filter_correct
        0x00002b24:    b5f8        ..      PUSH     {r3-r7,lr}
        0x00002b26:    461d        .F      MOV      r5,r3
        0x00002b28:    4614        .F      MOV      r4,r2
        0x00002b2a:    460e        .F      MOV      r6,r1
        0x00002b2c:    4607        .F      MOV      r7,r0
        0x00002b2e:    f002fc20    .. .    BL       __ARM_isfinitef ; 0x5372
        0x00002b32:    2800        .(      CMP      r0,#0
        0x00002b34:    d023        #.      BEQ      0x2b7e ; inertial_filter_correct + 90
        0x00002b36:    9806        ..      LDR      r0,[sp,#0x18]
        0x00002b38:    f002fc1b    ....    BL       __ARM_isfinitef ; 0x5372
        0x00002b3c:    2800        .(      CMP      r0,#0
        0x00002b3e:    d01e        ..      BEQ      0x2b7e ; inertial_filter_correct + 90
        0x00002b40:    4630        0F      MOV      r0,r6
        0x00002b42:    f002fc16    ....    BL       __ARM_isfinitef ; 0x5372
        0x00002b46:    2800        .(      CMP      r0,#0
        0x00002b48:    d019        ..      BEQ      0x2b7e ; inertial_filter_correct + 90
        0x00002b4a:    4638        8F      MOV      r0,r7
        0x00002b4c:    9906        ..      LDR      r1,[sp,#0x18]
        0x00002b4e:    f001fecc    ....    BL       __aeabi_fmul ; 0x48ea
        0x00002b52:    4631        1F      MOV      r1,r6
        0x00002b54:    f001fec9    ....    BL       __aeabi_fmul ; 0x48ea
        0x00002b58:    4607        .F      MOV      r7,r0
        0x00002b5a:    00ae        ..      LSLS     r6,r5,#2
        0x00002b5c:    59a0        .Y      LDR      r0,[r4,r6]
        0x00002b5e:    4639        9F      MOV      r1,r7
        0x00002b60:    f001fe6a    ..j.    BL       __aeabi_fadd ; 0x4838
        0x00002b64:    51a0        .Q      STR      r0,[r4,r6]
        0x00002b66:    2d00        .-      CMP      r5,#0
        0x00002b68:    d00a        ..      BEQ      0x2b80 ; inertial_filter_correct + 92
        0x00002b6a:    2d01        .-      CMP      r5,#1
        0x00002b6c:    d107        ..      BNE      0x2b7e ; inertial_filter_correct + 90
        0x00002b6e:    4639        9F      MOV      r1,r7
        0x00002b70:    9806        ..      LDR      r0,[sp,#0x18]
        0x00002b72:    f001feba    ....    BL       __aeabi_fmul ; 0x48ea
        0x00002b76:    68a1        .h      LDR      r1,[r4,#8]
        0x00002b78:    f001fe5e    ..^.    BL       __aeabi_fadd ; 0x4838
        0x00002b7c:    60a0        .`      STR      r0,[r4,#8]
        0x00002b7e:    bdf8        ..      POP      {r3-r7,pc}
        0x00002b80:    4639        9F      MOV      r1,r7
        0x00002b82:    9806        ..      LDR      r0,[sp,#0x18]
        0x00002b84:    f001feb1    ....    BL       __aeabi_fmul ; 0x48ea
        0x00002b88:    6861        ah      LDR      r1,[r4,#4]
        0x00002b8a:    f001fe55    ..U.    BL       __aeabi_fadd ; 0x4838
        0x00002b8e:    6060        ``      STR      r0,[r4,#4]
        0x00002b90:    9906        ..      LDR      r1,[sp,#0x18]
        0x00002b92:    4608        .F      MOV      r0,r1
        0x00002b94:    f001fea9    ....    BL       __aeabi_fmul ; 0x48ea
        0x00002b98:    4639        9F      MOV      r1,r7
        0x00002b9a:    f001fea6    ....    BL       __aeabi_fmul ; 0x48ea
        0x00002b9e:    f002f8fc    ....    BL       __aeabi_f2d ; 0x4d9a
        0x00002ba2:    2200        ."      MOVS     r2,#0
        0x00002ba4:    4bab        .K      LDR      r3,[pc,#684] ; [0x2e54] = 0x40080000
        0x00002ba6:    f002f841    ..A.    BL       __aeabi_ddiv ; 0x4c2c
        0x00002baa:    4605        .F      MOV      r5,r0
        0x00002bac:    460e        .F      MOV      r6,r1
        0x00002bae:    68a0        .h      LDR      r0,[r4,#8]
        0x00002bb0:    f002f8f3    ....    BL       __aeabi_f2d ; 0x4d9a
        0x00002bb4:    462a        *F      MOV      r2,r5
        0x00002bb6:    4633        3F      MOV      r3,r6
        0x00002bb8:    f001ff1e    ....    BL       __aeabi_dadd ; 0x49f8
        0x00002bbc:    f002f916    ....    BL       __aeabi_d2f ; 0x4dec
        0x00002bc0:    e7dc        ..      B        0x2b7c ; inertial_filter_correct + 88
    position_z_update
        0x00002bc2:    b5f0        ..      PUSH     {r4-r7,lr}
        0x00002bc4:    b08b        ..      SUB      sp,sp,#0x2c
        0x00002bc6:    2500        .%      MOVS     r5,#0
        0x00002bc8:    9503        ..      STR      r5,[sp,#0xc]
        0x00002bca:    9504        ..      STR      r5,[sp,#0x10]
        0x00002bcc:    a0a2        ..      ADR      r0,{pc}+0x28c ; 0x2e58
        0x00002bce:    9505        ..      STR      r5,[sp,#0x14]
        0x00002bd0:    6800        .h      LDR      r0,[r0,#0]
        0x00002bd2:    9009        ..      STR      r0,[sp,#0x24]
        0x00002bd4:    f7fefaa0    ....    BL       sys_micro ; 0x1118
        0x00002bd8:    4ca0        .L      LDR      r4,[pc,#640] ; [0x2e5c] = 0x2000009c
        0x00002bda:    4606        .F      MOV      r6,r0
        0x00002bdc:    68a0        .h      LDR      r0,[r4,#8]
        0x00002bde:    2800        .(      CMP      r0,#0
        0x00002be0:    d005        ..      BEQ      0x2bee ; position_z_update + 44
        0x00002be2:    1a30        0.      SUBS     r0,r6,r0
        0x00002be4:    f002f8a5    ....    BL       __aeabi_ui2f ; 0x4d32
        0x00002be8:    499d        .I      LDR      r1,[pc,#628] ; [0x2e60] = 0x49742400
        0x00002bea:    f001febb    ....    BL       __aeabi_fdiv ; 0x4964
        0x00002bee:    9001        ..      STR      r0,[sp,#4]
        0x00002bf0:    60a6        .`      STR      r6,[r4,#8]
        0x00002bf2:    4e9c        .N      LDR      r6,[pc,#624] ; [0x2e64] = 0x20000134
        0x00002bf4:    79b0        .y      LDRB     r0,[r6,#6]
        0x00002bf6:    2800        .(      CMP      r0,#0
        0x00002bf8:    d07e        ~.      BEQ      0x2cf8 ; position_z_update + 310
        0x00002bfa:    9801        ..      LDR      r0,[sp,#4]
        0x00002bfc:    0040        @.      LSLS     r0,r0,#1
        0x00002bfe:    0e00        ..      LSRS     r0,r0,#24
        0x00002c00:    d07a        z.      BEQ      0x2cf8 ; position_z_update + 310
        0x00002c02:    21ff        .!      MOVS     r1,#0xff
        0x00002c04:    6820         h      LDR      r0,[r4,#0]
        0x00002c06:    0589        ..      LSLS     r1,r1,#22
        0x00002c08:    4288        .B      CMP      r0,r1
        0x00002c0a:    da08        ..      BGE      0x2c1e ; position_z_update + 92
        0x00002c0c:    f002f8c5    ....    BL       __aeabi_f2d ; 0x4d9a
        0x00002c10:    4a95        .J      LDR      r2,[pc,#596] ; [0x2e68] = 0x9999999a
        0x00002c12:    4b96        .K      LDR      r3,[pc,#600] ; [0x2e6c] = 0x3fa99999
        0x00002c14:    f001fef0    ....    BL       __aeabi_dadd ; 0x49f8
        0x00002c18:    f002f8e8    ....    BL       __aeabi_d2f ; 0x4dec
        0x00002c1c:    6020         `      STR      r0,[r4,#0]
        0x00002c1e:    488f        .H      LDR      r0,[pc,#572] ; [0x2e5c] = 0x2000009c
        0x00002c20:    4993        .I      LDR      r1,[pc,#588] ; [0x2e70] = 0x3d99999a
        0x00002c22:    6840        @h      LDR      r0,[r0,#4]
        0x00002c24:    4288        .B      CMP      r0,r1
        0x00002c26:    dd04        ..      BLE      0x2c32 ; position_z_update + 112
        0x00002c28:    4992        .I      LDR      r1,[pc,#584] ; [0x2e74] = 0x3c23d70a
        0x00002c2a:    4c8c        .L      LDR      r4,[pc,#560] ; [0x2e5c] = 0x2000009c
        0x00002c2c:    f001fe55    ..U.    BL       __aeabi_fsub ; 0x48da
        0x00002c30:    6060        ``      STR      r0,[r4,#4]
        0x00002c32:    78f0        .x      LDRB     r0,[r6,#3]
        0x00002c34:    2800        .(      CMP      r0,#0
        0x00002c36:    d00f        ..      BEQ      0x2c58 ; position_z_update + 150
        0x00002c38:    488f        .H      LDR      r0,[pc,#572] ; [0x2e78] = 0x200006cc
        0x00002c3a:    6881        .h      LDR      r1,[r0,#8]
        0x00002c3c:    488f        .H      LDR      r0,[pc,#572] ; [0x2e7c] = 0x200000ec
        0x00002c3e:    6940        @i      LDR      r0,[r0,#0x14]
        0x00002c40:    f001fe4b    ..K.    BL       __aeabi_fsub ; 0x48da
        0x00002c44:    2101        .!      MOVS     r1,#1
        0x00002c46:    07c9        ..      LSLS     r1,r1,#31
        0x00002c48:    4048        H@      EORS     r0,r0,r1
        0x00002c4a:    498b        .I      LDR      r1,[pc,#556] ; [0x2e78] = 0x200006cc
        0x00002c4c:    3960        `9      SUBS     r1,r1,#0x60
        0x00002c4e:    6809        .h      LDR      r1,[r1,#0]
        0x00002c50:    f001fe43    ..C.    BL       __aeabi_fsub ; 0x48da
        0x00002c54:    9002        ..      STR      r0,[sp,#8]
        0x00002c56:    70f5        .p      STRB     r5,[r6,#3]
        0x00002c58:    4882        .H      LDR      r0,[pc,#520] ; [0x2e64] = 0x20000134
        0x00002c5a:    7940        @y      LDRB     r0,[r0,#5]
        0x00002c5c:    2800        .(      CMP      r0,#0
        0x00002c5e:    d04a        J.      BEQ      0x2cf6 ; position_z_update + 308
        0x00002c60:    4c85        .L      LDR      r4,[pc,#532] ; [0x2e78] = 0x200006cc
        0x00002c62:    4e87        .N      LDR      r6,[pc,#540] ; [0x2e80] = 0x20000520
        0x00002c64:    3c48        H<      SUBS     r4,r4,#0x48
        0x00002c66:    6821        !h      LDR      r1,[r4,#0]
        0x00002c68:    6970        pi      LDR      r0,[r6,#0x14]
        0x00002c6a:    f001fe36    ..6.    BL       __aeabi_fsub ; 0x48da
        0x00002c6e:    9006        ..      STR      r0,[sp,#0x18]
        0x00002c70:    6861        ah      LDR      r1,[r4,#4]
        0x00002c72:    69b0        .i      LDR      r0,[r6,#0x18]
        0x00002c74:    f001fe31    ..1.    BL       __aeabi_fsub ; 0x48da
        0x00002c78:    9007        ..      STR      r0,[sp,#0x1c]
        0x00002c7a:    68a1        .h      LDR      r1,[r4,#8]
        0x00002c7c:    69f0        .i      LDR      r0,[r6,#0x1c]
        0x00002c7e:    f001fe2c    ..,.    BL       __aeabi_fsub ; 0x48da
        0x00002c82:    4f76        vO      LDR      r7,[pc,#472] ; [0x2e5c] = 0x2000009c
        0x00002c84:    2600        .&      MOVS     r6,#0
        0x00002c86:    370c        .7      ADDS     r7,r7,#0xc
        0x00002c88:    9008        ..      STR      r0,[sp,#0x20]
        0x00002c8a:    2000        .       MOVS     r0,#0
        0x00002c8c:    00b5        ..      LSLS     r5,r6,#2
        0x00002c8e:    5178        xQ      STR      r0,[r7,r5]
        0x00002c90:    4604        .F      MOV      r4,r0
        0x00002c92:    a809        ..      ADD      r0,sp,#0x24
        0x00002c94:    5780        .W      LDRSB    r0,[r0,r6]
        0x00002c96:    f002f841    ..A.    BL       __aeabi_i2f ; 0x4d1c
        0x00002c9a:    900a        ..      STR      r0,[sp,#0x28]
        0x00002c9c:    9000        ..      STR      r0,[sp,#0]
        0x00002c9e:    200c        .       MOVS     r0,#0xc
        0x00002ca0:    4978        xI      LDR      r1,[pc,#480] ; [0x2e84] = 0x200004f0
        0x00002ca2:    4360        `C      MULS     r0,r4,r0
        0x00002ca4:    1840        @.      ADDS     r0,r0,r1
        0x00002ca6:    1940        @.      ADDS     r0,r0,r5
        0x00002ca8:    00a2        ..      LSLS     r2,r4,#2
        0x00002caa:    a906        ..      ADD      r1,sp,#0x18
        0x00002cac:    68c0        .h      LDR      r0,[r0,#0xc]
        0x00002cae:    5889        .X      LDR      r1,[r1,r2]
        0x00002cb0:    f001fe1b    ....    BL       __aeabi_fmul ; 0x48ea
        0x00002cb4:    9900        ..      LDR      r1,[sp,#0]
        0x00002cb6:    f001fe18    ....    BL       __aeabi_fmul ; 0x48ea
        0x00002cba:    5979        yY      LDR      r1,[r7,r5]
        0x00002cbc:    f001fdbc    ....    BL       __aeabi_fadd ; 0x4838
        0x00002cc0:    1c64        d.      ADDS     r4,r4,#1
        0x00002cc2:    b2e4        ..      UXTB     r4,r4
        0x00002cc4:    5178        xQ      STR      r0,[r7,r5]
        0x00002cc6:    2c03        .,      CMP      r4,#3
        0x00002cc8:    d201        ..      BCS      0x2cce ; position_z_update + 268
        0x00002cca:    980a        ..      LDR      r0,[sp,#0x28]
        0x00002ccc:    e7e6        ..      B        0x2c9c ; position_z_update + 218
        0x00002cce:    1c76        v.      ADDS     r6,r6,#1
        0x00002cd0:    b2f6        ..      UXTB     r6,r6
        0x00002cd2:    2e03        ..      CMP      r6,#3
        0x00002cd4:    d3d9        ..      BCC      0x2c8a ; position_z_update + 200
        0x00002cd6:    496c        lI      LDR      r1,[pc,#432] ; [0x2e88] = 0x411ce80a
        0x00002cd8:    68b8        .h      LDR      r0,[r7,#8]
        0x00002cda:    f001fdad    ....    BL       __aeabi_fadd ; 0x4838
        0x00002cde:    4966        fI      LDR      r1,[pc,#408] ; [0x2e78] = 0x200006cc
        0x00002ce0:    60b8        .`      STR      r0,[r7,#8]
        0x00002ce2:    3960        `9      SUBS     r1,r1,#0x60
        0x00002ce4:    6889        .h      LDR      r1,[r1,#8]
        0x00002ce6:    f001fdf8    ....    BL       __aeabi_fsub ; 0x48da
        0x00002cea:    4963        cI      LDR      r1,[pc,#396] ; [0x2e78] = 0x200006cc
        0x00002cec:    3954        T9      SUBS     r1,r1,#0x54
        0x00002cee:    6088        .`      STR      r0,[r1,#8]
        0x00002cf0:    485c        \H      LDR      r0,[pc,#368] ; [0x2e64] = 0x20000134
        0x00002cf2:    2100        .!      MOVS     r1,#0
        0x00002cf4:    7141        Aq      STRB     r1,[r0,#5]
        0x00002cf6:    e000        ..      B        0x2cfa ; position_z_update + 312
        0x00002cf8:    e05b        [.      B        0x2db2 ; position_z_update + 496
        0x00002cfa:    4858        XH      LDR      r0,[pc,#352] ; [0x2e5c] = 0x2000009c
        0x00002cfc:    6801        .h      LDR      r1,[r0,#0]
        0x00002cfe:    9802        ..      LDR      r0,[sp,#8]
        0x00002d00:    460c        .F      MOV      r4,r1
        0x00002d02:    f001fdf2    ....    BL       __aeabi_fmul ; 0x48ea
        0x00002d06:    4621        !F      MOV      r1,r4
        0x00002d08:    f001fdef    ....    BL       __aeabi_fmul ; 0x48ea
        0x00002d0c:    9905        ..      LDR      r1,[sp,#0x14]
        0x00002d0e:    f001fde8    ....    BL       __aeabi_frsub ; 0x48e2
        0x00002d12:    2500        .%      MOVS     r5,#0
        0x00002d14:    9005        ..      STR      r0,[sp,#0x14]
        0x00002d16:    2600        .&      MOVS     r6,#0
        0x00002d18:    495a        ZI      LDR      r1,[pc,#360] ; [0x2e84] = 0x200004f0
        0x00002d1a:    4628        (F      MOV      r0,r5
        0x00002d1c:    220c        ."      MOVS     r2,#0xc
        0x00002d1e:    4350        PC      MULS     r0,r2,r0
        0x00002d20:    4634        4F      MOV      r4,r6
        0x00002d22:    1847        G.      ADDS     r7,r0,r1
        0x00002d24:    00a0        ..      LSLS     r0,r4,#2
        0x00002d26:    1839        9.      ADDS     r1,r7,r0
        0x00002d28:    68ca        .h      LDR      r2,[r1,#0xc]
        0x00002d2a:    a903        ..      ADD      r1,sp,#0xc
        0x00002d2c:    5809        .X      LDR      r1,[r1,r0]
        0x00002d2e:    4610        .F      MOV      r0,r2
        0x00002d30:    f001fddb    ....    BL       __aeabi_fmul ; 0x48ea
        0x00002d34:    4631        1F      MOV      r1,r6
        0x00002d36:    f001fd7f    ....    BL       __aeabi_fadd ; 0x4838
        0x00002d3a:    1c64        d.      ADDS     r4,r4,#1
        0x00002d3c:    b2e4        ..      UXTB     r4,r4
        0x00002d3e:    4606        .F      MOV      r6,r0
        0x00002d40:    2c03        .,      CMP      r4,#3
        0x00002d42:    d3ef        ..      BCC      0x2d24 ; position_z_update + 354
        0x00002d44:    a809        ..      ADD      r0,sp,#0x24
        0x00002d46:    5740        @W      LDRSB    r0,[r0,r5]
        0x00002d48:    f001ffe8    ....    BL       __aeabi_i2f ; 0x4d1c
        0x00002d4c:    4604        .F      MOV      r4,r0
        0x00002d4e:    4843        CH      LDR      r0,[pc,#268] ; [0x2e5c] = 0x2000009c
        0x00002d50:    6841        Ah      LDR      r1,[r0,#4]
        0x00002d52:    4630        0F      MOV      r0,r6
        0x00002d54:    f001fdc9    ....    BL       __aeabi_fmul ; 0x48ea
        0x00002d58:    9901        ..      LDR      r1,[sp,#4]
        0x00002d5a:    f001fdc6    ....    BL       __aeabi_fmul ; 0x48ea
        0x00002d5e:    4621        !F      MOV      r1,r4
        0x00002d60:    f001fdc3    ....    BL       __aeabi_fmul ; 0x48ea
        0x00002d64:    4e44        DN      LDR      r6,[pc,#272] ; [0x2e78] = 0x200006cc
        0x00002d66:    00ac        ..      LSLS     r4,r5,#2
        0x00002d68:    3e48        H>      SUBS     r6,r6,#0x48
        0x00002d6a:    5931        1Y      LDR      r1,[r6,r4]
        0x00002d6c:    f001fd64    ..d.    BL       __aeabi_fadd ; 0x4838
        0x00002d70:    1c6d        m.      ADDS     r5,r5,#1
        0x00002d72:    b2ed        ..      UXTB     r5,r5
        0x00002d74:    5130        0Q      STR      r0,[r6,r4]
        0x00002d76:    2d03        .-      CMP      r5,#3
        0x00002d78:    d3cd        ..      BCC      0x2d16 ; position_z_update + 340
        0x00002d7a:    4c38        8L      LDR      r4,[pc,#224] ; [0x2e5c] = 0x2000009c
        0x00002d7c:    4631        1F      MOV      r1,r6
        0x00002d7e:    340c        .4      ADDS     r4,r4,#0xc
        0x00002d80:    3918        .9      SUBS     r1,r1,#0x18
        0x00002d82:    68a2        .h      LDR      r2,[r4,#8]
        0x00002d84:    9801        ..      LDR      r0,[sp,#4]
        0x00002d86:    f000f838    ..8.    BL       inertial_filter_predict ; 0x2dfa
        0x00002d8a:    4834        4H      LDR      r0,[pc,#208] ; [0x2e5c] = 0x2000009c
        0x00002d8c:    4632        2F      MOV      r2,r6
        0x00002d8e:    6800        .h      LDR      r0,[r0,#0]
        0x00002d90:    9000        ..      STR      r0,[sp,#0]
        0x00002d92:    2300        .#      MOVS     r3,#0
        0x00002d94:    3a18        .:      SUBS     r2,r2,#0x18
        0x00002d96:    9901        ..      LDR      r1,[sp,#4]
        0x00002d98:    9802        ..      LDR      r0,[sp,#8]
        0x00002d9a:    f7fffec3    ....    BL       inertial_filter_correct ; 0x2b24
        0x00002d9e:    4631        1F      MOV      r1,r6
        0x00002da0:    3918        .9      SUBS     r1,r1,#0x18
        0x00002da2:    4608        .F      MOV      r0,r1
        0x00002da4:    3824        $8      SUBS     r0,r0,#0x24
        0x00002da6:    680a        .h      LDR      r2,[r1,#0]
        0x00002da8:    6082        .`      STR      r2,[r0,#8]
        0x00002daa:    6849        Ih      LDR      r1,[r1,#4]
        0x00002dac:    6141        Aa      STR      r1,[r0,#0x14]
        0x00002dae:    68a1        .h      LDR      r1,[r4,#8]
        0x00002db0:    6201        .b      STR      r1,[r0,#0x20]
        0x00002db2:    b00b        ..      ADD      sp,sp,#0x2c
        0x00002db4:    bdf0        ..      POP      {r4-r7,pc}
    inertial_nav_update
        0x00002db6:    2001        .       MOVS     r0,#1
        0x00002db8:    0780        ..      LSLS     r0,r0,#30
        0x00002dba:    4934        4I      LDR      r1,[pc,#208] ; [0x2e8c] = 0x3f947ae1
        0x00002dbc:    e701        ..      B        position_z_update ; 0x2bc2
    update_home_pos
        0x00002dbe:    b570        p.      PUSH     {r4-r6,lr}
        0x00002dc0:    4c28        (L      LDR      r4,[pc,#160] ; [0x2e64] = 0x20000134
        0x00002dc2:    79a0        .y      LDRB     r0,[r4,#6]
        0x00002dc4:    2800        .(      CMP      r0,#0
        0x00002dc6:    d117        ..      BNE      0x2df8 ; update_home_pos + 58
        0x00002dc8:    7920         y      LDRB     r0,[r4,#4]
        0x00002dca:    2800        .(      CMP      r0,#0
        0x00002dcc:    d014        ..      BEQ      0x2df8 ; update_home_pos + 58
        0x00002dce:    4d2a        *M      LDR      r5,[pc,#168] ; [0x2e78] = 0x200006cc
        0x00002dd0:    4e2a        *N      LDR      r6,[pc,#168] ; [0x2e7c] = 0x200000ec
        0x00002dd2:    68a9        .h      LDR      r1,[r5,#8]
        0x00002dd4:    6970        pi      LDR      r0,[r6,#0x14]
        0x00002dd6:    f001fd80    ....    BL       __aeabi_fsub ; 0x48da
        0x00002dda:    4602        .F      MOV      r2,r0
        0x00002ddc:    4628        (F      MOV      r0,r5
        0x00002dde:    210f        .!      MOVS     r1,#0xf
        0x00002de0:    383c        <8      SUBS     r0,r0,#0x3c
        0x00002de2:    f7fefb2f    ../.    BL       Moving_Average ; 0x1444
        0x00002de6:    492a        *I      LDR      r1,[pc,#168] ; [0x2e90] = 0x3f4ccccd
        0x00002de8:    4288        .B      CMP      r0,r1
        0x00002dea:    da01        ..      BGE      0x2df0 ; update_home_pos + 50
        0x00002dec:    2001        .       MOVS     r0,#1
        0x00002dee:    71a0        .q      STRB     r0,[r4,#6]
        0x00002df0:    6970        pi      LDR      r0,[r6,#0x14]
        0x00002df2:    60a8        .`      STR      r0,[r5,#8]
        0x00002df4:    2000        .       MOVS     r0,#0
        0x00002df6:    7120         q      STRB     r0,[r4,#4]
        0x00002df8:    bd70        p.      POP      {r4-r6,pc}
    inertial_filter_predict
        0x00002dfa:    b5f7        ..      PUSH     {r0-r2,r4-r7,lr}
        0x00002dfc:    4615        .F      MOV      r5,r2
        0x00002dfe:    460c        .F      MOV      r4,r1
        0x00002e00:    9800        ..      LDR      r0,[sp,#0]
        0x00002e02:    f002fab6    ....    BL       __ARM_isfinitef ; 0x5372
        0x00002e06:    2800        .(      CMP      r0,#0
        0x00002e08:    d023        #.      BEQ      0x2e52 ; inertial_filter_predict + 88
        0x00002e0a:    4628        (F      MOV      r0,r5
        0x00002e0c:    f002fab1    ....    BL       __ARM_isfinitef ; 0x5372
        0x00002e10:    2800        .(      CMP      r0,#0
        0x00002e12:    d100        ..      BNE      0x2e16 ; inertial_filter_predict + 28
        0x00002e14:    2500        .%      MOVS     r5,#0
        0x00002e16:    4629        )F      MOV      r1,r5
        0x00002e18:    9800        ..      LDR      r0,[sp,#0]
        0x00002e1a:    f001fd66    ..f.    BL       __aeabi_fmul ; 0x48ea
        0x00002e1e:    4607        .F      MOV      r7,r0
        0x00002e20:    9900        ..      LDR      r1,[sp,#0]
        0x00002e22:    f001fd62    ..b.    BL       __aeabi_fmul ; 0x48ea
        0x00002e26:    2100        .!      MOVS     r1,#0
        0x00002e28:    43c9        .C      MVNS     r1,r1
        0x00002e2a:    f001fdd9    ....    BL       __ARM_scalbnf ; 0x49e0
        0x00002e2e:    6866        fh      LDR      r6,[r4,#4]
        0x00002e30:    4605        .F      MOV      r5,r0
        0x00002e32:    4631        1F      MOV      r1,r6
        0x00002e34:    9800        ..      LDR      r0,[sp,#0]
        0x00002e36:    f001fd58    ..X.    BL       __aeabi_fmul ; 0x48ea
        0x00002e3a:    4629        )F      MOV      r1,r5
        0x00002e3c:    f001fcfc    ....    BL       __aeabi_fadd ; 0x4838
        0x00002e40:    6821        !h      LDR      r1,[r4,#0]
        0x00002e42:    f001fcf9    ....    BL       __aeabi_fadd ; 0x4838
        0x00002e46:    6020         `      STR      r0,[r4,#0]
        0x00002e48:    4638        8F      MOV      r0,r7
        0x00002e4a:    4631        1F      MOV      r1,r6
        0x00002e4c:    f001fcf4    ....    BL       __aeabi_fadd ; 0x4838
        0x00002e50:    6060        ``      STR      r0,[r4,#4]
        0x00002e52:    bdfe        ..      POP      {r1-r7,pc}
    $d
        0x00002e54:    40080000    ...@    DCD    1074266112
        0x00002e58:    00ff01ff    ....    DCD    16712191
        0x00002e5c:    2000009c    ...     DCD    536871068
        0x00002e60:    49742400    .$tI    DCD    1232348160
        0x00002e64:    20000134    4..     DCD    536871220
        0x00002e68:    9999999a    ....    DCD    2576980378
        0x00002e6c:    3fa99999    ...?    DCD    1068079513
        0x00002e70:    3d99999a    ...=    DCD    1033476506
        0x00002e74:    3c23d70a    ..#<    DCD    1008981770
        0x00002e78:    200006cc    ...     DCD    536872652
        0x00002e7c:    200000ec    ...     DCD    536871148
        0x00002e80:    20000520     ..     DCD    536872224
        0x00002e84:    200004f0    ...     DCD    536872176
        0x00002e88:    411ce80a    ...A    DCD    1092413450
        0x00002e8c:    3f947ae1    .z.?    DCD    1066695393
        0x00002e90:    3f4ccccd    ..L?    DCD    1061997773
    $t
    .text
    I2C_Init
        0x00002e94:    b510        ..      PUSH     {r4,lr}
        0x00002e96:    f000feab    ....    BL       I2C_Open ; 0x3bf0
        0x00002e9a:    bd10        ..      POP      {r4,pc}
    I2C_WriteByte
        0x00002e9c:    b5f7        ..      PUSH     {r0-r2,r4-r7,lr}
        0x00002e9e:    4d95        .M      LDR      r5,[pc,#596] ; [0x30f4] = 0x40020000
        0x00002ea0:    4617        .F      MOV      r7,r2
        0x00002ea2:    263c        <&      MOVS     r6,#0x3c
        0x00002ea4:    6828        (h      LDR      r0,[r5,#0]
        0x00002ea6:    2400        .$      MOVS     r4,#0
        0x00002ea8:    43b0        .C      BICS     r0,r0,r6
        0x00002eaa:    3028        (0      ADDS     r0,r0,#0x28
        0x00002eac:    6028        (`      STR      r0,[r5,#0]
        0x00002eae:    6828        (h      LDR      r0,[r5,#0]
        0x00002eb0:    0700        ..      LSLS     r0,r0,#28
        0x00002eb2:    d5fc        ..      BPL      0x2eae ; I2C_WriteByte + 18
        0x00002eb4:    9800        ..      LDR      r0,[sp,#0]
        0x00002eb6:    60a8        .`      STR      r0,[r5,#8]
        0x00002eb8:    6828        (h      LDR      r0,[r5,#0]
        0x00002eba:    43b0        .C      BICS     r0,r0,r6
        0x00002ebc:    3008        .0      ADDS     r0,r0,#8
        0x00002ebe:    6028        (`      STR      r0,[r5,#0]
        0x00002ec0:    6828        (h      LDR      r0,[r5,#0]
        0x00002ec2:    0700        ..      LSLS     r0,r0,#28
        0x00002ec4:    d5fc        ..      BPL      0x2ec0 ; I2C_WriteByte + 36
        0x00002ec6:    68e8        .h      LDR      r0,[r5,#0xc]
        0x00002ec8:    2818        .(      CMP      r0,#0x18
        0x00002eca:    d00f        ..      BEQ      0x2eec ; I2C_WriteByte + 80
        0x00002ecc:    2401        .$      MOVS     r4,#1
        0x00002ece:    68ea        .h      LDR      r2,[r5,#0xc]
        0x00002ed0:    4621        !F      MOV      r1,r4
        0x00002ed2:    a089        ..      ADR      r0,{pc}+0x226 ; 0x30f8
        0x00002ed4:    f002f9d8    ....    BL       __0printf ; 0x5288
        0x00002ed8:    6828        (h      LDR      r0,[r5,#0]
        0x00002eda:    43b0        .C      BICS     r0,r0,r6
        0x00002edc:    3018        .0      ADDS     r0,r0,#0x18
        0x00002ede:    6028        (`      STR      r0,[r5,#0]
        0x00002ee0:    2064        d       MOVS     r0,#0x64
        0x00002ee2:    f000fe39    ..9.    BL       CLK_SysTickDelay ; 0x3b58
        0x00002ee6:    2c00        .,      CMP      r4,#0
        0x00002ee8:    d1dc        ..      BNE      0x2ea4 ; I2C_WriteByte + 8
        0x00002eea:    bdfe        ..      POP      {r1-r7,pc}
        0x00002eec:    9801        ..      LDR      r0,[sp,#4]
        0x00002eee:    b2c0        ..      UXTB     r0,r0
        0x00002ef0:    60a8        .`      STR      r0,[r5,#8]
        0x00002ef2:    6828        (h      LDR      r0,[r5,#0]
        0x00002ef4:    43b0        .C      BICS     r0,r0,r6
        0x00002ef6:    3008        .0      ADDS     r0,r0,#8
        0x00002ef8:    6028        (`      STR      r0,[r5,#0]
        0x00002efa:    6828        (h      LDR      r0,[r5,#0]
        0x00002efc:    0700        ..      LSLS     r0,r0,#28
        0x00002efe:    d5fc        ..      BPL      0x2efa ; I2C_WriteByte + 94
        0x00002f00:    68e8        .h      LDR      r0,[r5,#0xc]
        0x00002f02:    2828        ((      CMP      r0,#0x28
        0x00002f04:    d001        ..      BEQ      0x2f0a ; I2C_WriteByte + 110
        0x00002f06:    2402        .$      MOVS     r4,#2
        0x00002f08:    e7e1        ..      B        0x2ece ; I2C_WriteByte + 50
        0x00002f0a:    60af        .`      STR      r7,[r5,#8]
        0x00002f0c:    6828        (h      LDR      r0,[r5,#0]
        0x00002f0e:    43b0        .C      BICS     r0,r0,r6
        0x00002f10:    3008        .0      ADDS     r0,r0,#8
        0x00002f12:    6028        (`      STR      r0,[r5,#0]
        0x00002f14:    6828        (h      LDR      r0,[r5,#0]
        0x00002f16:    0700        ..      LSLS     r0,r0,#28
        0x00002f18:    d5fc        ..      BPL      0x2f14 ; I2C_WriteByte + 120
        0x00002f1a:    68e8        .h      LDR      r0,[r5,#0xc]
        0x00002f1c:    2828        ((      CMP      r0,#0x28
        0x00002f1e:    d001        ..      BEQ      0x2f24 ; I2C_WriteByte + 136
        0x00002f20:    2404        .$      MOVS     r4,#4
        0x00002f22:    e7d4        ..      B        0x2ece ; I2C_WriteByte + 50
        0x00002f24:    6828        (h      LDR      r0,[r5,#0]
        0x00002f26:    43b0        .C      BICS     r0,r0,r6
        0x00002f28:    3018        .0      ADDS     r0,r0,#0x18
        0x00002f2a:    6028        (`      STR      r0,[r5,#0]
        0x00002f2c:    2c00        .,      CMP      r4,#0
        0x00002f2e:    d1ce        ..      BNE      0x2ece ; I2C_WriteByte + 50
        0x00002f30:    bdfe        ..      POP      {r1-r7,pc}
    I2C_ReadByte
        0x00002f32:    b5f3        ..      PUSH     {r0,r1,r4-r7,lr}
        0x00002f34:    4607        .F      MOV      r7,r0
        0x00002f36:    2000        .       MOVS     r0,#0
        0x00002f38:    b081        ..      SUB      sp,sp,#4
        0x00002f3a:    4d6e        nM      LDR      r5,[pc,#440] ; [0x30f4] = 0x40020000
        0x00002f3c:    263c        <&      MOVS     r6,#0x3c
        0x00002f3e:    9000        ..      STR      r0,[sp,#0]
        0x00002f40:    2400        .$      MOVS     r4,#0
        0x00002f42:    2164        d!      MOVS     r1,#0x64
        0x00002f44:    4873        sH      LDR      r0,[pc,#460] ; [0x3114] = 0x40010000
        0x00002f46:    f001f801    ....    BL       TIMER_Delay ; 0x3f4c
        0x00002f4a:    6828        (h      LDR      r0,[r5,#0]
        0x00002f4c:    43b0        .C      BICS     r0,r0,r6
        0x00002f4e:    3028        (0      ADDS     r0,r0,#0x28
        0x00002f50:    6028        (`      STR      r0,[r5,#0]
        0x00002f52:    6828        (h      LDR      r0,[r5,#0]
        0x00002f54:    0700        ..      LSLS     r0,r0,#28
        0x00002f56:    d5fc        ..      BPL      0x2f52 ; I2C_ReadByte + 32
        0x00002f58:    60af        .`      STR      r7,[r5,#8]
        0x00002f5a:    6828        (h      LDR      r0,[r5,#0]
        0x00002f5c:    43b0        .C      BICS     r0,r0,r6
        0x00002f5e:    3008        .0      ADDS     r0,r0,#8
        0x00002f60:    6028        (`      STR      r0,[r5,#0]
        0x00002f62:    6828        (h      LDR      r0,[r5,#0]
        0x00002f64:    0700        ..      LSLS     r0,r0,#28
        0x00002f66:    d5fc        ..      BPL      0x2f62 ; I2C_ReadByte + 48
        0x00002f68:    68e8        .h      LDR      r0,[r5,#0xc]
        0x00002f6a:    2818        .(      CMP      r0,#0x18
        0x00002f6c:    d010        ..      BEQ      0x2f90 ; I2C_ReadByte + 94
        0x00002f6e:    2401        .$      MOVS     r4,#1
        0x00002f70:    68ea        .h      LDR      r2,[r5,#0xc]
        0x00002f72:    4621        !F      MOV      r1,r4
        0x00002f74:    a060        `.      ADR      r0,{pc}+0x184 ; 0x30f8
        0x00002f76:    f002f987    ....    BL       __0printf ; 0x5288
        0x00002f7a:    6828        (h      LDR      r0,[r5,#0]
        0x00002f7c:    43b0        .C      BICS     r0,r0,r6
        0x00002f7e:    3018        .0      ADDS     r0,r0,#0x18
        0x00002f80:    6028        (`      STR      r0,[r5,#0]
        0x00002f82:    200a        .       MOVS     r0,#0xa
        0x00002f84:    f000fde8    ....    BL       CLK_SysTickDelay ; 0x3b58
        0x00002f88:    2c00        .,      CMP      r4,#0
        0x00002f8a:    d1d9        ..      BNE      0x2f40 ; I2C_ReadByte + 14
        0x00002f8c:    9800        ..      LDR      r0,[sp,#0]
        0x00002f8e:    bdfe        ..      POP      {r1-r7,pc}
        0x00002f90:    9802        ..      LDR      r0,[sp,#8]
        0x00002f92:    b2c0        ..      UXTB     r0,r0
        0x00002f94:    60a8        .`      STR      r0,[r5,#8]
        0x00002f96:    6828        (h      LDR      r0,[r5,#0]
        0x00002f98:    43b0        .C      BICS     r0,r0,r6
        0x00002f9a:    3008        .0      ADDS     r0,r0,#8
        0x00002f9c:    6028        (`      STR      r0,[r5,#0]
        0x00002f9e:    6828        (h      LDR      r0,[r5,#0]
        0x00002fa0:    0700        ..      LSLS     r0,r0,#28
        0x00002fa2:    d5fc        ..      BPL      0x2f9e ; I2C_ReadByte + 108
        0x00002fa4:    68e8        .h      LDR      r0,[r5,#0xc]
        0x00002fa6:    2828        ((      CMP      r0,#0x28
        0x00002fa8:    d001        ..      BEQ      0x2fae ; I2C_ReadByte + 124
        0x00002faa:    2403        .$      MOVS     r4,#3
        0x00002fac:    e7e0        ..      B        0x2f70 ; I2C_ReadByte + 62
        0x00002fae:    6828        (h      LDR      r0,[r5,#0]
        0x00002fb0:    43b0        .C      BICS     r0,r0,r6
        0x00002fb2:    3028        (0      ADDS     r0,r0,#0x28
        0x00002fb4:    6028        (`      STR      r0,[r5,#0]
        0x00002fb6:    6828        (h      LDR      r0,[r5,#0]
        0x00002fb8:    0700        ..      LSLS     r0,r0,#28
        0x00002fba:    d5fc        ..      BPL      0x2fb6 ; I2C_ReadByte + 132
        0x00002fbc:    68e8        .h      LDR      r0,[r5,#0xc]
        0x00002fbe:    2810        .(      CMP      r0,#0x10
        0x00002fc0:    d001        ..      BEQ      0x2fc6 ; I2C_ReadByte + 148
        0x00002fc2:    2404        .$      MOVS     r4,#4
        0x00002fc4:    e7d4        ..      B        0x2f70 ; I2C_ReadByte + 62
        0x00002fc6:    4638        8F      MOV      r0,r7
        0x00002fc8:    2101        .!      MOVS     r1,#1
        0x00002fca:    4308        .C      ORRS     r0,r0,r1
        0x00002fcc:    60a8        .`      STR      r0,[r5,#8]
        0x00002fce:    6828        (h      LDR      r0,[r5,#0]
        0x00002fd0:    43b0        .C      BICS     r0,r0,r6
        0x00002fd2:    3008        .0      ADDS     r0,r0,#8
        0x00002fd4:    6028        (`      STR      r0,[r5,#0]
        0x00002fd6:    6828        (h      LDR      r0,[r5,#0]
        0x00002fd8:    0700        ..      LSLS     r0,r0,#28
        0x00002fda:    d5fc        ..      BPL      0x2fd6 ; I2C_ReadByte + 164
        0x00002fdc:    68e8        .h      LDR      r0,[r5,#0xc]
        0x00002fde:    2840        @(      CMP      r0,#0x40
        0x00002fe0:    d001        ..      BEQ      0x2fe6 ; I2C_ReadByte + 180
        0x00002fe2:    2405        .$      MOVS     r4,#5
        0x00002fe4:    e7c4        ..      B        0x2f70 ; I2C_ReadByte + 62
        0x00002fe6:    6828        (h      LDR      r0,[r5,#0]
        0x00002fe8:    43b0        .C      BICS     r0,r0,r6
        0x00002fea:    3008        .0      ADDS     r0,r0,#8
        0x00002fec:    6028        (`      STR      r0,[r5,#0]
        0x00002fee:    6828        (h      LDR      r0,[r5,#0]
        0x00002ff0:    0700        ..      LSLS     r0,r0,#28
        0x00002ff2:    d5fc        ..      BPL      0x2fee ; I2C_ReadByte + 188
        0x00002ff4:    68a8        .h      LDR      r0,[r5,#8]
        0x00002ff6:    b2c0        ..      UXTB     r0,r0
        0x00002ff8:    9000        ..      STR      r0,[sp,#0]
        0x00002ffa:    68e8        .h      LDR      r0,[r5,#0xc]
        0x00002ffc:    2858        X(      CMP      r0,#0x58
        0x00002ffe:    d001        ..      BEQ      0x3004 ; I2C_ReadByte + 210
        0x00003000:    2406        .$      MOVS     r4,#6
        0x00003002:    e7b5        ..      B        0x2f70 ; I2C_ReadByte + 62
        0x00003004:    6828        (h      LDR      r0,[r5,#0]
        0x00003006:    43b0        .C      BICS     r0,r0,r6
        0x00003008:    3018        .0      ADDS     r0,r0,#0x18
        0x0000300a:    6028        (`      STR      r0,[r5,#0]
        0x0000300c:    2c00        .,      CMP      r4,#0
        0x0000300e:    d1af        ..      BNE      0x2f70 ; I2C_ReadByte + 62
        0x00003010:    e7bc        ..      B        0x2f8c ; I2C_ReadByte + 90
    I2C_SequentialRead
        0x00003012:    b5ff        ..      PUSH     {r0-r7,lr}
        0x00003014:    4f37        7O      LDR      r7,[pc,#220] ; [0x30f4] = 0x40020000
        0x00003016:    b081        ..      SUB      sp,sp,#4
        0x00003018:    4616        .F      MOV      r6,r2
        0x0000301a:    253c        <%      MOVS     r5,#0x3c
        0x0000301c:    6838        8h      LDR      r0,[r7,#0]
        0x0000301e:    2400        .$      MOVS     r4,#0
        0x00003020:    43a8        .C      BICS     r0,r0,r5
        0x00003022:    3028        (0      ADDS     r0,r0,#0x28
        0x00003024:    6038        8`      STR      r0,[r7,#0]
        0x00003026:    6838        8h      LDR      r0,[r7,#0]
        0x00003028:    0700        ..      LSLS     r0,r0,#28
        0x0000302a:    d5fc        ..      BPL      0x3026 ; I2C_SequentialRead + 20
        0x0000302c:    9801        ..      LDR      r0,[sp,#4]
        0x0000302e:    60b8        .`      STR      r0,[r7,#8]
        0x00003030:    6838        8h      LDR      r0,[r7,#0]
        0x00003032:    43a8        .C      BICS     r0,r0,r5
        0x00003034:    3008        .0      ADDS     r0,r0,#8
        0x00003036:    6038        8`      STR      r0,[r7,#0]
        0x00003038:    6838        8h      LDR      r0,[r7,#0]
        0x0000303a:    0700        ..      LSLS     r0,r0,#28
        0x0000303c:    d5fc        ..      BPL      0x3038 ; I2C_SequentialRead + 38
        0x0000303e:    68f8        .h      LDR      r0,[r7,#0xc]
        0x00003040:    2818        .(      CMP      r0,#0x18
        0x00003042:    d00c        ..      BEQ      0x305e ; I2C_SequentialRead + 76
        0x00003044:    2401        .$      MOVS     r4,#1
        0x00003046:    6838        8h      LDR      r0,[r7,#0]
        0x00003048:    43a8        .C      BICS     r0,r0,r5
        0x0000304a:    3018        .0      ADDS     r0,r0,#0x18
        0x0000304c:    6038        8`      STR      r0,[r7,#0]
        0x0000304e:    2064        d       MOVS     r0,#0x64
        0x00003050:    f000fd82    ....    BL       CLK_SysTickDelay ; 0x3b58
        0x00003054:    2c00        .,      CMP      r4,#0
        0x00003056:    d1e1        ..      BNE      0x301c ; I2C_SequentialRead + 10
        0x00003058:    9804        ..      LDR      r0,[sp,#0x10]
        0x0000305a:    b005        ..      ADD      sp,sp,#0x14
        0x0000305c:    bdf0        ..      POP      {r4-r7,pc}
        0x0000305e:    9802        ..      LDR      r0,[sp,#8]
        0x00003060:    b2c0        ..      UXTB     r0,r0
        0x00003062:    60b8        .`      STR      r0,[r7,#8]
        0x00003064:    6838        8h      LDR      r0,[r7,#0]
        0x00003066:    43a8        .C      BICS     r0,r0,r5
        0x00003068:    3008        .0      ADDS     r0,r0,#8
        0x0000306a:    6038        8`      STR      r0,[r7,#0]
        0x0000306c:    6838        8h      LDR      r0,[r7,#0]
        0x0000306e:    0700        ..      LSLS     r0,r0,#28
        0x00003070:    d5fc        ..      BPL      0x306c ; I2C_SequentialRead + 90
        0x00003072:    68f8        .h      LDR      r0,[r7,#0xc]
        0x00003074:    2828        ((      CMP      r0,#0x28
        0x00003076:    d001        ..      BEQ      0x307c ; I2C_SequentialRead + 106
        0x00003078:    2403        .$      MOVS     r4,#3
        0x0000307a:    e7e4        ..      B        0x3046 ; I2C_SequentialRead + 52
        0x0000307c:    6838        8h      LDR      r0,[r7,#0]
        0x0000307e:    43a8        .C      BICS     r0,r0,r5
        0x00003080:    3028        (0      ADDS     r0,r0,#0x28
        0x00003082:    6038        8`      STR      r0,[r7,#0]
        0x00003084:    6838        8h      LDR      r0,[r7,#0]
        0x00003086:    0700        ..      LSLS     r0,r0,#28
        0x00003088:    d5fc        ..      BPL      0x3084 ; I2C_SequentialRead + 114
        0x0000308a:    68f8        .h      LDR      r0,[r7,#0xc]
        0x0000308c:    2810        .(      CMP      r0,#0x10
        0x0000308e:    d001        ..      BEQ      0x3094 ; I2C_SequentialRead + 130
        0x00003090:    2404        .$      MOVS     r4,#4
        0x00003092:    e7d8        ..      B        0x3046 ; I2C_SequentialRead + 52
        0x00003094:    9801        ..      LDR      r0,[sp,#4]
        0x00003096:    2101        .!      MOVS     r1,#1
        0x00003098:    4308        .C      ORRS     r0,r0,r1
        0x0000309a:    60b8        .`      STR      r0,[r7,#8]
        0x0000309c:    6838        8h      LDR      r0,[r7,#0]
        0x0000309e:    43a8        .C      BICS     r0,r0,r5
        0x000030a0:    3008        .0      ADDS     r0,r0,#8
        0x000030a2:    6038        8`      STR      r0,[r7,#0]
        0x000030a4:    6838        8h      LDR      r0,[r7,#0]
        0x000030a6:    0700        ..      LSLS     r0,r0,#28
        0x000030a8:    d5fc        ..      BPL      0x30a4 ; I2C_SequentialRead + 146
        0x000030aa:    68f8        .h      LDR      r0,[r7,#0xc]
        0x000030ac:    2840        @(      CMP      r0,#0x40
        0x000030ae:    d001        ..      BEQ      0x30b4 ; I2C_SequentialRead + 162
        0x000030b0:    2405        .$      MOVS     r4,#5
        0x000030b2:    e7c8        ..      B        0x3046 ; I2C_SequentialRead + 52
        0x000030b4:    9a04        ..      LDR      r2,[sp,#0x10]
        0x000030b6:    2000        .       MOVS     r0,#0
        0x000030b8:    1e52        R.      SUBS     r2,r2,#1
        0x000030ba:    e008        ..      B        0x30ce ; I2C_SequentialRead + 188
        0x000030bc:    43a9        .C      BICS     r1,r1,r5
        0x000030be:    310c        .1      ADDS     r1,r1,#0xc
        0x000030c0:    6039        9`      STR      r1,[r7,#0]
        0x000030c2:    6839        9h      LDR      r1,[r7,#0]
        0x000030c4:    0709        ..      LSLS     r1,r1,#28
        0x000030c6:    d5fc        ..      BPL      0x30c2 ; I2C_SequentialRead + 176
        0x000030c8:    68b9        .h      LDR      r1,[r7,#8]
        0x000030ca:    5431        1T      STRB     r1,[r6,r0]
        0x000030cc:    1c40        @.      ADDS     r0,r0,#1
        0x000030ce:    6839        9h      LDR      r1,[r7,#0]
        0x000030d0:    4290        .B      CMP      r0,r2
        0x000030d2:    d3f3        ..      BCC      0x30bc ; I2C_SequentialRead + 170
        0x000030d4:    43a9        .C      BICS     r1,r1,r5
        0x000030d6:    3108        .1      ADDS     r1,r1,#8
        0x000030d8:    6039        9`      STR      r1,[r7,#0]
        0x000030da:    6839        9h      LDR      r1,[r7,#0]
        0x000030dc:    0709        ..      LSLS     r1,r1,#28
        0x000030de:    d5fc        ..      BPL      0x30da ; I2C_SequentialRead + 200
        0x000030e0:    68b9        .h      LDR      r1,[r7,#8]
        0x000030e2:    5431        1T      STRB     r1,[r6,r0]
        0x000030e4:    6838        8h      LDR      r0,[r7,#0]
        0x000030e6:    43a8        .C      BICS     r0,r0,r5
        0x000030e8:    3018        .0      ADDS     r0,r0,#0x18
        0x000030ea:    6038        8`      STR      r0,[r7,#0]
        0x000030ec:    2c00        .,      CMP      r4,#0
        0x000030ee:    d1aa        ..      BNE      0x3046 ; I2C_SequentialRead + 52
        0x000030f0:    e7b2        ..      B        0x3058 ; I2C_SequentialRead + 70
    $d
        0x000030f2:    0000        ..      DCW    0
        0x000030f4:    40020000    ...@    DCD    1073872896
        0x000030f8:    6f727245    Erro    DCD    1869771333
        0x000030fc:    25203a72    r: %    DCD    622869106
        0x00003100:    20aca364    d..     DCD    548184932
        0x00003104:    20433249    I2C     DCD    541274697
        0x00003108:    74617473    stat    DCD    1952543859
        0x0000310c:    203a7375    us:     DCD    540701557
        0x00003110:    000a5825    %X..    DCD    677925
        0x00003114:    40010000    ...@    DCD    1073807360
    $t
    .text
    uart_console_init
        0x00003118:    b510        ..      PUSH     {r4,lr}
        0x0000311a:    4604        .F      MOV      r4,r0
        0x0000311c:    f000ff76    ..v.    BL       UART_Open ; 0x400c
        0x00003120:    6860        `h      LDR      r0,[r4,#4]
        0x00003122:    2111        .!      MOVS     r1,#0x11
        0x00003124:    4308        .C      ORRS     r0,r0,r1
        0x00003126:    6060        ``      STR      r0,[r4,#4]
        0x00003128:    49fb        .I      LDR      r1,[pc,#1004] ; [0x3518] = 0x40050000
        0x0000312a:    48fc        .H      LDR      r0,[pc,#1008] ; [0x351c] = 0xe000e100
        0x0000312c:    428c        .B      CMP      r4,r1
        0x0000312e:    d102        ..      BNE      0x3136 ; uart_console_init + 30
        0x00003130:    2101        .!      MOVS     r1,#1
        0x00003132:    0309        ..      LSLS     r1,r1,#12
        0x00003134:    e001        ..      B        0x313a ; uart_console_init + 34
        0x00003136:    2101        .!      MOVS     r1,#1
        0x00003138:    0349        I.      LSLS     r1,r1,#13
        0x0000313a:    6001        .`      STR      r1,[r0,#0]
        0x0000313c:    bd10        ..      POP      {r4,pc}
    get_float
        0x0000313e:    b5f8        ..      PUSH     {r3-r7,lr}
        0x00003140:    2500        .%      MOVS     r5,#0
        0x00003142:    4604        .F      MOV      r4,r0
        0x00003144:    4ef6        .N      LDR      r6,[pc,#984] ; [0x3520] = 0x3dcccccd
        0x00003146:    9500        ..      STR      r5,[sp,#0]
        0x00003148:    e02e        ..      B        0x31a8 ; get_float + 106
        0x0000314a:    282e        .(      CMP      r0,#0x2e
        0x0000314c:    d104        ..      BNE      0x3158 ; get_float + 26
        0x0000314e:    2001        .       MOVS     r0,#1
        0x00003150:    1c64        d.      ADDS     r4,r4,#1
        0x00003152:    b2a4        ..      UXTH     r4,r4
        0x00003154:    9000        ..      STR      r0,[sp,#0]
        0x00003156:    5d08        .]      LDRB     r0,[r1,r4]
        0x00003158:    3830        08      SUBS     r0,r0,#0x30
        0x0000315a:    b2c7        ..      UXTB     r7,r0
        0x0000315c:    9800        ..      LDR      r0,[sp,#0]
        0x0000315e:    2800        .(      CMP      r0,#0
        0x00003160:    d014        ..      BEQ      0x318c ; get_float + 78
        0x00003162:    4638        8F      MOV      r0,r7
        0x00003164:    f001fde5    ....    BL       __aeabi_ui2f ; 0x4d32
        0x00003168:    4631        1F      MOV      r1,r6
        0x0000316a:    f001fbbe    ....    BL       __aeabi_fmul ; 0x48ea
        0x0000316e:    4629        )F      MOV      r1,r5
        0x00003170:    f001fb62    ..b.    BL       __aeabi_fadd ; 0x4838
        0x00003174:    4605        .F      MOV      r5,r0
        0x00003176:    4630        0F      MOV      r0,r6
        0x00003178:    f001fe0f    ....    BL       __aeabi_f2d ; 0x4d9a
        0x0000317c:    4ae9        .J      LDR      r2,[pc,#932] ; [0x3524] = 0x9999999a
        0x0000317e:    4bea        .K      LDR      r3,[pc,#936] ; [0x3528] = 0x3fb99999
        0x00003180:    f001fcec    ....    BL       __aeabi_dmul ; 0x4b5c
        0x00003184:    f001fe32    ..2.    BL       __aeabi_d2f ; 0x4dec
        0x00003188:    4606        .F      MOV      r6,r0
        0x0000318a:    e00b        ..      B        0x31a4 ; get_float + 102
        0x0000318c:    49e7        .I      LDR      r1,[pc,#924] ; [0x352c] = 0x41200000
        0x0000318e:    4628        (F      MOV      r0,r5
        0x00003190:    f001fbab    ....    BL       __aeabi_fmul ; 0x48ea
        0x00003194:    4605        .F      MOV      r5,r0
        0x00003196:    4638        8F      MOV      r0,r7
        0x00003198:    f001fdcb    ....    BL       __aeabi_ui2f ; 0x4d32
        0x0000319c:    4629        )F      MOV      r1,r5
        0x0000319e:    f001fb4b    ..K.    BL       __aeabi_fadd ; 0x4838
        0x000031a2:    4605        .F      MOV      r5,r0
        0x000031a4:    1c64        d.      ADDS     r4,r4,#1
        0x000031a6:    b2a4        ..      UXTH     r4,r4
        0x000031a8:    49e1        .I      LDR      r1,[pc,#900] ; [0x3530] = 0x200006d8
        0x000031aa:    5d08        .]      LDRB     r0,[r1,r4]
        0x000031ac:    4602        .F      MOV      r2,r0
        0x000031ae:    3a30        0:      SUBS     r2,r2,#0x30
        0x000031b0:    2a09        .*      CMP      r2,#9
        0x000031b2:    d9ca        ..      BLS      0x314a ; get_float + 12
        0x000031b4:    282e        .(      CMP      r0,#0x2e
        0x000031b6:    d0c8        ..      BEQ      0x314a ; get_float + 12
        0x000031b8:    4628        (F      MOV      r0,r5
        0x000031ba:    bdf8        ..      POP      {r3-r7,pc}
    console_input_handle
        0x000031bc:    b5f8        ..      PUSH     {r3-r7,lr}
        0x000031be:    4cdc        .L      LDR      r4,[pc,#880] ; [0x3530] = 0x200006d8
        0x000031c0:    7820         x      LDRB     r0,[r4,#0]
        0x000031c2:    7861        ax      LDRB     r1,[r4,#1]
        0x000031c4:    0400        ..      LSLS     r0,r0,#16
        0x000031c6:    0209        ..      LSLS     r1,r1,#8
        0x000031c8:    4308        .C      ORRS     r0,r0,r1
        0x000031ca:    78a1        .x      LDRB     r1,[r4,#2]
        0x000031cc:    4308        .C      ORRS     r0,r0,r1
        0x000031ce:    49d9        .I      LDR      r1,[pc,#868] ; [0x3534] = 0x736574
        0x000031d0:    4288        .B      CMP      r0,r1
        0x000031d2:    d112        ..      BNE      0x31fa ; console_input_handle + 62
        0x000031d4:    1d20         .      ADDS     r0,r4,#4
        0x000031d6:    f001fb25    ..%.    BL       __aeabi_uread4 ; 0x4824
        0x000031da:    ba00        ..      REV      r0,r0
        0x000031dc:    4621        !F      MOV      r1,r4
        0x000031de:    0a00        ..      LSRS     r0,r0,#8
        0x000031e0:    79c9        .y      LDRB     r1,[r1,#7]
        0x000031e2:    0200        ..      LSLS     r0,r0,#8
        0x000031e4:    4308        .C      ORRS     r0,r0,r1
        0x000031e6:    4ad4        .J      LDR      r2,[pc,#848] ; [0x3538] = 0x61687273
        0x000031e8:    4621        !F      MOV      r1,r4
        0x000031ea:    7a49        Iz      LDRB     r1,[r1,#9]
        0x000031ec:    4290        .B      CMP      r0,r2
        0x000031ee:    d121        !.      BNE      0x3234 ; console_input_handle + 120
        0x000031f0:    200b        .       MOVS     r0,#0xb
        0x000031f2:    2970        p)      CMP      r1,#0x70
        0x000031f4:    d002        ..      BEQ      0x31fc ; console_input_handle + 64
        0x000031f6:    2969        i)      CMP      r1,#0x69
        0x000031f8:    d00e        ..      BEQ      0x3218 ; console_input_handle + 92
        0x000031fa:    e341        A.      B        0x3880 ; console_input_handle + 1732
        0x000031fc:    f7ffff9f    ....    BL       get_float ; 0x313e
        0x00003200:    4604        .F      MOV      r4,r0
        0x00003202:    f001fdca    ....    BL       __aeabi_f2d ; 0x4d9a
        0x00003206:    4602        .F      MOV      r2,r0
        0x00003208:    460b        .F      MOV      r3,r1
        0x0000320a:    a0cc        ..      ADR      r0,{pc}+0x332 ; 0x353c
        0x0000320c:    f002f83c    ..<.    BL       __0printf ; 0x5288
        0x00003210:    4620         F      MOV      r0,r4
        0x00003212:    f7fffa8b    ....    BL       AHRS_set_complementary_filter_kp ; 0x272c
        0x00003216:    e343        C.      B        0x38a0 ; console_input_handle + 1764
        0x00003218:    f7ffff91    ....    BL       get_float ; 0x313e
        0x0000321c:    4604        .F      MOV      r4,r0
        0x0000321e:    f001fdbc    ....    BL       __aeabi_f2d ; 0x4d9a
        0x00003222:    4602        .F      MOV      r2,r0
        0x00003224:    460b        .F      MOV      r3,r1
        0x00003226:    a0ce        ..      ADR      r0,{pc}+0x33a ; 0x3560
        0x00003228:    f002f82e    ....    BL       __0printf ; 0x5288
        0x0000322c:    4620         F      MOV      r0,r4
        0x0000322e:    f7fffaa4    ....    BL       AHRS_set_complementary_filter_ki ; 0x277a
        0x00003232:    e335        5.      B        0x38a0 ; console_input_handle + 1764
        0x00003234:    49be        .I      LDR      r1,[pc,#760] ; [0x3530] = 0x200006d8
        0x00003236:    4bd3        .K      LDR      r3,[pc,#844] ; [0x3584] = 0xff9e9199
        0x00003238:    7a08        .z      LDRB     r0,[r1,#8]
        0x0000323a:    7a4a        Jz      LDRB     r2,[r1,#9]
        0x0000323c:    0400        ..      LSLS     r0,r0,#16
        0x0000323e:    0212        ..      LSLS     r2,r2,#8
        0x00003240:    4310        .C      ORRS     r0,r0,r2
        0x00003242:    7a8a        .z      LDRB     r2,[r1,#0xa]
        0x00003244:    7927        'y      LDRB     r7,[r4,#4]
        0x00003246:    4310        .C      ORRS     r0,r0,r2
        0x00003248:    18c0        ..      ADDS     r0,r0,r3
        0x0000324a:    7b0a        .{      LDRB     r2,[r1,#0xc]
        0x0000324c:    7b4b        K{      LDRB     r3,[r1,#0xd]
        0x0000324e:    794d        My      LDRB     r5,[r1,#5]
        0x00003250:    798c        .y      LDRB     r4,[r1,#6]
        0x00003252:    0412        ..      LSLS     r2,r2,#16
        0x00003254:    021b        ..      LSLS     r3,r3,#8
        0x00003256:    7b89        .{      LDRB     r1,[r1,#0xe]
        0x00003258:    431a        .C      ORRS     r2,r2,r3
        0x0000325a:    430a        .C      ORRS     r2,r2,r1
        0x0000325c:    49cb        .I      LDR      r1,[pc,#812] ; [0x358c] = 0xff8f8b98
        0x0000325e:    4eca        .N      LDR      r6,[pc,#808] ; [0x3588] = 0xffef0cf3
        0x00003260:    1852        R.      ADDS     r2,r2,r1
        0x00003262:    49cb        .I      LDR      r1,[pc,#812] ; [0x3590] = 0xfffe07fc
        0x00003264:    4bcb        .K      LDR      r3,[pc,#812] ; [0x3594] = 0xfff90af5
        0x00003266:    1851        Q.      ADDS     r1,r2,r1
        0x00003268:    1986        ..      ADDS     r6,r0,r6
        0x0000326a:    18cb        ..      ADDS     r3,r1,r3
        0x0000326c:    2f70        p/      CMP      r7,#0x70
        0x0000326e:    d004        ..      BEQ      0x327a ; console_input_handle + 190
        0x00003270:    2f61        a/      CMP      r7,#0x61
        0x00003272:    d06e        n.      BEQ      0x3352 ; console_input_handle + 406
        0x00003274:    2f74        t/      CMP      r7,#0x74
        0x00003276:    d06d        m.      BEQ      0x3354 ; console_input_handle + 408
        0x00003278:    e302        ..      B        0x3880 ; console_input_handle + 1732
        0x0000327a:    2d69        i-      CMP      r5,#0x69
        0x0000327c:    d1bd        ..      BNE      0x31fa ; console_input_handle + 62
        0x0000327e:    2c64        d,      CMP      r4,#0x64
        0x00003280:    d1bb        ..      BNE      0x31fa ; console_input_handle + 62
        0x00003282:    4cab        .L      LDR      r4,[pc,#684] ; [0x3530] = 0x200006d8
        0x00003284:    2712        .'      MOVS     r7,#0x12
        0x00003286:    7c25        %|      LDRB     r5,[r4,#0x10]
        0x00003288:    2800        .(      CMP      r0,#0
        0x0000328a:    d002        ..      BEQ      0x3292 ; console_input_handle + 214
        0x0000328c:    2e00        ..      CMP      r6,#0
        0x0000328e:    d1b4        ..      BNE      0x31fa ; console_input_handle + 62
        0x00003290:    e0b5        ..      B        0x33fe ; console_input_handle + 578
        0x00003292:    4cc1        .L      LDR      r4,[pc,#772] ; [0x3598] = 0x20000200
        0x00003294:    2a00        .*      CMP      r2,#0
        0x00003296:    d046        F.      BEQ      0x3326 ; console_input_handle + 362
        0x00003298:    2900        .)      CMP      r1,#0
        0x0000329a:    d002        ..      BEQ      0x32a2 ; console_input_handle + 230
        0x0000329c:    2b00        .+      CMP      r3,#0
        0x0000329e:    d1ac        ..      BNE      0x31fa ; console_input_handle + 62
        0x000032a0:    e077        w.      B        0x3392 ; console_input_handle + 470
        0x000032a2:    4ebd        .N      LDR      r6,[pc,#756] ; [0x3598] = 0x20000200
        0x000032a4:    3e30        0>      SUBS     r6,r6,#0x30
        0x000032a6:    2d70        p-      CMP      r5,#0x70
        0x000032a8:    d004        ..      BEQ      0x32b4 ; console_input_handle + 248
        0x000032aa:    2d69        i-      CMP      r5,#0x69
        0x000032ac:    d015        ..      BEQ      0x32da ; console_input_handle + 286
        0x000032ae:    2d64        d-      CMP      r5,#0x64
        0x000032b0:    d026        &.      BEQ      0x3300 ; console_input_handle + 324
        0x000032b2:    e2e5        ..      B        0x3880 ; console_input_handle + 1732
        0x000032b4:    4638        8F      MOV      r0,r7
        0x000032b6:    f7ffff42    ..B.    BL       get_float ; 0x313e
        0x000032ba:    4605        .F      MOV      r5,r0
        0x000032bc:    4601        .F      MOV      r1,r0
        0x000032be:    4630        0F      MOV      r0,r6
        0x000032c0:    f7fef94b    ..K.    BL       set_pid_param_p ; 0x155a
        0x000032c4:    4629        )F      MOV      r1,r5
        0x000032c6:    4620         F      MOV      r0,r4
        0x000032c8:    f7fef947    ..G.    BL       set_pid_param_p ; 0x155a
        0x000032cc:    4628        (F      MOV      r0,r5
        0x000032ce:    f001fd64    ..d.    BL       __aeabi_f2d ; 0x4d9a
        0x000032d2:    4602        .F      MOV      r2,r0
        0x000032d4:    460b        .F      MOV      r3,r1
        0x000032d6:    a0b1        ..      ADR      r0,{pc}+0x2c6 ; 0x359c
        0x000032d8:    e2e0        ..      B        0x389c ; console_input_handle + 1760
        0x000032da:    4638        8F      MOV      r0,r7
        0x000032dc:    f7ffff2f    ../.    BL       get_float ; 0x313e
        0x000032e0:    4605        .F      MOV      r5,r0
        0x000032e2:    4601        .F      MOV      r1,r0
        0x000032e4:    4630        0F      MOV      r0,r6
        0x000032e6:    f7fef93a    ..:.    BL       set_pid_param_i ; 0x155e
        0x000032ea:    4629        )F      MOV      r1,r5
        0x000032ec:    4620         F      MOV      r0,r4
        0x000032ee:    f7fef936    ..6.    BL       set_pid_param_i ; 0x155e
        0x000032f2:    4628        (F      MOV      r0,r5
        0x000032f4:    f001fd51    ..Q.    BL       __aeabi_f2d ; 0x4d9a
        0x000032f8:    4602        .F      MOV      r2,r0
        0x000032fa:    460b        .F      MOV      r3,r1
        0x000032fc:    a0af        ..      ADR      r0,{pc}+0x2c0 ; 0x35bc
        0x000032fe:    e2cd        ..      B        0x389c ; console_input_handle + 1760
        0x00003300:    4638        8F      MOV      r0,r7
        0x00003302:    f7ffff1c    ....    BL       get_float ; 0x313e
        0x00003306:    4605        .F      MOV      r5,r0
        0x00003308:    4601        .F      MOV      r1,r0
        0x0000330a:    4630        0F      MOV      r0,r6
        0x0000330c:    f7fef92b    ..+.    BL       set_pid_param_d ; 0x1566
        0x00003310:    4629        )F      MOV      r1,r5
        0x00003312:    4620         F      MOV      r0,r4
        0x00003314:    f7fef927    ..'.    BL       set_pid_param_d ; 0x1566
        0x00003318:    4628        (F      MOV      r0,r5
        0x0000331a:    f001fd3e    ..>.    BL       __aeabi_f2d ; 0x4d9a
        0x0000331e:    4602        .F      MOV      r2,r0
        0x00003320:    460b        .F      MOV      r3,r1
        0x00003322:    a0ae        ..      ADR      r0,{pc}+0x2ba ; 0x35dc
        0x00003324:    e2ba        ..      B        0x389c ; console_input_handle + 1760
        0x00003326:    2d70        p-      CMP      r5,#0x70
        0x00003328:    d004        ..      BEQ      0x3334 ; console_input_handle + 376
        0x0000332a:    2d69        i-      CMP      r5,#0x69
        0x0000332c:    d013        ..      BEQ      0x3356 ; console_input_handle + 410
        0x0000332e:    2d64        d-      CMP      r5,#0x64
        0x00003330:    d020         .      BEQ      0x3374 ; console_input_handle + 440
        0x00003332:    e2a5        ..      B        0x3880 ; console_input_handle + 1732
        0x00003334:    4638        8F      MOV      r0,r7
        0x00003336:    f7ffff02    ....    BL       get_float ; 0x313e
        0x0000333a:    4605        .F      MOV      r5,r0
        0x0000333c:    4601        .F      MOV      r1,r0
        0x0000333e:    4620         F      MOV      r0,r4
        0x00003340:    f7fef90b    ....    BL       set_pid_param_p ; 0x155a
        0x00003344:    4628        (F      MOV      r0,r5
        0x00003346:    f001fd28    ..(.    BL       __aeabi_f2d ; 0x4d9a
        0x0000334a:    4602        .F      MOV      r2,r0
        0x0000334c:    460b        .F      MOV      r3,r1
        0x0000334e:    a0ab        ..      ADR      r0,{pc}+0x2ae ; 0x35fc
        0x00003350:    e2a4        ..      B        0x389c ; console_input_handle + 1760
        0x00003352:    e240        @.      B        0x37d6 ; console_input_handle + 1562
        0x00003354:    e290        ..      B        0x3878 ; console_input_handle + 1724
        0x00003356:    4638        8F      MOV      r0,r7
        0x00003358:    f7fffef1    ....    BL       get_float ; 0x313e
        0x0000335c:    4605        .F      MOV      r5,r0
        0x0000335e:    4601        .F      MOV      r1,r0
        0x00003360:    4620         F      MOV      r0,r4
        0x00003362:    f7fef8fc    ....    BL       set_pid_param_i ; 0x155e
        0x00003366:    4628        (F      MOV      r0,r5
        0x00003368:    f001fd17    ....    BL       __aeabi_f2d ; 0x4d9a
        0x0000336c:    4602        .F      MOV      r2,r0
        0x0000336e:    460b        .F      MOV      r3,r1
        0x00003370:    a0aa        ..      ADR      r0,{pc}+0x2ac ; 0x361c
        0x00003372:    e293        ..      B        0x389c ; console_input_handle + 1760
        0x00003374:    4638        8F      MOV      r0,r7
        0x00003376:    f7fffee2    ....    BL       get_float ; 0x313e
        0x0000337a:    4605        .F      MOV      r5,r0
        0x0000337c:    4601        .F      MOV      r1,r0
        0x0000337e:    4620         F      MOV      r0,r4
        0x00003380:    f7fef8f1    ....    BL       set_pid_param_d ; 0x1566
        0x00003384:    4628        (F      MOV      r0,r5
        0x00003386:    f001fd08    ....    BL       __aeabi_f2d ; 0x4d9a
        0x0000338a:    4602        .F      MOV      r2,r0
        0x0000338c:    460b        .F      MOV      r3,r1
        0x0000338e:    a0ab        ..      ADR      r0,{pc}+0x2ae ; 0x363c
        0x00003390:    e284        ..      B        0x389c ; console_input_handle + 1760
        0x00003392:    4c81        .L      LDR      r4,[pc,#516] ; [0x3598] = 0x20000200
        0x00003394:    3430        04      ADDS     r4,r4,#0x30
        0x00003396:    2d70        p-      CMP      r5,#0x70
        0x00003398:    d004        ..      BEQ      0x33a4 ; console_input_handle + 488
        0x0000339a:    2d69        i-      CMP      r5,#0x69
        0x0000339c:    d011        ..      BEQ      0x33c2 ; console_input_handle + 518
        0x0000339e:    2d64        d-      CMP      r5,#0x64
        0x000033a0:    d01e        ..      BEQ      0x33e0 ; console_input_handle + 548
        0x000033a2:    e26d        m.      B        0x3880 ; console_input_handle + 1732
        0x000033a4:    4638        8F      MOV      r0,r7
        0x000033a6:    f7fffeca    ....    BL       get_float ; 0x313e
        0x000033aa:    4605        .F      MOV      r5,r0
        0x000033ac:    4601        .F      MOV      r1,r0
        0x000033ae:    4620         F      MOV      r0,r4
        0x000033b0:    f7fef8d3    ....    BL       set_pid_param_p ; 0x155a
        0x000033b4:    4628        (F      MOV      r0,r5
        0x000033b6:    f001fcf0    ....    BL       __aeabi_f2d ; 0x4d9a
        0x000033ba:    4602        .F      MOV      r2,r0
        0x000033bc:    460b        .F      MOV      r3,r1
        0x000033be:    a0a7        ..      ADR      r0,{pc}+0x29e ; 0x365c
        0x000033c0:    e26c        l.      B        0x389c ; console_input_handle + 1760
        0x000033c2:    4638        8F      MOV      r0,r7
        0x000033c4:    f7fffebb    ....    BL       get_float ; 0x313e
        0x000033c8:    4605        .F      MOV      r5,r0
        0x000033ca:    4601        .F      MOV      r1,r0
        0x000033cc:    4620         F      MOV      r0,r4
        0x000033ce:    f7fef8c6    ....    BL       set_pid_param_i ; 0x155e
        0x000033d2:    4628        (F      MOV      r0,r5
        0x000033d4:    f001fce1    ....    BL       __aeabi_f2d ; 0x4d9a
        0x000033d8:    4602        .F      MOV      r2,r0
        0x000033da:    460b        .F      MOV      r3,r1
        0x000033dc:    a0a7        ..      ADR      r0,{pc}+0x2a0 ; 0x367c
        0x000033de:    e25d        ].      B        0x389c ; console_input_handle + 1760
        0x000033e0:    4638        8F      MOV      r0,r7
        0x000033e2:    f7fffeac    ....    BL       get_float ; 0x313e
        0x000033e6:    4605        .F      MOV      r5,r0
        0x000033e8:    4601        .F      MOV      r1,r0
        0x000033ea:    4620         F      MOV      r0,r4
        0x000033ec:    f7fef8bb    ....    BL       set_pid_param_d ; 0x1566
        0x000033f0:    4628        (F      MOV      r0,r5
        0x000033f2:    f001fcd2    ....    BL       __aeabi_f2d ; 0x4d9a
        0x000033f6:    4602        .F      MOV      r2,r0
        0x000033f8:    460b        .F      MOV      r3,r1
        0x000033fa:    a0a8        ..      ADR      r0,{pc}+0x2a2 ; 0x369c
        0x000033fc:    e24e        N.      B        0x389c ; console_input_handle + 1760
        0x000033fe:    4c66        fL      LDR      r4,[pc,#408] ; [0x3598] = 0x20000200
        0x00003400:    3c90        .<      SUBS     r4,r4,#0x90
        0x00003402:    2a00        .*      CMP      r2,#0
        0x00003404:    d047        G.      BEQ      0x3496 ; console_input_handle + 730
        0x00003406:    2900        .)      CMP      r1,#0
        0x00003408:    d002        ..      BEQ      0x3410 ; console_input_handle + 596
        0x0000340a:    2b00        .+      CMP      r3,#0
        0x0000340c:    d191        ..      BNE      0x3332 ; console_input_handle + 374
        0x0000340e:    e076        v.      B        0x34fe ; console_input_handle + 834
        0x00003410:    2d70        p-      CMP      r5,#0x70
        0x00003412:    d004        ..      BEQ      0x341e ; console_input_handle + 610
        0x00003414:    2d69        i-      CMP      r5,#0x69
        0x00003416:    d016        ..      BEQ      0x3446 ; console_input_handle + 650
        0x00003418:    2d64        d-      CMP      r5,#0x64
        0x0000341a:    d028        (.      BEQ      0x346e ; console_input_handle + 690
        0x0000341c:    e230        0.      B        0x3880 ; console_input_handle + 1732
        0x0000341e:    4638        8F      MOV      r0,r7
        0x00003420:    f7fffe8d    ....    BL       get_float ; 0x313e
        0x00003424:    4605        .F      MOV      r5,r0
        0x00003426:    4601        .F      MOV      r1,r0
        0x00003428:    485b        [H      LDR      r0,[pc,#364] ; [0x3598] = 0x20000200
        0x0000342a:    38c0        .8      SUBS     r0,r0,#0xc0
        0x0000342c:    f7fef895    ....    BL       set_pid_param_p ; 0x155a
        0x00003430:    4629        )F      MOV      r1,r5
        0x00003432:    4620         F      MOV      r0,r4
        0x00003434:    f7fef891    ....    BL       set_pid_param_p ; 0x155a
        0x00003438:    4628        (F      MOV      r0,r5
        0x0000343a:    f001fcae    ....    BL       __aeabi_f2d ; 0x4d9a
        0x0000343e:    4602        .F      MOV      r2,r0
        0x00003440:    460b        .F      MOV      r3,r1
        0x00003442:    a09e        ..      ADR      r0,{pc}+0x27a ; 0x36bc
        0x00003444:    e22a        *.      B        0x389c ; console_input_handle + 1760
        0x00003446:    4638        8F      MOV      r0,r7
        0x00003448:    f7fffe79    ..y.    BL       get_float ; 0x313e
        0x0000344c:    4605        .F      MOV      r5,r0
        0x0000344e:    4601        .F      MOV      r1,r0
        0x00003450:    4851        QH      LDR      r0,[pc,#324] ; [0x3598] = 0x20000200
        0x00003452:    38c0        .8      SUBS     r0,r0,#0xc0
        0x00003454:    f7fef883    ....    BL       set_pid_param_i ; 0x155e
        0x00003458:    4629        )F      MOV      r1,r5
        0x0000345a:    4620         F      MOV      r0,r4
        0x0000345c:    f7fef87f    ....    BL       set_pid_param_i ; 0x155e
        0x00003460:    4628        (F      MOV      r0,r5
        0x00003462:    f001fc9a    ....    BL       __aeabi_f2d ; 0x4d9a
        0x00003466:    4602        .F      MOV      r2,r0
        0x00003468:    460b        .F      MOV      r3,r1
        0x0000346a:    a09c        ..      ADR      r0,{pc}+0x272 ; 0x36dc
        0x0000346c:    e216        ..      B        0x389c ; console_input_handle + 1760
        0x0000346e:    4638        8F      MOV      r0,r7
        0x00003470:    f7fffe65    ..e.    BL       get_float ; 0x313e
        0x00003474:    4605        .F      MOV      r5,r0
        0x00003476:    4601        .F      MOV      r1,r0
        0x00003478:    4847        GH      LDR      r0,[pc,#284] ; [0x3598] = 0x20000200
        0x0000347a:    38c0        .8      SUBS     r0,r0,#0xc0
        0x0000347c:    f7fef873    ..s.    BL       set_pid_param_d ; 0x1566
        0x00003480:    4629        )F      MOV      r1,r5
        0x00003482:    4620         F      MOV      r0,r4
        0x00003484:    f7fef86f    ..o.    BL       set_pid_param_d ; 0x1566
        0x00003488:    4628        (F      MOV      r0,r5
        0x0000348a:    f001fc86    ....    BL       __aeabi_f2d ; 0x4d9a
        0x0000348e:    4602        .F      MOV      r2,r0
        0x00003490:    460b        .F      MOV      r3,r1
        0x00003492:    a09a        ..      ADR      r0,{pc}+0x26a ; 0x36fc
        0x00003494:    e202        ..      B        0x389c ; console_input_handle + 1760
        0x00003496:    2d70        p-      CMP      r5,#0x70
        0x00003498:    d004        ..      BEQ      0x34a4 ; console_input_handle + 744
        0x0000349a:    2d69        i-      CMP      r5,#0x69
        0x0000349c:    d011        ..      BEQ      0x34c2 ; console_input_handle + 774
        0x0000349e:    2d64        d-      CMP      r5,#0x64
        0x000034a0:    d01e        ..      BEQ      0x34e0 ; console_input_handle + 804
        0x000034a2:    e1ed        ..      B        0x3880 ; console_input_handle + 1732
        0x000034a4:    4638        8F      MOV      r0,r7
        0x000034a6:    f7fffe4a    ..J.    BL       get_float ; 0x313e
        0x000034aa:    4605        .F      MOV      r5,r0
        0x000034ac:    4601        .F      MOV      r1,r0
        0x000034ae:    4620         F      MOV      r0,r4
        0x000034b0:    f7fef853    ..S.    BL       set_pid_param_p ; 0x155a
        0x000034b4:    4628        (F      MOV      r0,r5
        0x000034b6:    f001fc70    ..p.    BL       __aeabi_f2d ; 0x4d9a
        0x000034ba:    4602        .F      MOV      r2,r0
        0x000034bc:    460b        .F      MOV      r3,r1
        0x000034be:    a097        ..      ADR      r0,{pc}+0x25e ; 0x371c
        0x000034c0:    e1ec        ..      B        0x389c ; console_input_handle + 1760
        0x000034c2:    4638        8F      MOV      r0,r7
        0x000034c4:    f7fffe3b    ..;.    BL       get_float ; 0x313e
        0x000034c8:    4605        .F      MOV      r5,r0
        0x000034ca:    4601        .F      MOV      r1,r0
        0x000034cc:    4620         F      MOV      r0,r4
        0x000034ce:    f7fef846    ..F.    BL       set_pid_param_i ; 0x155e
        0x000034d2:    4628        (F      MOV      r0,r5
        0x000034d4:    f001fc61    ..a.    BL       __aeabi_f2d ; 0x4d9a
        0x000034d8:    4602        .F      MOV      r2,r0
        0x000034da:    460b        .F      MOV      r3,r1
        0x000034dc:    a097        ..      ADR      r0,{pc}+0x260 ; 0x373c
        0x000034de:    e1dd        ..      B        0x389c ; console_input_handle + 1760
        0x000034e0:    4638        8F      MOV      r0,r7
        0x000034e2:    f7fffe2c    ..,.    BL       get_float ; 0x313e
        0x000034e6:    4605        .F      MOV      r5,r0
        0x000034e8:    4601        .F      MOV      r1,r0
        0x000034ea:    4620         F      MOV      r0,r4
        0x000034ec:    f7fef83b    ..;.    BL       set_pid_param_d ; 0x1566
        0x000034f0:    4628        (F      MOV      r0,r5
        0x000034f2:    f001fc52    ..R.    BL       __aeabi_f2d ; 0x4d9a
        0x000034f6:    4602        .F      MOV      r2,r0
        0x000034f8:    460b        .F      MOV      r3,r1
        0x000034fa:    a098        ..      ADR      r0,{pc}+0x262 ; 0x375c
        0x000034fc:    e1ce        ..      B        0x389c ; console_input_handle + 1760
        0x000034fe:    4c26        &L      LDR      r4,[pc,#152] ; [0x3598] = 0x20000200
        0x00003500:    3c60        `<      SUBS     r4,r4,#0x60
        0x00003502:    2d70        p-      CMP      r5,#0x70
        0x00003504:    d004        ..      BEQ      0x3510 ; console_input_handle + 852
        0x00003506:    2d69        i-      CMP      r5,#0x69
        0x00003508:    d003        ..      BEQ      0x3512 ; console_input_handle + 854
        0x0000350a:    2d64        d-      CMP      r5,#0x64
        0x0000350c:    d002        ..      BEQ      0x3514 ; console_input_handle + 856
        0x0000350e:    e1b7        ..      B        0x3880 ; console_input_handle + 1732
        0x00003510:    e134        4.      B        0x377c ; console_input_handle + 1472
        0x00003512:    e142        B.      B        0x379a ; console_input_handle + 1502
        0x00003514:    e150        P.      B        0x37b8 ; console_input_handle + 1532
    $d
        0x00003516:    0000        ..      DCW    0
        0x00003518:    40050000    ...@    DCD    1074069504
        0x0000351c:    e000e100    ....    DCD    3758153984
        0x00003520:    3dcccccd    ...=    DCD    1036831949
        0x00003524:    9999999a    ....    DCD    2576980378
        0x00003528:    3fb99999    ...?    DCD    1069128089
        0x0000352c:    41200000    .. A    DCD    1092616192
        0x00003530:    200006d8    ...     DCD    536872664
        0x00003534:    00736574    tes.    DCD    7562612
        0x00003538:    61687273    srha    DCD    1634234995
        0x0000353c:    20746573    set     DCD    544499059
        0x00003540:    73726861    ahrs    DCD    1936877665
        0x00003544:    63757320     suc    DCD    1668641568
        0x00003548:    73736563    cess    DCD    1936942435
        0x0000354c:    20200a2e    ..      DCD    538970670
        0x00003550:    20202020            DCD    538976288
        0x00003554:    706b2020      kp    DCD    1886068768
        0x00003558:    2e25203a    : %.    DCD    774185018
        0x0000355c:    000a6636    6f..    DCD    681526
        0x00003560:    20746573    set     DCD    544499059
        0x00003564:    73726861    ahrs    DCD    1936877665
        0x00003568:    63757320     suc    DCD    1668641568
        0x0000356c:    73736563    cess    DCD    1936942435
        0x00003570:    20200a2e    ..      DCD    538970670
        0x00003574:    20202020            DCD    538976288
        0x00003578:    696b2020      ki    DCD    1768628256
        0x0000357c:    2e25203a    : %.    DCD    774185018
        0x00003580:    000a6636    6f..    DCD    681526
        0x00003584:    ff9e9199    ....    DCD    4288582041
        0x00003588:    ffef0cf3    ....    DCD    4293856499
        0x0000358c:    ff8f8b98    ....    DCD    4287597464
        0x00003590:    fffe07fc    ....    DCD    4294838268
        0x00003594:    fff90af5    ....    DCD    4294511349
        0x00003598:    20000200    ...     DCD    536871424
        0x0000359c:    20746573    set     DCD    544499059
        0x000035a0:    676c6e61    anlg    DCD    1735159393
        0x000035a4:    6f6c2065    e lo    DCD    1869357157
        0x000035a8:    7220706f    op r    DCD    1914728559
        0x000035ac:    206c6c6f    oll     DCD    543976559
        0x000035b0:    203a706b    kp:     DCD    540700779
        0x000035b4:    66362e25    %.6f    DCD    1714826789
        0x000035b8:    0000000a    ....    DCD    10
        0x000035bc:    20746573    set     DCD    544499059
        0x000035c0:    676c6e61    anlg    DCD    1735159393
        0x000035c4:    6f6c2065    e lo    DCD    1869357157
        0x000035c8:    7220706f    op r    DCD    1914728559
        0x000035cc:    206c6c6f    oll     DCD    543976559
        0x000035d0:    203a696b    ki:     DCD    540698987
        0x000035d4:    66362e25    %.6f    DCD    1714826789
        0x000035d8:    0000000a    ....    DCD    10
        0x000035dc:    20746573    set     DCD    544499059
        0x000035e0:    676c6e61    anlg    DCD    1735159393
        0x000035e4:    6f6c2065    e lo    DCD    1869357157
        0x000035e8:    7220706f    op r    DCD    1914728559
        0x000035ec:    206c6c6f    oll     DCD    543976559
        0x000035f0:    203a646b    kd:     DCD    540697707
        0x000035f4:    66362e25    %.6f    DCD    1714826789
        0x000035f8:    0000000a    ....    DCD    10
        0x000035fc:    20746573    set     DCD    544499059
        0x00003600:    676c6e61    anlg    DCD    1735159393
        0x00003604:    6f6c2065    e lo    DCD    1869357157
        0x00003608:    7020706f    op p    DCD    1881174127
        0x0000360c:    68637469    itch    DCD    1751348329
        0x00003610:    3a706b20     kp:    DCD    980445984
        0x00003614:    362e2520     %.6    DCD    908993824
        0x00003618:    00000a66    f...    DCD    2662
        0x0000361c:    20746573    set     DCD    544499059
        0x00003620:    676c6e61    anlg    DCD    1735159393
        0x00003624:    6f6c2065    e lo    DCD    1869357157
        0x00003628:    7020706f    op p    DCD    1881174127
        0x0000362c:    68637469    itch    DCD    1751348329
        0x00003630:    3a696b20     ki:    DCD    979987232
        0x00003634:    362e2520     %.6    DCD    908993824
        0x00003638:    00000a66    f...    DCD    2662
        0x0000363c:    20746573    set     DCD    544499059
        0x00003640:    676c6e61    anlg    DCD    1735159393
        0x00003644:    6f6c2065    e lo    DCD    1869357157
        0x00003648:    7020706f    op p    DCD    1881174127
        0x0000364c:    68637469    itch    DCD    1751348329
        0x00003650:    3a646b20     kd:    DCD    979659552
        0x00003654:    362e2520     %.6    DCD    908993824
        0x00003658:    00000a66    f...    DCD    2662
        0x0000365c:    20746573    set     DCD    544499059
        0x00003660:    676c6e61    anlg    DCD    1735159393
        0x00003664:    6f6c2065    e lo    DCD    1869357157
        0x00003668:    7920706f    op y    DCD    2032169071
        0x0000366c:    6b207761    aw k    DCD    1797289825
        0x00003670:    25203a70    p: %    DCD    622869104
        0x00003674:    0a66362e    .6f.    DCD    174470702
        0x00003678:    00000000    ....    DCD    0
        0x0000367c:    20746573    set     DCD    544499059
        0x00003680:    676c6e61    anlg    DCD    1735159393
        0x00003684:    6f6c2065    e lo    DCD    1869357157
        0x00003688:    7920706f    op y    DCD    2032169071
        0x0000368c:    6b207761    aw k    DCD    1797289825
        0x00003690:    25203a69    i: %    DCD    622869097
        0x00003694:    0a66362e    .6f.    DCD    174470702
        0x00003698:    00000000    ....    DCD    0
        0x0000369c:    20746573    set     DCD    544499059
        0x000036a0:    676c6e61    anlg    DCD    1735159393
        0x000036a4:    6f6c2065    e lo    DCD    1869357157
        0x000036a8:    7920706f    op y    DCD    2032169071
        0x000036ac:    6b207761    aw k    DCD    1797289825
        0x000036b0:    25203a64    d: %    DCD    622869092
        0x000036b4:    0a66362e    .6f.    DCD    174470702
        0x000036b8:    00000000    ....    DCD    0
        0x000036bc:    20746573    set     DCD    544499059
        0x000036c0:    65746172    rate    DCD    1702125938
        0x000036c4:    6f6f6c20     loo    DCD    1869573152
        0x000036c8:    6f722070    p ro    DCD    1869750384
        0x000036cc:    6b206c6c    ll k    DCD    1797287020
        0x000036d0:    25203a70    p: %    DCD    622869104
        0x000036d4:    0a66362e    .6f.    DCD    174470702
        0x000036d8:    00000000    ....    DCD    0
        0x000036dc:    20746573    set     DCD    544499059
        0x000036e0:    65746172    rate    DCD    1702125938
        0x000036e4:    6f6f6c20     loo    DCD    1869573152
        0x000036e8:    6f722070    p ro    DCD    1869750384
        0x000036ec:    6b206c6c    ll k    DCD    1797287020
        0x000036f0:    25203a69    i: %    DCD    622869097
        0x000036f4:    0a66362e    .6f.    DCD    174470702
        0x000036f8:    00000000    ....    DCD    0
        0x000036fc:    20746573    set     DCD    544499059
        0x00003700:    65746172    rate    DCD    1702125938
        0x00003704:    6f6f6c20     loo    DCD    1869573152
        0x00003708:    6f722070    p ro    DCD    1869750384
        0x0000370c:    6b206c6c    ll k    DCD    1797287020
        0x00003710:    25203a64    d: %    DCD    622869092
        0x00003714:    0a66362e    .6f.    DCD    174470702
        0x00003718:    00000000    ....    DCD    0
        0x0000371c:    20746573    set     DCD    544499059
        0x00003720:    65746172    rate    DCD    1702125938
        0x00003724:    6f6f6c20     loo    DCD    1869573152
        0x00003728:    69702070    p pi    DCD    1768956016
        0x0000372c:    20686374    tch     DCD    543712116
        0x00003730:    203a706b    kp:     DCD    540700779
        0x00003734:    66362e25    %.6f    DCD    1714826789
        0x00003738:    0000000a    ....    DCD    10
        0x0000373c:    20746573    set     DCD    544499059
        0x00003740:    65746172    rate    DCD    1702125938
        0x00003744:    6f6f6c20     loo    DCD    1869573152
        0x00003748:    69702070    p pi    DCD    1768956016
        0x0000374c:    20686374    tch     DCD    543712116
        0x00003750:    203a696b    ki:     DCD    540698987
        0x00003754:    66362e25    %.6f    DCD    1714826789
        0x00003758:    0000000a    ....    DCD    10
        0x0000375c:    20746573    set     DCD    544499059
        0x00003760:    65746172    rate    DCD    1702125938
        0x00003764:    6f6f6c20     loo    DCD    1869573152
        0x00003768:    69702070    p pi    DCD    1768956016
        0x0000376c:    20686374    tch     DCD    543712116
        0x00003770:    203a646b    kd:     DCD    540697707
        0x00003774:    66362e25    %.6f    DCD    1714826789
        0x00003778:    0000000a    ....    DCD    10
    $t
        0x0000377c:    4638        8F      MOV      r0,r7
        0x0000377e:    f7fffcde    ....    BL       get_float ; 0x313e
        0x00003782:    4605        .F      MOV      r5,r0
        0x00003784:    4601        .F      MOV      r1,r0
        0x00003786:    4620         F      MOV      r0,r4
        0x00003788:    f7fdfee7    ....    BL       set_pid_param_p ; 0x155a
        0x0000378c:    4628        (F      MOV      r0,r5
        0x0000378e:    f001fb04    ....    BL       __aeabi_f2d ; 0x4d9a
        0x00003792:    4602        .F      MOV      r2,r0
        0x00003794:    460b        .F      MOV      r3,r1
        0x00003796:    a066        f.      ADR      r0,{pc}+0x19a ; 0x3930
        0x00003798:    e080        ..      B        0x389c ; console_input_handle + 1760
        0x0000379a:    4638        8F      MOV      r0,r7
        0x0000379c:    f7fffccf    ....    BL       get_float ; 0x313e
        0x000037a0:    4605        .F      MOV      r5,r0
        0x000037a2:    4601        .F      MOV      r1,r0
        0x000037a4:    4620         F      MOV      r0,r4
        0x000037a6:    f7fdfeda    ....    BL       set_pid_param_i ; 0x155e
        0x000037aa:    4628        (F      MOV      r0,r5
        0x000037ac:    f001faf5    ....    BL       __aeabi_f2d ; 0x4d9a
        0x000037b0:    4602        .F      MOV      r2,r0
        0x000037b2:    460b        .F      MOV      r3,r1
        0x000037b4:    a065        e.      ADR      r0,{pc}+0x198 ; 0x394c
        0x000037b6:    e071        q.      B        0x389c ; console_input_handle + 1760
        0x000037b8:    4638        8F      MOV      r0,r7
        0x000037ba:    f7fffcc0    ....    BL       get_float ; 0x313e
        0x000037be:    4605        .F      MOV      r5,r0
        0x000037c0:    4601        .F      MOV      r1,r0
        0x000037c2:    4620         F      MOV      r0,r4
        0x000037c4:    f7fdfecf    ....    BL       set_pid_param_d ; 0x1566
        0x000037c8:    4628        (F      MOV      r0,r5
        0x000037ca:    f001fae6    ....    BL       __aeabi_f2d ; 0x4d9a
        0x000037ce:    4602        .F      MOV      r2,r0
        0x000037d0:    460b        .F      MOV      r3,r1
        0x000037d2:    a065        e.      ADR      r0,{pc}+0x196 ; 0x3968
        0x000037d4:    e062        b.      B        0x389c ; console_input_handle + 1760
        0x000037d6:    2d74        t-      CMP      r5,#0x74
        0x000037d8:    d152        R.      BNE      0x3880 ; console_input_handle + 1732
        0x000037da:    2c74        t,      CMP      r4,#0x74
        0x000037dc:    d150        P.      BNE      0x3880 ; console_input_handle + 1732
        0x000037de:    2800        .(      CMP      r0,#0
        0x000037e0:    d002        ..      BEQ      0x37e8 ; console_input_handle + 1580
        0x000037e2:    2e00        ..      CMP      r6,#0
        0x000037e4:    d14c        L.      BNE      0x3880 ; console_input_handle + 1732
        0x000037e6:    e023        #.      B        0x3830 ; console_input_handle + 1652
        0x000037e8:    2010        .       MOVS     r0,#0x10
        0x000037ea:    4c66        fL      LDR      r4,[pc,#408] ; [0x3984] = 0x200004ac
        0x000037ec:    2a00        .*      CMP      r2,#0
        0x000037ee:    d00d        ..      BEQ      0x380c ; console_input_handle + 1616
        0x000037f0:    2900        .)      CMP      r1,#0
        0x000037f2:    d002        ..      BEQ      0x37fa ; console_input_handle + 1598
        0x000037f4:    2b00        .+      CMP      r3,#0
        0x000037f6:    d143        C.      BNE      0x3880 ; console_input_handle + 1732
        0x000037f8:    e011        ..      B        0x381e ; console_input_handle + 1634
        0x000037fa:    f7fffca0    ....    BL       get_float ; 0x313e
        0x000037fe:    6020         `      STR      r0,[r4,#0]
        0x00003800:    f001facb    ....    BL       __aeabi_f2d ; 0x4d9a
        0x00003804:    4602        .F      MOV      r2,r0
        0x00003806:    460b        .F      MOV      r3,r1
        0x00003808:    a05f        _.      ADR      r0,{pc}+0x180 ; 0x3988
        0x0000380a:    e047        G.      B        0x389c ; console_input_handle + 1760
        0x0000380c:    f7fffc97    ....    BL       get_float ; 0x313e
        0x00003810:    6060        ``      STR      r0,[r4,#4]
        0x00003812:    f001fac2    ....    BL       __aeabi_f2d ; 0x4d9a
        0x00003816:    4602        .F      MOV      r2,r0
        0x00003818:    460b        .F      MOV      r3,r1
        0x0000381a:    a061        a.      ADR      r0,{pc}+0x186 ; 0x39a0
        0x0000381c:    e03e        >.      B        0x389c ; console_input_handle + 1760
        0x0000381e:    f7fffc8e    ....    BL       get_float ; 0x313e
        0x00003822:    60a0        .`      STR      r0,[r4,#8]
        0x00003824:    f001fab9    ....    BL       __aeabi_f2d ; 0x4d9a
        0x00003828:    4602        .F      MOV      r2,r0
        0x0000382a:    460b        .F      MOV      r3,r1
        0x0000382c:    a062        b.      ADR      r0,{pc}+0x18c ; 0x39b8
        0x0000382e:    e035        5.      B        0x389c ; console_input_handle + 1760
        0x00003830:    2010        .       MOVS     r0,#0x10
        0x00003832:    4c67        gL      LDR      r4,[pc,#412] ; [0x39d0] = 0x200004a0
        0x00003834:    2a00        .*      CMP      r2,#0
        0x00003836:    d00d        ..      BEQ      0x3854 ; console_input_handle + 1688
        0x00003838:    2900        .)      CMP      r1,#0
        0x0000383a:    d002        ..      BEQ      0x3842 ; console_input_handle + 1670
        0x0000383c:    2b00        .+      CMP      r3,#0
        0x0000383e:    d11f        ..      BNE      0x3880 ; console_input_handle + 1732
        0x00003840:    e011        ..      B        0x3866 ; console_input_handle + 1706
        0x00003842:    f7fffc7c    ..|.    BL       get_float ; 0x313e
        0x00003846:    6020         `      STR      r0,[r4,#0]
        0x00003848:    f001faa7    ....    BL       __aeabi_f2d ; 0x4d9a
        0x0000384c:    4602        .F      MOV      r2,r0
        0x0000384e:    460b        .F      MOV      r3,r1
        0x00003850:    a060        `.      ADR      r0,{pc}+0x184 ; 0x39d4
        0x00003852:    e023        #.      B        0x389c ; console_input_handle + 1760
        0x00003854:    f7fffc73    ..s.    BL       get_float ; 0x313e
        0x00003858:    6060        ``      STR      r0,[r4,#4]
        0x0000385a:    f001fa9e    ....    BL       __aeabi_f2d ; 0x4d9a
        0x0000385e:    4602        .F      MOV      r2,r0
        0x00003860:    460b        .F      MOV      r3,r1
        0x00003862:    a062        b.      ADR      r0,{pc}+0x18a ; 0x39ec
        0x00003864:    e01a        ..      B        0x389c ; console_input_handle + 1760
        0x00003866:    f7fffc6a    ..j.    BL       get_float ; 0x313e
        0x0000386a:    60a0        .`      STR      r0,[r4,#8]
        0x0000386c:    f001fa95    ....    BL       __aeabi_f2d ; 0x4d9a
        0x00003870:    4602        .F      MOV      r2,r0
        0x00003872:    460b        .F      MOV      r3,r1
        0x00003874:    a063        c.      ADR      r0,{pc}+0x190 ; 0x3a04
        0x00003876:    e011        ..      B        0x389c ; console_input_handle + 1760
        0x00003878:    2d68        h-      CMP      r5,#0x68
        0x0000387a:    d101        ..      BNE      0x3880 ; console_input_handle + 1732
        0x0000387c:    2c72        r,      CMP      r4,#0x72
        0x0000387e:    d001        ..      BEQ      0x3884 ; console_input_handle + 1736
        0x00003880:    2000        .       MOVS     r0,#0
        0x00003882:    bdf8        ..      POP      {r3-r7,pc}
        0x00003884:    2008        .       MOVS     r0,#8
        0x00003886:    f7fffc5a    ..Z.    BL       get_float ; 0x313e
        0x0000388a:    4604        .F      MOV      r4,r0
        0x0000388c:    f7fefa77    ..w.    BL       set_trace_throttle ; 0x1d7e
        0x00003890:    4620         F      MOV      r0,r4
        0x00003892:    f001fa82    ....    BL       __aeabi_f2d ; 0x4d9a
        0x00003896:    4602        .F      MOV      r2,r0
        0x00003898:    460b        .F      MOV      r3,r1
        0x0000389a:    a060        `.      ADR      r0,{pc}+0x182 ; 0x3a1c
        0x0000389c:    f001fcf4    ....    BL       __0printf ; 0x5288
        0x000038a0:    2001        .       MOVS     r0,#1
        0x000038a2:    bdf8        ..      POP      {r3-r7,pc}
    UART0_IRQHandler
        0x000038a4:    b5f8        ..      PUSH     {r3-r7,lr}
        0x000038a6:    20ff        .       MOVS     r0,#0xff
        0x000038a8:    4669        iF      MOV      r1,sp
        0x000038aa:    4f63        cO      LDR      r7,[pc,#396] ; [0x3a38] = 0x40050000
        0x000038ac:    7008        .p      STRB     r0,[r1,#0]
        0x000038ae:    69f8        .i      LDR      r0,[r7,#0x1c]
        0x000038b0:    2601        .&      MOVS     r6,#1
        0x000038b2:    05c0        ..      LSLS     r0,r0,#23
        0x000038b4:    2500        .%      MOVS     r5,#0
        0x000038b6:    4c61        aL      LDR      r4,[pc,#388] ; [0x3a3c] = 0x200000b4
        0x000038b8:    2800        .(      CMP      r0,#0
        0x000038ba:    db22        ".      BLT      0x3902 ; UART0_IRQHandler + 94
        0x000038bc:    e025        %.      B        0x390a ; UART0_IRQHandler + 102
        0x000038be:    2201        ."      MOVS     r2,#1
        0x000038c0:    4669        iF      MOV      r1,sp
        0x000038c2:    f000fbb8    ....    BL       UART_Read ; 0x4036
        0x000038c6:    2800        .(      CMP      r0,#0
        0x000038c8:    d01b        ..      BEQ      0x3902 ; UART0_IRQHandler + 94
        0x000038ca:    7860        `x      LDRB     r0,[r4,#1]
        0x000038cc:    2800        .(      CMP      r0,#0
        0x000038ce:    4668        hF      MOV      r0,sp
        0x000038d0:    d009        ..      BEQ      0x38e6 ; UART0_IRQHandler + 66
        0x000038d2:    7801        .x      LDRB     r1,[r0,#0]
        0x000038d4:    2923        #)      CMP      r1,#0x23
        0x000038d6:    d100        ..      BNE      0x38da ; UART0_IRQHandler + 54
        0x000038d8:    7026        &p      STRB     r6,[r4,#0]
        0x000038da:    4a59        YJ      LDR      r2,[pc,#356] ; [0x3a40] = 0x200006d8
        0x000038dc:    8860        `.      LDRH     r0,[r4,#2]
        0x000038de:    5411        .T      STRB     r1,[r2,r0]
        0x000038e0:    1c40        @.      ADDS     r0,r0,#1
        0x000038e2:    8060        `.      STRH     r0,[r4,#2]
        0x000038e4:    e003        ..      B        0x38ee ; UART0_IRQHandler + 74
        0x000038e6:    7800        .x      LDRB     r0,[r0,#0]
        0x000038e8:    2824        $(      CMP      r0,#0x24
        0x000038ea:    d100        ..      BNE      0x38ee ; UART0_IRQHandler + 74
        0x000038ec:    7066        fp      STRB     r6,[r4,#1]
        0x000038ee:    8860        `.      LDRH     r0,[r4,#2]
        0x000038f0:    2832        2(      CMP      r0,#0x32
        0x000038f2:    d306        ..      BCC      0x3902 ; UART0_IRQHandler + 94
        0x000038f4:    8065        e.      STRH     r5,[r4,#2]
        0x000038f6:    2132        2!      MOVS     r1,#0x32
        0x000038f8:    4851        QH      LDR      r0,[pc,#324] ; [0x3a40] = 0x200006d8
        0x000038fa:    f000ff88    ....    BL       __aeabi_memclr ; 0x480e
        0x000038fe:    7065        ep      STRB     r5,[r4,#1]
        0x00003900:    7025        %p      STRB     r5,[r4,#0]
        0x00003902:    69f9        .i      LDR      r1,[r7,#0x1c]
        0x00003904:    4638        8F      MOV      r0,r7
        0x00003906:    07c9        ..      LSLS     r1,r1,#31
        0x00003908:    d1d9        ..      BNE      0x38be ; UART0_IRQHandler + 26
        0x0000390a:    7820         x      LDRB     r0,[r4,#0]
        0x0000390c:    2800        .(      CMP      r0,#0
        0x0000390e:    d00d        ..      BEQ      0x392c ; UART0_IRQHandler + 136
        0x00003910:    f7fffc54    ..T.    BL       console_input_handle ; 0x31bc
        0x00003914:    2800        .(      CMP      r0,#0
        0x00003916:    d102        ..      BNE      0x391e ; UART0_IRQHandler + 122
        0x00003918:    a04a        J.      ADR      r0,{pc}+0x12c ; 0x3a44
        0x0000391a:    f001fcb5    ....    BL       __0printf ; 0x5288
        0x0000391e:    8065        e.      STRH     r5,[r4,#2]
        0x00003920:    2132        2!      MOVS     r1,#0x32
        0x00003922:    4847        GH      LDR      r0,[pc,#284] ; [0x3a40] = 0x200006d8
        0x00003924:    f000ff73    ..s.    BL       __aeabi_memclr ; 0x480e
        0x00003928:    7065        ep      STRB     r5,[r4,#1]
        0x0000392a:    7025        %p      STRB     r5,[r4,#0]
        0x0000392c:    bdf8        ..      POP      {r3-r7,pc}
    $d
        0x0000392e:    0000        ..      DCW    0
        0x00003930:    20746573    set     DCD    544499059
        0x00003934:    65746172    rate    DCD    1702125938
        0x00003938:    6f6f6c20     loo    DCD    1869573152
        0x0000393c:    61792070    p ya    DCD    1635328112
        0x00003940:    706b2077    w kp    DCD    1886068855
        0x00003944:    2e25203a    : %.    DCD    774185018
        0x00003948:    000a6636    6f..    DCD    681526
        0x0000394c:    20746573    set     DCD    544499059
        0x00003950:    65746172    rate    DCD    1702125938
        0x00003954:    6f6f6c20     loo    DCD    1869573152
        0x00003958:    61792070    p ya    DCD    1635328112
        0x0000395c:    696b2077    w ki    DCD    1768628343
        0x00003960:    2e25203a    : %.    DCD    774185018
        0x00003964:    000a6636    6f..    DCD    681526
        0x00003968:    20746573    set     DCD    544499059
        0x0000396c:    65746172    rate    DCD    1702125938
        0x00003970:    6f6f6c20     loo    DCD    1869573152
        0x00003974:    61792070    p ya    DCD    1635328112
        0x00003978:    646b2077    w kd    DCD    1684742263
        0x0000397c:    2e25203a    : %.    DCD    774185018
        0x00003980:    000a6636    6f..    DCD    681526
        0x00003984:    200004ac    ...     DCD    536872108
        0x00003988:    20746573    set     DCD    544499059
        0x0000398c:    6c6c6f72    roll    DCD    1819045746
        0x00003990:    676e6120     ang    DCD    1735287072
        0x00003994:    3a20656c    le :    DCD    975201644
        0x00003998:    362e2520     %.6    DCD    908993824
        0x0000399c:    00000a66    f...    DCD    2662
        0x000039a0:    20746573    set     DCD    544499059
        0x000039a4:    63746970    pitc    DCD    1668573552
        0x000039a8:    6e612068    h an    DCD    1851859048
        0x000039ac:    20656c67    gle     DCD    543517799
        0x000039b0:    2e25203a    : %.    DCD    774185018
        0x000039b4:    000a6636    6f..    DCD    681526
        0x000039b8:    20746573    set     DCD    544499059
        0x000039bc:    20776179    yaw     DCD    544694649
        0x000039c0:    6c676e61    angl    DCD    1818717793
        0x000039c4:    203a2065    e :     DCD    540680293
        0x000039c8:    66362e25    %.6f    DCD    1714826789
        0x000039cc:    0000000a    ....    DCD    10
        0x000039d0:    200004a0    ...     DCD    536872096
        0x000039d4:    20746573    set     DCD    544499059
        0x000039d8:    6c6c6f72    roll    DCD    1819045746
        0x000039dc:    74617220     rat    DCD    1952543264
        0x000039e0:    203a2065    e :     DCD    540680293
        0x000039e4:    66362e25    %.6f    DCD    1714826789
        0x000039e8:    0000000a    ....    DCD    10
        0x000039ec:    20746573    set     DCD    544499059
        0x000039f0:    63746970    pitc    DCD    1668573552
        0x000039f4:    61722068    h ra    DCD    1634869352
        0x000039f8:    3a206574    te :    DCD    975201652
        0x000039fc:    362e2520     %.6    DCD    908993824
        0x00003a00:    00000a66    f...    DCD    2662
        0x00003a04:    20746573    set     DCD    544499059
        0x00003a08:    20776179    yaw     DCD    544694649
        0x00003a0c:    65746172    rate    DCD    1702125938
        0x00003a10:    25203a20     : %    DCD    622869024
        0x00003a14:    0a66362e    .6f.    DCD    174470702
        0x00003a18:    00000000    ....    DCD    0
        0x00003a1c:    20746573    set     DCD    544499059
        0x00003a20:    6f726874    thro    DCD    1869768820
        0x00003a24:    656c7474    ttle    DCD    1701606516
        0x00003a28:    72687420     thr    DCD    1919448096
        0x00003a2c:    3a747375    ust:    DCD    980710261
        0x00003a30:    362e2520     %.6    DCD    908993824
        0x00003a34:    00000a66    f...    DCD    2662
        0x00003a38:    40050000    ...@    DCD    1074069504
        0x00003a3c:    200000b4    ...     DCD    536871092
        0x00003a40:    200006d8    ...     DCD    536872664
        0x00003a44:    6e6b6e75    unkn    DCD    1852534389
        0x00003a48:    6320776f    ow c    DCD    1663072111
        0x00003a4c:    616d6d6f    omma    DCD    1634561391
        0x00003a50:    0a21646e    nd!.    DCD    169960558
        0x00003a54:    00000000    ....    DCD    0
    $t
    .text
    SPI1_Init
        0x00003a58:    b508        ..      PUSH     {r3,lr}
        0x00003a5a:    4828        (H      LDR      r0,[pc,#160] ; [0x3afc] = 0x186a0
        0x00003a5c:    9000        ..      STR      r0,[sp,#0]
        0x00003a5e:    2308        .#      MOVS     r3,#8
        0x00003a60:    2204        ."      MOVS     r2,#4
        0x00003a62:    2100        .!      MOVS     r1,#0
        0x00003a64:    4826        &H      LDR      r0,[pc,#152] ; [0x3b00] = 0x40030100
        0x00003a66:    f000fa0f    ....    BL       SPI_Open ; 0x3e88
        0x00003a6a:    4926        &I      LDR      r1,[pc,#152] ; [0x3b04] = 0xc350
        0x00003a6c:    4826        &H      LDR      r0,[pc,#152] ; [0x3b08] = 0x40010000
        0x00003a6e:    f000fa6d    ..m.    BL       TIMER_Delay ; 0x3f4c
        0x00003a72:    bd08        ..      POP      {r3,pc}
    SPI_WriteReg
        0x00003a74:    b570        p.      PUSH     {r4-r6,lr}
        0x00003a76:    4c22        "L      LDR      r4,[pc,#136] ; [0x3b00] = 0x40030100
        0x00003a78:    2201        ."      MOVS     r2,#1
        0x00003a7a:    460d        .F      MOV      r5,r1
        0x00003a7c:    60a2        .`      STR      r2,[r4,#8]
        0x00003a7e:    f001fbf3    ....    BL       SPI_RW ; 0x5268
        0x00003a82:    4628        (F      MOV      r0,r5
        0x00003a84:    f001fbf0    ....    BL       SPI_RW ; 0x5268
        0x00003a88:    2000        .       MOVS     r0,#0
        0x00003a8a:    60a0        .`      STR      r0,[r4,#8]
        0x00003a8c:    bd70        p.      POP      {r4-r6,pc}
    SPI_WriteBuf
        0x00003a8e:    b5f8        ..      PUSH     {r3-r7,lr}
        0x00003a90:    460d        .F      MOV      r5,r1
        0x00003a92:    4f1b        .O      LDR      r7,[pc,#108] ; [0x3b00] = 0x40030100
        0x00003a94:    2101        .!      MOVS     r1,#1
        0x00003a96:    4616        .F      MOV      r6,r2
        0x00003a98:    60b9        .`      STR      r1,[r7,#8]
        0x00003a9a:    f001fbe5    ....    BL       SPI_RW ; 0x5268
        0x00003a9e:    2400        .$      MOVS     r4,#0
        0x00003aa0:    e005        ..      B        0x3aae ; SPI_WriteBuf + 32
        0x00003aa2:    7828        (x      LDRB     r0,[r5,#0]
        0x00003aa4:    1c6d        m.      ADDS     r5,r5,#1
        0x00003aa6:    f001fbdf    ....    BL       SPI_RW ; 0x5268
        0x00003aaa:    1c64        d.      ADDS     r4,r4,#1
        0x00003aac:    b2e4        ..      UXTB     r4,r4
        0x00003aae:    42b4        .B      CMP      r4,r6
        0x00003ab0:    d3f7        ..      BCC      0x3aa2 ; SPI_WriteBuf + 20
        0x00003ab2:    2000        .       MOVS     r0,#0
        0x00003ab4:    60b8        .`      STR      r0,[r7,#8]
        0x00003ab6:    bdf8        ..      POP      {r3-r7,pc}
    SPI_ReadReg
        0x00003ab8:    b510        ..      PUSH     {r4,lr}
        0x00003aba:    4c11        .L      LDR      r4,[pc,#68] ; [0x3b00] = 0x40030100
        0x00003abc:    2101        .!      MOVS     r1,#1
        0x00003abe:    60a1        .`      STR      r1,[r4,#8]
        0x00003ac0:    f001fbd2    ....    BL       SPI_RW ; 0x5268
        0x00003ac4:    2000        .       MOVS     r0,#0
        0x00003ac6:    f001fbcf    ....    BL       SPI_RW ; 0x5268
        0x00003aca:    2100        .!      MOVS     r1,#0
        0x00003acc:    60a1        .`      STR      r1,[r4,#8]
        0x00003ace:    bd10        ..      POP      {r4,pc}
    SPI_ReadBuf
        0x00003ad0:    b5f8        ..      PUSH     {r3-r7,lr}
        0x00003ad2:    460e        .F      MOV      r6,r1
        0x00003ad4:    4f0a        .O      LDR      r7,[pc,#40] ; [0x3b00] = 0x40030100
        0x00003ad6:    2101        .!      MOVS     r1,#1
        0x00003ad8:    4615        .F      MOV      r5,r2
        0x00003ada:    60b9        .`      STR      r1,[r7,#8]
        0x00003adc:    f001fbc4    ....    BL       SPI_RW ; 0x5268
        0x00003ae0:    2400        .$      MOVS     r4,#0
        0x00003ae2:    e005        ..      B        0x3af0 ; SPI_ReadBuf + 32
        0x00003ae4:    2000        .       MOVS     r0,#0
        0x00003ae6:    f001fbbf    ....    BL       SPI_RW ; 0x5268
        0x00003aea:    5530        0U      STRB     r0,[r6,r4]
        0x00003aec:    1c64        d.      ADDS     r4,r4,#1
        0x00003aee:    b2e4        ..      UXTB     r4,r4
        0x00003af0:    42ac        .B      CMP      r4,r5
        0x00003af2:    d3f7        ..      BCC      0x3ae4 ; SPI_ReadBuf + 20
        0x00003af4:    2000        .       MOVS     r0,#0
        0x00003af6:    60b8        .`      STR      r0,[r7,#8]
        0x00003af8:    bdf8        ..      POP      {r3-r7,pc}
    $d
        0x00003afa:    0000        ..      DCW    0
        0x00003afc:    000186a0    ....    DCD    100000
        0x00003b00:    40030100    ...@    DCD    1073938688
        0x00003b04:    0000c350    P...    DCD    50000
        0x00003b08:    40010000    ...@    DCD    1073807360
    $t
    .text
    CLK_GetHCLKFreq
        0x00003b0c:    b510        ..      PUSH     {r4,lr}
        0x00003b0e:    f7fdfba9    ....    BL       SystemCoreClockUpdate ; 0x1264
        0x00003b12:    4831        1H      LDR      r0,[pc,#196] ; [0x3bd8] = 0x20000018
        0x00003b14:    6800        .h      LDR      r0,[r0,#0]
        0x00003b16:    bd10        ..      POP      {r4,pc}
    CLK_SetModuleClock
        0x00003b18:    b510        ..      PUSH     {r4,lr}
        0x00003b1a:    0e42        B.      LSRS     r2,r0,#25
        0x00003b1c:    0712        ..      LSLS     r2,r2,#28
        0x00003b1e:    d00d        ..      BEQ      0x3b3c ; CLK_SetModuleClock + 36
        0x00003b20:    0042        B.      LSLS     r2,r0,#1
        0x00003b22:    0f92        ..      LSRS     r2,r2,#30
        0x00003b24:    4b2d        -K      LDR      r3,[pc,#180] ; [0x3bdc] = 0x50000210
        0x00003b26:    0092        ..      LSLS     r2,r2,#2
        0x00003b28:    18d2        ..      ADDS     r2,r2,r3
        0x00003b2a:    6813        .h      LDR      r3,[r2,#0]
        0x00003b2c:    00c4        ..      LSLS     r4,r0,#3
        0x00003b2e:    0f24        $.      LSRS     r4,r4,#28
        0x00003b30:    01c0        ..      LSLS     r0,r0,#7
        0x00003b32:    0ec0        ..      LSRS     r0,r0,#27
        0x00003b34:    4084        .@      LSLS     r4,r4,r0
        0x00003b36:    43a3        .C      BICS     r3,r3,r4
        0x00003b38:    430b        .C      ORRS     r3,r3,r1
        0x00003b3a:    6013        .`      STR      r3,[r2,#0]
        0x00003b3c:    bd10        ..      POP      {r4,pc}
    CLK_EnableModuleClock
        0x00003b3e:    0fc1        ..      LSRS     r1,r0,#31
        0x00003b40:    008a        ..      LSLS     r2,r1,#2
        0x00003b42:    4926        &I      LDR      r1,[pc,#152] ; [0x3bdc] = 0x50000210
        0x00003b44:    3910        .9      SUBS     r1,r1,#0x10
        0x00003b46:    1851        Q.      ADDS     r1,r2,r1
        0x00003b48:    684a        Jh      LDR      r2,[r1,#4]
        0x00003b4a:    06c3        ..      LSLS     r3,r0,#27
        0x00003b4c:    0edb        ..      LSRS     r3,r3,#27
        0x00003b4e:    2001        .       MOVS     r0,#1
        0x00003b50:    4098        .@      LSLS     r0,r0,r3
        0x00003b52:    4302        .C      ORRS     r2,r2,r0
        0x00003b54:    604a        J`      STR      r2,[r1,#4]
        0x00003b56:    4770        pG      BX       lr
    CLK_SysTickDelay
        0x00003b58:    4921        !I      LDR      r1,[pc,#132] ; [0x3be0] = 0x2000001c
        0x00003b5a:    6809        .h      LDR      r1,[r1,#0]
        0x00003b5c:    4348        HC      MULS     r0,r1,r0
        0x00003b5e:    4921        !I      LDR      r1,[pc,#132] ; [0x3be4] = 0xe000e000
        0x00003b60:    6148        Ha      STR      r0,[r1,#0x14]
        0x00003b62:    2200        ."      MOVS     r2,#0
        0x00003b64:    618a        .a      STR      r2,[r1,#0x18]
        0x00003b66:    2005        .       MOVS     r0,#5
        0x00003b68:    6108        .a      STR      r0,[r1,#0x10]
        0x00003b6a:    6908        .i      LDR      r0,[r1,#0x10]
        0x00003b6c:    03c0        ..      LSLS     r0,r0,#15
        0x00003b6e:    d5fc        ..      BPL      0x3b6a ; CLK_SysTickDelay + 18
        0x00003b70:    610a        .a      STR      r2,[r1,#0x10]
        0x00003b72:    4770        pG      BX       lr
    CLK_InitHIRC
        0x00003b74:    4819        .H      LDR      r0,[pc,#100] ; [0x3bdc] = 0x50000210
        0x00003b76:    b510        ..      PUSH     {r4,lr}
        0x00003b78:    3810        .8      SUBS     r0,r0,#0x10
        0x00003b7a:    6801        .h      LDR      r1,[r0,#0]
        0x00003b7c:    220f        ."      MOVS     r2,#0xf
        0x00003b7e:    0312        ..      LSLS     r2,r2,#12
        0x00003b80:    4391        .C      BICS     r1,r1,r2
        0x00003b82:    6001        .`      STR      r1,[r0,#0]
        0x00003b84:    6801        .h      LDR      r1,[r0,#0]
        0x00003b86:    2203        ."      MOVS     r2,#3
        0x00003b88:    0392        ..      LSLS     r2,r2,#14
        0x00003b8a:    4311        .C      ORRS     r1,r1,r2
        0x00003b8c:    6001        .`      STR      r1,[r0,#0]
        0x00003b8e:    1191        ..      ASRS     r1,r2,#6
        0x00003b90:    4a15        .J      LDR      r2,[pc,#84] ; [0x3be8] = 0x50000040
        0x00003b92:    6091        .`      STR      r1,[r2,#8]
        0x00003b94:    4915        .I      LDR      r1,[pc,#84] ; [0x3bec] = 0x5000c000
        0x00003b96:    680a        .h      LDR      r2,[r1,#0]
        0x00003b98:    2401        .$      MOVS     r4,#1
        0x00003b9a:    4322        "C      ORRS     r2,r2,r4
        0x00003b9c:    600a        .`      STR      r2,[r1,#0]
        0x00003b9e:    2204        ."      MOVS     r2,#4
        0x00003ba0:    60ca        .`      STR      r2,[r1,#0xc]
        0x00003ba2:    2300        .#      MOVS     r3,#0
        0x00003ba4:    604b        K`      STR      r3,[r1,#4]
        0x00003ba6:    610c        .a      STR      r4,[r1,#0x10]
        0x00003ba8:    690a        .i      LDR      r2,[r1,#0x10]
        0x00003baa:    07d2        ..      LSLS     r2,r2,#31
        0x00003bac:    d1fc        ..      BNE      0x3ba8 ; CLK_InitHIRC + 52
        0x00003bae:    688c        .h      LDR      r4,[r1,#8]
        0x00003bb0:    22ff        ."      MOVS     r2,#0xff
        0x00003bb2:    0412        ..      LSLS     r2,r2,#16
        0x00003bb4:    4611        .F      MOV      r1,r2
        0x00003bb6:    43a1        .C      BICS     r1,r1,r4
        0x00003bb8:    6804        .h      LDR      r4,[r0,#0]
        0x00003bba:    4394        .C      BICS     r4,r4,r2
        0x00003bbc:    6004        .`      STR      r4,[r0,#0]
        0x00003bbe:    6802        .h      LDR      r2,[r0,#0]
        0x00003bc0:    430a        .C      ORRS     r2,r2,r1
        0x00003bc2:    6002        .`      STR      r2,[r0,#0]
        0x00003bc4:    6801        .h      LDR      r1,[r0,#0]
        0x00003bc6:    22ff        ."      MOVS     r2,#0xff
        0x00003bc8:    0092        ..      LSLS     r2,r2,#2
        0x00003bca:    4391        .C      BICS     r1,r1,r2
        0x00003bcc:    6001        .`      STR      r1,[r0,#0]
        0x00003bce:    68c1        .h      LDR      r1,[r0,#0xc]
        0x00003bd0:    06c9        ..      LSLS     r1,r1,#27
        0x00003bd2:    d5fc        ..      BPL      0x3bce ; CLK_InitHIRC + 90
        0x00003bd4:    6103        .a      STR      r3,[r0,#0x10]
        0x00003bd6:    bd10        ..      POP      {r4,pc}
    $d
        0x00003bd8:    20000018    ...     DCD    536870936
        0x00003bdc:    50000210    ...P    DCD    1342177808
        0x00003be0:    2000001c    ...     DCD    536870940
        0x00003be4:    e000e000    ....    DCD    3758153728
        0x00003be8:    50000040    @..P    DCD    1342177344
        0x00003bec:    5000c000    ...P    DCD    1342226432
    $t
    .text
    I2C_Open
        0x00003bf0:    b570        p.      PUSH     {r4-r6,lr}
        0x00003bf2:    4d0b        .M      LDR      r5,[pc,#44] ; [0x3c20] = 0x20000018
        0x00003bf4:    4604        .F      MOV      r4,r0
        0x00003bf6:    6828        (h      LDR      r0,[r5,#0]
        0x00003bf8:    008a        ..      LSLS     r2,r1,#2
        0x00003bfa:    1840        @.      ADDS     r0,r0,r1
        0x00003bfc:    4611        .F      MOV      r1,r2
        0x00003bfe:    f000fdd5    ....    BL       __aeabi_uidiv ; 0x47ac
        0x00003c02:    1e40        @.      SUBS     r0,r0,#1
        0x00003c04:    28ff        .(      CMP      r0,#0xff
        0x00003c06:    d900        ..      BLS      0x3c0a ; I2C_Open + 26
        0x00003c08:    20ff        .       MOVS     r0,#0xff
        0x00003c0a:    6120         a      STR      r0,[r4,#0x10]
        0x00003c0c:    6821        !h      LDR      r1,[r4,#0]
        0x00003c0e:    2240        @"      MOVS     r2,#0x40
        0x00003c10:    4311        .C      ORRS     r1,r1,r2
        0x00003c12:    6021        !`      STR      r1,[r4,#0]
        0x00003c14:    0081        ..      LSLS     r1,r0,#2
        0x00003c16:    1d09        ..      ADDS     r1,r1,#4
        0x00003c18:    6828        (h      LDR      r0,[r5,#0]
        0x00003c1a:    f000fdc7    ....    BL       __aeabi_uidiv ; 0x47ac
        0x00003c1e:    bd70        p.      POP      {r4-r6,pc}
    $d
        0x00003c20:    20000018    ...     DCD    536870936
    $t
    .text
    PWM_ConfigOutputChannel
        0x00003c24:    b5ff        ..      PUSH     {r0-r7,lr}
        0x00003c26:    4849        IH      LDR      r0,[pc,#292] ; [0x3d4c] = 0x20000018
        0x00003c28:    b083        ..      SUB      sp,sp,#0xc
        0x00003c2a:    460f        .F      MOV      r7,r1
        0x00003c2c:    6800        .h      LDR      r0,[r0,#0]
        0x00003c2e:    4611        .F      MOV      r1,r2
        0x00003c30:    9001        ..      STR      r0,[sp,#4]
        0x00003c32:    f000fdbb    ....    BL       __aeabi_uidiv ; 0x47ac
        0x00003c36:    2501        .%      MOVS     r5,#1
        0x00003c38:    4c45        EL      LDR      r4,[pc,#276] ; [0x3d50] = 0xffff
        0x00003c3a:    26ff        .&      MOVS     r6,#0xff
        0x00003c3c:    9000        ..      STR      r0,[sp,#0]
        0x00003c3e:    4629        )F      MOV      r1,r5
        0x00003c40:    9800        ..      LDR      r0,[sp,#0]
        0x00003c42:    f000fdb3    ....    BL       __aeabi_uidiv ; 0x47ac
        0x00003c46:    2101        .!      MOVS     r1,#1
        0x00003c48:    0609        ..      LSLS     r1,r1,#24
        0x00003c4a:    4288        .B      CMP      r0,r1
        0x00003c4c:    d812        ..      BHI      0x3c74 ; PWM_ConfigOutputChannel + 80
        0x00003c4e:    1901        ..      ADDS     r1,r0,r4
        0x00003c50:    0209        ..      LSLS     r1,r1,#8
        0x00003c52:    0e0e        ..      LSRS     r6,r1,#24
        0x00003c54:    2e03        ..      CMP      r6,#3
        0x00003c56:    d200        ..      BCS      0x3c5a ; PWM_ConfigOutputChannel + 54
        0x00003c58:    2602        .&      MOVS     r6,#2
        0x00003c5a:    4631        1F      MOV      r1,r6
        0x00003c5c:    f000fda6    ....    BL       __aeabi_uidiv ; 0x47ac
        0x00003c60:    2101        .!      MOVS     r1,#1
        0x00003c62:    0409        ..      LSLS     r1,r1,#16
        0x00003c64:    4288        .B      CMP      r0,r1
        0x00003c66:    d805        ..      BHI      0x3c74 ; PWM_ConfigOutputChannel + 80
        0x00003c68:    2801        .(      CMP      r0,#1
        0x00003c6a:    d001        ..      BEQ      0x3c70 ; PWM_ConfigOutputChannel + 76
        0x00003c6c:    b284        ..      UXTH     r4,r0
        0x00003c6e:    e005        ..      B        0x3c7c ; PWM_ConfigOutputChannel + 88
        0x00003c70:    2401        .$      MOVS     r4,#1
        0x00003c72:    e003        ..      B        0x3c7c ; PWM_ConfigOutputChannel + 88
        0x00003c74:    0668        h.      LSLS     r0,r5,#25
        0x00003c76:    0e05        ..      LSRS     r5,r0,#24
        0x00003c78:    2d11        .-      CMP      r5,#0x11
        0x00003c7a:    d3e0        ..      BCC      0x3c3e ; PWM_ConfigOutputChannel + 26
        0x00003c7c:    4631        1F      MOV      r1,r6
        0x00003c7e:    4369        iC      MULS     r1,r5,r1
        0x00003c80:    4361        aC      MULS     r1,r4,r1
        0x00003c82:    9801        ..      LDR      r0,[sp,#4]
        0x00003c84:    f000fd92    ....    BL       __aeabi_uidiv ; 0x47ac
        0x00003c88:    1e76        v.      SUBS     r6,r6,#1
        0x00003c8a:    1e64        d.      SUBS     r4,r4,#1
        0x00003c8c:    b2f3        ..      UXTB     r3,r6
        0x00003c8e:    b2a4        ..      UXTH     r4,r4
        0x00003c90:    9000        ..      STR      r0,[sp,#0]
        0x00003c92:    2d01        .-      CMP      r5,#1
        0x00003c94:    d033        3.      BEQ      0x3cfe ; PWM_ConfigOutputChannel + 218
        0x00003c96:    2d02        .-      CMP      r5,#2
        0x00003c98:    d033        3.      BEQ      0x3d02 ; PWM_ConfigOutputChannel + 222
        0x00003c9a:    2d04        .-      CMP      r5,#4
        0x00003c9c:    d033        3.      BEQ      0x3d06 ; PWM_ConfigOutputChannel + 226
        0x00003c9e:    2d08        .-      CMP      r5,#8
        0x00003ca0:    d033        3.      BEQ      0x3d0a ; PWM_ConfigOutputChannel + 230
        0x00003ca2:    2003        .       MOVS     r0,#3
        0x00003ca4:    492b        +I      LDR      r1,[pc,#172] ; [0x3d54] = 0x40040000
        0x00003ca6:    680d        .h      LDR      r5,[r1,#0]
        0x00003ca8:    087a        z.      LSRS     r2,r7,#1
        0x00003caa:    00d2        ..      LSLS     r2,r2,#3
        0x00003cac:    26ff        .&      MOVS     r6,#0xff
        0x00003cae:    4096        .@      LSLS     r6,r6,r2
        0x00003cb0:    43b5        .C      BICS     r5,r5,r6
        0x00003cb2:    4093        .@      LSLS     r3,r3,r2
        0x00003cb4:    431d        .C      ORRS     r5,r5,r3
        0x00003cb6:    600d        .`      STR      r5,[r1,#0]
        0x00003cb8:    684b        Kh      LDR      r3,[r1,#4]
        0x00003cba:    00ba        ..      LSLS     r2,r7,#2
        0x00003cbc:    2507        .%      MOVS     r5,#7
        0x00003cbe:    4095        .@      LSLS     r5,r5,r2
        0x00003cc0:    43ab        .C      BICS     r3,r3,r5
        0x00003cc2:    4090        .@      LSLS     r0,r0,r2
        0x00003cc4:    4303        .C      ORRS     r3,r3,r0
        0x00003cc6:    604b        K`      STR      r3,[r1,#4]
        0x00003cc8:    688b        .h      LDR      r3,[r1,#8]
        0x00003cca:    2008        .       MOVS     r0,#8
        0x00003ccc:    4090        .@      LSLS     r0,r0,r2
        0x00003cce:    4303        .C      ORRS     r3,r3,r0
        0x00003cd0:    608b        .`      STR      r3,[r1,#8]
        0x00003cd2:    4820         H      LDR      r0,[pc,#128] ; [0x3d54] = 0x40040000
        0x00003cd4:    3040        @0      ADDS     r0,r0,#0x40
        0x00003cd6:    68c1        .h      LDR      r1,[r0,#0xc]
        0x00003cd8:    0049        I.      LSLS     r1,r1,#1
        0x00003cda:    0849        I.      LSRS     r1,r1,#1
        0x00003cdc:    60c1        .`      STR      r1,[r0,#0xc]
        0x00003cde:    9903        ..      LDR      r1,[sp,#0xc]
        0x00003ce0:    9806        ..      LDR      r0,[sp,#0x18]
        0x00003ce2:    1855        U.      ADDS     r5,r2,r1
        0x00003ce4:    2800        .(      CMP      r0,#0
        0x00003ce6:    d012        ..      BEQ      0x3d0e ; PWM_ConfigOutputChannel + 234
        0x00003ce8:    1c61        a.      ADDS     r1,r4,#1
        0x00003cea:    4348        HC      MULS     r0,r1,r0
        0x00003cec:    2164        d!      MOVS     r1,#0x64
        0x00003cee:    f000fd5d    ..].    BL       __aeabi_uidiv ; 0x47ac
        0x00003cf2:    1e40        @.      SUBS     r0,r0,#1
        0x00003cf4:    62e8        .b      STR      r0,[r5,#0x2c]
        0x00003cf6:    60ec        .`      STR      r4,[r5,#0xc]
        0x00003cf8:    9800        ..      LDR      r0,[sp,#0]
        0x00003cfa:    b007        ..      ADD      sp,sp,#0x1c
        0x00003cfc:    bdf0        ..      POP      {r4-r7,pc}
        0x00003cfe:    2004        .       MOVS     r0,#4
        0x00003d00:    e7d0        ..      B        0x3ca4 ; PWM_ConfigOutputChannel + 128
        0x00003d02:    2000        .       MOVS     r0,#0
        0x00003d04:    e7ce        ..      B        0x3ca4 ; PWM_ConfigOutputChannel + 128
        0x00003d06:    2001        .       MOVS     r0,#1
        0x00003d08:    e7cc        ..      B        0x3ca4 ; PWM_ConfigOutputChannel + 128
        0x00003d0a:    2002        .       MOVS     r0,#2
        0x00003d0c:    e7ca        ..      B        0x3ca4 ; PWM_ConfigOutputChannel + 128
        0x00003d0e:    2000        .       MOVS     r0,#0
        0x00003d10:    62e8        .b      STR      r0,[r5,#0x2c]
        0x00003d12:    60e8        .`      STR      r0,[r5,#0xc]
        0x00003d14:    e7f0        ..      B        0x3cf8 ; PWM_ConfigOutputChannel + 212
    PWM_Start
        0x00003d16:    b530        0.      PUSH     {r4,r5,lr}
        0x00003d18:    2200        ."      MOVS     r2,#0
        0x00003d1a:    4610        .F      MOV      r0,r2
        0x00003d1c:    2401        .$      MOVS     r4,#1
        0x00003d1e:    4623        #F      MOV      r3,r4
        0x00003d20:    4083        .@      LSLS     r3,r3,r0
        0x00003d22:    420b        .B      TST      r3,r1
        0x00003d24:    d003        ..      BEQ      0x3d2e ; PWM_Start + 24
        0x00003d26:    0085        ..      LSLS     r5,r0,#2
        0x00003d28:    4623        #F      MOV      r3,r4
        0x00003d2a:    40ab        .@      LSLS     r3,r3,r5
        0x00003d2c:    431a        .C      ORRS     r2,r2,r3
        0x00003d2e:    1c40        @.      ADDS     r0,r0,#1
        0x00003d30:    2808        .(      CMP      r0,#8
        0x00003d32:    d3f4        ..      BCC      0x3d1e ; PWM_Start + 8
        0x00003d34:    4907        .I      LDR      r1,[pc,#28] ; [0x3d54] = 0x40040000
        0x00003d36:    6888        .h      LDR      r0,[r1,#8]
        0x00003d38:    4310        .C      ORRS     r0,r0,r2
        0x00003d3a:    6088        .`      STR      r0,[r1,#8]
        0x00003d3c:    bd30        0.      POP      {r4,r5,pc}
    PWM_EnableOutput
        0x00003d3e:    4805        .H      LDR      r0,[pc,#20] ; [0x3d54] = 0x40040000
        0x00003d40:    3040        @0      ADDS     r0,r0,#0x40
        0x00003d42:    69c2        .i      LDR      r2,[r0,#0x1c]
        0x00003d44:    430a        .C      ORRS     r2,r2,r1
        0x00003d46:    61c2        .a      STR      r2,[r0,#0x1c]
        0x00003d48:    4770        pG      BX       lr
    $d
        0x00003d4a:    0000        ..      DCW    0
        0x00003d4c:    20000018    ...     DCD    536870936
        0x00003d50:    0000ffff    ....    DCD    65535
        0x00003d54:    40040000    ...@    DCD    1074003968
    $t
    .text
    stackDump
        0x00003d58:    b510        ..      PUSH     {r4,lr}
        0x00003d5a:    4604        .F      MOV      r4,r0
        0x00003d5c:    6801        .h      LDR      r1,[r0,#0]
        0x00003d5e:    a01a        ..      ADR      r0,{pc}+0x6a ; 0x3dc8
        0x00003d60:    f001fa92    ....    BL       __0printf ; 0x5288
        0x00003d64:    a01b        ..      ADR      r0,{pc}+0x70 ; 0x3dd4
        0x00003d66:    6861        ah      LDR      r1,[r4,#4]
        0x00003d68:    f001fa8e    ....    BL       __0printf ; 0x5288
        0x00003d6c:    a01c        ..      ADR      r0,{pc}+0x74 ; 0x3de0
        0x00003d6e:    68a1        .h      LDR      r1,[r4,#8]
        0x00003d70:    f001fa8a    ....    BL       __0printf ; 0x5288
        0x00003d74:    a01d        ..      ADR      r0,{pc}+0x78 ; 0x3dec
        0x00003d76:    68e1        .h      LDR      r1,[r4,#0xc]
        0x00003d78:    f001fa86    ....    BL       __0printf ; 0x5288
        0x00003d7c:    a01e        ..      ADR      r0,{pc}+0x7c ; 0x3df8
        0x00003d7e:    6921        !i      LDR      r1,[r4,#0x10]
        0x00003d80:    f001fa82    ....    BL       __0printf ; 0x5288
        0x00003d84:    a01f        ..      ADR      r0,{pc}+0x80 ; 0x3e04
        0x00003d86:    6961        ai      LDR      r1,[r4,#0x14]
        0x00003d88:    f001fa7e    ..~.    BL       __0printf ; 0x5288
        0x00003d8c:    a020         .      ADR      r0,{pc}+0x84 ; 0x3e10
        0x00003d8e:    69a1        .i      LDR      r1,[r4,#0x18]
        0x00003d90:    f001fa7a    ..z.    BL       __0printf ; 0x5288
        0x00003d94:    a021        !.      ADR      r0,{pc}+0x88 ; 0x3e1c
        0x00003d96:    69e1        .i      LDR      r1,[r4,#0x1c]
        0x00003d98:    f001fa76    ..v.    BL       __0printf ; 0x5288
        0x00003d9c:    bd10        ..      POP      {r4,pc}
    Hard_Fault_Handler
    __tagsym$$used
        0x00003d9e:    4604        .F      MOV      r4,r0
        0x00003da0:    a021        !.      ADR      r0,{pc}+0x88 ; 0x3e28
        0x00003da2:    f001fa71    ..q.    BL       __0printf ; 0x5288
        0x00003da6:    4620         F      MOV      r0,r4
        0x00003da8:    f7ffffd6    ....    BL       stackDump ; 0x3d58
        0x00003dac:    e7fe        ..      B        0x3dac ; Hard_Fault_Handler + 14
    SendChar_ToUART
        0x00003dae:    4924        $I      LDR      r1,[pc,#144] ; [0x3e40] = 0x40050000
        0x00003db0:    6008        .`      STR      r0,[r1,#0]
        0x00003db2:    6988        .i      LDR      r0,[r1,#0x18]
        0x00003db4:    00c0        ..      LSLS     r0,r0,#3
        0x00003db6:    d5fc        ..      BPL      0x3db2 ; SendChar_ToUART + 4
        0x00003db8:    4770        pG      BX       lr
    fputc
        0x00003dba:    b500        ..      PUSH     {lr}
        0x00003dbc:    4602        .F      MOV      r2,r0
        0x00003dbe:    f7fffff6    ....    BL       SendChar_ToUART ; 0x3dae
        0x00003dc2:    4610        .F      MOV      r0,r2
        0x00003dc4:    bd00        ..      POP      {pc}
    $d
        0x00003dc6:    0000        ..      DCW    0
        0x00003dc8:    20203072    r0      DCD    538980466
        0x00003dcc:    7830203d    = 0x    DCD    2016419901
        0x00003dd0:    000a7825    %x..    DCD    686117
        0x00003dd4:    20203172    r1      DCD    538980722
        0x00003dd8:    7830203d    = 0x    DCD    2016419901
        0x00003ddc:    000a7825    %x..    DCD    686117
        0x00003de0:    20203272    r2      DCD    538980978
        0x00003de4:    7830203d    = 0x    DCD    2016419901
        0x00003de8:    000a7825    %x..    DCD    686117
        0x00003dec:    20203372    r3      DCD    538981234
        0x00003df0:    7830203d    = 0x    DCD    2016419901
        0x00003df4:    000a7825    %x..    DCD    686117
        0x00003df8:    20323172    r12     DCD    540160370
        0x00003dfc:    7830203d    = 0x    DCD    2016419901
        0x00003e00:    000a7825    %x..    DCD    686117
        0x00003e04:    2020726c    lr      DCD    538997356
        0x00003e08:    7830203d    = 0x    DCD    2016419901
        0x00003e0c:    000a7825    %x..    DCD    686117
        0x00003e10:    20206370    pc      DCD    538993520
        0x00003e14:    7830203d    = 0x    DCD    2016419901
        0x00003e18:    000a7825    %x..    DCD    686117
        0x00003e1c:    20727370    psr     DCD    544371568
        0x00003e20:    7830203d    = 0x    DCD    2016419901
        0x00003e24:    000a7825    %x..    DCD    686117
        0x00003e28:    48206e49    In H    DCD    1210084937
        0x00003e2c:    20647261    ard     DCD    543453793
        0x00003e30:    6c756146    Faul    DCD    1819631942
        0x00003e34:    61482074    t Ha    DCD    1632116852
        0x00003e38:    656c646e    ndle    DCD    1701602414
        0x00003e3c:    00000a72    r...    DCD    2674
        0x00003e40:    40050000    ...@    DCD    1074069504
    $t
    .text
    SPI_SetBusClock
        0x00003e44:    b570        p.      PUSH     {r4-r6,lr}
        0x00003e46:    460c        .F      MOV      r4,r1
        0x00003e48:    4606        .F      MOV      r6,r0
        0x00003e4a:    f7fffe5f    .._.    BL       CLK_GetHCLKFreq ; 0x3b0c
        0x00003e4e:    4605        .F      MOV      r5,r0
        0x00003e50:    42ac        .B      CMP      r4,r5
        0x00003e52:    d900        ..      BLS      0x3e56 ; SPI_SetBusClock + 18
        0x00003e54:    4604        .F      MOV      r4,r0
        0x00003e56:    2c00        .,      CMP      r4,#0
        0x00003e58:    d014        ..      BEQ      0x3e84 ; SPI_SetBusClock + 64
        0x00003e5a:    4811        .H      LDR      r0,[pc,#68] ; [0x3ea0] = 0x20000018
        0x00003e5c:    0061        a.      LSLS     r1,r4,#1
        0x00003e5e:    6800        .h      LDR      r0,[r0,#0]
        0x00003e60:    1900        ..      ADDS     r0,r0,r4
        0x00003e62:    f000fca3    ....    BL       __aeabi_uidiv ; 0x47ac
        0x00003e66:    1e40        @.      SUBS     r0,r0,#1
        0x00003e68:    28ff        .(      CMP      r0,#0xff
        0x00003e6a:    d900        ..      BLS      0x3e6e ; SPI_SetBusClock + 42
        0x00003e6c:    20ff        .       MOVS     r0,#0xff
        0x00003e6e:    6871        qh      LDR      r1,[r6,#4]
        0x00003e70:    0a09        ..      LSRS     r1,r1,#8
        0x00003e72:    0209        ..      LSLS     r1,r1,#8
        0x00003e74:    4301        .C      ORRS     r1,r1,r0
        0x00003e76:    6071        q`      STR      r1,[r6,#4]
        0x00003e78:    0041        A.      LSLS     r1,r0,#1
        0x00003e7a:    4628        (F      MOV      r0,r5
        0x00003e7c:    1c89        ..      ADDS     r1,r1,#2
        0x00003e7e:    f000fc95    ....    BL       __aeabi_uidiv ; 0x47ac
        0x00003e82:    bd70        p.      POP      {r4-r6,pc}
        0x00003e84:    2000        .       MOVS     r0,#0
        0x00003e86:    bd70        p.      POP      {r4-r6,pc}
    SPI_Open
        0x00003e88:    b430        0.      PUSH     {r4,r5}
        0x00003e8a:    9c02        ..      LDR      r4,[sp,#8]
        0x00003e8c:    2b20         +      CMP      r3,#0x20
        0x00003e8e:    d100        ..      BNE      0x3e92 ; SPI_Open + 10
        0x00003e90:    2300        .#      MOVS     r3,#0
        0x00003e92:    00db        ..      LSLS     r3,r3,#3
        0x00003e94:    430b        .C      ORRS     r3,r3,r1
        0x00003e96:    4313        .C      ORRS     r3,r3,r2
        0x00003e98:    6003        .`      STR      r3,[r0,#0]
        0x00003e9a:    4621        !F      MOV      r1,r4
        0x00003e9c:    bc30        0.      POP      {r4,r5}
        0x00003e9e:    e7d1        ..      B        SPI_SetBusClock ; 0x3e44
    $d
        0x00003ea0:    20000018    ...     DCD    536870936
    $t
    .text
    TIMER_GetModuleClock
        0x00003ea4:    4a53        SJ      LDR      r2,[pc,#332] ; [0x3ff4] = 0x40010000
        0x00003ea6:    4954        TI      LDR      r1,[pc,#336] ; [0x3ff8] = 0x50000200
        0x00003ea8:    4290        .B      CMP      r0,r2
        0x00003eaa:    d102        ..      BNE      0x3eb2 ; TIMER_GetModuleClock + 14
        0x00003eac:    6948        Hi      LDR      r0,[r1,#0x14]
        0x00003eae:    0a00        ..      LSRS     r0,r0,#8
        0x00003eb0:    e007        ..      B        0x3ec2 ; TIMER_GetModuleClock + 30
        0x00003eb2:    4a50        PJ      LDR      r2,[pc,#320] ; [0x3ff4] = 0x40010000
        0x00003eb4:    3220         2      ADDS     r2,r2,#0x20
        0x00003eb6:    4290        .B      CMP      r0,r2
        0x00003eb8:    6948        Hi      LDR      r0,[r1,#0x14]
        0x00003eba:    d101        ..      BNE      0x3ec0 ; TIMER_GetModuleClock + 28
        0x00003ebc:    0b00        ..      LSRS     r0,r0,#12
        0x00003ebe:    e000        ..      B        0x3ec2 ; TIMER_GetModuleClock + 30
        0x00003ec0:    0c00        ..      LSRS     r0,r0,#16
        0x00003ec2:    0780        ..      LSLS     r0,r0,#30
        0x00003ec4:    0f80        ..      LSRS     r0,r0,#30
        0x00003ec6:    d003        ..      BEQ      0x3ed0 ; TIMER_GetModuleClock + 44
        0x00003ec8:    2100        .!      MOVS     r1,#0
        0x00003eca:    2802        .(      CMP      r0,#2
        0x00003ecc:    d007        ..      BEQ      0x3ede ; TIMER_GetModuleClock + 58
        0x00003ece:    e000        ..      B        0x3ed2 ; TIMER_GetModuleClock + 46
        0x00003ed0:    2101        .!      MOVS     r1,#1
        0x00003ed2:    2200        ."      MOVS     r2,#0
        0x00003ed4:    4311        .C      ORRS     r1,r1,r2
        0x00003ed6:    d004        ..      BEQ      0x3ee2 ; TIMER_GetModuleClock + 62
        0x00003ed8:    4848        HH      LDR      r0,[pc,#288] ; [0x3ffc] = 0x20000018
        0x00003eda:    6800        .h      LDR      r0,[r0,#0]
        0x00003edc:    4770        pG      BX       lr
        0x00003ede:    2201        ."      MOVS     r2,#1
        0x00003ee0:    e7f8        ..      B        0x3ed4 ; TIMER_GetModuleClock + 48
        0x00003ee2:    2801        .(      CMP      r0,#1
        0x00003ee4:    d001        ..      BEQ      0x3eea ; TIMER_GetModuleClock + 70
        0x00003ee6:    4846        FH      LDR      r0,[pc,#280] ; [0x4000] = 0x3d0900
        0x00003ee8:    4770        pG      BX       lr
        0x00003eea:    4846        FH      LDR      r0,[pc,#280] ; [0x4004] = 0x2710
        0x00003eec:    4770        pG      BX       lr
    TIMER_Open
        0x00003eee:    b5f8        ..      PUSH     {r3-r7,lr}
        0x00003ef0:    4613        .F      MOV      r3,r2
        0x00003ef2:    460f        .F      MOV      r7,r1
        0x00003ef4:    4605        .F      MOV      r5,r0
        0x00003ef6:    f7ffffd5    ....    BL       TIMER_GetModuleClock ; 0x3ea4
        0x00003efa:    4604        .F      MOV      r4,r0
        0x00003efc:    2600        .&      MOVS     r6,#0
        0x00003efe:    0840        @.      LSRS     r0,r0,#1
        0x00003f00:    4298        .B      CMP      r0,r3
        0x00003f02:    d201        ..      BCS      0x3f08 ; TIMER_Open + 26
        0x00003f04:    2102        .!      MOVS     r1,#2
        0x00003f06:    e011        ..      B        0x3f2c ; TIMER_Open + 62
        0x00003f08:    2101        .!      MOVS     r1,#1
        0x00003f0a:    0649        I.      LSLS     r1,r1,#25
        0x00003f0c:    428c        .B      CMP      r4,r1
        0x00003f0e:    d302        ..      BCC      0x3f16 ; TIMER_Open + 40
        0x00003f10:    2603        .&      MOVS     r6,#3
        0x00003f12:    08a4        ..      LSRS     r4,r4,#2
        0x00003f14:    e005        ..      B        0x3f22 ; TIMER_Open + 52
        0x00003f16:    2101        .!      MOVS     r1,#1
        0x00003f18:    0609        ..      LSLS     r1,r1,#24
        0x00003f1a:    428c        .B      CMP      r4,r1
        0x00003f1c:    d301        ..      BCC      0x3f22 ; TIMER_Open + 52
        0x00003f1e:    2601        .&      MOVS     r6,#1
        0x00003f20:    4604        .F      MOV      r4,r0
        0x00003f22:    4619        .F      MOV      r1,r3
        0x00003f24:    4620         F      MOV      r0,r4
        0x00003f26:    f000fc41    ..A.    BL       __aeabi_uidiv ; 0x47ac
        0x00003f2a:    4601        .F      MOV      r1,r0
        0x00003f2c:    6828        (h      LDR      r0,[r5,#0]
        0x00003f2e:    0a00        ..      LSRS     r0,r0,#8
        0x00003f30:    0200        ..      LSLS     r0,r0,#8
        0x00003f32:    4330        0C      ORRS     r0,r0,r6
        0x00003f34:    6028        (`      STR      r0,[r5,#0]
        0x00003f36:    6828        (h      LDR      r0,[r5,#0]
        0x00003f38:    2203        ."      MOVS     r2,#3
        0x00003f3a:    06d2        ..      LSLS     r2,r2,#27
        0x00003f3c:    4390        .C      BICS     r0,r0,r2
        0x00003f3e:    4338        8C      ORRS     r0,r0,r7
        0x00003f40:    6028        (`      STR      r0,[r5,#0]
        0x00003f42:    6069        i`      STR      r1,[r5,#4]
        0x00003f44:    4620         F      MOV      r0,r4
        0x00003f46:    f000fc31    ..1.    BL       __aeabi_uidiv ; 0x47ac
        0x00003f4a:    bdf8        ..      POP      {r3-r7,pc}
    TIMER_Delay
        0x00003f4c:    b5f8        ..      PUSH     {r3-r7,lr}
        0x00003f4e:    460f        .F      MOV      r7,r1
        0x00003f50:    4606        .F      MOV      r6,r0
        0x00003f52:    f7ffffa7    ....    BL       TIMER_GetModuleClock ; 0x3ea4
        0x00003f56:    4605        .F      MOV      r5,r0
        0x00003f58:    2000        .       MOVS     r0,#0
        0x00003f5a:    9000        ..      STR      r0,[sp,#0]
        0x00003f5c:    4827        'H      LDR      r0,[pc,#156] ; [0x3ffc] = 0x20000018
        0x00003f5e:    4629        )F      MOV      r1,r5
        0x00003f60:    6800        .h      LDR      r0,[r0,#0]
        0x00003f62:    f000fc23    ..#.    BL       __aeabi_uidiv ; 0x47ac
        0x00003f66:    4604        .F      MOV      r4,r0
        0x00003f68:    2000        .       MOVS     r0,#0
        0x00003f6a:    6030        0`      STR      r0,[r6,#0]
        0x00003f6c:    6170        pa      STR      r0,[r6,#0x14]
        0x00003f6e:    2f32        2/      CMP      r7,#0x32
        0x00003f70:    d200        ..      BCS      0x3f74 ; TIMER_Delay + 40
        0x00003f72:    2732        2'      MOVS     r7,#0x32
        0x00003f74:    4823        #H      LDR      r0,[pc,#140] ; [0x4004] = 0x2710
        0x00003f76:    4285        .B      CMP      r5,r0
        0x00003f78:    d106        ..      BNE      0x3f88 ; TIMER_Delay + 60
        0x00003f7a:    4638        8F      MOV      r0,r7
        0x00003f7c:    2164        d!      MOVS     r1,#0x64
        0x00003f7e:    3063        c0      ADDS     r0,r0,#0x63
        0x00003f80:    f000fc14    ....    BL       __aeabi_uidiv ; 0x47ac
        0x00003f84:    2164        d!      MOVS     r1,#0x64
        0x00003f86:    e005        ..      B        0x3f94 ; TIMER_Delay + 72
        0x00003f88:    4638        8F      MOV      r0,r7
        0x00003f8a:    210a        .!      MOVS     r1,#0xa
        0x00003f8c:    3009        .0      ADDS     r0,r0,#9
        0x00003f8e:    f000fc0d    ....    BL       __aeabi_uidiv ; 0x47ac
        0x00003f92:    210a        .!      MOVS     r1,#0xa
        0x00003f94:    4348        HC      MULS     r0,r1,r0
        0x00003f96:    4607        .F      MOV      r7,r0
        0x00003f98:    2001        .       MOVS     r0,#1
        0x00003f9a:    0640        @.      LSLS     r0,r0,#25
        0x00003f9c:    4285        .B      CMP      r5,r0
        0x00003f9e:    d303        ..      BCC      0x3fa8 ; TIMER_Delay + 92
        0x00003fa0:    2003        .       MOVS     r0,#3
        0x00003fa2:    08ad        ..      LSRS     r5,r5,#2
        0x00003fa4:    9000        ..      STR      r0,[sp,#0]
        0x00003fa6:    e006        ..      B        0x3fb6 ; TIMER_Delay + 106
        0x00003fa8:    2001        .       MOVS     r0,#1
        0x00003faa:    0600        ..      LSLS     r0,r0,#24
        0x00003fac:    4285        .B      CMP      r5,r0
        0x00003fae:    d302        ..      BCC      0x3fb6 ; TIMER_Delay + 106
        0x00003fb0:    2001        .       MOVS     r0,#1
        0x00003fb2:    086d        m.      LSRS     r5,r5,#1
        0x00003fb4:    9000        ..      STR      r0,[sp,#0]
        0x00003fb6:    4628        (F      MOV      r0,r5
        0x00003fb8:    f000febb    ....    BL       __aeabi_ui2f ; 0x4d32
        0x00003fbc:    4605        .F      MOV      r5,r0
        0x00003fbe:    4638        8F      MOV      r0,r7
        0x00003fc0:    f000feb7    ....    BL       __aeabi_ui2f ; 0x4d32
        0x00003fc4:    4629        )F      MOV      r1,r5
        0x00003fc6:    f000fc90    ....    BL       __aeabi_fmul ; 0x48ea
        0x00003fca:    490f        .I      LDR      r1,[pc,#60] ; [0x4008] = 0x49742400
        0x00003fcc:    f000fcca    ....    BL       __aeabi_fdiv ; 0x4964
        0x00003fd0:    f000fecf    ....    BL       __aeabi_f2uiz ; 0x4d72
        0x00003fd4:    6070        p`      STR      r0,[r6,#4]
        0x00003fd6:    2101        .!      MOVS     r1,#1
        0x00003fd8:    9800        ..      LDR      r0,[sp,#0]
        0x00003fda:    0789        ..      LSLS     r1,r1,#30
        0x00003fdc:    4308        .C      ORRS     r0,r0,r1
        0x00003fde:    6030        0`      STR      r0,[r6,#0]
        0x00003fe0:    2c00        .,      CMP      r4,#0
        0x00003fe2:    d002        ..      BEQ      0x3fea ; TIMER_Delay + 158
        0x00003fe4:    bf00        ..      NOP      
        0x00003fe6:    1e64        d.      SUBS     r4,r4,#1
        0x00003fe8:    d1fc        ..      BNE      0x3fe4 ; TIMER_Delay + 152
        0x00003fea:    6830        0h      LDR      r0,[r6,#0]
        0x00003fec:    0180        ..      LSLS     r0,r0,#6
        0x00003fee:    d4fc        ..      BMI      0x3fea ; TIMER_Delay + 158
        0x00003ff0:    bdf8        ..      POP      {r3-r7,pc}
    $d
        0x00003ff2:    0000        ..      DCW    0
        0x00003ff4:    40010000    ...@    DCD    1073807360
        0x00003ff8:    50000200    ...P    DCD    1342177792
        0x00003ffc:    20000018    ...     DCD    536870936
        0x00004000:    003d0900    ..=.    DCD    4000000
        0x00004004:    00002710    .'..    DCD    10000
        0x00004008:    49742400    .$tI    DCD    1232348160
    $t
    .text
    UART_Open
        0x0000400c:    b570        p.      PUSH     {r4-r6,lr}
        0x0000400e:    4604        .F      MOV      r4,r0
        0x00004010:    2003        .       MOVS     r0,#3
        0x00004012:    460d        .F      MOV      r5,r1
        0x00004014:    60e0        .`      STR      r0,[r4,#0xc]
        0x00004016:    2000        .       MOVS     r0,#0
        0x00004018:    60a0        .`      STR      r0,[r4,#8]
        0x0000401a:    f7fffd77    ..w.    BL       CLK_GetHCLKFreq ; 0x3b0c
        0x0000401e:    2d00        .-      CMP      r5,#0
        0x00004020:    d008        ..      BEQ      0x4034 ; UART_Open + 40
        0x00004022:    0069        i.      LSLS     r1,r5,#1
        0x00004024:    1b40        @.      SUBS     r0,r0,r5
        0x00004026:    f000fbc1    ....    BL       __aeabi_uidiv ; 0x47ac
        0x0000402a:    490e        .I      LDR      r1,[pc,#56] ; [0x4064] = 0xffff
        0x0000402c:    4288        .B      CMP      r0,r1
        0x0000402e:    d900        ..      BLS      0x4032 ; UART_Open + 38
        0x00004030:    4608        .F      MOV      r0,r1
        0x00004032:    6260        `b      STR      r0,[r4,#0x24]
        0x00004034:    bd70        p.      POP      {r4-r6,pc}
    UART_Read
        0x00004036:    b570        p.      PUSH     {r4-r6,lr}
        0x00004038:    4604        .F      MOV      r4,r0
        0x0000403a:    2000        .       MOVS     r0,#0
        0x0000403c:    2501        .%      MOVS     r5,#1
        0x0000403e:    07ad        ..      LSLS     r5,r5,#30
        0x00004040:    e00c        ..      B        0x405c ; UART_Read + 38
        0x00004042:    2300        .#      MOVS     r3,#0
        0x00004044:    e004        ..      B        0x4050 ; UART_Read + 26
        0x00004046:    1c5b        [.      ADDS     r3,r3,#1
        0x00004048:    42ab        .B      CMP      r3,r5
        0x0000404a:    d301        ..      BCC      0x4050 ; UART_Read + 26
        0x0000404c:    2000        .       MOVS     r0,#0
        0x0000404e:    bd70        p.      POP      {r4-r6,pc}
        0x00004050:    69a6        .i      LDR      r6,[r4,#0x18]
        0x00004052:    0476        v.      LSLS     r6,r6,#17
        0x00004054:    d4f7        ..      BMI      0x4046 ; UART_Read + 16
        0x00004056:    6823        #h      LDR      r3,[r4,#0]
        0x00004058:    540b        .T      STRB     r3,[r1,r0]
        0x0000405a:    1c40        @.      ADDS     r0,r0,#1
        0x0000405c:    4290        .B      CMP      r0,r2
        0x0000405e:    d3f0        ..      BCC      0x4042 ; UART_Read + 12
        0x00004060:    bd70        p.      POP      {r4-r6,pc}
    $d
        0x00004062:    0000        ..      DCW    0
        0x00004064:    0000ffff    ....    DCD    65535
    $t
    .text
    setting_rc_channel_all
        0x00004068:    b530        0.      PUSH     {r4,r5,lr}
        0x0000406a:    2301        .#      MOVS     r3,#1
        0x0000406c:    2000        .       MOVS     r0,#0
        0x0000406e:    4afe        .J      LDR      r2,[pc,#1016] ; [0x4468] = 0x2000070a
        0x00004070:    031b        ..      LSLS     r3,r3,#12
        0x00004072:    105c        \.      ASRS     r4,r3,#1
        0x00004074:    210c        .!      MOVS     r1,#0xc
        0x00004076:    4341        AC      MULS     r1,r0,r1
        0x00004078:    1889        ..      ADDS     r1,r1,r2
        0x0000407a:    804b        K.      STRH     r3,[r1,#2]
        0x0000407c:    2500        .%      MOVS     r5,#0
        0x0000407e:    808d        ..      STRH     r5,[r1,#4]
        0x00004080:    2532        2%      MOVS     r5,#0x32
        0x00004082:    1c40        @.      ADDS     r0,r0,#1
        0x00004084:    80cc        ..      STRH     r4,[r1,#6]
        0x00004086:    b2c0        ..      UXTB     r0,r0
        0x00004088:    814d        M.      STRH     r5,[r1,#0xa]
        0x0000408a:    2804        .(      CMP      r0,#4
        0x0000408c:    d3f2        ..      BCC      0x4074 ; setting_rc_channel_all + 12
        0x0000408e:    49f6        .I      LDR      r1,[pc,#984] ; [0x4468] = 0x2000070a
        0x00004090:    2000        .       MOVS     r0,#0
        0x00004092:    7508        .u      STRB     r0,[r1,#0x14]
        0x00004094:    4608        .F      MOV      r0,r1
        0x00004096:    3024        $0      ADDS     r0,r0,#0x24
        0x00004098:    2100        .!      MOVS     r1,#0
        0x0000409a:    7201        .r      STRB     r1,[r0,#8]
        0x0000409c:    49f2        .I      LDR      r1,[pc,#968] ; [0x4468] = 0x2000070a
        0x0000409e:    2000        .       MOVS     r0,#0
        0x000040a0:    7208        .r      STRB     r0,[r1,#8]
        0x000040a2:    4608        .F      MOV      r0,r1
        0x000040a4:    3018        .0      ADDS     r0,r0,#0x18
        0x000040a6:    2101        .!      MOVS     r1,#1
        0x000040a8:    7201        .r      STRB     r1,[r0,#8]
        0x000040aa:    bd30        0.      POP      {r4,r5,pc}
    set_roll_code
        0x000040ac:    b510        ..      PUSH     {r4,lr}
        0x000040ae:    4cef        .L      LDR      r4,[pc,#956] ; [0x446c] = 0x200000bf
        0x000040b0:    2100        .!      MOVS     r1,#0
        0x000040b2:    5c42        B\      LDRB     r2,[r0,r1]
        0x000040b4:    5462        bT      STRB     r2,[r4,r1]
        0x000040b6:    1c49        I.      ADDS     r1,r1,#1
        0x000040b8:    b2c9        ..      UXTB     r1,r1
        0x000040ba:    2903        .)      CMP      r1,#3
        0x000040bc:    d3f9        ..      BCC      0x40b2 ; set_roll_code + 6
        0x000040be:    78a3        .x      LDRB     r3,[r4,#2]
        0x000040c0:    7862        bx      LDRB     r2,[r4,#1]
        0x000040c2:    7821        !x      LDRB     r1,[r4,#0]
        0x000040c4:    a0ea        ..      ADR      r0,{pc}+0x3ac ; 0x4470
        0x000040c6:    f001f8df    ....    BL       __0printf ; 0x5288
        0x000040ca:    bd10        ..      POP      {r4,pc}
    auto_code_matching
        0x000040cc:    48e6        .H      LDR      r0,[pc,#920] ; [0x4468] = 0x2000070a
        0x000040ce:    b510        ..      PUSH     {r4,lr}
        0x000040d0:    2111        .!      MOVS     r1,#0x11
        0x000040d2:    3030        00      ADDS     r0,r0,#0x30
        0x000040d4:    f000fad6    ....    BL       ucRF_DumpRxData ; 0x4684
        0x000040d8:    48e3        .H      LDR      r0,[pc,#908] ; [0x4468] = 0x2000070a
        0x000040da:    3030        00      ADDS     r0,r0,#0x30
        0x000040dc:    7801        .x      LDRB     r1,[r0,#0]
        0x000040de:    29aa        .)      CMP      r1,#0xaa
        0x000040e0:    d108        ..      BNE      0x40f4 ; auto_code_matching + 40
        0x000040e2:    7841        Ax      LDRB     r1,[r0,#1]
        0x000040e4:    29aa        .)      CMP      r1,#0xaa
        0x000040e6:    d105        ..      BNE      0x40f4 ; auto_code_matching + 40
        0x000040e8:    7bc1        .{      LDRB     r1,[r0,#0xf]
        0x000040ea:    29ce        .)      CMP      r1,#0xce
        0x000040ec:    d102        ..      BNE      0x40f4 ; auto_code_matching + 40
        0x000040ee:    7c01        .|      LDRB     r1,[r0,#0x10]
        0x000040f0:    29ed        .)      CMP      r1,#0xed
        0x000040f2:    d001        ..      BEQ      0x40f8 ; auto_code_matching + 44
        0x000040f4:    2000        .       MOVS     r0,#0
        0x000040f6:    bd10        ..      POP      {r4,pc}
        0x000040f8:    1c80        ..      ADDS     r0,r0,#2
        0x000040fa:    f7ffffd7    ....    BL       set_roll_code ; 0x40ac
        0x000040fe:    49e3        .I      LDR      r1,[pc,#908] ; [0x448c] = 0x20000134
        0x00004100:    2001        .       MOVS     r0,#1
        0x00004102:    7088        .p      STRB     r0,[r1,#2]
        0x00004104:    bd10        ..      POP      {r4,pc}
    rc_channel_init
        0x00004106:    b510        ..      PUSH     {r4,lr}
        0x00004108:    2405        .$      MOVS     r4,#5
        0x0000410a:    f7fffca5    ....    BL       SPI1_Init ; 0x3a58
        0x0000410e:    f000fad5    ....    BL       RF_Init ; 0x46bc
        0x00004112:    f000fa8d    ....    BL       RF_RxMode ; 0x4630
        0x00004116:    a0de        ..      ADR      r0,{pc}+0x37a ; 0x4490
        0x00004118:    f001f8b6    ....    BL       __0printf ; 0x5288
        0x0000411c:    f7ffffd6    ....    BL       auto_code_matching ; 0x40cc
        0x00004120:    2800        .(      CMP      r0,#0
        0x00004122:    d103        ..      BNE      0x412c ; rc_channel_init + 38
        0x00004124:    1e64        d.      SUBS     r4,r4,#1
        0x00004126:    0624        $.      LSLS     r4,r4,#24
        0x00004128:    0e24        $.      LSRS     r4,r4,#24
        0x0000412a:    d1f7        ..      BNE      0x411c ; rc_channel_init + 22
        0x0000412c:    f7ffff9c    ....    BL       setting_rc_channel_all ; 0x4068
        0x00004130:    bd10        ..      POP      {r4,pc}
    switch_event_trigger
        0x00004132:    b5f8        ..      PUSH     {r3-r7,lr}
        0x00004134:    4607        .F      MOV      r7,r0
        0x00004136:    4cdc        .L      LDR      r4,[pc,#880] ; [0x44a8] = 0x20000140
        0x00004138:    49d4        .I      LDR      r1,[pc,#848] ; [0x448c] = 0x20000134
        0x0000413a:    4620         F      MOV      r0,r4
        0x0000413c:    3030        00      ADDS     r0,r0,#0x30
        0x0000413e:    9000        ..      STR      r0,[sp,#0]
        0x00004140:    2600        .&      MOVS     r6,#0
        0x00004142:    7a08        .z      LDRB     r0,[r1,#8]
        0x00004144:    68a5        .h      LDR      r5,[r4,#8]
        0x00004146:    6862        bh      LDR      r2,[r4,#4]
        0x00004148:    003b        ;.      MOVS     r3,r7
        0x0000414a:    f001f8dd    ....    BL       __ARM_common_switch8 ; 0x5308
    $d
        0x0000414e:    0508        ..      DCW    1288
        0x00004150:    35332d13    .-35    DCD    892546323
        0x00004154:    31634739    9Gc1    DCD    828589881
    $t
        0x00004158:    4dd4        .M      LDR      r5,[pc,#848] ; [0x44ac] = 0x3c23d70a
        0x0000415a:    4610        .F      MOV      r0,r2
        0x0000415c:    4629        )F      MOV      r1,r5
        0x0000415e:    f000fb6b    ..k.    BL       __aeabi_fadd ; 0x4838
        0x00004162:    4601        .F      MOV      r1,r0
        0x00004164:    48d0        .H      LDR      r0,[pc,#832] ; [0x44a8] = 0x20000140
        0x00004166:    f7fdf9fa    ....    BL       set_pid_param_i ; 0x155e
        0x0000416a:    4629        )F      MOV      r1,r5
        0x0000416c:    6b60        `k      LDR      r0,[r4,#0x34]
        0x0000416e:    f000fb63    ..c.    BL       __aeabi_fadd ; 0x4838
        0x00004172:    e00c        ..      B        0x418e ; switch_event_trigger + 92
        0x00004174:    4dcd        .M      LDR      r5,[pc,#820] ; [0x44ac] = 0x3c23d70a
        0x00004176:    4610        .F      MOV      r0,r2
        0x00004178:    4629        )F      MOV      r1,r5
        0x0000417a:    f000fbae    ....    BL       __aeabi_fsub ; 0x48da
        0x0000417e:    4601        .F      MOV      r1,r0
        0x00004180:    48c9        .H      LDR      r0,[pc,#804] ; [0x44a8] = 0x20000140
        0x00004182:    f7fdf9ec    ....    BL       set_pid_param_i ; 0x155e
        0x00004186:    4629        )F      MOV      r1,r5
        0x00004188:    6b60        `k      LDR      r0,[r4,#0x34]
        0x0000418a:    f000fba6    ....    BL       __aeabi_fsub ; 0x48da
        0x0000418e:    4601        .F      MOV      r1,r0
        0x00004190:    9800        ..      LDR      r0,[sp,#0]
        0x00004192:    f7fdf9e4    ....    BL       set_pid_param_i ; 0x155e
        0x00004196:    49c6        .I      LDR      r1,[pc,#792] ; [0x44b0] = 0x42c80000
        0x00004198:    6b60        `k      LDR      r0,[r4,#0x34]
        0x0000419a:    f000fba6    ....    BL       __aeabi_fmul ; 0x48ea
        0x0000419e:    f000fdcf    ....    BL       __aeabi_f2iz ; 0x4d40
        0x000041a2:    b201        ..      SXTH     r1,r0
        0x000041a4:    a0c3        ..      ADR      r0,{pc}+0x310 ; 0x44b4
        0x000041a6:    e032        2.      B        0x420e ; switch_event_trigger + 220
        0x000041a8:    28ff        .(      CMP      r0,#0xff
        0x000041aa:    d002        ..      BEQ      0x41b2 ; switch_event_trigger + 128
        0x000041ac:    20ff        .       MOVS     r0,#0xff
        0x000041ae:    7208        .r      STRB     r0,[r1,#8]
        0x000041b0:    bdf8        ..      POP      {r3-r7,pc}
        0x000041b2:    720e        .r      STRB     r6,[r1,#8]
        0x000041b4:    700e        .p      STRB     r6,[r1,#0]
        0x000041b6:    bdf8        ..      POP      {r3-r7,pc}
        0x000041b8:    2003        .       MOVS     r0,#3
        0x000041ba:    f7fdfcff    ....    BL       set_flight_mode ; 0x1bbc
        0x000041be:    bdf8        ..      POP      {r3-r7,pc}
        0x000041c0:    4ec1        .N      LDR      r6,[pc,#772] ; [0x44c8] = 0x3a03126f
        0x000041c2:    4628        (F      MOV      r0,r5
        0x000041c4:    4631        1F      MOV      r1,r6
        0x000041c6:    f000fb37    ..7.    BL       __aeabi_fadd ; 0x4838
        0x000041ca:    4601        .F      MOV      r1,r0
        0x000041cc:    48b6        .H      LDR      r0,[pc,#728] ; [0x44a8] = 0x20000140
        0x000041ce:    f7fdf9ca    ....    BL       set_pid_param_d ; 0x1566
        0x000041d2:    4631        1F      MOV      r1,r6
        0x000041d4:    6ba0        .k      LDR      r0,[r4,#0x38]
        0x000041d6:    f000fb2f    ../.    BL       __aeabi_fadd ; 0x4838
        0x000041da:    e00c        ..      B        0x41f6 ; switch_event_trigger + 196
        0x000041dc:    4eba        .N      LDR      r6,[pc,#744] ; [0x44c8] = 0x3a03126f
        0x000041de:    4628        (F      MOV      r0,r5
        0x000041e0:    4631        1F      MOV      r1,r6
        0x000041e2:    f000fb7a    ..z.    BL       __aeabi_fsub ; 0x48da
        0x000041e6:    4601        .F      MOV      r1,r0
        0x000041e8:    48af        .H      LDR      r0,[pc,#700] ; [0x44a8] = 0x20000140
        0x000041ea:    f7fdf9bc    ....    BL       set_pid_param_d ; 0x1566
        0x000041ee:    4631        1F      MOV      r1,r6
        0x000041f0:    6ba0        .k      LDR      r0,[r4,#0x38]
        0x000041f2:    f000fb72    ..r.    BL       __aeabi_fsub ; 0x48da
        0x000041f6:    4601        .F      MOV      r1,r0
        0x000041f8:    9800        ..      LDR      r0,[sp,#0]
        0x000041fa:    f7fdf9b4    ....    BL       set_pid_param_d ; 0x1566
        0x000041fe:    49b3        .I      LDR      r1,[pc,#716] ; [0x44cc] = 0x461c4000
        0x00004200:    6ba0        .k      LDR      r0,[r4,#0x38]
        0x00004202:    f000fb72    ..r.    BL       __aeabi_fmul ; 0x48ea
        0x00004206:    f000fd9b    ....    BL       __aeabi_f2iz ; 0x4d40
        0x0000420a:    b201        ..      SXTH     r1,r0
        0x0000420c:    a0b0        ..      ADR      r0,{pc}+0x2c4 ; 0x44d0
        0x0000420e:    f001f83b    ..;.    BL       __0printf ; 0x5288
        0x00004212:    bdf8        ..      POP      {r3-r7,pc}
        0x00004214:    1c40        @.      ADDS     r0,r0,#1
        0x00004216:    b2c0        ..      UXTB     r0,r0
        0x00004218:    7208        .r      STRB     r0,[r1,#8]
        0x0000421a:    2807        .(      CMP      r0,#7
        0x0000421c:    d3f9        ..      BCC      0x4212 ; switch_event_trigger + 224
        0x0000421e:    720e        .r      STRB     r6,[r1,#8]
        0x00004220:    bdf8        ..      POP      {r3-r7,pc}
    rc_channel_read
        0x00004222:    b5f8        ..      PUSH     {r3-r7,lr}
        0x00004224:    4891        .H      LDR      r0,[pc,#580] ; [0x446c] = 0x200000bf
        0x00004226:    1ec0        ..      SUBS     r0,r0,#3
        0x00004228:    7805        .x      LDRB     r5,[r0,#0]
        0x0000422a:    2011        .       MOVS     r0,#0x11
        0x0000422c:    1b40        @.      SUBS     r0,r0,r5
        0x0000422e:    b2c6        ..      UXTB     r6,r0
        0x00004230:    4896        .H      LDR      r0,[pc,#600] ; [0x448c] = 0x20000134
        0x00004232:    7880        .x      LDRB     r0,[r0,#2]
        0x00004234:    2800        .(      CMP      r0,#0
        0x00004236:    d00e        ..      BEQ      0x4256 ; rc_channel_read + 52
        0x00004238:    488b        .H      LDR      r0,[pc,#556] ; [0x4468] = 0x2000070a
        0x0000423a:    2111        .!      MOVS     r1,#0x11
        0x0000423c:    3030        00      ADDS     r0,r0,#0x30
        0x0000423e:    f000fae6    ....    BL       __aeabi_memclr ; 0x480e
        0x00004242:    4c89        .L      LDR      r4,[pc,#548] ; [0x4468] = 0x2000070a
        0x00004244:    4631        1F      MOV      r1,r6
        0x00004246:    3430        04      ADDS     r4,r4,#0x30
        0x00004248:    1960        `.      ADDS     r0,r4,r5
        0x0000424a:    f000fa1b    ....    BL       ucRF_DumpRxData ; 0x4684
        0x0000424e:    7820         x      LDRB     r0,[r4,#0]
        0x00004250:    28aa        .(      CMP      r0,#0xaa
        0x00004252:    d003        ..      BEQ      0x425c ; rc_channel_read + 58
        0x00004254:    e059        Y.      B        0x430a ; rc_channel_read + 232
        0x00004256:    f7ffff39    ..9.    BL       auto_code_matching ; 0x40cc
        0x0000425a:    e056        V.      B        0x430a ; rc_channel_read + 232
        0x0000425c:    7860        `x      LDRB     r0,[r4,#1]
        0x0000425e:    28aa        .(      CMP      r0,#0xaa
        0x00004260:    d153        S.      BNE      0x430a ; rc_channel_read + 232
        0x00004262:    7be0        .{      LDRB     r0,[r4,#0xf]
        0x00004264:    28ce        .(      CMP      r0,#0xce
        0x00004266:    d150        P.      BNE      0x430a ; rc_channel_read + 232
        0x00004268:    7c20         |      LDRB     r0,[r4,#0x10]
        0x0000426a:    28ed        .(      CMP      r0,#0xed
        0x0000426c:    d14d        M.      BNE      0x430a ; rc_channel_read + 232
        0x0000426e:    497f        .I      LDR      r1,[pc,#508] ; [0x446c] = 0x200000bf
        0x00004270:    2000        .       MOVS     r0,#0
        0x00004272:    1822        ".      ADDS     r2,r4,r0
        0x00004274:    7892        .x      LDRB     r2,[r2,#2]
        0x00004276:    5c0b        .\      LDRB     r3,[r1,r0]
        0x00004278:    429a        .B      CMP      r2,r3
        0x0000427a:    d146        F.      BNE      0x430a ; rc_channel_read + 232
        0x0000427c:    1c40        @.      ADDS     r0,r0,#1
        0x0000427e:    b2c0        ..      UXTB     r0,r0
        0x00004280:    2803        .(      CMP      r0,#3
        0x00004282:    d3f6        ..      BCC      0x4272 ; rc_channel_read + 80
        0x00004284:    88e0        ..      LDRH     r0,[r4,#6]
        0x00004286:    4e79        yN      LDR      r6,[pc,#484] ; [0x446c] = 0x200000bf
        0x00004288:    ba41        A.      REV16    r1,r0
        0x0000428a:    4877        wH      LDR      r0,[pc,#476] ; [0x4468] = 0x2000070a
        0x0000428c:    1cf6        ..      ADDS     r6,r6,#3
        0x0000428e:    8001        ..      STRH     r1,[r0,#0]
        0x00004290:    8921        !.      LDRH     r1,[r4,#8]
        0x00004292:    4635        5F      MOV      r5,r6
        0x00004294:    ba49        I.      REV16    r1,r1
        0x00004296:    8181        ..      STRH     r1,[r0,#0xc]
        0x00004298:    8961        a.      LDRH     r1,[r4,#0xa]
        0x0000429a:    ba49        I.      REV16    r1,r1
        0x0000429c:    8301        ..      STRH     r1,[r0,#0x18]
        0x0000429e:    89a1        ..      LDRH     r1,[r4,#0xc]
        0x000042a0:    ba49        I.      REV16    r1,r1
        0x000042a2:    8481        ..      STRH     r1,[r0,#0x24]
        0x000042a4:    7ba0        .{      LDRB     r0,[r4,#0xe]
        0x000042a6:    2400        .$      MOVS     r4,#0
        0x000042a8:    07c1        ..      LSLS     r1,r0,#31
        0x000042aa:    0fc9        ..      LSRS     r1,r1,#31
        0x000042ac:    7031        1p      STRB     r1,[r6,#0]
        0x000042ae:    0781        ..      LSLS     r1,r0,#30
        0x000042b0:    0fc9        ..      LSRS     r1,r1,#31
        0x000042b2:    7071        qp      STRB     r1,[r6,#1]
        0x000042b4:    0741        A.      LSLS     r1,r0,#29
        0x000042b6:    0fc9        ..      LSRS     r1,r1,#31
        0x000042b8:    70b1        .p      STRB     r1,[r6,#2]
        0x000042ba:    0701        ..      LSLS     r1,r0,#28
        0x000042bc:    0fc9        ..      LSRS     r1,r1,#31
        0x000042be:    70f1        .p      STRB     r1,[r6,#3]
        0x000042c0:    06c1        ..      LSLS     r1,r0,#27
        0x000042c2:    0fc9        ..      LSRS     r1,r1,#31
        0x000042c4:    7131        1q      STRB     r1,[r6,#4]
        0x000042c6:    0681        ..      LSLS     r1,r0,#26
        0x000042c8:    0fc9        ..      LSRS     r1,r1,#31
        0x000042ca:    7171        qq      STRB     r1,[r6,#5]
        0x000042cc:    0641        A.      LSLS     r1,r0,#25
        0x000042ce:    0fc9        ..      LSRS     r1,r1,#31
        0x000042d0:    09c0        ..      LSRS     r0,r0,#7
        0x000042d2:    71b1        .q      STRB     r1,[r6,#6]
        0x000042d4:    71f0        .q      STRB     r0,[r6,#7]
        0x000042d6:    4627        'F      MOV      r7,r4
        0x000042d8:    3508        .5      ADDS     r5,r5,#8
        0x000042da:    5d30        0]      LDRB     r0,[r6,r4]
        0x000042dc:    0780        ..      LSLS     r0,r0,#30
        0x000042de:    5d28        (]      LDRB     r0,[r5,r4]
        0x000042e0:    d002        ..      BEQ      0x42e8 ; rc_channel_read + 198
        0x000042e2:    1c40        @.      ADDS     r0,r0,#1
        0x000042e4:    5528        (U      STRB     r0,[r5,r4]
        0x000042e6:    e00a        ..      B        0x42fe ; rc_channel_read + 220
        0x000042e8:    2800        .(      CMP      r0,#0
        0x000042ea:    d008        ..      BEQ      0x42fe ; rc_channel_read + 220
        0x000042ec:    28fa        .(      CMP      r0,#0xfa
        0x000042ee:    d301        ..      BCC      0x42f4 ; rc_channel_read + 210
        0x000042f0:    2101        .!      MOVS     r1,#1
        0x000042f2:    e000        ..      B        0x42f6 ; rc_channel_read + 212
        0x000042f4:    2100        .!      MOVS     r1,#0
        0x000042f6:    4620         F      MOV      r0,r4
        0x000042f8:    f7ffff1b    ....    BL       switch_event_trigger ; 0x4132
        0x000042fc:    552f        /U      STRB     r7,[r5,r4]
        0x000042fe:    1c64        d.      ADDS     r4,r4,#1
        0x00004300:    b2e4        ..      UXTB     r4,r4
        0x00004302:    2c08        .,      CMP      r4,#8
        0x00004304:    d3e9        ..      BCC      0x42da ; rc_channel_read + 184
        0x00004306:    2001        .       MOVS     r0,#1
        0x00004308:    bdf8        ..      POP      {r3-r7,pc}
        0x0000430a:    2000        .       MOVS     r0,#0
        0x0000430c:    bdf8        ..      POP      {r3-r7,pc}
    norm_input_dz
        0x0000430e:    b5f8        ..      PUSH     {r3-r7,lr}
        0x00004310:    7a01        .z      LDRB     r1,[r0,#8]
        0x00004312:    2900        .)      CMP      r1,#0
        0x00004314:    d002        ..      BEQ      0x431c ; norm_input_dz + 14
        0x00004316:    2700        .'      MOVS     r7,#0
        0x00004318:    43ff        .C      MVNS     r7,r7
        0x0000431a:    e000        ..      B        0x431e ; norm_input_dz + 16
        0x0000431c:    2701        .'      MOVS     r7,#1
        0x0000431e:    88c1        ..      LDRH     r1,[r0,#6]
        0x00004320:    8942        B.      LDRH     r2,[r0,#0xa]
        0x00004322:    8806        ..      LDRH     r6,[r0,#0]
        0x00004324:    1a8b        ..      SUBS     r3,r1,r2
        0x00004326:    1889        ..      ADDS     r1,r1,r2
        0x00004328:    b21d        ..      SXTH     r5,r3
        0x0000432a:    b20c        ..      SXTH     r4,r1
        0x0000432c:    42ae        .B      CMP      r6,r5
        0x0000432e:    da12        ..      BGE      0x4356 ; norm_input_dz + 72
        0x00004330:    8881        ..      LDRH     r1,[r0,#4]
        0x00004332:    42a9        .B      CMP      r1,r5
        0x00004334:    da0f        ..      BGE      0x4356 ; norm_input_dz + 72
        0x00004336:    1a68        h.      SUBS     r0,r5,r1
        0x00004338:    f000fcf0    ....    BL       __aeabi_i2f ; 0x4d1c
        0x0000433c:    4604        .F      MOV      r4,r0
        0x0000433e:    1b70        p.      SUBS     r0,r6,r5
        0x00004340:    f000fcec    ....    BL       __aeabi_i2f ; 0x4d1c
        0x00004344:    4605        .F      MOV      r5,r0
        0x00004346:    4638        8F      MOV      r0,r7
        0x00004348:    f000fce8    ....    BL       __aeabi_i2f ; 0x4d1c
        0x0000434c:    4629        )F      MOV      r1,r5
        0x0000434e:    f000facc    ....    BL       __aeabi_fmul ; 0x48ea
        0x00004352:    4621        !F      MOV      r1,r4
        0x00004354:    e013        ..      B        0x437e ; norm_input_dz + 112
        0x00004356:    42a6        .B      CMP      r6,r4
        0x00004358:    dd14        ..      BLE      0x4384 ; norm_input_dz + 118
        0x0000435a:    8840        @.      LDRH     r0,[r0,#2]
        0x0000435c:    42a0        .B      CMP      r0,r4
        0x0000435e:    dd11        ..      BLE      0x4384 ; norm_input_dz + 118
        0x00004360:    1b00        ..      SUBS     r0,r0,r4
        0x00004362:    f000fcdb    ....    BL       __aeabi_i2f ; 0x4d1c
        0x00004366:    4605        .F      MOV      r5,r0
        0x00004368:    1b30        0.      SUBS     r0,r6,r4
        0x0000436a:    f000fcd7    ....    BL       __aeabi_i2f ; 0x4d1c
        0x0000436e:    4604        .F      MOV      r4,r0
        0x00004370:    4638        8F      MOV      r0,r7
        0x00004372:    f000fcd3    ....    BL       __aeabi_i2f ; 0x4d1c
        0x00004376:    4621        !F      MOV      r1,r4
        0x00004378:    f000fab7    ....    BL       __aeabi_fmul ; 0x48ea
        0x0000437c:    4629        )F      MOV      r1,r5
        0x0000437e:    f000faf1    ....    BL       __aeabi_fdiv ; 0x4964
        0x00004382:    e000        ..      B        0x4386 ; norm_input_dz + 120
        0x00004384:    2000        .       MOVS     r0,#0
        0x00004386:    217f        .!      MOVS     r1,#0x7f
        0x00004388:    4a56        VJ      LDR      r2,[pc,#344] ; [0x44e4] = 0xbf800000
        0x0000438a:    05c9        ..      LSLS     r1,r1,#23
        0x0000438c:    f7fdf89a    ....    BL       data_limit ; 0x14c4
        0x00004390:    bdf8        ..      POP      {r3-r7,pc}
    channel_input_to_target
        0x00004392:    b510        ..      PUSH     {r4,lr}
        0x00004394:    460c        .F      MOV      r4,r1
        0x00004396:    f7ffffba    ....    BL       norm_input_dz ; 0x430e
        0x0000439a:    4621        !F      MOV      r1,r4
        0x0000439c:    f000faa5    ....    BL       __aeabi_fmul ; 0x48ea
        0x000043a0:    bd10        ..      POP      {r4,pc}
    get_desired_leans_angles
        0x000043a2:    b5f8        ..      PUSH     {r3-r7,lr}
        0x000043a4:    4604        .F      MOV      r4,r0
        0x000043a6:    4850        PH      LDR      r0,[pc,#320] ; [0x44e8] = 0x42340000
        0x000043a8:    460d        .F      MOV      r5,r1
        0x000043aa:    4281        .B      CMP      r1,r0
        0x000043ac:    dd00        ..      BLE      0x43b0 ; get_desired_leans_angles + 14
        0x000043ae:    4605        .F      MOV      r5,r0
        0x000043b0:    482d        -H      LDR      r0,[pc,#180] ; [0x4468] = 0x2000070a
        0x000043b2:    4629        )F      MOV      r1,r5
        0x000043b4:    300c        .0      ADDS     r0,r0,#0xc
        0x000043b6:    f7ffffec    ....    BL       channel_input_to_target ; 0x4392
        0x000043ba:    4607        .F      MOV      r7,r0
        0x000043bc:    4629        )F      MOV      r1,r5
        0x000043be:    482a        *H      LDR      r0,[pc,#168] ; [0x4468] = 0x2000070a
        0x000043c0:    f7ffffe7    ....    BL       channel_input_to_target ; 0x4392
        0x000043c4:    4606        .F      MOV      r6,r0
        0x000043c6:    4601        .F      MOV      r1,r0
        0x000043c8:    f000fa8f    ....    BL       __aeabi_fmul ; 0x48ea
        0x000043cc:    4639        9F      MOV      r1,r7
        0x000043ce:    9000        ..      STR      r0,[sp,#0]
        0x000043d0:    4608        .F      MOV      r0,r1
        0x000043d2:    f000fa8a    ....    BL       __aeabi_fmul ; 0x48ea
        0x000043d6:    9900        ..      LDR      r1,[sp,#0]
        0x000043d8:    f000fa2e    ....    BL       __aeabi_fadd ; 0x4838
        0x000043dc:    4629        )F      MOV      r1,r5
        0x000043de:    9000        ..      STR      r0,[sp,#0]
        0x000043e0:    4608        .F      MOV      r0,r1
        0x000043e2:    f000fa82    ....    BL       __aeabi_fmul ; 0x48ea
        0x000043e6:    9900        ..      LDR      r1,[sp,#0]
        0x000043e8:    f000fd1c    ....    BL       __aeabi_cfcmpeq ; 0x4e24
        0x000043ec:    d211        ..      BCS      0x4412 ; get_desired_leans_angles + 112
        0x000043ee:    9800        ..      LDR      r0,[sp,#0]
        0x000043f0:    f7fdf850    ..P.    BL       Q_rsqrt ; 0x1494
        0x000043f4:    4601        .F      MOV      r1,r0
        0x000043f6:    4628        (F      MOV      r0,r5
        0x000043f8:    f000fa77    ..w.    BL       __aeabi_fmul ; 0x48ea
        0x000043fc:    4601        .F      MOV      r1,r0
        0x000043fe:    9000        ..      STR      r0,[sp,#0]
        0x00004400:    4638        8F      MOV      r0,r7
        0x00004402:    f000fa72    ..r.    BL       __aeabi_fmul ; 0x48ea
        0x00004406:    4607        .F      MOV      r7,r0
        0x00004408:    4630        0F      MOV      r0,r6
        0x0000440a:    9900        ..      LDR      r1,[sp,#0]
        0x0000440c:    f000fa6d    ..m.    BL       __aeabi_fmul ; 0x48ea
        0x00004410:    4606        .F      MOV      r6,r0
        0x00004412:    4815        .H      LDR      r0,[pc,#84] ; [0x4468] = 0x2000070a
        0x00004414:    6027        '`      STR      r7,[r4,#0]
        0x00004416:    4629        )F      MOV      r1,r5
        0x00004418:    3024        $0      ADDS     r0,r0,#0x24
        0x0000441a:    6066        f`      STR      r6,[r4,#4]
        0x0000441c:    f7ffffb9    ....    BL       channel_input_to_target ; 0x4392
        0x00004420:    4932        2I      LDR      r1,[pc,#200] ; [0x44ec] = 0x200002c0
        0x00004422:    6809        .h      LDR      r1,[r1,#0]
        0x00004424:    f000fa61    ..a.    BL       __aeabi_fmul ; 0x48ea
        0x00004428:    60a0        .`      STR      r0,[r4,#8]
        0x0000442a:    bdf8        ..      POP      {r3-r7,pc}
    get_desired_throttle_expo
        0x0000442c:    b5f8        ..      PUSH     {r3-r7,lr}
        0x0000442e:    480e        .H      LDR      r0,[pc,#56] ; [0x4468] = 0x2000070a
        0x00004430:    3018        .0      ADDS     r0,r0,#0x18
        0x00004432:    f7ffff6c    ..l.    BL       norm_input_dz ; 0x430e
        0x00004436:    217f        .!      MOVS     r1,#0x7f
        0x00004438:    05c9        ..      LSLS     r1,r1,#23
        0x0000443a:    f000f9fd    ....    BL       __aeabi_fadd ; 0x4838
        0x0000443e:    2100        .!      MOVS     r1,#0
        0x00004440:    43c9        .C      MVNS     r1,r1
        0x00004442:    f000facd    ....    BL       __ARM_scalbnf ; 0x49e0
        0x00004446:    f000fca8    ....    BL       __aeabi_f2d ; 0x4d9a
        0x0000444a:    4605        .F      MOV      r5,r0
        0x0000444c:    460c        .F      MOV      r4,r1
        0x0000444e:    4a28        (J      LDR      r2,[pc,#160] ; [0x44f0] = 0x9999999a
        0x00004450:    4b28        (K      LDR      r3,[pc,#160] ; [0x44f4] = 0x3fd99999
        0x00004452:    f000fb83    ....    BL       __aeabi_dmul ; 0x4b5c
        0x00004456:    462a        *F      MOV      r2,r5
        0x00004458:    4623        #F      MOV      r3,r4
        0x0000445a:    f000fb7f    ....    BL       __aeabi_dmul ; 0x4b5c
        0x0000445e:    462a        *F      MOV      r2,r5
        0x00004460:    4623        #F      MOV      r3,r4
        0x00004462:    f000fb7b    ..{.    BL       __aeabi_dmul ; 0x4b5c
        0x00004466:    e047        G.      B        0x44f8 ; get_desired_throttle_expo + 204
    $d
        0x00004468:    2000070a    ...     DCD    536872714
        0x0000446c:    200000bf    ...     DCD    536871103
        0x00004470:    6c6c6f72    roll    DCD    1819045746
        0x00004474:    646f6320     cod    DCD    1685021472
        0x00004478:    30203a65    e: 0    DCD    807418469
        0x0000447c:    20582578    x%X     DCD    542647672
        0x00004480:    58257830    0x%X    DCD    1478850608
        0x00004484:    25783020     0x%    DCD    628633632
        0x00004488:    00000a58    X...    DCD    2648
        0x0000448c:    20000134    4..     DCD    536871220
        0x00004490:    78206672    rf x    DCD    2015389298
        0x00004494:    3031736e    ns10    DCD    808547182
        0x00004498:    6e692034    4 in    DCD    1852383284
        0x0000449c:    73207469    it s    DCD    1931506793
        0x000044a0:    65636375    ucce    DCD    1701012341
        0x000044a4:    000a7373    ss..    DCD    684915
        0x000044a8:    20000140    @..     DCD    536871232
        0x000044ac:    3c23d70a    ..#<    DCD    1008981770
        0x000044b0:    42c80000    ...B    DCD    1120403456
        0x000044b4:    5f746573    set_    DCD    1601463667
        0x000044b8:    5f646970    pid_    DCD    1600416112
        0x000044bc:    61726170    para    DCD    1634886000
        0x000044c0:    3a705f6d    m_p:    DCD    980442989
        0x000044c4:    00006925    %i..    DCD    26917
        0x000044c8:    3a03126f    o..:    DCD    973279855
        0x000044cc:    461c4000    .@.F    DCD    1176256512
        0x000044d0:    5f746573    set_    DCD    1601463667
        0x000044d4:    5f646970    pid_    DCD    1600416112
        0x000044d8:    61726170    para    DCD    1634886000
        0x000044dc:    3a645f6d    m_d:    DCD    979656557
        0x000044e0:    00006425    %d..    DCD    25637
        0x000044e4:    bf800000    ....    DCD    3212836864
        0x000044e8:    42340000    ..4B    DCD    1110704128
        0x000044ec:    200002c0    ...     DCD    536871616
        0x000044f0:    9999999a    ....    DCD    2576980378
        0x000044f4:    3fd99999    ...?    DCD    1071225241
    $t
        0x000044f8:    4606        .F      MOV      r6,r0
        0x000044fa:    460f        .F      MOV      r7,r1
        0x000044fc:    4628        (F      MOV      r0,r5
        0x000044fe:    4621        !F      MOV      r1,r4
        0x00004500:    4a43        CJ      LDR      r2,[pc,#268] ; [0x4610] = 0x33333333
        0x00004502:    4b44        DK      LDR      r3,[pc,#272] ; [0x4614] = 0x3fe33333
        0x00004504:    f000fb2a    ..*.    BL       __aeabi_dmul ; 0x4b5c
        0x00004508:    4632        2F      MOV      r2,r6
        0x0000450a:    463b        ;F      MOV      r3,r7
        0x0000450c:    f000fa74    ..t.    BL       __aeabi_dadd ; 0x49f8
        0x00004510:    f000fc6c    ..l.    BL       __aeabi_d2f ; 0x4dec
        0x00004514:    2200        ."      MOVS     r2,#0
        0x00004516:    4940        @I      LDR      r1,[pc,#256] ; [0x4618] = 0x3f733333
        0x00004518:    f7fcffd4    ....    BL       data_limit ; 0x14c4
        0x0000451c:    bdf8        ..      POP      {r3-r7,pc}
    check_motor_armed
        0x0000451e:    b5fe        ..      PUSH     {r1-r7,lr}
        0x00004520:    4a3e        >J      LDR      r2,[pc,#248] ; [0x461c] = 0x20000134
        0x00004522:    4c3f        ?L      LDR      r4,[pc,#252] ; [0x4620] = 0x2000070a
        0x00004524:    7813        .x      LDRB     r3,[r2,#0]
        0x00004526:    8820         .      LDRH     r0,[r4,#0]
        0x00004528:    9001        ..      STR      r0,[sp,#4]
        0x0000452a:    89a0        ..      LDRH     r0,[r4,#0xc]
        0x0000452c:    9000        ..      STR      r0,[sp,#0]
        0x0000452e:    8ca0        ..      LDRH     r0,[r4,#0x24]
        0x00004530:    2100        .!      MOVS     r1,#0
        0x00004532:    4686        .F      MOV      lr,r0
        0x00004534:    8b20         .      LDRH     r0,[r4,#0x18]
        0x00004536:    4d3b        ;M      LDR      r5,[pc,#236] ; [0x4624] = 0x200000bc
        0x00004538:    2b00        .+      CMP      r3,#0
        0x0000453a:    d014        ..      BEQ      0x4566 ; check_motor_armed + 72
        0x0000453c:    4626        &F      MOV      r6,r4
        0x0000453e:    2720         '      MOVS     r7,#0x20
        0x00004540:    5dbf        .]      LDRB     r7,[r7,r6]
        0x00004542:    8c76        v.      LDRH     r6,[r6,#0x22]
        0x00004544:    46bc        .F      MOV      r12,r7
        0x00004546:    4617        .F      MOV      r7,r2
        0x00004548:    787f        .x      LDRB     r7,[r7,#1]
        0x0000454a:    2b01        .+      CMP      r3,#1
        0x0000454c:    d023        #.      BEQ      0x4596 ; check_motor_armed + 120
        0x0000454e:    2b02        .+      CMP      r3,#2
        0x00004550:    d120         .      BNE      0x4594 ; check_motor_armed + 118
        0x00004552:    4663        cF      MOV      r3,r12
        0x00004554:    2b00        .+      CMP      r3,#0
        0x00004556:    d01c        ..      BEQ      0x4592 ; check_motor_armed + 116
        0x00004558:    8b63        c.      LDRH     r3,[r4,#0x1a]
        0x0000455a:    240a        .$      MOVS     r4,#0xa
        0x0000455c:    4366        fC      MULS     r6,r4,r6
        0x0000455e:    1b9b        ..      SUBS     r3,r3,r6
        0x00004560:    4283        .B      CMP      r3,r0
        0x00004562:    db44        D.      BLT      0x45ee ; check_motor_armed + 208
        0x00004564:    e015        ..      B        0x4592 ; check_motor_armed + 116
        0x00004566:    4b30        0K      LDR      r3,[pc,#192] ; [0x4628] = 0xb33
        0x00004568:    9c01        ..      LDR      r4,[sp,#4]
        0x0000456a:    429c        .B      CMP      r4,r3
        0x0000456c:    d911        ..      BLS      0x4592 ; check_motor_armed + 116
        0x0000456e:    4e2f        /N      LDR      r6,[pc,#188] ; [0x462c] = 0x4cd
        0x00004570:    9c00        ..      LDR      r4,[sp,#0]
        0x00004572:    42b4        .B      CMP      r4,r6
        0x00004574:    d20d        ..      BCS      0x4592 ; check_motor_armed + 116
        0x00004576:    4298        .B      CMP      r0,r3
        0x00004578:    d90b        ..      BLS      0x4592 ; check_motor_armed + 116
        0x0000457a:    459e        .E      CMP      lr,r3
        0x0000457c:    d909        ..      BLS      0x4592 ; check_motor_armed + 116
        0x0000457e:    7868        hx      LDRB     r0,[r5,#1]
        0x00004580:    1c40        @.      ADDS     r0,r0,#1
        0x00004582:    b2c0        ..      UXTB     r0,r0
        0x00004584:    7068        hp      STRB     r0,[r5,#1]
        0x00004586:    280a        .(      CMP      r0,#0xa
        0x00004588:    d904        ..      BLS      0x4594 ; check_motor_armed + 118
        0x0000458a:    2001        .       MOVS     r0,#1
        0x0000458c:    7010        .p      STRB     r0,[r2,#0]
        0x0000458e:    7069        ip      STRB     r1,[r5,#1]
        0x00004590:    e03b        ;.      B        0x460a ; check_motor_armed + 236
        0x00004592:    7069        ip      STRB     r1,[r5,#1]
        0x00004594:    bdfe        ..      POP      {r1-r7,pc}
        0x00004596:    78ab        .x      LDRB     r3,[r5,#2]
        0x00004598:    1c5b        [.      ADDS     r3,r3,#1
        0x0000459a:    b2db        ..      UXTB     r3,r3
        0x0000459c:    70ab        .p      STRB     r3,[r5,#2]
        0x0000459e:    2b64        d+      CMP      r3,#0x64
        0x000045a0:    d901        ..      BLS      0x45a6 ; check_motor_armed + 136
        0x000045a2:    7011        .p      STRB     r1,[r2,#0]
        0x000045a4:    70a9        .p      STRB     r1,[r5,#2]
        0x000045a6:    4663        cF      MOV      r3,r12
        0x000045a8:    2b00        .+      CMP      r3,#0
        0x000045aa:    d00a        ..      BEQ      0x45c2 ; check_motor_armed + 164
        0x000045ac:    8be3        ..      LDRH     r3,[r4,#0x1e]
        0x000045ae:    0074        t.      LSLS     r4,r6,#1
        0x000045b0:    1b1b        ..      SUBS     r3,r3,r4
        0x000045b2:    4283        .B      CMP      r3,r0
        0x000045b4:    dd05        ..      BLE      0x45c2 ; check_motor_armed + 164
        0x000045b6:    2002        .       MOVS     r0,#2
        0x000045b8:    7010        .p      STRB     r0,[r2,#0]
        0x000045ba:    7051        Qp      STRB     r1,[r2,#1]
        0x000045bc:    f7fdfad3    ....    BL       reset_pid_param ; 0x1b66
        0x000045c0:    bdfe        ..      POP      {r1-r7,pc}
        0x000045c2:    2f00        ./      CMP      r7,#0
        0x000045c4:    d0e5        ..      BEQ      0x4592 ; check_motor_armed + 116
        0x000045c6:    4b18        .K      LDR      r3,[pc,#96] ; [0x4628] = 0xb33
        0x000045c8:    9c01        ..      LDR      r4,[sp,#4]
        0x000045ca:    429c        .B      CMP      r4,r3
        0x000045cc:    d9e1        ..      BLS      0x4592 ; check_motor_armed + 116
        0x000045ce:    9c00        ..      LDR      r4,[sp,#0]
        0x000045d0:    429c        .B      CMP      r4,r3
        0x000045d2:    d9de        ..      BLS      0x4592 ; check_motor_armed + 116
        0x000045d4:    4298        .B      CMP      r0,r3
        0x000045d6:    d9dc        ..      BLS      0x4592 ; check_motor_armed + 116
        0x000045d8:    4b14        .K      LDR      r3,[pc,#80] ; [0x462c] = 0x4cd
        0x000045da:    459e        .E      CMP      lr,r3
        0x000045dc:    d2d9        ..      BCS      0x4592 ; check_motor_armed + 116
        0x000045de:    7868        hx      LDRB     r0,[r5,#1]
        0x000045e0:    1c40        @.      ADDS     r0,r0,#1
        0x000045e2:    b2c0        ..      UXTB     r0,r0
        0x000045e4:    7068        hp      STRB     r0,[r5,#1]
        0x000045e6:    280a        .(      CMP      r0,#0xa
        0x000045e8:    d9ea        ..      BLS      0x45c0 ; check_motor_armed + 162
        0x000045ea:    7011        .p      STRB     r1,[r2,#0]
        0x000045ec:    e7d1        ..      B        0x4592 ; check_motor_armed + 116
        0x000045ee:    7868        hx      LDRB     r0,[r5,#1]
        0x000045f0:    1c40        @.      ADDS     r0,r0,#1
        0x000045f2:    b2c0        ..      UXTB     r0,r0
        0x000045f4:    7068        hp      STRB     r0,[r5,#1]
        0x000045f6:    2832        2(      CMP      r0,#0x32
        0x000045f8:    d903        ..      BLS      0x4602 ; check_motor_armed + 228
        0x000045fa:    2001        .       MOVS     r0,#1
        0x000045fc:    7050        Pp      STRB     r0,[r2,#1]
        0x000045fe:    7069        ip      STRB     r1,[r5,#1]
        0x00004600:    e001        ..      B        0x4606 ; check_motor_armed + 232
        0x00004602:    2f00        ./      CMP      r7,#0
        0x00004604:    d0dc        ..      BEQ      0x45c0 ; check_motor_armed + 162
        0x00004606:    2001        .       MOVS     r0,#1
        0x00004608:    7010        .p      STRB     r0,[r2,#0]
        0x0000460a:    70a9        .p      STRB     r1,[r5,#2]
        0x0000460c:    bdfe        ..      POP      {r1-r7,pc}
    $d
        0x0000460e:    0000        ..      DCW    0
        0x00004610:    33333333    3333    DCD    858993459
        0x00004614:    3fe33333    33.?    DCD    1071854387
        0x00004618:    3f733333    33s?    DCD    1064514355
        0x0000461c:    20000134    4..     DCD    536871220
        0x00004620:    2000070a    ...     DCD    536872714
        0x00004624:    200000bc    ...     DCD    536871100
        0x00004628:    00000b33    3...    DCD    2867
        0x0000462c:    000004cd    ....    DCD    1229
    $t
    .text
    RF_RxMode
        0x00004630:    b510        ..      PUSH     {r4,lr}
        0x00004632:    2100        .!      MOVS     r1,#0
        0x00004634:    20fc        .       MOVS     r0,#0xfc
        0x00004636:    f7fffa1d    ....    BL       SPI_WriteReg ; 0x3a74
        0x0000463a:    218f        .!      MOVS     r1,#0x8f
        0x0000463c:    2020                MOVS     r0,#0x20
        0x0000463e:    f7fffa19    ....    BL       SPI_WriteReg ; 0x3a74
        0x00004642:    2100        .!      MOVS     r1,#0
        0x00004644:    20fd        .       MOVS     r0,#0xfd
        0x00004646:    f7fffa15    ....    BL       SPI_WriteReg ; 0x3a74
        0x0000464a:    217d        }!      MOVS     r1,#0x7d
        0x0000464c:    0109        ..      LSLS     r1,r1,#4
        0x0000464e:    484e        NH      LDR      r0,[pc,#312] ; [0x4788] = 0x40010000
        0x00004650:    f7fffc7c    ..|.    BL       TIMER_Delay ; 0x3f4c
        0x00004654:    bd10        ..      POP      {r4,pc}
    ucRF_GetStatus
        0x00004656:    b510        ..      PUSH     {r4,lr}
        0x00004658:    2007        .       MOVS     r0,#7
        0x0000465a:    f7fffa2d    ..-.    BL       SPI_ReadReg ; 0x3ab8
        0x0000465e:    2170        p!      MOVS     r1,#0x70
        0x00004660:    4008        .@      ANDS     r0,r0,r1
        0x00004662:    bd10        ..      POP      {r4,pc}
    RF_ClearStatus
        0x00004664:    b510        ..      PUSH     {r4,lr}
        0x00004666:    2170        p!      MOVS     r1,#0x70
        0x00004668:    2027        '       MOVS     r0,#0x27
        0x0000466a:    f7fffa03    ....    BL       SPI_WriteReg ; 0x3a74
        0x0000466e:    bd10        ..      POP      {r4,pc}
    RF_ClearFIFO
        0x00004670:    b510        ..      PUSH     {r4,lr}
        0x00004672:    2100        .!      MOVS     r1,#0
        0x00004674:    20e1        .       MOVS     r0,#0xe1
        0x00004676:    f7fff9fd    ....    BL       SPI_WriteReg ; 0x3a74
        0x0000467a:    2100        .!      MOVS     r1,#0
        0x0000467c:    20e2        .       MOVS     r0,#0xe2
        0x0000467e:    f7fff9f9    ....    BL       SPI_WriteReg ; 0x3a74
        0x00004682:    bd10        ..      POP      {r4,pc}
    ucRF_DumpRxData
        0x00004684:    b570        p.      PUSH     {r4-r6,lr}
        0x00004686:    460c        .F      MOV      r4,r1
        0x00004688:    4605        .F      MOV      r5,r0
        0x0000468a:    f7ffffe4    ....    BL       ucRF_GetStatus ; 0x4656
        0x0000468e:    0640        @.      LSLS     r0,r0,#25
        0x00004690:    d512        ..      BPL      0x46b8 ; ucRF_DumpRxData + 52
        0x00004692:    2100        .!      MOVS     r1,#0
        0x00004694:    20fc        .       MOVS     r0,#0xfc
        0x00004696:    f7fff9ed    ....    BL       SPI_WriteReg ; 0x3a74
        0x0000469a:    4622        "F      MOV      r2,r4
        0x0000469c:    4629        )F      MOV      r1,r5
        0x0000469e:    2061        a       MOVS     r0,#0x61
        0x000046a0:    f7fffa16    ....    BL       SPI_ReadBuf ; 0x3ad0
        0x000046a4:    f7ffffe4    ....    BL       RF_ClearFIFO ; 0x4670
        0x000046a8:    f7ffffdc    ....    BL       RF_ClearStatus ; 0x4664
        0x000046ac:    2100        .!      MOVS     r1,#0
        0x000046ae:    20fd        .       MOVS     r0,#0xfd
        0x000046b0:    f7fff9e0    ....    BL       SPI_WriteReg ; 0x3a74
        0x000046b4:    2001        .       MOVS     r0,#1
        0x000046b6:    bd70        p.      POP      {r4-r6,pc}
        0x000046b8:    2000        .       MOVS     r0,#0
        0x000046ba:    bd70        p.      POP      {r4-r6,pc}
    RF_Init
        0x000046bc:    b510        ..      PUSH     {r4,lr}
        0x000046be:    a033        3.      ADR      r0,{pc}+0xce ; 0x478c
        0x000046c0:    c803        ..      LDM      r0,{r0,r1}
        0x000046c2:    b088        ..      SUB      sp,sp,#0x20
        0x000046c4:    9000        ..      STR      r0,[sp,#0]
        0x000046c6:    9101        ..      STR      r1,[sp,#4]
        0x000046c8:    a032        2.      ADR      r0,{pc}+0xcc ; 0x4794
        0x000046ca:    6800        .h      LDR      r0,[r0,#0]
        0x000046cc:    9004        ..      STR      r0,[sp,#0x10]
        0x000046ce:    a032        2.      ADR      r0,{pc}+0xca ; 0x4798
        0x000046d0:    c803        ..      LDM      r0,{r0,r1}
        0x000046d2:    9103        ..      STR      r1,[sp,#0xc]
        0x000046d4:    9002        ..      STR      r0,[sp,#8]
        0x000046d6:    a032        2.      ADR      r0,{pc}+0xca ; 0x47a0
        0x000046d8:    6800        .h      LDR      r0,[r0,#0]
        0x000046da:    9005        ..      STR      r0,[sp,#0x14]
        0x000046dc:    a031        1.      ADR      r0,{pc}+0xc8 ; 0x47a4
        0x000046de:    6800        .h      LDR      r0,[r0,#0]
        0x000046e0:    9006        ..      STR      r0,[sp,#0x18]
        0x000046e2:    2420         $      MOVS     r4,#0x20
        0x000046e4:    2100        .!      MOVS     r1,#0
        0x000046e6:    20e1        .       MOVS     r0,#0xe1
        0x000046e8:    f7fff9c4    ....    BL       SPI_WriteReg ; 0x3a74
        0x000046ec:    2100        .!      MOVS     r1,#0
        0x000046ee:    20e2        .       MOVS     r0,#0xe2
        0x000046f0:    f7fff9c0    ....    BL       SPI_WriteReg ; 0x3a74
        0x000046f4:    2170        p!      MOVS     r1,#0x70
        0x000046f6:    2027        '       MOVS     r0,#0x27
        0x000046f8:    f7fff9bc    ....    BL       SPI_WriteReg ; 0x3a74
        0x000046fc:    2101        .!      MOVS     r1,#1
        0x000046fe:    2022        "       MOVS     r0,#0x22
        0x00004700:    f7fff9b8    ....    BL       SPI_WriteReg ; 0x3a74
        0x00004704:    214e        N!      MOVS     r1,#0x4e
        0x00004706:    2025        %       MOVS     r0,#0x25
        0x00004708:    f7fff9b4    ....    BL       SPI_WriteReg ; 0x3a74
        0x0000470c:    2111        .!      MOVS     r1,#0x11
        0x0000470e:    2031        1       MOVS     r0,#0x31
        0x00004710:    f7fff9b0    ....    BL       SPI_WriteReg ; 0x3a74
        0x00004714:    2205        ."      MOVS     r2,#5
        0x00004716:    4924        $I      LDR      r1,[pc,#144] ; [0x47a8] = 0x6bda
        0x00004718:    2030        0       MOVS     r0,#0x30
        0x0000471a:    f7fff9b8    ....    BL       SPI_WriteBuf ; 0x3a8e
        0x0000471e:    2205        ."      MOVS     r2,#5
        0x00004720:    4921        !I      LDR      r1,[pc,#132] ; [0x47a8] = 0x6bda
        0x00004722:    202a        *       MOVS     r0,#0x2a
        0x00004724:    f7fff9b3    ....    BL       SPI_WriteBuf ; 0x3a8e
        0x00004728:    2205        ."      MOVS     r2,#5
        0x0000472a:    4669        iF      MOV      r1,sp
        0x0000472c:    203f        ?       MOVS     r0,#0x3f
        0x0000472e:    f7fff9ae    ....    BL       SPI_WriteBuf ; 0x3a8e
        0x00004732:    2206        ."      MOVS     r2,#6
        0x00004734:    a902        ..      ADD      r1,sp,#8
        0x00004736:    203a        :       MOVS     r0,#0x3a
        0x00004738:    f7fff9a9    ....    BL       SPI_WriteBuf ; 0x3a8e
        0x0000473c:    2201        ."      MOVS     r2,#1
        0x0000473e:    a905        ..      ADD      r1,sp,#0x14
        0x00004740:    2039        9       MOVS     r0,#0x39
        0x00004742:    f7fff9a4    ....    BL       SPI_WriteBuf ; 0x3a8e
        0x00004746:    2203        ."      MOVS     r2,#3
        0x00004748:    a904        ..      ADD      r1,sp,#0x10
        0x0000474a:    203e        >       MOVS     r0,#0x3e
        0x0000474c:    f7fff99f    ....    BL       SPI_WriteBuf ; 0x3a8e
        0x00004750:    2203        ."      MOVS     r2,#3
        0x00004752:    a906        ..      ADD      r1,sp,#0x18
        0x00004754:    203b        ;       MOVS     r0,#0x3b
        0x00004756:    f7fff99a    ....    BL       SPI_WriteBuf ; 0x3a8e
        0x0000475a:    212c        ,!      MOVS     r1,#0x2c
        0x0000475c:    2026        &       MOVS     r0,#0x26
        0x0000475e:    f7fff989    ....    BL       SPI_WriteReg ; 0x3a74
        0x00004762:    2100        .!      MOVS     r1,#0
        0x00004764:    2024        $       MOVS     r0,#0x24
        0x00004766:    f7fff985    ....    BL       SPI_WriteReg ; 0x3a74
        0x0000476a:    2100        .!      MOVS     r1,#0
        0x0000476c:    2021        !       MOVS     r0,#0x21
        0x0000476e:    f7fff981    ....    BL       SPI_WriteReg ; 0x3a74
        0x00004772:    4621        !F      MOV      r1,r4
        0x00004774:    203d        =       MOVS     r0,#0x3d
        0x00004776:    f7fff97d    ..}.    BL       SPI_WriteReg ; 0x3a74
        0x0000477a:    2100        .!      MOVS     r1,#0
        0x0000477c:    20fc        .       MOVS     r0,#0xfc
        0x0000477e:    f7fff979    ..y.    BL       SPI_WriteReg ; 0x3a74
        0x00004782:    b008        ..      ADD      sp,sp,#0x20
        0x00004784:    bd10        ..      POP      {r4,pc}
    $d
        0x00004786:    0000        ..      DCW    0
        0x00004788:    40010000    ...@    DCD    1073807360
        0x0000478c:    9c676d0a    .mg.    DCD    2624023818
        0x00004790:    00000046    F...    DCD    70
        0x00004794:    005d37f6    .7].    DCD    6109174
        0x00004798:    acef2145    E!..    DCD    2901352773
        0x0000479c:    0000505a    ZP..    DCD    20570
        0x000047a0:    00000001    ....    DCD    1
        0x000047a4:    0002df0b    ....    DCD    188171
        0x000047a8:    00006bda    .k..    DCD    27610
    $t
    .text
    __aeabi_uidiv
    __aeabi_uidivmod
        0x000047ac:    b530        0.      PUSH     {r4,r5,lr}
        0x000047ae:    460b        .F      MOV      r3,r1
        0x000047b0:    4601        .F      MOV      r1,r0
        0x000047b2:    2000        .       MOVS     r0,#0
        0x000047b4:    2220         "      MOVS     r2,#0x20
        0x000047b6:    2401        .$      MOVS     r4,#1
        0x000047b8:    e009        ..      B        0x47ce ; __aeabi_uidiv + 34
        0x000047ba:    460d        .F      MOV      r5,r1
        0x000047bc:    40d5        .@      LSRS     r5,r5,r2
        0x000047be:    429d        .B      CMP      r5,r3
        0x000047c0:    d305        ..      BCC      0x47ce ; __aeabi_uidiv + 34
        0x000047c2:    461d        .F      MOV      r5,r3
        0x000047c4:    4095        .@      LSLS     r5,r5,r2
        0x000047c6:    1b49        I.      SUBS     r1,r1,r5
        0x000047c8:    4625        %F      MOV      r5,r4
        0x000047ca:    4095        .@      LSLS     r5,r5,r2
        0x000047cc:    1940        @.      ADDS     r0,r0,r5
        0x000047ce:    4615        .F      MOV      r5,r2
        0x000047d0:    1e52        R.      SUBS     r2,r2,#1
        0x000047d2:    2d00        .-      CMP      r5,#0
        0x000047d4:    dcf1        ..      BGT      0x47ba ; __aeabi_uidiv + 14
        0x000047d6:    bd30        0.      POP      {r4,r5,pc}
    .text
    __aeabi_idiv
    __aeabi_idivmod
        0x000047d8:    b570        p.      PUSH     {r4-r6,lr}
        0x000047da:    2400        .$      MOVS     r4,#0
        0x000047dc:    4625        %F      MOV      r5,r4
        0x000047de:    2800        .(      CMP      r0,#0
        0x000047e0:    da01        ..      BGE      0x47e6 ; __aeabi_idiv + 14
        0x000047e2:    2401        .$      MOVS     r4,#1
        0x000047e4:    4240        @B      RSBS     r0,r0,#0
        0x000047e6:    2900        .)      CMP      r1,#0
        0x000047e8:    da01        ..      BGE      0x47ee ; __aeabi_idiv + 22
        0x000047ea:    2501        .%      MOVS     r5,#1
        0x000047ec:    4249        IB      RSBS     r1,r1,#0
        0x000047ee:    f7ffffdd    ....    BL       __aeabi_uidiv ; 0x47ac
        0x000047f2:    42ac        .B      CMP      r4,r5
        0x000047f4:    d000        ..      BEQ      0x47f8 ; __aeabi_idiv + 32
        0x000047f6:    4240        @B      RSBS     r0,r0,#0
        0x000047f8:    2c00        .,      CMP      r4,#0
        0x000047fa:    d000        ..      BEQ      0x47fe ; __aeabi_idiv + 38
        0x000047fc:    4249        IB      RSBS     r1,r1,#0
        0x000047fe:    bd70        p.      POP      {r4-r6,pc}
    .text
    __aeabi_memset
    __aeabi_memset4
    __aeabi_memset8
        0x00004800:    b2d2        ..      UXTB     r2,r2
        0x00004802:    e001        ..      B        0x4808 ; __aeabi_memset + 8
        0x00004804:    7002        .p      STRB     r2,[r0,#0]
        0x00004806:    1c40        @.      ADDS     r0,r0,#1
        0x00004808:    1e49        I.      SUBS     r1,r1,#1
        0x0000480a:    d2fb        ..      BCS      0x4804 ; __aeabi_memset + 4
        0x0000480c:    4770        pG      BX       lr
    __aeabi_memclr
    __aeabi_memclr4
    __aeabi_memclr8
        0x0000480e:    2200        ."      MOVS     r2,#0
        0x00004810:    e7f6        ..      B        __aeabi_memset ; 0x4800
    _memset$wrapper
        0x00004812:    b510        ..      PUSH     {r4,lr}
        0x00004814:    4613        .F      MOV      r3,r2
        0x00004816:    460a        .F      MOV      r2,r1
        0x00004818:    4604        .F      MOV      r4,r0
        0x0000481a:    4619        .F      MOV      r1,r3
        0x0000481c:    f7fffff0    ....    BL       __aeabi_memset ; 0x4800
        0x00004820:    4620         F      MOV      r0,r4
        0x00004822:    bd10        ..      POP      {r4,pc}
    .text
    __aeabi_uread4
    __rt_uread4
    _uread4
        0x00004824:    2103        .!      MOVS     r1,#3
        0x00004826:    1d00        ..      ADDS     r0,r0,#4
        0x00004828:    1e40        @.      SUBS     r0,r0,#1
        0x0000482a:    7803        .x      LDRB     r3,[r0,#0]
        0x0000482c:    0212        ..      LSLS     r2,r2,#8
        0x0000482e:    431a        .C      ORRS     r2,r2,r3
        0x00004830:    1e49        I.      SUBS     r1,r1,#1
        0x00004832:    d5f9        ..      BPL      0x4828 ; __aeabi_uread4 + 4
        0x00004834:    4610        .F      MOV      r0,r2
        0x00004836:    4770        pG      BX       lr
    .text
    __aeabi_fadd
        0x00004838:    b5f8        ..      PUSH     {r3-r7,lr}
        0x0000483a:    4602        .F      MOV      r2,r0
        0x0000483c:    404a        J@      EORS     r2,r2,r1
        0x0000483e:    0fd4        ..      LSRS     r4,r2,#31
        0x00004840:    0042        B.      LSLS     r2,r0,#1
        0x00004842:    004b        K.      LSLS     r3,r1,#1
        0x00004844:    0852        R.      LSRS     r2,r2,#1
        0x00004846:    085b        [.      LSRS     r3,r3,#1
        0x00004848:    429a        .B      CMP      r2,r3
        0x0000484a:    d202        ..      BCS      0x4852 ; __aeabi_fadd + 26
        0x0000484c:    4602        .F      MOV      r2,r0
        0x0000484e:    4608        .F      MOV      r0,r1
        0x00004850:    4611        .F      MOV      r1,r2
        0x00004852:    004a        J.      LSLS     r2,r1,#1
        0x00004854:    d023        #.      BEQ      0x489e ; __aeabi_fadd + 102
        0x00004856:    0dc3        ..      LSRS     r3,r0,#23
        0x00004858:    004a        J.      LSLS     r2,r1,#1
        0x0000485a:    b2dd        ..      UXTB     r5,r3
        0x0000485c:    0e12        ..      LSRS     r2,r2,#24
        0x0000485e:    1aad        ..      SUBS     r5,r5,r2
        0x00004860:    2d20         -      CMP      r5,#0x20
        0x00004862:    da35        5.      BGE      0x48d0 ; __aeabi_fadd + 152
        0x00004864:    0249        I.      LSLS     r1,r1,#9
        0x00004866:    2601        .&      MOVS     r6,#1
        0x00004868:    0a49        I.      LSRS     r1,r1,#9
        0x0000486a:    05f6        ..      LSLS     r6,r6,#23
        0x0000486c:    198a        ..      ADDS     r2,r1,r6
        0x0000486e:    2c00        .,      CMP      r4,#0
        0x00004870:    d000        ..      BEQ      0x4874 ; __aeabi_fadd + 60
        0x00004872:    4252        RB      RSBS     r2,r2,#0
        0x00004874:    2120         !      MOVS     r1,#0x20
        0x00004876:    1b4f        O.      SUBS     r7,r1,r5
        0x00004878:    4611        .F      MOV      r1,r2
        0x0000487a:    40b9        .@      LSLS     r1,r1,r7
        0x0000487c:    412a        *A      ASRS     r2,r2,r5
        0x0000487e:    1810        ..      ADDS     r0,r2,r0
        0x00004880:    0dc2        ..      LSRS     r2,r0,#23
        0x00004882:    429a        .B      CMP      r2,r3
        0x00004884:    d021        !.      BEQ      0x48ca ; __aeabi_fadd + 146
        0x00004886:    2c00        .,      CMP      r4,#0
        0x00004888:    d017        ..      BEQ      0x48ba ; __aeabi_fadd + 130
        0x0000488a:    2d01        .-      CMP      r5,#1
        0x0000488c:    dc08        ..      BGT      0x48a0 ; __aeabi_fadd + 104
        0x0000488e:    05da        ..      LSLS     r2,r3,#23
        0x00004890:    1a80        ..      SUBS     r0,r0,r2
        0x00004892:    0fd2        ..      LSRS     r2,r2,#31
        0x00004894:    1980        ..      ADDS     r0,r0,r6
        0x00004896:    07d2        ..      LSLS     r2,r2,#31
        0x00004898:    b2db        ..      UXTB     r3,r3
        0x0000489a:    f000fb32    ..2.    BL       _float_epilogue ; 0x4f02
        0x0000489e:    bdf8        ..      POP      {r3-r7,pc}
        0x000048a0:    05da        ..      LSLS     r2,r3,#23
        0x000048a2:    1a80        ..      SUBS     r0,r0,r2
        0x000048a4:    2301        .#      MOVS     r3,#1
        0x000048a6:    0040        @.      LSLS     r0,r0,#1
        0x000048a8:    061b        ..      LSLS     r3,r3,#24
        0x000048aa:    18c0        ..      ADDS     r0,r0,r3
        0x000048ac:    1880        ..      ADDS     r0,r0,r2
        0x000048ae:    425a        ZB      RSBS     r2,r3,#0
        0x000048b0:    1880        ..      ADDS     r0,r0,r2
        0x000048b2:    0fca        ..      LSRS     r2,r1,#31
        0x000048b4:    4310        .C      ORRS     r0,r0,r2
        0x000048b6:    0049        I.      LSLS     r1,r1,#1
        0x000048b8:    e007        ..      B        0x48ca ; __aeabi_fadd + 146
        0x000048ba:    0849        I.      LSRS     r1,r1,#1
        0x000048bc:    07c2        ..      LSLS     r2,r0,#31
        0x000048be:    4311        .C      ORRS     r1,r1,r2
        0x000048c0:    05da        ..      LSLS     r2,r3,#23
        0x000048c2:    1a80        ..      SUBS     r0,r0,r2
        0x000048c4:    1980        ..      ADDS     r0,r0,r6
        0x000048c6:    0840        @.      LSRS     r0,r0,#1
        0x000048c8:    1880        ..      ADDS     r0,r0,r2
        0x000048ca:    f000fb12    ....    BL       __I$use$fp ; 0x4ef2
        0x000048ce:    bdf8        ..      POP      {r3-r7,pc}
        0x000048d0:    0061        a.      LSLS     r1,r4,#1
        0x000048d2:    2201        ."      MOVS     r2,#1
        0x000048d4:    1a51        Q.      SUBS     r1,r2,r1
        0x000048d6:    1b00        ..      SUBS     r0,r0,r4
        0x000048d8:    e7f7        ..      B        0x48ca ; __aeabi_fadd + 146
    __aeabi_fsub
        0x000048da:    2201        ."      MOVS     r2,#1
        0x000048dc:    07d2        ..      LSLS     r2,r2,#31
        0x000048de:    4051        Q@      EORS     r1,r1,r2
        0x000048e0:    e7aa        ..      B        __aeabi_fadd ; 0x4838
    __aeabi_frsub
        0x000048e2:    2201        ."      MOVS     r2,#1
        0x000048e4:    07d2        ..      LSLS     r2,r2,#31
        0x000048e6:    4050        P@      EORS     r0,r0,r2
        0x000048e8:    e7a6        ..      B        __aeabi_fadd ; 0x4838
    .text
    __aeabi_fmul
        0x000048ea:    4602        .F      MOV      r2,r0
        0x000048ec:    b570        p.      PUSH     {r4-r6,lr}
        0x000048ee:    404a        J@      EORS     r2,r2,r1
        0x000048f0:    0fd3        ..      LSRS     r3,r2,#31
        0x000048f2:    07db        ..      LSLS     r3,r3,#31
        0x000048f4:    0040        @.      LSLS     r0,r0,#1
        0x000048f6:    d02d        -.      BEQ      0x4954 ; __aeabi_fmul + 106
        0x000048f8:    004a        J.      LSLS     r2,r1,#1
        0x000048fa:    d02a        *.      BEQ      0x4952 ; __aeabi_fmul + 104
        0x000048fc:    0e01        ..      LSRS     r1,r0,#24
        0x000048fe:    0e14        ..      LSRS     r4,r2,#24
        0x00004900:    0200        ..      LSLS     r0,r0,#8
        0x00004902:    0212        ..      LSLS     r2,r2,#8
        0x00004904:    1909        ..      ADDS     r1,r1,r4
        0x00004906:    0a40        @.      LSRS     r0,r0,#9
        0x00004908:    0a52        R.      LSRS     r2,r2,#9
        0x0000490a:    1884        ..      ADDS     r4,r0,r2
        0x0000490c:    01e5        ..      LSLS     r5,r4,#7
        0x0000490e:    4604        .F      MOV      r4,r0
        0x00004910:    4354        TC      MULS     r4,r2,r4
        0x00004912:    0a00        ..      LSRS     r0,r0,#8
        0x00004914:    0a12        ..      LSRS     r2,r2,#8
        0x00004916:    042e        ..      LSLS     r6,r5,#16
        0x00004918:    4350        PC      MULS     r0,r2,r0
        0x0000491a:    19a4        ..      ADDS     r4,r4,r6
        0x0000491c:    1942        B.      ADDS     r2,r0,r5
        0x0000491e:    0c20         .      LSRS     r0,r4,#16
        0x00004920:    43c5        .C      MVNS     r5,r0
        0x00004922:    18aa        ..      ADDS     r2,r5,r2
        0x00004924:    0c12        ..      LSRS     r2,r2,#16
        0x00004926:    2501        .%      MOVS     r5,#1
        0x00004928:    03ad        ..      LSLS     r5,r5,#14
        0x0000492a:    1c52        R.      ADDS     r2,r2,#1
        0x0000492c:    1952        R.      ADDS     r2,r2,r5
        0x0000492e:    0412        ..      LSLS     r2,r2,#16
        0x00004930:    397f        .9      SUBS     r1,r1,#0x7f
        0x00004932:    0424        $.      LSLS     r4,r4,#16
        0x00004934:    d000        ..      BEQ      0x4938 ; __aeabi_fmul + 78
        0x00004936:    1c52        R.      ADDS     r2,r2,#1
        0x00004938:    4310        .C      ORRS     r0,r0,r2
        0x0000493a:    d401        ..      BMI      0x4940 ; __aeabi_fmul + 86
        0x0000493c:    0040        @.      LSLS     r0,r0,#1
        0x0000493e:    1e49        I.      SUBS     r1,r1,#1
        0x00004940:    b2c2        ..      UXTB     r2,r0
        0x00004942:    060c        ..      LSLS     r4,r1,#24
        0x00004944:    09c0        ..      LSRS     r0,r0,#7
        0x00004946:    1820         .      ADDS     r0,r4,r0
        0x00004948:    1c40        @.      ADDS     r0,r0,#1
        0x0000494a:    0840        @.      LSRS     r0,r0,#1
        0x0000494c:    2a80        .*      CMP      r2,#0x80
        0x0000494e:    d002        ..      BEQ      0x4956 ; __aeabi_fmul + 108
        0x00004950:    e003        ..      B        0x495a ; __aeabi_fmul + 112
        0x00004952:    2000        .       MOVS     r0,#0
        0x00004954:    bd70        p.      POP      {r4-r6,pc}
        0x00004956:    0840        @.      LSRS     r0,r0,#1
        0x00004958:    0040        @.      LSLS     r0,r0,#1
        0x0000495a:    2900        .)      CMP      r1,#0
        0x0000495c:    da00        ..      BGE      0x4960 ; __aeabi_fmul + 118
        0x0000495e:    2000        .       MOVS     r0,#0
        0x00004960:    4318        .C      ORRS     r0,r0,r3
        0x00004962:    bd70        p.      POP      {r4-r6,pc}
    .text
    __aeabi_fdiv
        0x00004964:    b570        p.      PUSH     {r4-r6,lr}
        0x00004966:    4602        .F      MOV      r2,r0
        0x00004968:    404a        J@      EORS     r2,r2,r1
        0x0000496a:    0fd5        ..      LSRS     r5,r2,#31
        0x0000496c:    0040        @.      LSLS     r0,r0,#1
        0x0000496e:    004a        J.      LSLS     r2,r1,#1
        0x00004970:    07ed        ..      LSLS     r5,r5,#31
        0x00004972:    0840        @.      LSRS     r0,r0,#1
        0x00004974:    0852        R.      LSRS     r2,r2,#1
        0x00004976:    2800        .(      CMP      r0,#0
        0x00004978:    d014        ..      BEQ      0x49a4 ; __aeabi_fdiv + 64
        0x0000497a:    2a00        .*      CMP      r2,#0
        0x0000497c:    d012        ..      BEQ      0x49a4 ; __aeabi_fdiv + 64
        0x0000497e:    0dc4        ..      LSRS     r4,r0,#23
        0x00004980:    0dd3        ..      LSRS     r3,r2,#23
        0x00004982:    0241        A.      LSLS     r1,r0,#9
        0x00004984:    2001        .       MOVS     r0,#1
        0x00004986:    05c0        ..      LSLS     r0,r0,#23
        0x00004988:    0252        R.      LSLS     r2,r2,#9
        0x0000498a:    0a49        I.      LSRS     r1,r1,#9
        0x0000498c:    0a52        R.      LSRS     r2,r2,#9
        0x0000498e:    1ae4        ..      SUBS     r4,r4,r3
        0x00004990:    1809        ..      ADDS     r1,r1,r0
        0x00004992:    1812        ..      ADDS     r2,r2,r0
        0x00004994:    347d        }4      ADDS     r4,r4,#0x7d
        0x00004996:    4291        .B      CMP      r1,r2
        0x00004998:    d301        ..      BCC      0x499e ; __aeabi_fdiv + 58
        0x0000499a:    1c64        d.      ADDS     r4,r4,#1
        0x0000499c:    e000        ..      B        0x49a0 ; __aeabi_fdiv + 60
        0x0000499e:    0049        I.      LSLS     r1,r1,#1
        0x000049a0:    2c00        .,      CMP      r4,#0
        0x000049a2:    da01        ..      BGE      0x49a8 ; __aeabi_fdiv + 68
        0x000049a4:    2000        .       MOVS     r0,#0
        0x000049a6:    bd70        p.      POP      {r4-r6,pc}
        0x000049a8:    2300        .#      MOVS     r3,#0
        0x000049aa:    4291        .B      CMP      r1,r2
        0x000049ac:    d301        ..      BCC      0x49b2 ; __aeabi_fdiv + 78
        0x000049ae:    1a89        ..      SUBS     r1,r1,r2
        0x000049b0:    4303        .C      ORRS     r3,r3,r0
        0x000049b2:    0840        @.      LSRS     r0,r0,#1
        0x000049b4:    0049        I.      LSLS     r1,r1,#1
        0x000049b6:    2800        .(      CMP      r0,#0
        0x000049b8:    d1f7        ..      BNE      0x49aa ; __aeabi_fdiv + 70
        0x000049ba:    2900        .)      CMP      r1,#0
        0x000049bc:    d00a        ..      BEQ      0x49d4 ; __aeabi_fdiv + 112
        0x000049be:    4291        .B      CMP      r1,r2
        0x000049c0:    d102        ..      BNE      0x49c8 ; __aeabi_fdiv + 100
        0x000049c2:    2101        .!      MOVS     r1,#1
        0x000049c4:    07c9        ..      LSLS     r1,r1,#31
        0x000049c6:    e005        ..      B        0x49d4 ; __aeabi_fdiv + 112
        0x000049c8:    4291        .B      CMP      r1,r2
        0x000049ca:    d201        ..      BCS      0x49d0 ; __aeabi_fdiv + 108
        0x000049cc:    2101        .!      MOVS     r1,#1
        0x000049ce:    e001        ..      B        0x49d4 ; __aeabi_fdiv + 112
        0x000049d0:    2101        .!      MOVS     r1,#1
        0x000049d2:    43c9        .C      MVNS     r1,r1
        0x000049d4:    05e0        ..      LSLS     r0,r4,#23
        0x000049d6:    18c0        ..      ADDS     r0,r0,r3
        0x000049d8:    1940        @.      ADDS     r0,r0,r5
        0x000049da:    f000fa8a    ....    BL       __I$use$fp ; 0x4ef2
        0x000049de:    bd70        p.      POP      {r4-r6,pc}
    .text
    __ARM_scalbnf
    scalbnf
        0x000049e0:    0042        B.      LSLS     r2,r0,#1
        0x000049e2:    d005        ..      BEQ      0x49f0 ; __ARM_scalbnf + 16
        0x000049e4:    0042        B.      LSLS     r2,r0,#1
        0x000049e6:    0e12        ..      LSRS     r2,r2,#24
        0x000049e8:    4252        RB      RSBS     r2,r2,#0
        0x000049ea:    428a        .B      CMP      r2,r1
        0x000049ec:    db01        ..      BLT      0x49f2 ; __ARM_scalbnf + 18
        0x000049ee:    2000        .       MOVS     r0,#0
        0x000049f0:    4770        pG      BX       lr
        0x000049f2:    05c9        ..      LSLS     r1,r1,#23
        0x000049f4:    1808        ..      ADDS     r0,r1,r0
        0x000049f6:    4770        pG      BX       lr
    .text
    __aeabi_dadd
        0x000049f8:    b5f0        ..      PUSH     {r4-r7,lr}
        0x000049fa:    4607        .F      MOV      r7,r0
        0x000049fc:    4608        .F      MOV      r0,r1
        0x000049fe:    4058        X@      EORS     r0,r0,r3
        0x00004a00:    b087        ..      SUB      sp,sp,#0x1c
        0x00004a02:    0fc0        ..      LSRS     r0,r0,#31
        0x00004a04:    9004        ..      STR      r0,[sp,#0x10]
        0x00004a06:    0048        H.      LSLS     r0,r1,#1
        0x00004a08:    460e        .F      MOV      r6,r1
        0x00004a0a:    0059        Y.      LSLS     r1,r3,#1
        0x00004a0c:    0840        @.      LSRS     r0,r0,#1
        0x00004a0e:    0849        I.      LSRS     r1,r1,#1
        0x00004a10:    1abc        ..      SUBS     r4,r7,r2
        0x00004a12:    4188        .A      SBCS     r0,r0,r1
        0x00004a14:    d205        ..      BCS      0x4a22 ; __aeabi_dadd + 42
        0x00004a16:    4638        8F      MOV      r0,r7
        0x00004a18:    4631        1F      MOV      r1,r6
        0x00004a1a:    461e        .F      MOV      r6,r3
        0x00004a1c:    4617        .F      MOV      r7,r2
        0x00004a1e:    460b        .F      MOV      r3,r1
        0x00004a20:    4602        .F      MOV      r2,r0
        0x00004a22:    0058        X.      LSLS     r0,r3,#1
        0x00004a24:    0840        @.      LSRS     r0,r0,#1
        0x00004a26:    4310        .C      ORRS     r0,r0,r2
        0x00004a28:    d04c        L.      BEQ      0x4ac4 ; __aeabi_dadd + 204
        0x00004a2a:    0d30        0.      LSRS     r0,r6,#20
        0x00004a2c:    9003        ..      STR      r0,[sp,#0xc]
        0x00004a2e:    0540        @.      LSLS     r0,r0,#21
        0x00004a30:    0059        Y.      LSLS     r1,r3,#1
        0x00004a32:    0d40        @.      LSRS     r0,r0,#21
        0x00004a34:    0d49        I.      LSRS     r1,r1,#21
        0x00004a36:    9005        ..      STR      r0,[sp,#0x14]
        0x00004a38:    1a40        @.      SUBS     r0,r0,r1
        0x00004a3a:    9002        ..      STR      r0,[sp,#8]
        0x00004a3c:    2840        @(      CMP      r0,#0x40
        0x00004a3e:    da72        r.      BGE      0x4b26 ; __aeabi_dadd + 302
        0x00004a40:    0318        ..      LSLS     r0,r3,#12
        0x00004a42:    2101        .!      MOVS     r1,#1
        0x00004a44:    0b00        ..      LSRS     r0,r0,#12
        0x00004a46:    0509        ..      LSLS     r1,r1,#20
        0x00004a48:    4308        .C      ORRS     r0,r0,r1
        0x00004a4a:    9001        ..      STR      r0,[sp,#4]
        0x00004a4c:    9804        ..      LDR      r0,[sp,#0x10]
        0x00004a4e:    9200        ..      STR      r2,[sp,#0]
        0x00004a50:    2800        .(      CMP      r0,#0
        0x00004a52:    d005        ..      BEQ      0x4a60 ; __aeabi_dadd + 104
        0x00004a54:    9901        ..      LDR      r1,[sp,#4]
        0x00004a56:    4252        RB      RSBS     r2,r2,#0
        0x00004a58:    2000        .       MOVS     r0,#0
        0x00004a5a:    4188        .A      SBCS     r0,r0,r1
        0x00004a5c:    9200        ..      STR      r2,[sp,#0]
        0x00004a5e:    9001        ..      STR      r0,[sp,#4]
        0x00004a60:    9802        ..      LDR      r0,[sp,#8]
        0x00004a62:    2140        @!      MOVS     r1,#0x40
        0x00004a64:    1a0a        ..      SUBS     r2,r1,r0
        0x00004a66:    9901        ..      LDR      r1,[sp,#4]
        0x00004a68:    9800        ..      LDR      r0,[sp,#0]
        0x00004a6a:    f000fa1f    ....    BL       __aeabi_llsl ; 0x4eac
        0x00004a6e:    4605        .F      MOV      r5,r0
        0x00004a70:    460c        .F      MOV      r4,r1
        0x00004a72:    466b        kF      MOV      r3,sp
        0x00004a74:    cb07        ..      LDM      r3!,{r0-r2}
        0x00004a76:    f000fa29    ..).    BL       __aeabi_lasr ; 0x4ecc
        0x00004a7a:    19c0        ..      ADDS     r0,r0,r7
        0x00004a7c:    4171        qA      ADCS     r1,r1,r6
        0x00004a7e:    9a03        ..      LDR      r2,[sp,#0xc]
        0x00004a80:    0d0e        ..      LSRS     r6,r1,#20
        0x00004a82:    2300        .#      MOVS     r3,#0
        0x00004a84:    17d7        ..      ASRS     r7,r2,#31
        0x00004a86:    4056        V@      EORS     r6,r6,r2
        0x00004a88:    461a        .F      MOV      r2,r3
        0x00004a8a:    407a        z@      EORS     r2,r2,r7
        0x00004a8c:    4316        .C      ORRS     r6,r6,r2
        0x00004a8e:    d044        D.      BEQ      0x4b1a ; __aeabi_dadd + 290
        0x00004a90:    9a04        ..      LDR      r2,[sp,#0x10]
        0x00004a92:    2a00        .*      CMP      r2,#0
        0x00004a94:    d02d        -.      BEQ      0x4af2 ; __aeabi_dadd + 250
        0x00004a96:    9a02        ..      LDR      r2,[sp,#8]
        0x00004a98:    2a01        .*      CMP      r2,#1
        0x00004a9a:    9a03        ..      LDR      r2,[sp,#0xc]
        0x00004a9c:    dc15        ..      BGT      0x4aca ; __aeabi_dadd + 210
        0x00004a9e:    0512        ..      LSLS     r2,r2,#20
        0x00004aa0:    1ac0        ..      SUBS     r0,r0,r3
        0x00004aa2:    4191        .A      SBCS     r1,r1,r2
        0x00004aa4:    2601        .&      MOVS     r6,#1
        0x00004aa6:    0536        6.      LSLS     r6,r6,#20
        0x00004aa8:    1c00        ..      ADDS     r0,r0,#0
        0x00004aaa:    4171        qA      ADCS     r1,r1,r6
        0x00004aac:    0fd2        ..      LSRS     r2,r2,#31
        0x00004aae:    9e05        ..      LDR      r6,[sp,#0x14]
        0x00004ab0:    07d2        ..      LSLS     r2,r2,#31
        0x00004ab2:    9300        ..      STR      r3,[sp,#0]
        0x00004ab4:    9201        ..      STR      r2,[sp,#4]
        0x00004ab6:    9602        ..      STR      r6,[sp,#8]
        0x00004ab8:    462a        *F      MOV      r2,r5
        0x00004aba:    4623        #F      MOV      r3,r4
        0x00004abc:    f000fab2    ....    BL       _double_epilogue ; 0x5024
        0x00004ac0:    b007        ..      ADD      sp,sp,#0x1c
        0x00004ac2:    bdf0        ..      POP      {r4-r7,pc}
        0x00004ac4:    4638        8F      MOV      r0,r7
        0x00004ac6:    4631        1F      MOV      r1,r6
        0x00004ac8:    e7fa        ..      B        0x4ac0 ; __aeabi_dadd + 200
        0x00004aca:    0516        ..      LSLS     r6,r2,#20
        0x00004acc:    4a22        "J      LDR      r2,[pc,#136] ; [0x4b58] = 0xffe00000
        0x00004ace:    460f        .F      MOV      r7,r1
        0x00004ad0:    18b2        ..      ADDS     r2,r6,r2
        0x00004ad2:    1ac0        ..      SUBS     r0,r0,r3
        0x00004ad4:    41b7        .A      SBCS     r7,r7,r6
        0x00004ad6:    2101        .!      MOVS     r1,#1
        0x00004ad8:    0509        ..      LSLS     r1,r1,#20
        0x00004ada:    1c00        ..      ADDS     r0,r0,#0
        0x00004adc:    414f        OA      ADCS     r7,r7,r1
        0x00004ade:    1800        ..      ADDS     r0,r0,r0
        0x00004ae0:    417f        .A      ADCS     r7,r7,r7
        0x00004ae2:    4611        .F      MOV      r1,r2
        0x00004ae4:    1818        ..      ADDS     r0,r3,r0
        0x00004ae6:    4179        yA      ADCS     r1,r1,r7
        0x00004ae8:    0fe2        ..      LSRS     r2,r4,#31
        0x00004aea:    4310        .C      ORRS     r0,r0,r2
        0x00004aec:    196d        m.      ADDS     r5,r5,r5
        0x00004aee:    4164        dA      ADCS     r4,r4,r4
        0x00004af0:    e013        ..      B        0x4b1a ; __aeabi_dadd + 290
        0x00004af2:    07e2        ..      LSLS     r2,r4,#31
        0x00004af4:    086d        m.      LSRS     r5,r5,#1
        0x00004af6:    4315        .C      ORRS     r5,r5,r2
        0x00004af8:    0864        d.      LSRS     r4,r4,#1
        0x00004afa:    07c2        ..      LSLS     r2,r0,#31
        0x00004afc:    4314        .C      ORRS     r4,r4,r2
        0x00004afe:    9a03        ..      LDR      r2,[sp,#0xc]
        0x00004b00:    2601        .&      MOVS     r6,#1
        0x00004b02:    0512        ..      LSLS     r2,r2,#20
        0x00004b04:    1ac0        ..      SUBS     r0,r0,r3
        0x00004b06:    4191        .A      SBCS     r1,r1,r2
        0x00004b08:    0536        6.      LSLS     r6,r6,#20
        0x00004b0a:    1c00        ..      ADDS     r0,r0,#0
        0x00004b0c:    4171        qA      ADCS     r1,r1,r6
        0x00004b0e:    07ce        ..      LSLS     r6,r1,#31
        0x00004b10:    0840        @.      LSRS     r0,r0,#1
        0x00004b12:    4330        0C      ORRS     r0,r0,r6
        0x00004b14:    0849        I.      LSRS     r1,r1,#1
        0x00004b16:    18c0        ..      ADDS     r0,r0,r3
        0x00004b18:    4151        QA      ADCS     r1,r1,r2
        0x00004b1a:    462a        *F      MOV      r2,r5
        0x00004b1c:    4623        #F      MOV      r3,r4
        0x00004b1e:    f000fa74    ..t.    BL       _double_round ; 0x500a
        0x00004b22:    e7cd        ..      B        0x4ac0 ; __aeabi_dadd + 200
        0x00004b24:    e7ff        ..      B        0x4b26 ; __aeabi_dadd + 302
        0x00004b26:    9804        ..      LDR      r0,[sp,#0x10]
        0x00004b28:    2201        ."      MOVS     r2,#1
        0x00004b2a:    0040        @.      LSLS     r0,r0,#1
        0x00004b2c:    17c1        ..      ASRS     r1,r0,#31
        0x00004b2e:    1a12        ..      SUBS     r2,r2,r0
        0x00004b30:    2300        .#      MOVS     r3,#0
        0x00004b32:    418b        .A      SBCS     r3,r3,r1
        0x00004b34:    9804        ..      LDR      r0,[sp,#0x10]
        0x00004b36:    4631        1F      MOV      r1,r6
        0x00004b38:    17c4        ..      ASRS     r4,r0,#31
        0x00004b3a:    1a38        8.      SUBS     r0,r7,r0
        0x00004b3c:    41a1        .A      SBCS     r1,r1,r4
        0x00004b3e:    e7ee        ..      B        0x4b1e ; __aeabi_dadd + 294
    __aeabi_dsub
        0x00004b40:    b430        0.      PUSH     {r4,r5}
        0x00004b42:    2401        .$      MOVS     r4,#1
        0x00004b44:    07e4        ..      LSLS     r4,r4,#31
        0x00004b46:    4063        c@      EORS     r3,r3,r4
        0x00004b48:    bc30        0.      POP      {r4,r5}
        0x00004b4a:    e755        U.      B        __aeabi_dadd ; 0x49f8
    __aeabi_drsub
        0x00004b4c:    b430        0.      PUSH     {r4,r5}
        0x00004b4e:    2401        .$      MOVS     r4,#1
        0x00004b50:    07e4        ..      LSLS     r4,r4,#31
        0x00004b52:    4061        a@      EORS     r1,r1,r4
        0x00004b54:    bc30        0.      POP      {r4,r5}
        0x00004b56:    e74f        O.      B        __aeabi_dadd ; 0x49f8
    $d
        0x00004b58:    ffe00000    ....    DCD    4292870144
    $t
    .text
    __aeabi_dmul
        0x00004b5c:    b5f0        ..      PUSH     {r4-r7,lr}
        0x00004b5e:    b41f        ..      PUSH     {r0-r4}
        0x00004b60:    b088        ..      SUB      sp,sp,#0x20
        0x00004b62:    990b        ..      LDR      r1,[sp,#0x2c]
        0x00004b64:    9809        ..      LDR      r0,[sp,#0x24]
        0x00004b66:    2400        .$      MOVS     r4,#0
        0x00004b68:    4048        H@      EORS     r0,r0,r1
        0x00004b6a:    9909        ..      LDR      r1,[sp,#0x24]
        0x00004b6c:    0fc0        ..      LSRS     r0,r0,#31
        0x00004b6e:    0049        I.      LSLS     r1,r1,#1
        0x00004b70:    0849        I.      LSRS     r1,r1,#1
        0x00004b72:    9109        ..      STR      r1,[sp,#0x24]
        0x00004b74:    07c0        ..      LSLS     r0,r0,#31
        0x00004b76:    990b        ..      LDR      r1,[sp,#0x2c]
        0x00004b78:    9000        ..      STR      r0,[sp,#0]
        0x00004b7a:    0049        I.      LSLS     r1,r1,#1
        0x00004b7c:    0849        I.      LSRS     r1,r1,#1
        0x00004b7e:    910b        ..      STR      r1,[sp,#0x2c]
        0x00004b80:    9909        ..      LDR      r1,[sp,#0x24]
        0x00004b82:    9808        ..      LDR      r0,[sp,#0x20]
        0x00004b84:    46a6        .F      MOV      lr,r4
        0x00004b86:    4308        .C      ORRS     r0,r0,r1
        0x00004b88:    d01c        ..      BEQ      0x4bc4 ; __aeabi_dmul + 104
        0x00004b8a:    990b        ..      LDR      r1,[sp,#0x2c]
        0x00004b8c:    980a        ..      LDR      r0,[sp,#0x28]
        0x00004b8e:    4308        .C      ORRS     r0,r0,r1
        0x00004b90:    d018        ..      BEQ      0x4bc4 ; __aeabi_dmul + 104
        0x00004b92:    9809        ..      LDR      r0,[sp,#0x24]
        0x00004b94:    2401        .$      MOVS     r4,#1
        0x00004b96:    0040        @.      LSLS     r0,r0,#1
        0x00004b98:    0d42        B.      LSRS     r2,r0,#21
        0x00004b9a:    0048        H.      LSLS     r0,r1,#1
        0x00004b9c:    0d41        A.      LSRS     r1,r0,#21
        0x00004b9e:    9809        ..      LDR      r0,[sp,#0x24]
        0x00004ba0:    0524        $.      LSLS     r4,r4,#20
        0x00004ba2:    0300        ..      LSLS     r0,r0,#12
        0x00004ba4:    0b00        ..      LSRS     r0,r0,#12
        0x00004ba6:    4320         C      ORRS     r0,r0,r4
        0x00004ba8:    9009        ..      STR      r0,[sp,#0x24]
        0x00004baa:    980b        ..      LDR      r0,[sp,#0x2c]
        0x00004bac:    0300        ..      LSLS     r0,r0,#12
        0x00004bae:    0b00        ..      LSRS     r0,r0,#12
        0x00004bb0:    4320         C      ORRS     r0,r0,r4
        0x00004bb2:    900b        ..      STR      r0,[sp,#0x2c]
        0x00004bb4:    1850        P.      ADDS     r0,r2,r1
        0x00004bb6:    491c        .I      LDR      r1,[pc,#112] ; [0x4c28] = 0xfffffc0d
        0x00004bb8:    1840        @.      ADDS     r0,r0,r1
        0x00004bba:    2200        ."      MOVS     r2,#0
        0x00004bbc:    9001        ..      STR      r0,[sp,#4]
        0x00004bbe:    4614        .F      MOV      r4,r2
        0x00004bc0:    4610        .F      MOV      r0,r2
        0x00004bc2:    e005        ..      B        0x4bd0 ; __aeabi_dmul + 116
        0x00004bc4:    2000        .       MOVS     r0,#0
        0x00004bc6:    4601        .F      MOV      r1,r0
        0x00004bc8:    b00d        ..      ADD      sp,sp,#0x34
        0x00004bca:    bdf0        ..      POP      {r4-r7,pc}
        0x00004bcc:    2803        .(      CMP      r0,#3
        0x00004bce:    da01        ..      BGE      0x4bd4 ; __aeabi_dmul + 120
        0x00004bd0:    4603        .F      MOV      r3,r0
        0x00004bd2:    e000        ..      B        0x4bd6 ; __aeabi_dmul + 122
        0x00004bd4:    2303        .#      MOVS     r3,#3
        0x00004bd6:    469c        .F      MOV      r12,r3
        0x00004bd8:    1ac1        ..      SUBS     r1,r0,r3
        0x00004bda:    ae0a        ..      ADD      r6,sp,#0x28
        0x00004bdc:    e00a        ..      B        0x4bf4 ; __aeabi_dmul + 152
        0x00004bde:    005f        _.      LSLS     r7,r3,#1
        0x00004be0:    ad08        ..      ADD      r5,sp,#0x20
        0x00004be2:    5bed        .[      LDRH     r5,[r5,r7]
        0x00004be4:    004f        O.      LSLS     r7,r1,#1
        0x00004be6:    5bf7        .[      LDRH     r7,[r6,r7]
        0x00004be8:    437d        }C      MULS     r5,r7,r5
        0x00004bea:    2700        .'      MOVS     r7,#0
        0x00004bec:    18aa        ..      ADDS     r2,r5,r2
        0x00004bee:    417c        |A      ADCS     r4,r4,r7
        0x00004bf0:    1c49        I.      ADDS     r1,r1,#1
        0x00004bf2:    1e5b        [.      SUBS     r3,r3,#1
        0x00004bf4:    4561        aE      CMP      r1,r12
        0x00004bf6:    ddf2        ..      BLE      0x4bde ; __aeabi_dmul + 130
        0x00004bf8:    0041        A.      LSLS     r1,r0,#1
        0x00004bfa:    ab04        ..      ADD      r3,sp,#0x10
        0x00004bfc:    525a        ZR      STRH     r2,[r3,r1]
        0x00004bfe:    0421        !.      LSLS     r1,r4,#16
        0x00004c00:    0c12        ..      LSRS     r2,r2,#16
        0x00004c02:    430a        .C      ORRS     r2,r2,r1
        0x00004c04:    0c24        $.      LSRS     r4,r4,#16
        0x00004c06:    1c40        @.      ADDS     r0,r0,#1
        0x00004c08:    2808        .(      CMP      r0,#8
        0x00004c0a:    dbdf        ..      BLT      0x4bcc ; __aeabi_dmul + 112
        0x00004c0c:    9801        ..      LDR      r0,[sp,#4]
        0x00004c0e:    9002        ..      STR      r0,[sp,#8]
        0x00004c10:    9900        ..      LDR      r1,[sp,#0]
        0x00004c12:    4670        pF      MOV      r0,lr
        0x00004c14:    9101        ..      STR      r1,[sp,#4]
        0x00004c16:    9000        ..      STR      r0,[sp,#0]
        0x00004c18:    9b05        ..      LDR      r3,[sp,#0x14]
        0x00004c1a:    9a04        ..      LDR      r2,[sp,#0x10]
        0x00004c1c:    9907        ..      LDR      r1,[sp,#0x1c]
        0x00004c1e:    9806        ..      LDR      r0,[sp,#0x18]
        0x00004c20:    f000fa00    ....    BL       _double_epilogue ; 0x5024
        0x00004c24:    e7d0        ..      B        0x4bc8 ; __aeabi_dmul + 108
    $d
        0x00004c26:    0000        ..      DCW    0
        0x00004c28:    fffffc0d    ....    DCD    4294966285
    $t
    .text
    __aeabi_ddiv
        0x00004c2c:    b5f0        ..      PUSH     {r4-r7,lr}
        0x00004c2e:    460c        .F      MOV      r4,r1
        0x00004c30:    405c        \@      EORS     r4,r4,r3
        0x00004c32:    b085        ..      SUB      sp,sp,#0x14
        0x00004c34:    0fe4        ..      LSRS     r4,r4,#31
        0x00004c36:    07e4        ..      LSLS     r4,r4,#31
        0x00004c38:    9403        ..      STR      r4,[sp,#0xc]
        0x00004c3a:    004c        L.      LSLS     r4,r1,#1
        0x00004c3c:    2600        .&      MOVS     r6,#0
        0x00004c3e:    0864        d.      LSRS     r4,r4,#1
        0x00004c40:    0059        Y.      LSLS     r1,r3,#1
        0x00004c42:    4694        .F      MOV      r12,r2
        0x00004c44:    0849        I.      LSRS     r1,r1,#1
        0x00004c46:    4602        .F      MOV      r2,r0
        0x00004c48:    9602        ..      STR      r6,[sp,#8]
        0x00004c4a:    4322        "C      ORRS     r2,r2,r4
        0x00004c4c:    d021        !.      BEQ      0x4c92 ; __aeabi_ddiv + 102
        0x00004c4e:    4662        bF      MOV      r2,r12
        0x00004c50:    430a        .C      ORRS     r2,r2,r1
        0x00004c52:    d01e        ..      BEQ      0x4c92 ; __aeabi_ddiv + 102
        0x00004c54:    0062        b.      LSLS     r2,r4,#1
        0x00004c56:    0d57        W.      LSRS     r7,r2,#21
        0x00004c58:    004a        J.      LSLS     r2,r1,#1
        0x00004c5a:    030e        ..      LSLS     r6,r1,#12
        0x00004c5c:    0323        #.      LSLS     r3,r4,#12
        0x00004c5e:    0d55        U.      LSRS     r5,r2,#21
        0x00004c60:    2401        .$      MOVS     r4,#1
        0x00004c62:    4602        .F      MOV      r2,r0
        0x00004c64:    492c        ,I      LDR      r1,[pc,#176] ; [0x4d18] = 0x3fd
        0x00004c66:    0524        $.      LSLS     r4,r4,#20
        0x00004c68:    1b78        x.      SUBS     r0,r7,r5
        0x00004c6a:    0b1b        ..      LSRS     r3,r3,#12
        0x00004c6c:    0b36        6.      LSRS     r6,r6,#12
        0x00004c6e:    1840        @.      ADDS     r0,r0,r1
        0x00004c70:    4323        #C      ORRS     r3,r3,r4
        0x00004c72:    4326        &C      ORRS     r6,r6,r4
        0x00004c74:    4661        aF      MOV      r1,r12
        0x00004c76:    9000        ..      STR      r0,[sp,#0]
        0x00004c78:    461c        .F      MOV      r4,r3
        0x00004c7a:    1a50        P.      SUBS     r0,r2,r1
        0x00004c7c:    41b4        .A      SBCS     r4,r4,r6
        0x00004c7e:    d303        ..      BCC      0x4c88 ; __aeabi_ddiv + 92
        0x00004c80:    9800        ..      LDR      r0,[sp,#0]
        0x00004c82:    1c40        @.      ADDS     r0,r0,#1
        0x00004c84:    9000        ..      STR      r0,[sp,#0]
        0x00004c86:    e002        ..      B        0x4c8e ; __aeabi_ddiv + 98
        0x00004c88:    1892        ..      ADDS     r2,r2,r2
        0x00004c8a:    9800        ..      LDR      r0,[sp,#0]
        0x00004c8c:    415b        [A      ADCS     r3,r3,r3
        0x00004c8e:    2800        .(      CMP      r0,#0
        0x00004c90:    da03        ..      BGE      0x4c9a ; __aeabi_ddiv + 110
        0x00004c92:    2000        .       MOVS     r0,#0
        0x00004c94:    4601        .F      MOV      r1,r0
        0x00004c96:    b005        ..      ADD      sp,sp,#0x14
        0x00004c98:    bdf0        ..      POP      {r4-r7,pc}
        0x00004c9a:    2000        .       MOVS     r0,#0
        0x00004c9c:    2101        .!      MOVS     r1,#1
        0x00004c9e:    0509        ..      LSLS     r1,r1,#20
        0x00004ca0:    4607        .F      MOV      r7,r0
        0x00004ca2:    4686        .F      MOV      lr,r0
        0x00004ca4:    e011        ..      B        0x4cca ; __aeabi_ddiv + 158
        0x00004ca6:    4664        dF      MOV      r4,r12
        0x00004ca8:    461d        .F      MOV      r5,r3
        0x00004caa:    1b14        ..      SUBS     r4,r2,r4
        0x00004cac:    41b5        .A      SBCS     r5,r5,r6
        0x00004cae:    d306        ..      BCC      0x4cbe ; __aeabi_ddiv + 146
        0x00004cb0:    4665        eF      MOV      r5,r12
        0x00004cb2:    1b52        R.      SUBS     r2,r2,r5
        0x00004cb4:    41b3        .A      SBCS     r3,r3,r6
        0x00004cb6:    4674        tF      MOV      r4,lr
        0x00004cb8:    4307        .C      ORRS     r7,r7,r0
        0x00004cba:    430c        .C      ORRS     r4,r4,r1
        0x00004cbc:    46a6        .F      MOV      lr,r4
        0x00004cbe:    07cd        ..      LSLS     r5,r1,#31
        0x00004cc0:    0840        @.      LSRS     r0,r0,#1
        0x00004cc2:    0849        I.      LSRS     r1,r1,#1
        0x00004cc4:    4328        (C      ORRS     r0,r0,r5
        0x00004cc6:    1892        ..      ADDS     r2,r2,r2
        0x00004cc8:    415b        [A      ADCS     r3,r3,r3
        0x00004cca:    4605        .F      MOV      r5,r0
        0x00004ccc:    430d        .C      ORRS     r5,r5,r1
        0x00004cce:    d1ea        ..      BNE      0x4ca6 ; __aeabi_ddiv + 122
        0x00004cd0:    4610        .F      MOV      r0,r2
        0x00004cd2:    4318        .C      ORRS     r0,r0,r3
        0x00004cd4:    d013        ..      BEQ      0x4cfe ; __aeabi_ddiv + 210
        0x00004cd6:    4660        `F      MOV      r0,r12
        0x00004cd8:    4619        .F      MOV      r1,r3
        0x00004cda:    4050        P@      EORS     r0,r0,r2
        0x00004cdc:    4071        q@      EORS     r1,r1,r6
        0x00004cde:    4308        .C      ORRS     r0,r0,r1
        0x00004ce0:    d006        ..      BEQ      0x4cf0 ; __aeabi_ddiv + 196
        0x00004ce2:    4660        `F      MOV      r0,r12
        0x00004ce4:    1a10        ..      SUBS     r0,r2,r0
        0x00004ce6:    41b3        .A      SBCS     r3,r3,r6
        0x00004ce8:    d206        ..      BCS      0x4cf8 ; __aeabi_ddiv + 204
        0x00004cea:    2201        ."      MOVS     r2,#1
        0x00004cec:    2300        .#      MOVS     r3,#0
        0x00004cee:    e006        ..      B        0x4cfe ; __aeabi_ddiv + 210
        0x00004cf0:    2200        ."      MOVS     r2,#0
        0x00004cf2:    2301        .#      MOVS     r3,#1
        0x00004cf4:    07db        ..      LSLS     r3,r3,#31
        0x00004cf6:    e002        ..      B        0x4cfe ; __aeabi_ddiv + 210
        0x00004cf8:    2201        ."      MOVS     r2,#1
        0x00004cfa:    43d2        .C      MVNS     r2,r2
        0x00004cfc:    1053        S.      ASRS     r3,r2,#1
        0x00004cfe:    9800        ..      LDR      r0,[sp,#0]
        0x00004d00:    4674        tF      MOV      r4,lr
        0x00004d02:    0501        ..      LSLS     r1,r0,#20
        0x00004d04:    1c38        8.      ADDS     r0,r7,#0
        0x00004d06:    4161        aA      ADCS     r1,r1,r4
        0x00004d08:    9c02        ..      LDR      r4,[sp,#8]
        0x00004d0a:    9d03        ..      LDR      r5,[sp,#0xc]
        0x00004d0c:    1900        ..      ADDS     r0,r0,r4
        0x00004d0e:    4169        iA      ADCS     r1,r1,r5
        0x00004d10:    f000f97b    ..{.    BL       _double_round ; 0x500a
        0x00004d14:    e7bf        ..      B        0x4c96 ; __aeabi_ddiv + 106
    $d
        0x00004d16:    0000        ..      DCW    0
        0x00004d18:    000003fd    ....    DCD    1021
    $t
    .text
    __aeabi_i2f
        0x00004d1c:    17c2        ..      ASRS     r2,r0,#31
        0x00004d1e:    0fc1        ..      LSRS     r1,r0,#31
        0x00004d20:    4050        P@      EORS     r0,r0,r2
        0x00004d22:    b510        ..      PUSH     {r4,lr}
        0x00004d24:    1840        @.      ADDS     r0,r0,r1
        0x00004d26:    07ca        ..      LSLS     r2,r1,#31
        0x00004d28:    2396        .#      MOVS     r3,#0x96
        0x00004d2a:    2100        .!      MOVS     r1,#0
        0x00004d2c:    f000f8e9    ....    BL       _float_epilogue ; 0x4f02
        0x00004d30:    bd10        ..      POP      {r4,pc}
    .text
    __aeabi_ui2f
        0x00004d32:    b510        ..      PUSH     {r4,lr}
        0x00004d34:    2200        ."      MOVS     r2,#0
        0x00004d36:    2396        .#      MOVS     r3,#0x96
        0x00004d38:    4611        .F      MOV      r1,r2
        0x00004d3a:    f000f8e2    ....    BL       _float_epilogue ; 0x4f02
        0x00004d3e:    bd10        ..      POP      {r4,pc}
    .text
    __aeabi_f2iz
        0x00004d40:    0fc2        ..      LSRS     r2,r0,#31
        0x00004d42:    0041        A.      LSLS     r1,r0,#1
        0x00004d44:    0240        @.      LSLS     r0,r0,#9
        0x00004d46:    2301        .#      MOVS     r3,#1
        0x00004d48:    0a40        @.      LSRS     r0,r0,#9
        0x00004d4a:    05db        ..      LSLS     r3,r3,#23
        0x00004d4c:    07d2        ..      LSLS     r2,r2,#31
        0x00004d4e:    0e09        ..      LSRS     r1,r1,#24
        0x00004d50:    18c0        ..      ADDS     r0,r0,r3
        0x00004d52:    297f        .)      CMP      r1,#0x7f
        0x00004d54:    da01        ..      BGE      0x4d5a ; __aeabi_f2iz + 26
        0x00004d56:    2000        .       MOVS     r0,#0
        0x00004d58:    4770        pG      BX       lr
        0x00004d5a:    2996        .)      CMP      r1,#0x96
        0x00004d5c:    dc03        ..      BGT      0x4d66 ; __aeabi_f2iz + 38
        0x00004d5e:    2396        .#      MOVS     r3,#0x96
        0x00004d60:    1a59        Y.      SUBS     r1,r3,r1
        0x00004d62:    40c8        .@      LSRS     r0,r0,r1
        0x00004d64:    e001        ..      B        0x4d6a ; __aeabi_f2iz + 42
        0x00004d66:    3996        .9      SUBS     r1,r1,#0x96
        0x00004d68:    4088        .@      LSLS     r0,r0,r1
        0x00004d6a:    2a00        .*      CMP      r2,#0
        0x00004d6c:    d0f4        ..      BEQ      0x4d58 ; __aeabi_f2iz + 24
        0x00004d6e:    4240        @B      RSBS     r0,r0,#0
        0x00004d70:    4770        pG      BX       lr
    .text
    __aeabi_f2uiz
        0x00004d72:    0041        A.      LSLS     r1,r0,#1
        0x00004d74:    0240        @.      LSLS     r0,r0,#9
        0x00004d76:    2201        ."      MOVS     r2,#1
        0x00004d78:    0a40        @.      LSRS     r0,r0,#9
        0x00004d7a:    05d2        ..      LSLS     r2,r2,#23
        0x00004d7c:    0e09        ..      LSRS     r1,r1,#24
        0x00004d7e:    1880        ..      ADDS     r0,r0,r2
        0x00004d80:    297f        .)      CMP      r1,#0x7f
        0x00004d82:    da01        ..      BGE      0x4d88 ; __aeabi_f2uiz + 22
        0x00004d84:    2000        .       MOVS     r0,#0
        0x00004d86:    4770        pG      BX       lr
        0x00004d88:    2996        .)      CMP      r1,#0x96
        0x00004d8a:    dc03        ..      BGT      0x4d94 ; __aeabi_f2uiz + 34
        0x00004d8c:    2296        ."      MOVS     r2,#0x96
        0x00004d8e:    1a51        Q.      SUBS     r1,r2,r1
        0x00004d90:    40c8        .@      LSRS     r0,r0,r1
        0x00004d92:    4770        pG      BX       lr
        0x00004d94:    3996        .9      SUBS     r1,r1,#0x96
        0x00004d96:    4088        .@      LSLS     r0,r0,r1
        0x00004d98:    4770        pG      BX       lr
    .text
    __aeabi_f2d
        0x00004d9a:    0fc2        ..      LSRS     r2,r0,#31
        0x00004d9c:    07d2        ..      LSLS     r2,r2,#31
        0x00004d9e:    0040        @.      LSLS     r0,r0,#1
        0x00004da0:    0840        @.      LSRS     r0,r0,#1
        0x00004da2:    d00b        ..      BEQ      0x4dbc ; __aeabi_f2d + 34
        0x00004da4:    0dc1        ..      LSRS     r1,r0,#23
        0x00004da6:    2307        .#      MOVS     r3,#7
        0x00004da8:    01db        ..      LSLS     r3,r3,#7
        0x00004daa:    18c9        ..      ADDS     r1,r1,r3
        0x00004dac:    0240        @.      LSLS     r0,r0,#9
        0x00004dae:    0509        ..      LSLS     r1,r1,#20
        0x00004db0:    0a40        @.      LSRS     r0,r0,#9
        0x00004db2:    4311        .C      ORRS     r1,r1,r2
        0x00004db4:    08c2        ..      LSRS     r2,r0,#3
        0x00004db6:    0740        @.      LSLS     r0,r0,#29
        0x00004db8:    4311        .C      ORRS     r1,r1,r2
        0x00004dba:    4770        pG      BX       lr
        0x00004dbc:    2000        .       MOVS     r0,#0
        0x00004dbe:    4601        .F      MOV      r1,r0
        0x00004dc0:    4770        pG      BX       lr
        0x00004dc2:    0000        ..      MOVS     r0,r0
    .text
    __aeabi_cdrcmple
        0x00004dc4:    b510        ..      PUSH     {r4,lr}
        0x00004dc6:    2900        .)      CMP      r1,#0
        0x00004dc8:    db04        ..      BLT      0x4dd4 ; __aeabi_cdrcmple + 16
        0x00004dca:    2401        .$      MOVS     r4,#1
        0x00004dcc:    07e4        ..      LSLS     r4,r4,#31
        0x00004dce:    4240        @B      RSBS     r0,r0,#0
        0x00004dd0:    418c        .A      SBCS     r4,r4,r1
        0x00004dd2:    4621        !F      MOV      r1,r4
        0x00004dd4:    2b00        .+      CMP      r3,#0
        0x00004dd6:    db04        ..      BLT      0x4de2 ; __aeabi_cdrcmple + 30
        0x00004dd8:    461c        .F      MOV      r4,r3
        0x00004dda:    2301        .#      MOVS     r3,#1
        0x00004ddc:    07db        ..      LSLS     r3,r3,#31
        0x00004dde:    4252        RB      RSBS     r2,r2,#0
        0x00004de0:    41a3        .A      SBCS     r3,r3,r4
        0x00004de2:    4299        .B      CMP      r1,r3
        0x00004de4:    d100        ..      BNE      0x4de8 ; __aeabi_cdrcmple + 36
        0x00004de6:    4290        .B      CMP      r0,r2
        0x00004de8:    bd10        ..      POP      {r4,pc}
    $d
        0x00004dea:    0000        ..      DCW    0
    $t
    .text
    __aeabi_d2f
        0x00004dec:    0fcb        ..      LSRS     r3,r1,#31
        0x00004dee:    07db        ..      LSLS     r3,r3,#31
        0x00004df0:    0049        I.      LSLS     r1,r1,#1
        0x00004df2:    b510        ..      PUSH     {r4,lr}
        0x00004df4:    0849        I.      LSRS     r1,r1,#1
        0x00004df6:    4602        .F      MOV      r2,r0
        0x00004df8:    430a        .C      ORRS     r2,r2,r1
        0x00004dfa:    d007        ..      BEQ      0x4e0c ; __aeabi_d2f + 32
        0x00004dfc:    0d0a        ..      LSRS     r2,r1,#20
        0x00004dfe:    2407        .$      MOVS     r4,#7
        0x00004e00:    0309        ..      LSLS     r1,r1,#12
        0x00004e02:    01e4        ..      LSLS     r4,r4,#7
        0x00004e04:    0b09        ..      LSRS     r1,r1,#12
        0x00004e06:    1b12        ..      SUBS     r2,r2,r4
        0x00004e08:    2a00        .*      CMP      r2,#0
        0x00004e0a:    dc01        ..      BGT      0x4e10 ; __aeabi_d2f + 36
        0x00004e0c:    2000        .       MOVS     r0,#0
        0x00004e0e:    bd10        ..      POP      {r4,pc}
        0x00004e10:    00c9        ..      LSLS     r1,r1,#3
        0x00004e12:    0f44        D.      LSRS     r4,r0,#29
        0x00004e14:    430c        .C      ORRS     r4,r4,r1
        0x00004e16:    00c1        ..      LSLS     r1,r0,#3
        0x00004e18:    18e0        ..      ADDS     r0,r4,r3
        0x00004e1a:    05d2        ..      LSLS     r2,r2,#23
        0x00004e1c:    1880        ..      ADDS     r0,r0,r2
        0x00004e1e:    f000f868    ..h.    BL       __I$use$fp ; 0x4ef2
        0x00004e22:    bd10        ..      POP      {r4,pc}
    .text
    __aeabi_cfcmpeq
    __aeabi_cfcmple
        0x00004e24:    2201        ."      MOVS     r2,#1
        0x00004e26:    07d2        ..      LSLS     r2,r2,#31
        0x00004e28:    2800        .(      CMP      r0,#0
        0x00004e2a:    db00        ..      BLT      0x4e2e ; __aeabi_cfcmpeq + 10
        0x00004e2c:    1a10        ..      SUBS     r0,r2,r0
        0x00004e2e:    2900        .)      CMP      r1,#0
        0x00004e30:    db00        ..      BLT      0x4e34 ; __aeabi_cfcmpeq + 16
        0x00004e32:    1a51        Q.      SUBS     r1,r2,r1
        0x00004e34:    4281        .B      CMP      r1,r0
        0x00004e36:    4770        pG      BX       lr
    .text
    __aeabi_cfrcmple
        0x00004e38:    2201        ."      MOVS     r2,#1
        0x00004e3a:    07d2        ..      LSLS     r2,r2,#31
        0x00004e3c:    2800        .(      CMP      r0,#0
        0x00004e3e:    db00        ..      BLT      0x4e42 ; __aeabi_cfrcmple + 10
        0x00004e40:    1a10        ..      SUBS     r0,r2,r0
        0x00004e42:    2900        .)      CMP      r1,#0
        0x00004e44:    db00        ..      BLT      0x4e48 ; __aeabi_cfrcmple + 16
        0x00004e46:    1a51        Q.      SUBS     r1,r2,r1
        0x00004e48:    4288        .B      CMP      r0,r1
        0x00004e4a:    4770        pG      BX       lr
    .text
    __aeabi_uldivmod
        0x00004e4c:    b5f0        ..      PUSH     {r4-r7,lr}
        0x00004e4e:    b41f        ..      PUSH     {r0-r4}
        0x00004e50:    4606        .F      MOV      r6,r0
        0x00004e52:    2000        .       MOVS     r0,#0
        0x00004e54:    b082        ..      SUB      sp,sp,#8
        0x00004e56:    4605        .F      MOV      r5,r0
        0x00004e58:    2440        @$      MOVS     r4,#0x40
        0x00004e5a:    9101        ..      STR      r1,[sp,#4]
        0x00004e5c:    9000        ..      STR      r0,[sp,#0]
        0x00004e5e:    e01b        ..      B        0x4e98 ; __aeabi_uldivmod + 76
        0x00004e60:    9901        ..      LDR      r1,[sp,#4]
        0x00004e62:    4622        "F      MOV      r2,r4
        0x00004e64:    460f        .F      MOV      r7,r1
        0x00004e66:    4630        0F      MOV      r0,r6
        0x00004e68:    f000f990    ....    BL       __aeabi_llsr ; 0x518c
        0x00004e6c:    9a04        ..      LDR      r2,[sp,#0x10]
        0x00004e6e:    9b05        ..      LDR      r3,[sp,#0x14]
        0x00004e70:    1a80        ..      SUBS     r0,r0,r2
        0x00004e72:    4199        .A      SBCS     r1,r1,r3
        0x00004e74:    d310        ..      BCC      0x4e98 ; __aeabi_uldivmod + 76
        0x00004e76:    4610        .F      MOV      r0,r2
        0x00004e78:    4619        .F      MOV      r1,r3
        0x00004e7a:    4622        "F      MOV      r2,r4
        0x00004e7c:    f000f816    ....    BL       __aeabi_llsl ; 0x4eac
        0x00004e80:    1a36        6.      SUBS     r6,r6,r0
        0x00004e82:    418f        .A      SBCS     r7,r7,r1
        0x00004e84:    9701        ..      STR      r7,[sp,#4]
        0x00004e86:    4622        "F      MOV      r2,r4
        0x00004e88:    2001        .       MOVS     r0,#1
        0x00004e8a:    2100        .!      MOVS     r1,#0
        0x00004e8c:    9f00        ..      LDR      r7,[sp,#0]
        0x00004e8e:    f000f80d    ....    BL       __aeabi_llsl ; 0x4eac
        0x00004e92:    1838        8.      ADDS     r0,r7,r0
        0x00004e94:    414d        MA      ADCS     r5,r5,r1
        0x00004e96:    9000        ..      STR      r0,[sp,#0]
        0x00004e98:    4620         F      MOV      r0,r4
        0x00004e9a:    1e64        d.      SUBS     r4,r4,#1
        0x00004e9c:    2800        .(      CMP      r0,#0
        0x00004e9e:    dcdf        ..      BGT      0x4e60 ; __aeabi_uldivmod + 20
        0x00004ea0:    9b01        ..      LDR      r3,[sp,#4]
        0x00004ea2:    9800        ..      LDR      r0,[sp,#0]
        0x00004ea4:    4629        )F      MOV      r1,r5
        0x00004ea6:    4632        2F      MOV      r2,r6
        0x00004ea8:    b007        ..      ADD      sp,sp,#0x1c
        0x00004eaa:    bdf0        ..      POP      {r4-r7,pc}
    .text
    __aeabi_llsl
    _ll_shift_l
        0x00004eac:    b510        ..      PUSH     {r4,lr}
        0x00004eae:    2a20         *      CMP      r2,#0x20
        0x00004eb0:    db04        ..      BLT      0x4ebc ; __aeabi_llsl + 16
        0x00004eb2:    4601        .F      MOV      r1,r0
        0x00004eb4:    3a20         :      SUBS     r2,r2,#0x20
        0x00004eb6:    4091        .@      LSLS     r1,r1,r2
        0x00004eb8:    2000        .       MOVS     r0,#0
        0x00004eba:    bd10        ..      POP      {r4,pc}
        0x00004ebc:    4091        .@      LSLS     r1,r1,r2
        0x00004ebe:    2320         #      MOVS     r3,#0x20
        0x00004ec0:    1a9c        ..      SUBS     r4,r3,r2
        0x00004ec2:    4603        .F      MOV      r3,r0
        0x00004ec4:    40e3        .@      LSRS     r3,r3,r4
        0x00004ec6:    4319        .C      ORRS     r1,r1,r3
        0x00004ec8:    4090        .@      LSLS     r0,r0,r2
        0x00004eca:    bd10        ..      POP      {r4,pc}
    .text
    __aeabi_lasr
    _ll_sshift_r
        0x00004ecc:    b510        ..      PUSH     {r4,lr}
        0x00004ece:    2a20         *      CMP      r2,#0x20
        0x00004ed0:    db06        ..      BLT      0x4ee0 ; __aeabi_lasr + 20
        0x00004ed2:    17cb        ..      ASRS     r3,r1,#31
        0x00004ed4:    4608        .F      MOV      r0,r1
        0x00004ed6:    3a20         :      SUBS     r2,r2,#0x20
        0x00004ed8:    4110        .A      ASRS     r0,r0,r2
        0x00004eda:    17c1        ..      ASRS     r1,r0,#31
        0x00004edc:    430b        .C      ORRS     r3,r3,r1
        0x00004ede:    e006        ..      B        0x4eee ; __aeabi_lasr + 34
        0x00004ee0:    460b        .F      MOV      r3,r1
        0x00004ee2:    4113        .A      ASRS     r3,r3,r2
        0x00004ee4:    40d0        .@      LSRS     r0,r0,r2
        0x00004ee6:    2420         $      MOVS     r4,#0x20
        0x00004ee8:    1aa2        ..      SUBS     r2,r4,r2
        0x00004eea:    4091        .@      LSLS     r1,r1,r2
        0x00004eec:    4308        .C      ORRS     r0,r0,r1
        0x00004eee:    4619        .F      MOV      r1,r3
        0x00004ef0:    bd10        ..      POP      {r4,pc}
    .text
    .text
    __I$use$fp
    _float_round
        0x00004ef2:    2900        .)      CMP      r1,#0
        0x00004ef4:    da04        ..      BGE      0x4f00 ; __I$use$fp + 14
        0x00004ef6:    1c40        @.      ADDS     r0,r0,#1
        0x00004ef8:    0049        I.      LSLS     r1,r1,#1
        0x00004efa:    d101        ..      BNE      0x4f00 ; __I$use$fp + 14
        0x00004efc:    0840        @.      LSRS     r0,r0,#1
        0x00004efe:    0040        @.      LSLS     r0,r0,#1
        0x00004f00:    4770        pG      BX       lr
    _float_epilogue
        0x00004f02:    b470        p.      PUSH     {r4-r6}
        0x00004f04:    2400        .$      MOVS     r4,#0
        0x00004f06:    0c05        ..      LSRS     r5,r0,#16
        0x00004f08:    d105        ..      BNE      0x4f16 ; _float_epilogue + 20
        0x00004f0a:    2410        .$      MOVS     r4,#0x10
        0x00004f0c:    0400        ..      LSLS     r0,r0,#16
        0x00004f0e:    d102        ..      BNE      0x4f16 ; _float_epilogue + 20
        0x00004f10:    2900        .)      CMP      r1,#0
        0x00004f12:    d021        !.      BEQ      0x4f58 ; _float_epilogue + 86
        0x00004f14:    2411        .$      MOVS     r4,#0x11
        0x00004f16:    0e05        ..      LSRS     r5,r0,#24
        0x00004f18:    d101        ..      BNE      0x4f1e ; _float_epilogue + 28
        0x00004f1a:    0200        ..      LSLS     r0,r0,#8
        0x00004f1c:    3408        .4      ADDS     r4,r4,#8
        0x00004f1e:    0f05        ..      LSRS     r5,r0,#28
        0x00004f20:    d101        ..      BNE      0x4f26 ; _float_epilogue + 36
        0x00004f22:    0100        ..      LSLS     r0,r0,#4
        0x00004f24:    1d24        $.      ADDS     r4,r4,#4
        0x00004f26:    0f85        ..      LSRS     r5,r0,#30
        0x00004f28:    d101        ..      BNE      0x4f2e ; _float_epilogue + 44
        0x00004f2a:    0080        ..      LSLS     r0,r0,#2
        0x00004f2c:    1ca4        ..      ADDS     r4,r4,#2
        0x00004f2e:    2800        .(      CMP      r0,#0
        0x00004f30:    db01        ..      BLT      0x4f36 ; _float_epilogue + 52
        0x00004f32:    0040        @.      LSLS     r0,r0,#1
        0x00004f34:    1c64        d.      ADDS     r4,r4,#1
        0x00004f36:    2900        .)      CMP      r1,#0
        0x00004f38:    d008        ..      BEQ      0x4f4c ; _float_epilogue + 74
        0x00004f3a:    2520         %      MOVS     r5,#0x20
        0x00004f3c:    1b2e        ..      SUBS     r6,r5,r4
        0x00004f3e:    460d        .F      MOV      r5,r1
        0x00004f40:    40f5        .@      LSRS     r5,r5,r6
        0x00004f42:    40a1        .@      LSLS     r1,r1,r4
        0x00004f44:    d000        ..      BEQ      0x4f48 ; _float_epilogue + 70
        0x00004f46:    2101        .!      MOVS     r1,#1
        0x00004f48:    4329        )C      ORRS     r1,r1,r5
        0x00004f4a:    4308        .C      ORRS     r0,r0,r1
        0x00004f4c:    0601        ..      LSLS     r1,r0,#24
        0x00004f4e:    1b1b        ..      SUBS     r3,r3,r4
        0x00004f50:    0a00        ..      LSRS     r0,r0,#8
        0x00004f52:    1ddb        ..      ADDS     r3,r3,#7
        0x00004f54:    d502        ..      BPL      0x4f5c ; _float_epilogue + 90
        0x00004f56:    2000        .       MOVS     r0,#0
        0x00004f58:    bc70        p.      POP      {r4-r6}
        0x00004f5a:    4770        pG      BX       lr
        0x00004f5c:    05db        ..      LSLS     r3,r3,#23
        0x00004f5e:    1818        ..      ADDS     r0,r3,r0
        0x00004f60:    1880        ..      ADDS     r0,r0,r2
        0x00004f62:    2900        .)      CMP      r1,#0
        0x00004f64:    daf8        ..      BGE      0x4f58 ; _float_epilogue + 86
        0x00004f66:    1c40        @.      ADDS     r0,r0,#1
        0x00004f68:    0049        I.      LSLS     r1,r1,#1
        0x00004f6a:    d1f5        ..      BNE      0x4f58 ; _float_epilogue + 86
        0x00004f6c:    bc70        p.      POP      {r4-r6}
        0x00004f6e:    0840        @.      LSRS     r0,r0,#1
        0x00004f70:    0040        @.      LSLS     r0,r0,#1
        0x00004f72:    4770        pG      BX       lr
    .text
    _fsqrt
        0x00004f74:    b570        p.      PUSH     {r4-r6,lr}
        0x00004f76:    2800        .(      CMP      r0,#0
        0x00004f78:    dc01        ..      BGT      0x4f7e ; _fsqrt + 10
        0x00004f7a:    2000        .       MOVS     r0,#0
        0x00004f7c:    bd70        p.      POP      {r4-r6,pc}
        0x00004f7e:    0041        A.      LSLS     r1,r0,#1
        0x00004f80:    0240        @.      LSLS     r0,r0,#9
        0x00004f82:    2601        .&      MOVS     r6,#1
        0x00004f84:    0a40        @.      LSRS     r0,r0,#9
        0x00004f86:    05f6        ..      LSLS     r6,r6,#23
        0x00004f88:    0e09        ..      LSRS     r1,r1,#24
        0x00004f8a:    1980        ..      ADDS     r0,r0,r6
        0x00004f8c:    07ca        ..      LSLS     r2,r1,#31
        0x00004f8e:    d101        ..      BNE      0x4f94 ; _fsqrt + 32
        0x00004f90:    0040        @.      LSLS     r0,r0,#1
        0x00004f92:    1e49        I.      SUBS     r1,r1,#1
        0x00004f94:    104d        M.      ASRS     r5,r1,#1
        0x00004f96:    2200        ."      MOVS     r2,#0
        0x00004f98:    4611        .F      MOV      r1,r2
        0x00004f9a:    353f        ?5      ADDS     r5,r5,#0x3f
        0x00004f9c:    4633        3F      MOV      r3,r6
        0x00004f9e:    40cb        .@      LSRS     r3,r3,r1
        0x00004fa0:    189b        ..      ADDS     r3,r3,r2
        0x00004fa2:    18d4        ..      ADDS     r4,r2,r3
        0x00004fa4:    4284        .B      CMP      r4,r0
        0x00004fa6:    d801        ..      BHI      0x4fac ; _fsqrt + 56
        0x00004fa8:    1b00        ..      SUBS     r0,r0,r4
        0x00004faa:    461a        .F      MOV      r2,r3
        0x00004fac:    0040        @.      LSLS     r0,r0,#1
        0x00004fae:    1c49        I.      ADDS     r1,r1,#1
        0x00004fb0:    2917        .)      CMP      r1,#0x17
        0x00004fb2:    ddf3        ..      BLE      0x4f9c ; _fsqrt + 40
        0x00004fb4:    0051        Q.      LSLS     r1,r2,#1
        0x00004fb6:    4281        .B      CMP      r1,r0
        0x00004fb8:    d202        ..      BCS      0x4fc0 ; _fsqrt + 76
        0x00004fba:    2100        .!      MOVS     r1,#0
        0x00004fbc:    43c9        .C      MVNS     r1,r1
        0x00004fbe:    e000        ..      B        0x4fc2 ; _fsqrt + 78
        0x00004fc0:    2100        .!      MOVS     r1,#0
        0x00004fc2:    05e8        ..      LSLS     r0,r5,#23
        0x00004fc4:    1880        ..      ADDS     r0,r0,r2
        0x00004fc6:    f7ffff94    ....    BL       __I$use$fp ; 0x4ef2
        0x00004fca:    bd70        p.      POP      {r4-r6,pc}
    .text
    _frnd
        0x00004fcc:    b510        ..      PUSH     {r4,lr}
        0x00004fce:    0041        A.      LSLS     r1,r0,#1
        0x00004fd0:    d00d        ..      BEQ      0x4fee ; _frnd + 34
        0x00004fd2:    0041        A.      LSLS     r1,r0,#1
        0x00004fd4:    0e09        ..      LSRS     r1,r1,#24
        0x00004fd6:    2996        .)      CMP      r1,#0x96
        0x00004fd8:    dc09        ..      BGT      0x4fee ; _frnd + 34
        0x00004fda:    297e        ~)      CMP      r1,#0x7e
        0x00004fdc:    dc0a        ..      BGT      0x4ff4 ; _frnd + 40
        0x00004fde:    db07        ..      BLT      0x4ff0 ; _frnd + 36
        0x00004fe0:    0241        A.      LSLS     r1,r0,#9
        0x00004fe2:    d005        ..      BEQ      0x4ff0 ; _frnd + 36
        0x00004fe4:    0fc0        ..      LSRS     r0,r0,#31
        0x00004fe6:    217f        .!      MOVS     r1,#0x7f
        0x00004fe8:    07c0        ..      LSLS     r0,r0,#31
        0x00004fea:    05c9        ..      LSLS     r1,r1,#23
        0x00004fec:    1840        @.      ADDS     r0,r0,r1
        0x00004fee:    bd10        ..      POP      {r4,pc}
        0x00004ff0:    2000        .       MOVS     r0,#0
        0x00004ff2:    bd10        ..      POP      {r4,pc}
        0x00004ff4:    2296        ."      MOVS     r2,#0x96
        0x00004ff6:    1a54        T.      SUBS     r4,r2,r1
        0x00004ff8:    2120         !      MOVS     r1,#0x20
        0x00004ffa:    1b0a        ..      SUBS     r2,r1,r4
        0x00004ffc:    4601        .F      MOV      r1,r0
        0x00004ffe:    4091        .@      LSLS     r1,r1,r2
        0x00005000:    40e0        .@      LSRS     r0,r0,r4
        0x00005002:    f7ffff76    ..v.    BL       __I$use$fp ; 0x4ef2
        0x00005006:    40a0        .@      LSLS     r0,r0,r4
        0x00005008:    bd10        ..      POP      {r4,pc}
    .text
    _double_round
        0x0000500a:    b510        ..      PUSH     {r4,lr}
        0x0000500c:    2b00        .+      CMP      r3,#0
        0x0000500e:    da08        ..      BGE      0x5022 ; _double_round + 24
        0x00005010:    2400        .$      MOVS     r4,#0
        0x00005012:    1c40        @.      ADDS     r0,r0,#1
        0x00005014:    4161        aA      ADCS     r1,r1,r4
        0x00005016:    1892        ..      ADDS     r2,r2,r2
        0x00005018:    415b        [A      ADCS     r3,r3,r3
        0x0000501a:    431a        .C      ORRS     r2,r2,r3
        0x0000501c:    d101        ..      BNE      0x5022 ; _double_round + 24
        0x0000501e:    0840        @.      LSRS     r0,r0,#1
        0x00005020:    0040        @.      LSLS     r0,r0,#1
        0x00005022:    bd10        ..      POP      {r4,pc}
    _double_epilogue
        0x00005024:    b5f0        ..      PUSH     {r4-r7,lr}
        0x00005026:    b41f        ..      PUSH     {r0-r4}
        0x00005028:    b082        ..      SUB      sp,sp,#8
        0x0000502a:    4605        .F      MOV      r5,r0
        0x0000502c:    000c        ..      MOVS     r4,r1
        0x0000502e:    d003        ..      BEQ      0x5038 ; _double_epilogue + 20
        0x00005030:    4608        .F      MOV      r0,r1
        0x00005032:    f000f939    ..9.    BL       __ARM_clz ; 0x52a8
        0x00005036:    e002        ..      B        0x503e ; _double_epilogue + 26
        0x00005038:    f000f936    ..6.    BL       __ARM_clz ; 0x52a8
        0x0000503c:    3020         0      ADDS     r0,r0,#0x20
        0x0000503e:    4602        .F      MOV      r2,r0
        0x00005040:    9000        ..      STR      r0,[sp,#0]
        0x00005042:    4621        !F      MOV      r1,r4
        0x00005044:    4628        (F      MOV      r0,r5
        0x00005046:    f7ffff31    ..1.    BL       __aeabi_llsl ; 0x4eac
        0x0000504a:    9b04        ..      LDR      r3,[sp,#0x10]
        0x0000504c:    9a05        ..      LDR      r2,[sp,#0x14]
        0x0000504e:    4604        .F      MOV      r4,r0
        0x00005050:    460f        .F      MOV      r7,r1
        0x00005052:    4318        .C      ORRS     r0,r0,r3
        0x00005054:    4311        .C      ORRS     r1,r1,r2
        0x00005056:    4308        .C      ORRS     r0,r0,r1
        0x00005058:    d014        ..      BEQ      0x5084 ; _double_epilogue + 96
        0x0000505a:    4618        .F      MOV      r0,r3
        0x0000505c:    4310        .C      ORRS     r0,r0,r2
        0x0000505e:    d01b        ..      BEQ      0x5098 ; _double_epilogue + 116
        0x00005060:    9800        ..      LDR      r0,[sp,#0]
        0x00005062:    2140        @!      MOVS     r1,#0x40
        0x00005064:    1a0a        ..      SUBS     r2,r1,r0
        0x00005066:    4618        .F      MOV      r0,r3
        0x00005068:    9905        ..      LDR      r1,[sp,#0x14]
        0x0000506a:    f000f88f    ....    BL       __aeabi_llsr ; 0x518c
        0x0000506e:    4605        .F      MOV      r5,r0
        0x00005070:    460e        .F      MOV      r6,r1
        0x00005072:    9a00        ..      LDR      r2,[sp,#0]
        0x00005074:    9905        ..      LDR      r1,[sp,#0x14]
        0x00005076:    9804        ..      LDR      r0,[sp,#0x10]
        0x00005078:    f7ffff18    ....    BL       __aeabi_llsl ; 0x4eac
        0x0000507c:    4308        .C      ORRS     r0,r0,r1
        0x0000507e:    d005        ..      BEQ      0x508c ; _double_epilogue + 104
        0x00005080:    2001        .       MOVS     r0,#1
        0x00005082:    e004        ..      B        0x508e ; _double_epilogue + 106
        0x00005084:    4620         F      MOV      r0,r4
        0x00005086:    4639        9F      MOV      r1,r7
        0x00005088:    b007        ..      ADD      sp,sp,#0x1c
        0x0000508a:    bdf0        ..      POP      {r4-r7,pc}
        0x0000508c:    2000        .       MOVS     r0,#0
        0x0000508e:    17c1        ..      ASRS     r1,r0,#31
        0x00005090:    4305        .C      ORRS     r5,r5,r0
        0x00005092:    430e        .C      ORRS     r6,r6,r1
        0x00005094:    432c        ,C      ORRS     r4,r4,r5
        0x00005096:    4337        7C      ORRS     r7,r7,r6
        0x00005098:    9900        ..      LDR      r1,[sp,#0]
        0x0000509a:    980e        ..      LDR      r0,[sp,#0x38]
        0x0000509c:    0563        c.      LSLS     r3,r4,#21
        0x0000509e:    1a40        @.      SUBS     r0,r0,r1
        0x000050a0:    0579        y.      LSLS     r1,r7,#21
        0x000050a2:    0ae4        ..      LSRS     r4,r4,#11
        0x000050a4:    2200        ."      MOVS     r2,#0
        0x000050a6:    430c        .C      ORRS     r4,r4,r1
        0x000050a8:    0afd        ..      LSRS     r5,r7,#11
        0x000050aa:    300a        .0      ADDS     r0,r0,#0xa
        0x000050ac:    d502        ..      BPL      0x50b4 ; _double_epilogue + 144
        0x000050ae:    2000        .       MOVS     r0,#0
        0x000050b0:    4601        .F      MOV      r1,r0
        0x000050b2:    e7e9        ..      B        0x5088 ; _double_epilogue + 100
        0x000050b4:    0501        ..      LSLS     r1,r0,#20
        0x000050b6:    1910        ..      ADDS     r0,r2,r4
        0x000050b8:    4169        iA      ADCS     r1,r1,r5
        0x000050ba:    9c0c        ..      LDR      r4,[sp,#0x30]
        0x000050bc:    9d0d        ..      LDR      r5,[sp,#0x34]
        0x000050be:    1900        ..      ADDS     r0,r0,r4
        0x000050c0:    4169        iA      ADCS     r1,r1,r5
        0x000050c2:    f7ffffa2    ....    BL       _double_round ; 0x500a
        0x000050c6:    e7df        ..      B        0x5088 ; _double_epilogue + 100
    .text
    __aeabi_d2ulz
        0x000050c8:    004a        J.      LSLS     r2,r1,#1
        0x000050ca:    0309        ..      LSLS     r1,r1,#12
        0x000050cc:    2301        .#      MOVS     r3,#1
        0x000050ce:    0b09        ..      LSRS     r1,r1,#12
        0x000050d0:    051b        ..      LSLS     r3,r3,#20
        0x000050d2:    4319        .C      ORRS     r1,r1,r3
        0x000050d4:    4b0a        .K      LDR      r3,[pc,#40] ; [0x5100] = 0x3ff
        0x000050d6:    b510        ..      PUSH     {r4,lr}
        0x000050d8:    0d52        R.      LSRS     r2,r2,#21
        0x000050da:    429a        .B      CMP      r2,r3
        0x000050dc:    da02        ..      BGE      0x50e4 ; __aeabi_d2ulz + 28
        0x000050de:    2000        .       MOVS     r0,#0
        0x000050e0:    4601        .F      MOV      r1,r0
        0x000050e2:    bd10        ..      POP      {r4,pc}
        0x000050e4:    4b06        .K      LDR      r3,[pc,#24] ; [0x5100] = 0x3ff
        0x000050e6:    3334        43      ADDS     r3,r3,#0x34
        0x000050e8:    429a        .B      CMP      r2,r3
        0x000050ea:    dc03        ..      BGT      0x50f4 ; __aeabi_d2ulz + 44
        0x000050ec:    1a9a        ..      SUBS     r2,r3,r2
        0x000050ee:    f000f84d    ..M.    BL       __aeabi_llsr ; 0x518c
        0x000050f2:    bd10        ..      POP      {r4,pc}
        0x000050f4:    4b03        .K      LDR      r3,[pc,#12] ; [0x5104] = 0xfffffbcd
        0x000050f6:    18d2        ..      ADDS     r2,r2,r3
        0x000050f8:    f7fffed8    ....    BL       __aeabi_llsl ; 0x4eac
        0x000050fc:    bd10        ..      POP      {r4,pc}
    $d
        0x000050fe:    0000        ..      DCW    0
        0x00005100:    000003ff    ....    DCD    1023
        0x00005104:    fffffbcd    ....    DCD    4294966221
    $t
    .text
    __ARM_dcmp4
    _dcmp4
        0x00005108:    b530        0.      PUSH     {r4,r5,lr}
        0x0000510a:    4604        .F      MOV      r4,r0
        0x0000510c:    0fcd        ..      LSRS     r5,r1,#31
        0x0000510e:    07ed        ..      LSLS     r5,r5,#31
        0x00005110:    2000        .       MOVS     r0,#0
        0x00005112:    4305        .C      ORRS     r5,r5,r0
        0x00005114:    d104        ..      BNE      0x5120 ; __ARM_dcmp4 + 24
        0x00005116:    460d        .F      MOV      r5,r1
        0x00005118:    2101        .!      MOVS     r1,#1
        0x0000511a:    07c9        ..      LSLS     r1,r1,#31
        0x0000511c:    4264        dB      RSBS     r4,r4,#0
        0x0000511e:    41a9        .A      SBCS     r1,r1,r5
        0x00005120:    0fdd        ..      LSRS     r5,r3,#31
        0x00005122:    07ed        ..      LSLS     r5,r5,#31
        0x00005124:    4328        (C      ORRS     r0,r0,r5
        0x00005126:    d104        ..      BNE      0x5132 ; __ARM_dcmp4 + 42
        0x00005128:    4618        .F      MOV      r0,r3
        0x0000512a:    2301        .#      MOVS     r3,#1
        0x0000512c:    07db        ..      LSLS     r3,r3,#31
        0x0000512e:    4252        RB      RSBS     r2,r2,#0
        0x00005130:    4183        .A      SBCS     r3,r3,r0
        0x00005132:    4618        .F      MOV      r0,r3
        0x00005134:    1b15        ..      SUBS     r5,r2,r4
        0x00005136:    4188        .A      SBCS     r0,r0,r1
        0x00005138:    d201        ..      BCS      0x513e ; __ARM_dcmp4 + 54
        0x0000513a:    4809        .H      LDR      r0,[pc,#36] ; [0x5160] = 0x80000000
        0x0000513c:    e006        ..      B        0x514c ; __ARM_dcmp4 + 68
        0x0000513e:    2001        .       MOVS     r0,#1
        0x00005140:    0740        @.      LSLS     r0,r0,#29
        0x00005142:    4062        b@      EORS     r2,r2,r4
        0x00005144:    404b        K@      EORS     r3,r3,r1
        0x00005146:    431a        .C      ORRS     r2,r2,r3
        0x00005148:    d100        ..      BNE      0x514c ; __ARM_dcmp4 + 68
        0x0000514a:    4806        .H      LDR      r0,[pc,#24] ; [0x5164] = 0x60000000
        0x0000514c:    f3ef8100    ....    MRS      r1,APSR ; formerly CPSR
        0x00005150:    0209        ..      LSLS     r1,r1,#8
        0x00005152:    0a09        ..      LSRS     r1,r1,#8
        0x00005154:    0e02        ..      LSRS     r2,r0,#24
        0x00005156:    0612        ..      LSLS     r2,r2,#24
        0x00005158:    4311        .C      ORRS     r1,r1,r2
        0x0000515a:    f3818800    ....    MSR      APSR_nzcvq,r1 ; formerly CPSR_f
        0x0000515e:    bd30        0.      POP      {r4,r5,pc}
    $d
        0x00005160:    80000000    ....    DCD    2147483648
        0x00005164:    60000000    ...`    DCD    1610612736
    $t
    .text
    __scatterload
    __scatterload_rt2
        0x00005168:    4c06        .L      LDR      r4,[pc,#24] ; [0x5184] = 0x6d68
        0x0000516a:    2501        .%      MOVS     r5,#1
        0x0000516c:    4e06        .N      LDR      r6,[pc,#24] ; [0x5188] = 0x6d88
        0x0000516e:    e005        ..      B        0x517c ; __scatterload + 20
        0x00005170:    68e3        .h      LDR      r3,[r4,#0xc]
        0x00005172:    cc07        ..      LDM      r4!,{r0-r2}
        0x00005174:    432b        +C      ORRS     r3,r3,r5
        0x00005176:    3c0c        .<      SUBS     r4,r4,#0xc
        0x00005178:    4798        .G      BLX      r3
        0x0000517a:    3410        .4      ADDS     r4,r4,#0x10
        0x0000517c:    42b4        .B      CMP      r4,r6
        0x0000517e:    d3f7        ..      BCC      0x5170 ; __scatterload + 8
        0x00005180:    f7faffa2    ....    BL       __main_after_scatterload ; 0xc8
    $d
        0x00005184:    00006d68    hm..    DCD    28008
        0x00005188:    00006d88    .m..    DCD    28040
    $t
    .text
    __aeabi_llsr
    _ll_ushift_r
        0x0000518c:    b510        ..      PUSH     {r4,lr}
        0x0000518e:    2a20         *      CMP      r2,#0x20
        0x00005190:    db04        ..      BLT      0x519c ; __aeabi_llsr + 16
        0x00005192:    4608        .F      MOV      r0,r1
        0x00005194:    3a20         :      SUBS     r2,r2,#0x20
        0x00005196:    40d0        .@      LSRS     r0,r0,r2
        0x00005198:    2100        .!      MOVS     r1,#0
        0x0000519a:    bd10        ..      POP      {r4,pc}
        0x0000519c:    460b        .F      MOV      r3,r1
        0x0000519e:    40d3        .@      LSRS     r3,r3,r2
        0x000051a0:    40d0        .@      LSRS     r0,r0,r2
        0x000051a2:    2420         $      MOVS     r4,#0x20
        0x000051a4:    1aa2        ..      SUBS     r2,r4,r2
        0x000051a6:    4091        .@      LSLS     r1,r1,r2
        0x000051a8:    4308        .C      ORRS     r0,r0,r1
        0x000051aa:    4619        .F      MOV      r1,r3
        0x000051ac:    bd10        ..      POP      {r4,pc}
    .text
    __ARM_scalbn
    scalbn
        0x000051ae:    b570        p.      PUSH     {r4-r6,lr}
        0x000051b0:    004b        K.      LSLS     r3,r1,#1
        0x000051b2:    085b        [.      LSRS     r3,r3,#1
        0x000051b4:    4303        .C      ORRS     r3,r3,r0
        0x000051b6:    d00b        ..      BEQ      0x51d0 ; __ARM_scalbn + 34
        0x000051b8:    004b        K.      LSLS     r3,r1,#1
        0x000051ba:    0d5c        \.      LSRS     r4,r3,#21
        0x000051bc:    2600        .&      MOVS     r6,#0
        0x000051be:    4633        3F      MOV      r3,r6
        0x000051c0:    4265        eB      RSBS     r5,r4,#0
        0x000051c2:    41b3        .A      SBCS     r3,r3,r6
        0x000051c4:    17d4        ..      ASRS     r4,r2,#31
        0x000051c6:    1aad        ..      SUBS     r5,r5,r2
        0x000051c8:    41a3        .A      SBCS     r3,r3,r4
        0x000051ca:    db02        ..      BLT      0x51d2 ; __ARM_scalbn + 36
        0x000051cc:    2000        .       MOVS     r0,#0
        0x000051ce:    4601        .F      MOV      r1,r0
        0x000051d0:    bd70        p.      POP      {r4-r6,pc}
        0x000051d2:    0512        ..      LSLS     r2,r2,#20
        0x000051d4:    1830        0.      ADDS     r0,r6,r0
        0x000051d6:    4151        QA      ADCS     r1,r1,r2
        0x000051d8:    bd70        p.      POP      {r4-r6,pc}
        0x000051da:    0000        ..      MOVS     r0,r0
    .text
    __aeabi_i2d
        0x000051dc:    b50e        ..      PUSH     {r1-r3,lr}
        0x000051de:    17c2        ..      ASRS     r2,r0,#31
        0x000051e0:    0fc1        ..      LSRS     r1,r0,#31
        0x000051e2:    4050        P@      EORS     r0,r0,r2
        0x000051e4:    07ca        ..      LSLS     r2,r1,#31
        0x000051e6:    1840        @.      ADDS     r0,r0,r1
        0x000051e8:    2100        .!      MOVS     r1,#0
        0x000051ea:    4b05        .K      LDR      r3,[pc,#20] ; [0x5200] = 0x433
        0x000051ec:    9302        ..      STR      r3,[sp,#8]
        0x000051ee:    9201        ..      STR      r2,[sp,#4]
        0x000051f0:    9100        ..      STR      r1,[sp,#0]
        0x000051f2:    460a        .F      MOV      r2,r1
        0x000051f4:    460b        .F      MOV      r3,r1
        0x000051f6:    f7ffff15    ....    BL       _double_epilogue ; 0x5024
        0x000051fa:    b003        ..      ADD      sp,sp,#0xc
        0x000051fc:    bd00        ..      POP      {pc}
    $d
        0x000051fe:    0000        ..      DCW    0
        0x00005200:    00000433    3...    DCD    1075
    $t
    .text
    __aeabi_ui2d
        0x00005204:    b50e        ..      PUSH     {r1-r3,lr}
        0x00005206:    4905        .I      LDR      r1,[pc,#20] ; [0x521c] = 0x433
        0x00005208:    9102        ..      STR      r1,[sp,#8]
        0x0000520a:    2100        .!      MOVS     r1,#0
        0x0000520c:    9100        ..      STR      r1,[sp,#0]
        0x0000520e:    460a        .F      MOV      r2,r1
        0x00005210:    460b        .F      MOV      r3,r1
        0x00005212:    9101        ..      STR      r1,[sp,#4]
        0x00005214:    f7ffff06    ....    BL       _double_epilogue ; 0x5024
        0x00005218:    b003        ..      ADD      sp,sp,#0xc
        0x0000521a:    bd00        ..      POP      {pc}
    $d
        0x0000521c:    00000433    3...    DCD    1075
    $t
    .text
    __aeabi_d2iz
        0x00005220:    b570        p.      PUSH     {r4-r6,lr}
        0x00005222:    0fcd        ..      LSRS     r5,r1,#31
        0x00005224:    004a        J.      LSLS     r2,r1,#1
        0x00005226:    0309        ..      LSLS     r1,r1,#12
        0x00005228:    2301        .#      MOVS     r3,#1
        0x0000522a:    0b09        ..      LSRS     r1,r1,#12
        0x0000522c:    051b        ..      LSLS     r3,r3,#20
        0x0000522e:    4319        .C      ORRS     r1,r1,r3
        0x00005230:    4b0b        .K      LDR      r3,[pc,#44] ; [0x5260] = 0x3ff
        0x00005232:    07ed        ..      LSLS     r5,r5,#31
        0x00005234:    2400        .$      MOVS     r4,#0
        0x00005236:    0d52        R.      LSRS     r2,r2,#21
        0x00005238:    429a        .B      CMP      r2,r3
        0x0000523a:    da01        ..      BGE      0x5240 ; __aeabi_d2iz + 32
        0x0000523c:    2000        .       MOVS     r0,#0
        0x0000523e:    bd70        p.      POP      {r4-r6,pc}
        0x00005240:    4b07        .K      LDR      r3,[pc,#28] ; [0x5260] = 0x3ff
        0x00005242:    3334        43      ADDS     r3,r3,#0x34
        0x00005244:    429a        .B      CMP      r2,r3
        0x00005246:    dc03        ..      BGT      0x5250 ; __aeabi_d2iz + 48
        0x00005248:    1a9a        ..      SUBS     r2,r3,r2
        0x0000524a:    f7ffff9f    ....    BL       __aeabi_llsr ; 0x518c
        0x0000524e:    e002        ..      B        0x5256 ; __aeabi_d2iz + 54
        0x00005250:    4904        .I      LDR      r1,[pc,#16] ; [0x5264] = 0xfffffbcd
        0x00005252:    1851        Q.      ADDS     r1,r2,r1
        0x00005254:    4088        .@      LSLS     r0,r0,r1
        0x00005256:    432c        ,C      ORRS     r4,r4,r5
        0x00005258:    d0f1        ..      BEQ      0x523e ; __aeabi_d2iz + 30
        0x0000525a:    4240        @B      RSBS     r0,r0,#0
        0x0000525c:    bd70        p.      POP      {r4-r6,pc}
    $d
        0x0000525e:    0000        ..      DCW    0
        0x00005260:    000003ff    ....    DCD    1023
        0x00005264:    fffffbcd    ....    DCD    4294966221
    $t
    i.SPI_RW
    SPI_RW
        0x00005268:    4906        .I      LDR      r1,[pc,#24] ; [0x5284] = 0x40030100
        0x0000526a:    6208        .b      STR      r0,[r1,#0x20]
        0x0000526c:    6808        .h      LDR      r0,[r1,#0]
        0x0000526e:    2201        ."      MOVS     r2,#1
        0x00005270:    4310        .C      ORRS     r0,r0,r2
        0x00005272:    6008        .`      STR      r0,[r1,#0]
        0x00005274:    6808        .h      LDR      r0,[r1,#0]
        0x00005276:    43c0        .C      MVNS     r0,r0
        0x00005278:    07c0        ..      LSLS     r0,r0,#31
        0x0000527a:    d0fb        ..      BEQ      0x5274 ; SPI_RW + 12
        0x0000527c:    6908        .i      LDR      r0,[r1,#0x10]
        0x0000527e:    b2c0        ..      UXTB     r0,r0
        0x00005280:    4770        pG      BX       lr
    $d
        0x00005282:    0000        ..      DCW    0
        0x00005284:    40030100    ...@    DCD    1073938688
    $t
    i.__0printf
    __0printf
    __1printf
    __2printf
    __c89printf
    printf
        0x00005288:    b40f        ..      PUSH     {r0-r3}
        0x0000528a:    b510        ..      PUSH     {r4,lr}
        0x0000528c:    a903        ..      ADD      r1,sp,#0xc
        0x0000528e:    4b04        .K      LDR      r3,[pc,#16] ; [0x52a0] = 0x3dbb
        0x00005290:    4a04        .J      LDR      r2,[pc,#16] ; [0x52a4] = 0x200000b8
        0x00005292:    9802        ..      LDR      r0,[sp,#8]
        0x00005294:    f000fd38    ..8.    BL       _printf_core ; 0x5d08
        0x00005298:    bc10        ..      POP      {r4}
        0x0000529a:    bc08        ..      POP      {r3}
        0x0000529c:    b004        ..      ADD      sp,sp,#0x10
        0x0000529e:    4718        .G      BX       r3
    $d
        0x000052a0:    00003dbb    .=..    DCD    15803
        0x000052a4:    200000b8    ...     DCD    536871096
    $t
    i.__ARM_clz
    __ARM_clz
        0x000052a8:    2120         !      MOVS     r1,#0x20
        0x000052aa:    0c02        ..      LSRS     r2,r0,#16
        0x000052ac:    d001        ..      BEQ      0x52b2 ; __ARM_clz + 10
        0x000052ae:    2110        .!      MOVS     r1,#0x10
        0x000052b0:    4610        .F      MOV      r0,r2
        0x000052b2:    0a02        ..      LSRS     r2,r0,#8
        0x000052b4:    d001        ..      BEQ      0x52ba ; __ARM_clz + 18
        0x000052b6:    4610        .F      MOV      r0,r2
        0x000052b8:    3908        .9      SUBS     r1,r1,#8
        0x000052ba:    0902        ..      LSRS     r2,r0,#4
        0x000052bc:    d001        ..      BEQ      0x52c2 ; __ARM_clz + 26
        0x000052be:    4610        .F      MOV      r0,r2
        0x000052c0:    1f09        ..      SUBS     r1,r1,#4
        0x000052c2:    0882        ..      LSRS     r2,r0,#2
        0x000052c4:    d001        ..      BEQ      0x52ca ; __ARM_clz + 34
        0x000052c6:    4610        .F      MOV      r0,r2
        0x000052c8:    1e89        ..      SUBS     r1,r1,#2
        0x000052ca:    0842        B.      LSRS     r2,r0,#1
        0x000052cc:    d001        ..      BEQ      0x52d2 ; __ARM_clz + 42
        0x000052ce:    1e88        ..      SUBS     r0,r1,#2
        0x000052d0:    4770        pG      BX       lr
        0x000052d2:    1a08        ..      SUBS     r0,r1,r0
        0x000052d4:    4770        pG      BX       lr
    i.__ARM_common_ll_muluu
    __ARM_common_ll_muluu
        0x000052d6:    b4f0        ..      PUSH     {r4-r7}
        0x000052d8:    0c04        ..      LSRS     r4,r0,#16
        0x000052da:    b28b        ..      UXTH     r3,r1
        0x000052dc:    4626        &F      MOV      r6,r4
        0x000052de:    b282        ..      UXTH     r2,r0
        0x000052e0:    435e        ^C      MULS     r6,r3,r6
        0x000052e2:    0c0d        ..      LSRS     r5,r1,#16
        0x000052e4:    4610        .F      MOV      r0,r2
        0x000052e6:    0c37        7.      LSRS     r7,r6,#16
        0x000052e8:    4358        XC      MULS     r0,r3,r0
        0x000052ea:    0436        6.      LSLS     r6,r6,#16
        0x000052ec:    1980        ..      ADDS     r0,r0,r6
        0x000052ee:    2100        .!      MOVS     r1,#0
        0x000052f0:    4179        yA      ADCS     r1,r1,r7
        0x000052f2:    4616        .F      MOV      r6,r2
        0x000052f4:    436e        nC      MULS     r6,r5,r6
        0x000052f6:    0c37        7.      LSRS     r7,r6,#16
        0x000052f8:    0436        6.      LSLS     r6,r6,#16
        0x000052fa:    1980        ..      ADDS     r0,r0,r6
        0x000052fc:    4179        yA      ADCS     r1,r1,r7
        0x000052fe:    4626        &F      MOV      r6,r4
        0x00005300:    436e        nC      MULS     r6,r5,r6
        0x00005302:    1989        ..      ADDS     r1,r1,r6
        0x00005304:    bcf0        ..      POP      {r4-r7}
        0x00005306:    4770        pG      BX       lr
    i.__ARM_common_switch8
    __ARM_common_switch8
        0x00005308:    b430        0.      PUSH     {r4,r5}
        0x0000530a:    4674        tF      MOV      r4,lr
        0x0000530c:    1e64        d.      SUBS     r4,r4,#1
        0x0000530e:    7825        %x      LDRB     r5,[r4,#0]
        0x00005310:    1c64        d.      ADDS     r4,r4,#1
        0x00005312:    42ab        .B      CMP      r3,r5
        0x00005314:    d200        ..      BCS      0x5318 ; __ARM_common_switch8 + 16
        0x00005316:    461d        .F      MOV      r5,r3
        0x00005318:    5d63        c]      LDRB     r3,[r4,r5]
        0x0000531a:    005b        [.      LSLS     r3,r3,#1
        0x0000531c:    18e3        ..      ADDS     r3,r4,r3
        0x0000531e:    bc30        0.      POP      {r4,r5}
        0x00005320:    4718        .G      BX       r3
        0x00005322:    0000        ..      MOVS     r0,r0
    i.__ARM_fpclassify
    __ARM_fpclassify
        0x00005324:    0049        I.      LSLS     r1,r1,#1
        0x00005326:    02ca        ..      LSLS     r2,r1,#11
        0x00005328:    4302        .C      ORRS     r2,r2,r0
        0x0000532a:    0010        ..      MOVS     r0,r2
        0x0000532c:    d000        ..      BEQ      0x5330 ; __ARM_fpclassify + 12
        0x0000532e:    2004        .       MOVS     r0,#4
        0x00005330:    0d4a        J.      LSRS     r2,r1,#21
        0x00005332:    d001        ..      BEQ      0x5338 ; __ARM_fpclassify + 20
        0x00005334:    2201        ."      MOVS     r2,#1
        0x00005336:    4310        .C      ORRS     r0,r0,r2
        0x00005338:    4a04        .J      LDR      r2,[pc,#16] ; [0x534c] = 0x7ff
        0x0000533a:    0d49        I.      LSRS     r1,r1,#21
        0x0000533c:    4291        .B      CMP      r1,r2
        0x0000533e:    d101        ..      BNE      0x5344 ; __ARM_fpclassify + 32
        0x00005340:    2102        .!      MOVS     r1,#2
        0x00005342:    4308        .C      ORRS     r0,r0,r1
        0x00005344:    2801        .(      CMP      r0,#1
        0x00005346:    d100        ..      BNE      0x534a ; __ARM_fpclassify + 38
        0x00005348:    2005        .       MOVS     r0,#5
        0x0000534a:    4770        pG      BX       lr
    $d
        0x0000534c:    000007ff    ....    DCD    2047
    $t
    i.__ARM_fpclassifyf
    __ARM_fpclassifyf
        0x00005350:    0041        A.      LSLS     r1,r0,#1
        0x00005352:    0208        ..      LSLS     r0,r1,#8
        0x00005354:    d000        ..      BEQ      0x5358 ; __ARM_fpclassifyf + 8
        0x00005356:    2004        .       MOVS     r0,#4
        0x00005358:    0e0a        ..      LSRS     r2,r1,#24
        0x0000535a:    d001        ..      BEQ      0x5360 ; __ARM_fpclassifyf + 16
        0x0000535c:    2201        ."      MOVS     r2,#1
        0x0000535e:    4310        .C      ORRS     r0,r0,r2
        0x00005360:    0e09        ..      LSRS     r1,r1,#24
        0x00005362:    29ff        .)      CMP      r1,#0xff
        0x00005364:    d101        ..      BNE      0x536a ; __ARM_fpclassifyf + 26
        0x00005366:    2102        .!      MOVS     r1,#2
        0x00005368:    4308        .C      ORRS     r0,r0,r1
        0x0000536a:    2801        .(      CMP      r0,#1
        0x0000536c:    d100        ..      BNE      0x5370 ; __ARM_fpclassifyf + 32
        0x0000536e:    2005        .       MOVS     r0,#5
        0x00005370:    4770        pG      BX       lr
    i.__ARM_isfinitef
    __ARM_isfinitef
        0x00005372:    0dc0        ..      LSRS     r0,r0,#23
        0x00005374:    43c0        .C      MVNS     r0,r0
        0x00005376:    0600        ..      LSLS     r0,r0,#24
        0x00005378:    0e00        ..      LSRS     r0,r0,#24
        0x0000537a:    d000        ..      BEQ      0x537e ; __ARM_isfinitef + 12
        0x0000537c:    2001        .       MOVS     r0,#1
        0x0000537e:    4770        pG      BX       lr
    i.__ieee754_rem_pio2
    __ieee754_rem_pio2
        0x00005380:    b5f7        ..      PUSH     {r0-r2,r4-r7,lr}
        0x00005382:    b096        ..      SUB      sp,sp,#0x58
        0x00005384:    4614        .F      MOV      r4,r2
        0x00005386:    2100        .!      MOVS     r1,#0
        0x00005388:    60a1        .`      STR      r1,[r4,#8]
        0x0000538a:    60d1        .`      STR      r1,[r2,#0xc]
        0x0000538c:    9917        ..      LDR      r1,[sp,#0x5c]
        0x0000538e:    9109        ..      STR      r1,[sp,#0x24]
        0x00005390:    004d        M.      LSLS     r5,r1,#1
        0x00005392:    49cd        .I      LDR      r1,[pc,#820] ; [0x56c8] = 0x3fe921fb
        0x00005394:    086d        m.      LSRS     r5,r5,#1
        0x00005396:    428d        .B      CMP      r5,r1
        0x00005398:    dc05        ..      BGT      0x53a6 ; __ieee754_rem_pio2 + 38
        0x0000539a:    9917        ..      LDR      r1,[sp,#0x5c]
        0x0000539c:    6061        a`      STR      r1,[r4,#4]
        0x0000539e:    6020         `      STR      r0,[r4,#0]
        0x000053a0:    2000        .       MOVS     r0,#0
        0x000053a2:    b019        ..      ADD      sp,sp,#0x64
        0x000053a4:    bdf0        ..      POP      {r4-r7,pc}
        0x000053a6:    49c9        .I      LDR      r1,[pc,#804] ; [0x56cc] = 0x4002d97c
        0x000053a8:    4ec9        .N      LDR      r6,[pc,#804] ; [0x56d0] = 0x3ff921fb
        0x000053aa:    428d        .B      CMP      r5,r1
        0x000053ac:    da38        8.      BGE      0x5420 ; __ieee754_rem_pio2 + 160
        0x000053ae:    27d3        .'      MOVS     r7,#0xd3
        0x000053b0:    9909        ..      LDR      r1,[sp,#0x24]
        0x000053b2:    057f        ..      LSLS     r7,r7,#21
        0x000053b4:    2900        .)      CMP      r1,#0
        0x000053b6:    4ac7        .J      LDR      r2,[pc,#796] ; [0x56d4] = 0x54400000
        0x000053b8:    9917        ..      LDR      r1,[sp,#0x5c]
        0x000053ba:    4633        3F      MOV      r3,r6
        0x000053bc:    dd17        ..      BLE      0x53ee ; __ieee754_rem_pio2 + 110
        0x000053be:    f7fffbbf    ....    BL       __aeabi_dsub ; 0x4b40
        0x000053c2:    42b5        .B      CMP      r5,r6
        0x000053c4:    d006        ..      BEQ      0x53d4 ; __ieee754_rem_pio2 + 84
        0x000053c6:    4ac4        .J      LDR      r2,[pc,#784] ; [0x56d8] = 0x1a626331
        0x000053c8:    4bc4        .K      LDR      r3,[pc,#784] ; [0x56dc] = 0x3dd0b461
        0x000053ca:    f7fffbb9    ....    BL       __aeabi_dsub ; 0x4b40
        0x000053ce:    6061        a`      STR      r1,[r4,#4]
        0x000053d0:    6020         `      STR      r0,[r4,#0]
        0x000053d2:    e009        ..      B        0x53e8 ; __ieee754_rem_pio2 + 104
        0x000053d4:    463a        :F      MOV      r2,r7
        0x000053d6:    4bc1        .K      LDR      r3,[pc,#772] ; [0x56dc] = 0x3dd0b461
        0x000053d8:    f7fffbb2    ....    BL       __aeabi_dsub ; 0x4b40
        0x000053dc:    4ac0        .J      LDR      r2,[pc,#768] ; [0x56e0] = 0x2e037073
        0x000053de:    4bc1        .K      LDR      r3,[pc,#772] ; [0x56e4] = 0x3ba3198a
        0x000053e0:    f7fffbae    ....    BL       __aeabi_dsub ; 0x4b40
        0x000053e4:    6061        a`      STR      r1,[r4,#4]
        0x000053e6:    6020         `      STR      r0,[r4,#0]
        0x000053e8:    2001        .       MOVS     r0,#1
        0x000053ea:    b019        ..      ADD      sp,sp,#0x64
        0x000053ec:    bdf0        ..      POP      {r4-r7,pc}
        0x000053ee:    f7fffb03    ....    BL       __aeabi_dadd ; 0x49f8
        0x000053f2:    42b5        .B      CMP      r5,r6
        0x000053f4:    d006        ..      BEQ      0x5404 ; __ieee754_rem_pio2 + 132
        0x000053f6:    4ab8        .J      LDR      r2,[pc,#736] ; [0x56d8] = 0x1a626331
        0x000053f8:    4bb8        .K      LDR      r3,[pc,#736] ; [0x56dc] = 0x3dd0b461
        0x000053fa:    f7fffafd    ....    BL       __aeabi_dadd ; 0x49f8
        0x000053fe:    6061        a`      STR      r1,[r4,#4]
        0x00005400:    6020         `      STR      r0,[r4,#0]
        0x00005402:    e009        ..      B        0x5418 ; __ieee754_rem_pio2 + 152
        0x00005404:    463a        :F      MOV      r2,r7
        0x00005406:    4bb5        .K      LDR      r3,[pc,#724] ; [0x56dc] = 0x3dd0b461
        0x00005408:    f7fffaf6    ....    BL       __aeabi_dadd ; 0x49f8
        0x0000540c:    4ab4        .J      LDR      r2,[pc,#720] ; [0x56e0] = 0x2e037073
        0x0000540e:    4bb5        .K      LDR      r3,[pc,#724] ; [0x56e4] = 0x3ba3198a
        0x00005410:    f7fffaf2    ....    BL       __aeabi_dadd ; 0x49f8
        0x00005414:    6061        a`      STR      r1,[r4,#4]
        0x00005416:    6020         `      STR      r0,[r4,#0]
        0x00005418:    2000        .       MOVS     r0,#0
        0x0000541a:    43c0        .C      MVNS     r0,r0
        0x0000541c:    b019        ..      ADD      sp,sp,#0x64
        0x0000541e:    bdf0        ..      POP      {r4-r7,pc}
        0x00005420:    49b1        .I      LDR      r1,[pc,#708] ; [0x56e8] = 0x413921fb
        0x00005422:    428d        .B      CMP      r5,r1
        0x00005424:    9917        ..      LDR      r1,[sp,#0x5c]
        0x00005426:    dc77        w.      BGT      0x5518 ; __ieee754_rem_pio2 + 408
        0x00005428:    0049        I.      LSLS     r1,r1,#1
        0x0000542a:    0849        I.      LSRS     r1,r1,#1
        0x0000542c:    4607        .F      MOV      r7,r0
        0x0000542e:    4aaf        .J      LDR      r2,[pc,#700] ; [0x56ec] = 0x6dc9c883
        0x00005430:    4baf        .K      LDR      r3,[pc,#700] ; [0x56f0] = 0x3fe45f30
        0x00005432:    9104        ..      STR      r1,[sp,#0x10]
        0x00005434:    f7fffb92    ....    BL       __aeabi_dmul ; 0x4b5c
        0x00005438:    2200        ."      MOVS     r2,#0
        0x0000543a:    4bae        .K      LDR      r3,[pc,#696] ; [0x56f4] = 0x3fe00000
        0x0000543c:    f7fffadc    ....    BL       __aeabi_dadd ; 0x49f8
        0x00005440:    f7fffeee    ....    BL       __aeabi_d2iz ; 0x5220
        0x00005444:    900a        ..      STR      r0,[sp,#0x28]
        0x00005446:    f7fffec9    ....    BL       __aeabi_i2d ; 0x51dc
        0x0000544a:    4aa2        .J      LDR      r2,[pc,#648] ; [0x56d4] = 0x54400000
        0x0000544c:    4633        3F      MOV      r3,r6
        0x0000544e:    9103        ..      STR      r1,[sp,#0xc]
        0x00005450:    9002        ..      STR      r0,[sp,#8]
        0x00005452:    f7fffb83    ....    BL       __aeabi_dmul ; 0x4b5c
        0x00005456:    463a        :F      MOV      r2,r7
        0x00005458:    9b04        ..      LDR      r3,[sp,#0x10]
        0x0000545a:    f7fffb77    ..w.    BL       __aeabi_drsub ; 0x4b4c
        0x0000545e:    4606        .F      MOV      r6,r0
        0x00005460:    460f        .F      MOV      r7,r1
        0x00005462:    4a9d        .J      LDR      r2,[pc,#628] ; [0x56d8] = 0x1a626331
        0x00005464:    4b9d        .K      LDR      r3,[pc,#628] ; [0x56dc] = 0x3dd0b461
        0x00005466:    9903        ..      LDR      r1,[sp,#0xc]
        0x00005468:    9802        ..      LDR      r0,[sp,#8]
        0x0000546a:    f7fffb77    ..w.    BL       __aeabi_dmul ; 0x4b5c
        0x0000546e:    0d2a        *.      LSRS     r2,r5,#20
        0x00005470:    2501        .%      MOVS     r5,#1
        0x00005472:    920c        ..      STR      r2,[sp,#0x30]
        0x00005474:    4632        2F      MOV      r2,r6
        0x00005476:    463b        ;F      MOV      r3,r7
        0x00005478:    f7fffb68    ..h.    BL       __aeabi_drsub ; 0x4b4c
        0x0000547c:    6061        a`      STR      r1,[r4,#4]
        0x0000547e:    6020         `      STR      r0,[r4,#0]
        0x00005480:    2d03        .-      CMP      r5,#3
        0x00005482:    d039        9.      BEQ      0x54f8 ; __ieee754_rem_pio2 + 376
        0x00005484:    0048        H.      LSLS     r0,r1,#1
        0x00005486:    0d41        A.      LSRS     r1,r0,#21
        0x00005488:    980c        ..      LDR      r0,[sp,#0x30]
        0x0000548a:    1a40        @.      SUBS     r0,r0,r1
        0x0000548c:    0169        i.      LSLS     r1,r5,#5
        0x0000548e:    1869        i.      ADDS     r1,r5,r1
        0x00005490:    3911        .9      SUBS     r1,r1,#0x11
        0x00005492:    4281        .B      CMP      r1,r0
        0x00005494:    da30        0.      BGE      0x54f8 ; __ieee754_rem_pio2 + 376
        0x00005496:    4998        .I      LDR      r1,[pc,#608] ; [0x56f8] = 0x1772
        0x00005498:    0128        (.      LSLS     r0,r5,#4
        0x0000549a:    4479        yD      ADD      r1,r1,pc
        0x0000549c:    9608        ..      STR      r6,[sp,#0x20]
        0x0000549e:    900d        ..      STR      r0,[sp,#0x34]
        0x000054a0:    1808        ..      ADDS     r0,r1,r0
        0x000054a2:    9704        ..      STR      r7,[sp,#0x10]
        0x000054a4:    6843        Ch      LDR      r3,[r0,#4]
        0x000054a6:    6802        .h      LDR      r2,[r0,#0]
        0x000054a8:    9903        ..      LDR      r1,[sp,#0xc]
        0x000054aa:    9802        ..      LDR      r0,[sp,#8]
        0x000054ac:    f7fffb56    ..V.    BL       __aeabi_dmul ; 0x4b5c
        0x000054b0:    4602        .F      MOV      r2,r0
        0x000054b2:    460b        .F      MOV      r3,r1
        0x000054b4:    9107        ..      STR      r1,[sp,#0x1c]
        0x000054b6:    9006        ..      STR      r0,[sp,#0x18]
        0x000054b8:    9904        ..      LDR      r1,[sp,#0x10]
        0x000054ba:    9808        ..      LDR      r0,[sp,#0x20]
        0x000054bc:    f7fffb40    ..@.    BL       __aeabi_dsub ; 0x4b40
        0x000054c0:    4606        .F      MOV      r6,r0
        0x000054c2:    460f        .F      MOV      r7,r1
        0x000054c4:    9b04        ..      LDR      r3,[sp,#0x10]
        0x000054c6:    9a08        ..      LDR      r2,[sp,#0x20]
        0x000054c8:    f7fffb40    ..@.    BL       __aeabi_drsub ; 0x4b4c
        0x000054cc:    9b07        ..      LDR      r3,[sp,#0x1c]
        0x000054ce:    9a06        ..      LDR      r2,[sp,#0x18]
        0x000054d0:    f7fffb36    ..6.    BL       __aeabi_dsub ; 0x4b40
        0x000054d4:    9105        ..      STR      r1,[sp,#0x14]
        0x000054d6:    4989        .I      LDR      r1,[pc,#548] ; [0x56fc] = 0x1732
        0x000054d8:    9004        ..      STR      r0,[sp,#0x10]
        0x000054da:    4479        yD      ADD      r1,r1,pc
        0x000054dc:    980d        ..      LDR      r0,[sp,#0x34]
        0x000054de:    1840        @.      ADDS     r0,r0,r1
        0x000054e0:    68c3        .h      LDR      r3,[r0,#0xc]
        0x000054e2:    6882        .h      LDR      r2,[r0,#8]
        0x000054e4:    9903        ..      LDR      r1,[sp,#0xc]
        0x000054e6:    9802        ..      LDR      r0,[sp,#8]
        0x000054e8:    f7fffb38    ..8.    BL       __aeabi_dmul ; 0x4b5c
        0x000054ec:    9b05        ..      LDR      r3,[sp,#0x14]
        0x000054ee:    9a04        ..      LDR      r2,[sp,#0x10]
        0x000054f0:    f7fffb26    ..&.    BL       __aeabi_dsub ; 0x4b40
        0x000054f4:    1c6d        m.      ADDS     r5,r5,#1
        0x000054f6:    e7bd        ..      B        0x5474 ; __ieee754_rem_pio2 + 244
        0x000054f8:    9809        ..      LDR      r0,[sp,#0x24]
        0x000054fa:    2800        .(      CMP      r0,#0
        0x000054fc:    da09        ..      BGE      0x5512 ; __ieee754_rem_pio2 + 402
        0x000054fe:    2201        ."      MOVS     r2,#1
        0x00005500:    6860        `h      LDR      r0,[r4,#4]
        0x00005502:    07d2        ..      LSLS     r2,r2,#31
        0x00005504:    4050        P@      EORS     r0,r0,r2
        0x00005506:    6060        ``      STR      r0,[r4,#4]
        0x00005508:    980a        ..      LDR      r0,[sp,#0x28]
        0x0000550a:    b019        ..      ADD      sp,sp,#0x64
        0x0000550c:    4240        @B      RSBS     r0,r0,#0
        0x0000550e:    bdf0        ..      POP      {r4-r7,pc}
        0x00005510:    e002        ..      B        0x5518 ; __ieee754_rem_pio2 + 408
        0x00005512:    980a        ..      LDR      r0,[sp,#0x28]
        0x00005514:    b019        ..      ADD      sp,sp,#0x64
        0x00005516:    bdf0        ..      POP      {r4-r7,pc}
        0x00005518:    0309        ..      LSLS     r1,r1,#12
        0x0000551a:    2201        ."      MOVS     r2,#1
        0x0000551c:    0b09        ..      LSRS     r1,r1,#12
        0x0000551e:    0512        ..      LSLS     r2,r2,#20
        0x00005520:    900e        ..      STR      r0,[sp,#0x38]
        0x00005522:    1889        ..      ADDS     r1,r1,r2
        0x00005524:    9817        ..      LDR      r0,[sp,#0x5c]
        0x00005526:    9110        ..      STR      r1,[sp,#0x40]
        0x00005528:    0040        @.      LSLS     r0,r0,#1
        0x0000552a:    4975        uI      LDR      r1,[pc,#468] ; [0x5700] = 0xfffffc0b
        0x0000552c:    0d40        @.      LSRS     r0,r0,#21
        0x0000552e:    1840        @.      ADDS     r0,r0,r1
        0x00005530:    1141        A.      ASRS     r1,r0,#5
        0x00005532:    06c0        ..      LSLS     r0,r0,#27
        0x00005534:    0ec0        ..      LSRS     r0,r0,#27
        0x00005536:    910d        ..      STR      r1,[sp,#0x34]
        0x00005538:    9013        ..      STR      r0,[sp,#0x4c]
        0x0000553a:    2120         !      MOVS     r1,#0x20
        0x0000553c:    1a08        ..      SUBS     r0,r1,r0
        0x0000553e:    9014        ..      STR      r0,[sp,#0x50]
        0x00005540:    2000        .       MOVS     r0,#0
        0x00005542:    9006        ..      STR      r0,[sp,#0x18]
        0x00005544:    2505        .%      MOVS     r5,#5
        0x00005546:    9007        ..      STR      r0,[sp,#0x1c]
        0x00005548:    9813        ..      LDR      r0,[sp,#0x4c]
        0x0000554a:    2800        .(      CMP      r0,#0
        0x0000554c:    980d        ..      LDR      r0,[sp,#0x34]
        0x0000554e:    d00c        ..      BEQ      0x556a ; __ieee754_rem_pio2 + 490
        0x00005550:    1940        @.      ADDS     r0,r0,r5
        0x00005552:    0082        ..      LSLS     r2,r0,#2
        0x00005554:    486b        kH      LDR      r0,[pc,#428] ; [0x5704] = 0x16e6
        0x00005556:    4478        xD      ADD      r0,r0,pc
        0x00005558:    5887        .X      LDR      r7,[r0,r2]
        0x0000555a:    9913        ..      LDR      r1,[sp,#0x4c]
        0x0000555c:    408f        .@      LSLS     r7,r7,r1
        0x0000555e:    1810        ..      ADDS     r0,r2,r0
        0x00005560:    6841        Ah      LDR      r1,[r0,#4]
        0x00005562:    9814        ..      LDR      r0,[sp,#0x50]
        0x00005564:    40c1        .@      LSRS     r1,r1,r0
        0x00005566:    430f        .C      ORRS     r7,r7,r1
        0x00005568:    e004        ..      B        0x5574 ; __ieee754_rem_pio2 + 500
        0x0000556a:    1940        @.      ADDS     r0,r0,r5
        0x0000556c:    0081        ..      LSLS     r1,r0,#2
        0x0000556e:    4866        fH      LDR      r0,[pc,#408] ; [0x5708] = 0x16cc
        0x00005570:    4478        xD      ADD      r0,r0,pc
        0x00005572:    5847        GX      LDR      r7,[r0,r1]
        0x00005574:    9910        ..      LDR      r1,[sp,#0x40]
        0x00005576:    4638        8F      MOV      r0,r7
        0x00005578:    f7fffead    ....    BL       __ARM_common_ll_muluu ; 0x52d6
        0x0000557c:    4606        .F      MOV      r6,r0
        0x0000557e:    910a        ..      STR      r1,[sp,#0x28]
        0x00005580:    4638        8F      MOV      r0,r7
        0x00005582:    990e        ..      LDR      r1,[sp,#0x38]
        0x00005584:    f7fffea7    ....    BL       __ARM_common_ll_muluu ; 0x52d6
        0x00005588:    198a        ..      ADDS     r2,r1,r6
        0x0000558a:    9b0a        ..      LDR      r3,[sp,#0x28]
        0x0000558c:    428a        .B      CMP      r2,r1
        0x0000558e:    d201        ..      BCS      0x5594 ; __ieee754_rem_pio2 + 532
        0x00005590:    2101        .!      MOVS     r1,#1
        0x00005592:    e000        ..      B        0x5596 ; __ieee754_rem_pio2 + 534
        0x00005594:    2100        .!      MOVS     r1,#0
        0x00005596:    18c9        ..      ADDS     r1,r1,r3
        0x00005598:    468c        .F      MOV      r12,r1
        0x0000559a:    00af        ..      LSLS     r7,r5,#2
        0x0000559c:    4669        iF      MOV      r1,sp
        0x0000559e:    1879        y.      ADDS     r1,r7,r1
        0x000055a0:    688b        .h      LDR      r3,[r1,#8]
        0x000055a2:    684e        Nh      LDR      r6,[r1,#4]
        0x000055a4:    18c3        ..      ADDS     r3,r0,r3
        0x000055a6:    4283        .B      CMP      r3,r0
        0x000055a8:    d201        ..      BCS      0x55ae ; __ieee754_rem_pio2 + 558
        0x000055aa:    2001        .       MOVS     r0,#1
        0x000055ac:    e000        ..      B        0x55b0 ; __ieee754_rem_pio2 + 560
        0x000055ae:    2000        .       MOVS     r0,#0
        0x000055b0:    1996        ..      ADDS     r6,r2,r6
        0x000055b2:    1836        6.      ADDS     r6,r6,r0
        0x000055b4:    2800        .(      CMP      r0,#0
        0x000055b6:    d002        ..      BEQ      0x55be ; __ieee754_rem_pio2 + 574
        0x000055b8:    4296        .B      CMP      r6,r2
        0x000055ba:    d902        ..      BLS      0x55c2 ; __ieee754_rem_pio2 + 578
        0x000055bc:    e003        ..      B        0x55c6 ; __ieee754_rem_pio2 + 582
        0x000055be:    4296        .B      CMP      r6,r2
        0x000055c0:    d201        ..      BCS      0x55c6 ; __ieee754_rem_pio2 + 582
        0x000055c2:    2001        .       MOVS     r0,#1
        0x000055c4:    e000        ..      B        0x55c8 ; __ieee754_rem_pio2 + 584
        0x000055c6:    2000        .       MOVS     r0,#0
        0x000055c8:    4662        bF      MOV      r2,r12
        0x000055ca:    1812        ..      ADDS     r2,r2,r0
        0x000055cc:    604e        N`      STR      r6,[r1,#4]
        0x000055ce:    4668        hF      MOV      r0,sp
        0x000055d0:    608b        .`      STR      r3,[r1,#8]
        0x000055d2:    51c2        .Q      STR      r2,[r0,r7]
        0x000055d4:    4628        (F      MOV      r0,r5
        0x000055d6:    1e6d        m.      SUBS     r5,r5,#1
        0x000055d8:    2800        .(      CMP      r0,#0
        0x000055da:    dcb5        ..      BGT      0x5548 ; __ieee754_rem_pio2 + 456
        0x000055dc:    2101        .!      MOVS     r1,#1
        0x000055de:    9802        ..      LDR      r0,[sp,#8]
        0x000055e0:    0749        I.      LSLS     r1,r1,#29
        0x000055e2:    1840        @.      ADDS     r0,r0,r1
        0x000055e4:    0f80        ..      LSRS     r0,r0,#30
        0x000055e6:    9013        ..      STR      r0,[sp,#0x4c]
        0x000055e8:    9802        ..      LDR      r0,[sp,#8]
        0x000055ea:    9905        ..      LDR      r1,[sp,#0x14]
        0x000055ec:    0080        ..      LSLS     r0,r0,#2
        0x000055ee:    9e03        ..      LDR      r6,[sp,#0xc]
        0x000055f0:    9d04        ..      LDR      r5,[sp,#0x10]
        0x000055f2:    910b        ..      STR      r1,[sp,#0x2c]
        0x000055f4:    f7fffdf2    ....    BL       __aeabi_i2d ; 0x51dc
        0x000055f8:    4607        .F      MOV      r7,r0
        0x000055fa:    4630        0F      MOV      r0,r6
        0x000055fc:    9108        ..      STR      r1,[sp,#0x20]
        0x000055fe:    f7fffe01    ....    BL       __aeabi_ui2d ; 0x5204
        0x00005602:    221d        ."      MOVS     r2,#0x1d
        0x00005604:    43d2        .C      MVNS     r2,r2
        0x00005606:    f7fffdd2    ....    BL       __ARM_scalbn ; 0x51ae
        0x0000560a:    9010        ..      STR      r0,[sp,#0x40]
        0x0000560c:    910f        ..      STR      r1,[sp,#0x3c]
        0x0000560e:    4628        (F      MOV      r0,r5
        0x00005610:    f7fffdf8    ....    BL       __aeabi_ui2d ; 0x5204
        0x00005614:    223d        ="      MOVS     r2,#0x3d
        0x00005616:    43d2        .C      MVNS     r2,r2
        0x00005618:    f7fffdc9    ....    BL       __ARM_scalbn ; 0x51ae
        0x0000561c:    900e        ..      STR      r0,[sp,#0x38]
        0x0000561e:    910d        ..      STR      r1,[sp,#0x34]
        0x00005620:    980b        ..      LDR      r0,[sp,#0x2c]
        0x00005622:    f7fffdef    ....    BL       __aeabi_ui2d ; 0x5204
        0x00005626:    225d        ]"      MOVS     r2,#0x5d
        0x00005628:    43d2        .C      MVNS     r2,r2
        0x0000562a:    f7fffdc0    ....    BL       __ARM_scalbn ; 0x51ae
        0x0000562e:    910b        ..      STR      r1,[sp,#0x2c]
        0x00005630:    900c        ..      STR      r0,[sp,#0x30]
        0x00005632:    9b0d        ..      LDR      r3,[sp,#0x34]
        0x00005634:    9a0e        ..      LDR      r2,[sp,#0x38]
        0x00005636:    f7fff9df    ....    BL       __aeabi_dadd ; 0x49f8
        0x0000563a:    9b0f        ..      LDR      r3,[sp,#0x3c]
        0x0000563c:    9a10        ..      LDR      r2,[sp,#0x40]
        0x0000563e:    f7fff9db    ....    BL       __aeabi_dadd ; 0x49f8
        0x00005642:    463a        :F      MOV      r2,r7
        0x00005644:    9b08        ..      LDR      r3,[sp,#0x20]
        0x00005646:    f7fff9d7    ....    BL       __aeabi_dadd ; 0x49f8
        0x0000564a:    2500        .%      MOVS     r5,#0
        0x0000564c:    460e        .F      MOV      r6,r1
        0x0000564e:    463a        :F      MOV      r2,r7
        0x00005650:    4628        (F      MOV      r0,r5
        0x00005652:    9b08        ..      LDR      r3,[sp,#0x20]
        0x00005654:    f7fffa74    ..t.    BL       __aeabi_dsub ; 0x4b40
        0x00005658:    9b0f        ..      LDR      r3,[sp,#0x3c]
        0x0000565a:    9a10        ..      LDR      r2,[sp,#0x40]
        0x0000565c:    f7fffa70    ..p.    BL       __aeabi_dsub ; 0x4b40
        0x00005660:    9b0d        ..      LDR      r3,[sp,#0x34]
        0x00005662:    9a0e        ..      LDR      r2,[sp,#0x38]
        0x00005664:    f7fffa6c    ..l.    BL       __aeabi_dsub ; 0x4b40
        0x00005668:    9b0b        ..      LDR      r3,[sp,#0x2c]
        0x0000566a:    9a0c        ..      LDR      r2,[sp,#0x30]
        0x0000566c:    f7fffa6e    ..n.    BL       __aeabi_drsub ; 0x4b4c
        0x00005670:    4a26        &J      LDR      r2,[pc,#152] ; [0x570c] = 0x54442d18
        0x00005672:    4b27        'K      LDR      r3,[pc,#156] ; [0x5710] = 0x3df921fb
        0x00005674:    f7fffa72    ..r.    BL       __aeabi_dmul ; 0x4b5c
        0x00005678:    4607        .F      MOV      r7,r0
        0x0000567a:    910d        ..      STR      r1,[sp,#0x34]
        0x0000567c:    4a25        %J      LDR      r2,[pc,#148] ; [0x5714] = 0x11a62633
        0x0000567e:    4b26        &K      LDR      r3,[pc,#152] ; [0x5718] = 0x3c110b46
        0x00005680:    4631        1F      MOV      r1,r6
        0x00005682:    4628        (F      MOV      r0,r5
        0x00005684:    f7fffa6a    ..j.    BL       __aeabi_dmul ; 0x4b5c
        0x00005688:    463a        :F      MOV      r2,r7
        0x0000568a:    9b0d        ..      LDR      r3,[sp,#0x34]
        0x0000568c:    f7fff9b4    ....    BL       __aeabi_dadd ; 0x49f8
        0x00005690:    460f        .F      MOV      r7,r1
        0x00005692:    2215        ."      MOVS     r2,#0x15
        0x00005694:    900c        ..      STR      r0,[sp,#0x30]
        0x00005696:    0692        ..      LSLS     r2,r2,#26
        0x00005698:    4b1d        .K      LDR      r3,[pc,#116] ; [0x5710] = 0x3df921fb
        0x0000569a:    4631        1F      MOV      r1,r6
        0x0000569c:    4628        (F      MOV      r0,r5
        0x0000569e:    f7fffa5d    ..].    BL       __aeabi_dmul ; 0x4b5c
        0x000056a2:    463b        ;F      MOV      r3,r7
        0x000056a4:    9a0c        ..      LDR      r2,[sp,#0x30]
        0x000056a6:    f7fff9a7    ....    BL       __aeabi_dadd ; 0x49f8
        0x000056aa:    9a17        ..      LDR      r2,[sp,#0x5c]
        0x000056ac:    2a00        .*      CMP      r2,#0
        0x000056ae:    da05        ..      BGE      0x56bc ; __ieee754_rem_pio2 + 828
        0x000056b0:    9a13        ..      LDR      r2,[sp,#0x4c]
        0x000056b2:    4252        RB      RSBS     r2,r2,#0
        0x000056b4:    9213        ..      STR      r2,[sp,#0x4c]
        0x000056b6:    2201        ."      MOVS     r2,#1
        0x000056b8:    07d2        ..      LSLS     r2,r2,#31
        0x000056ba:    4051        Q@      EORS     r1,r1,r2
        0x000056bc:    6061        a`      STR      r1,[r4,#4]
        0x000056be:    6020         `      STR      r0,[r4,#0]
        0x000056c0:    9813        ..      LDR      r0,[sp,#0x4c]
        0x000056c2:    b019        ..      ADD      sp,sp,#0x64
        0x000056c4:    bdf0        ..      POP      {r4-r7,pc}
    $d
        0x000056c6:    0000        ..      DCW    0
        0x000056c8:    3fe921fb    .!.?    DCD    1072243195
        0x000056cc:    4002d97c    |..@    DCD    1073928572
        0x000056d0:    3ff921fb    .!.?    DCD    1073291771
        0x000056d4:    54400000    ..@T    DCD    1413480448
        0x000056d8:    1a626331    1cb.    DCD    442655537
        0x000056dc:    3dd0b461    a..=    DCD    1037087841
        0x000056e0:    2e037073    sp..    DCD    771977331
        0x000056e4:    3ba3198a    ...;    DCD    1000544650
        0x000056e8:    413921fb    .!9A    DCD    1094263291
        0x000056ec:    6dc9c883    ...m    DCD    1841940611
        0x000056f0:    3fe45f30    0_.?    DCD    1071931184
        0x000056f4:    3fe00000    ...?    DCD    1071644672
        0x000056f8:    00001772    r...    DCD    6002
        0x000056fc:    00001732    2...    DCD    5938
        0x00005700:    fffffc0b    ....    DCD    4294966283
        0x00005704:    000016e6    ....    DCD    5862
        0x00005708:    000016cc    ....    DCD    5836
        0x0000570c:    54442d18    .-DT    DCD    1413754136
        0x00005710:    3df921fb    .!.=    DCD    1039737339
        0x00005714:    11a62633    3&..    DCD    296101427
        0x00005718:    3c110b46    F..<    DCD    1007749958
    $t
    i.__kernel_cos
    __kernel_cos
        0x0000571c:    b5f0        ..      PUSH     {r4-r7,lr}
        0x0000571e:    b41f        ..      PUSH     {r0-r4}
        0x00005720:    004e        N.      LSLS     r6,r1,#1
        0x00005722:    20f9        .       MOVS     r0,#0xf9
        0x00005724:    0876        v.      LSRS     r6,r6,#1
        0x00005726:    0580        ..      LSLS     r0,r0,#22
        0x00005728:    b084        ..      SUB      sp,sp,#0x10
        0x0000572a:    460f        .F      MOV      r7,r1
        0x0000572c:    4286        .B      CMP      r6,r0
        0x0000572e:    da04        ..      BGE      0x573a ; __kernel_cos + 30
        0x00005730:    9804        ..      LDR      r0,[sp,#0x10]
        0x00005732:    f7fffd75    ..u.    BL       __aeabi_d2iz ; 0x5220
        0x00005736:    2800        .(      CMP      r0,#0
        0x00005738:    d038        8.      BEQ      0x57ac ; __kernel_cos + 144
        0x0000573a:    9a04        ..      LDR      r2,[sp,#0x10]
        0x0000573c:    463b        ;F      MOV      r3,r7
        0x0000573e:    4610        .F      MOV      r0,r2
        0x00005740:    4619        .F      MOV      r1,r3
        0x00005742:    f7fffa0b    ....    BL       __aeabi_dmul ; 0x4b5c
        0x00005746:    4604        .F      MOV      r4,r0
        0x00005748:    4602        .F      MOV      r2,r0
        0x0000574a:    482c        ,H      LDR      r0,[pc,#176] ; [0x57fc] = 0x148a
        0x0000574c:    460d        .F      MOV      r5,r1
        0x0000574e:    460b        .F      MOV      r3,r1
        0x00005750:    2106        .!      MOVS     r1,#6
        0x00005752:    4478        xD      ADD      r0,r0,pc
        0x00005754:    f000f85c    ..\.    BL       __kernel_poly ; 0x5810
        0x00005758:    4622        "F      MOV      r2,r4
        0x0000575a:    462b        +F      MOV      r3,r5
        0x0000575c:    f7fff9fe    ....    BL       __aeabi_dmul ; 0x4b5c
        0x00005760:    9101        ..      STR      r1,[sp,#4]
        0x00005762:    9000        ..      STR      r0,[sp,#0]
        0x00005764:    4639        9F      MOV      r1,r7
        0x00005766:    9b07        ..      LDR      r3,[sp,#0x1c]
        0x00005768:    9a06        ..      LDR      r2,[sp,#0x18]
        0x0000576a:    9804        ..      LDR      r0,[sp,#0x10]
        0x0000576c:    f7fff9f6    ....    BL       __aeabi_dmul ; 0x4b5c
        0x00005770:    4607        .F      MOV      r7,r0
        0x00005772:    9102        ..      STR      r1,[sp,#8]
        0x00005774:    4620         F      MOV      r0,r4
        0x00005776:    4629        )F      MOV      r1,r5
        0x00005778:    9b01        ..      LDR      r3,[sp,#4]
        0x0000577a:    9a00        ..      LDR      r2,[sp,#0]
        0x0000577c:    f7fff9ee    ....    BL       __aeabi_dmul ; 0x4b5c
        0x00005780:    463a        :F      MOV      r2,r7
        0x00005782:    9b02        ..      LDR      r3,[sp,#8]
        0x00005784:    f7fff9dc    ....    BL       __aeabi_dsub ; 0x4b40
        0x00005788:    4607        .F      MOV      r7,r0
        0x0000578a:    2200        ."      MOVS     r2,#0
        0x0000578c:    9100        ..      STR      r1,[sp,#0]
        0x0000578e:    43d2        .C      MVNS     r2,r2
        0x00005790:    4620         F      MOV      r0,r4
        0x00005792:    4629        )F      MOV      r1,r5
        0x00005794:    f7fffd0b    ....    BL       __ARM_scalbn ; 0x51ae
        0x00005798:    4a19        .J      LDR      r2,[pc,#100] ; [0x5800] = 0x3fd33333
        0x0000579a:    4296        .B      CMP      r6,r2
        0x0000579c:    da0a        ..      BGE      0x57b4 ; __kernel_cos + 152
        0x0000579e:    463a        :F      MOV      r2,r7
        0x000057a0:    9b00        ..      LDR      r3,[sp,#0]
        0x000057a2:    f7fff9cd    ....    BL       __aeabi_dsub ; 0x4b40
        0x000057a6:    2200        ."      MOVS     r2,#0
        0x000057a8:    4b16        .K      LDR      r3,[pc,#88] ; [0x5804] = 0x3ff00000
        0x000057aa:    e023        #.      B        0x57f4 ; __kernel_cos + 216
        0x000057ac:    2000        .       MOVS     r0,#0
        0x000057ae:    4915        .I      LDR      r1,[pc,#84] ; [0x5804] = 0x3ff00000
        0x000057b0:    b009        ..      ADD      sp,sp,#0x24
        0x000057b2:    bdf0        ..      POP      {r4-r7,pc}
        0x000057b4:    4a14        .J      LDR      r2,[pc,#80] ; [0x5808] = 0x3fe90000
        0x000057b6:    4296        .B      CMP      r6,r2
        0x000057b8:    dd02        ..      BLE      0x57c0 ; __kernel_cos + 164
        0x000057ba:    2400        .$      MOVS     r4,#0
        0x000057bc:    4d13        .M      LDR      r5,[pc,#76] ; [0x580c] = 0x3fd20000
        0x000057be:    e003        ..      B        0x57c8 ; __kernel_cos + 172
        0x000057c0:    2201        ."      MOVS     r2,#1
        0x000057c2:    0552        R.      LSLS     r2,r2,#21
        0x000057c4:    1ab5        ..      SUBS     r5,r6,r2
        0x000057c6:    2400        .$      MOVS     r4,#0
        0x000057c8:    4622        "F      MOV      r2,r4
        0x000057ca:    462b        +F      MOV      r3,r5
        0x000057cc:    f7fff9b8    ....    BL       __aeabi_dsub ; 0x4b40
        0x000057d0:    4606        .F      MOV      r6,r0
        0x000057d2:    9101        ..      STR      r1,[sp,#4]
        0x000057d4:    4622        "F      MOV      r2,r4
        0x000057d6:    462b        +F      MOV      r3,r5
        0x000057d8:    2000        .       MOVS     r0,#0
        0x000057da:    490a        .I      LDR      r1,[pc,#40] ; [0x5804] = 0x3ff00000
        0x000057dc:    f7fff9b0    ....    BL       __aeabi_dsub ; 0x4b40
        0x000057e0:    460d        .F      MOV      r5,r1
        0x000057e2:    4604        .F      MOV      r4,r0
        0x000057e4:    463a        :F      MOV      r2,r7
        0x000057e6:    4630        0F      MOV      r0,r6
        0x000057e8:    9b00        ..      LDR      r3,[sp,#0]
        0x000057ea:    9901        ..      LDR      r1,[sp,#4]
        0x000057ec:    f7fff9a8    ....    BL       __aeabi_dsub ; 0x4b40
        0x000057f0:    4622        "F      MOV      r2,r4
        0x000057f2:    462b        +F      MOV      r3,r5
        0x000057f4:    f7fff9aa    ....    BL       __aeabi_drsub ; 0x4b4c
        0x000057f8:    b009        ..      ADD      sp,sp,#0x24
        0x000057fa:    bdf0        ..      POP      {r4-r7,pc}
    $d
        0x000057fc:    0000148a    ....    DCD    5258
        0x00005800:    3fd33333    33.?    DCD    1070805811
        0x00005804:    3ff00000    ...?    DCD    1072693248
        0x00005808:    3fe90000    ...?    DCD    1072234496
        0x0000580c:    3fd20000    ...?    DCD    1070727168
    $t
    i.__kernel_poly
    __kernel_poly
        0x00005810:    b5f8        ..      PUSH     {r3-r7,lr}
        0x00005812:    4604        .F      MOV      r4,r0
        0x00005814:    1e4f        O.      SUBS     r7,r1,#1
        0x00005816:    00c8        ..      LSLS     r0,r1,#3
        0x00005818:    3808        .8      SUBS     r0,r0,#8
        0x0000581a:    1821        !.      ADDS     r1,r4,r0
        0x0000581c:    4615        .F      MOV      r5,r2
        0x0000581e:    461e        .F      MOV      r6,r3
        0x00005820:    6808        .h      LDR      r0,[r1,#0]
        0x00005822:    6849        Ih      LDR      r1,[r1,#4]
        0x00005824:    463a        :F      MOV      r2,r7
        0x00005826:    2306        .#      MOVS     r3,#6
        0x00005828:    439a        .C      BICS     r2,r2,r3
        0x0000582a:    d010        ..      BEQ      0x584e ; __kernel_poly + 62
        0x0000582c:    462a        *F      MOV      r2,r5
        0x0000582e:    4633        3F      MOV      r3,r6
        0x00005830:    f7fff994    ....    BL       __aeabi_dmul ; 0x4b5c
        0x00005834:    463a        :F      MOV      r2,r7
        0x00005836:    00d2        ..      LSLS     r2,r2,#3
        0x00005838:    3a08        .:      SUBS     r2,r2,#8
        0x0000583a:    18a3        ..      ADDS     r3,r4,r2
        0x0000583c:    681a        .h      LDR      r2,[r3,#0]
        0x0000583e:    1e7f        ..      SUBS     r7,r7,#1
        0x00005840:    685b        [h      LDR      r3,[r3,#4]
        0x00005842:    f7fff8d9    ....    BL       __aeabi_dadd ; 0x49f8
        0x00005846:    2206        ."      MOVS     r2,#6
        0x00005848:    463b        ;F      MOV      r3,r7
        0x0000584a:    4393        .C      BICS     r3,r3,r2
        0x0000584c:    d1ee        ..      BNE      0x582c ; __kernel_poly + 28
        0x0000584e:    2f02        ./      CMP      r7,#2
        0x00005850:    d023        #.      BEQ      0x589a ; __kernel_poly + 138
        0x00005852:    2f04        ./      CMP      r7,#4
        0x00005854:    d011        ..      BEQ      0x587a ; __kernel_poly + 106
        0x00005856:    2f06        ./      CMP      r7,#6
        0x00005858:    d12f        /.      BNE      0x58ba ; __kernel_poly + 170
        0x0000585a:    462a        *F      MOV      r2,r5
        0x0000585c:    4633        3F      MOV      r3,r6
        0x0000585e:    f7fff97d    ..}.    BL       __aeabi_dmul ; 0x4b5c
        0x00005862:    6ae3        .j      LDR      r3,[r4,#0x2c]
        0x00005864:    6aa2        .j      LDR      r2,[r4,#0x28]
        0x00005866:    f7fff8c7    ....    BL       __aeabi_dadd ; 0x49f8
        0x0000586a:    462a        *F      MOV      r2,r5
        0x0000586c:    4633        3F      MOV      r3,r6
        0x0000586e:    f7fff975    ..u.    BL       __aeabi_dmul ; 0x4b5c
        0x00005872:    6a63        cj      LDR      r3,[r4,#0x24]
        0x00005874:    6a22        "j      LDR      r2,[r4,#0x20]
        0x00005876:    f7fff8bf    ....    BL       __aeabi_dadd ; 0x49f8
        0x0000587a:    462a        *F      MOV      r2,r5
        0x0000587c:    4633        3F      MOV      r3,r6
        0x0000587e:    f7fff96d    ..m.    BL       __aeabi_dmul ; 0x4b5c
        0x00005882:    69e3        .i      LDR      r3,[r4,#0x1c]
        0x00005884:    69a2        .i      LDR      r2,[r4,#0x18]
        0x00005886:    f7fff8b7    ....    BL       __aeabi_dadd ; 0x49f8
        0x0000588a:    462a        *F      MOV      r2,r5
        0x0000588c:    4633        3F      MOV      r3,r6
        0x0000588e:    f7fff965    ..e.    BL       __aeabi_dmul ; 0x4b5c
        0x00005892:    6963        ci      LDR      r3,[r4,#0x14]
        0x00005894:    6922        "i      LDR      r2,[r4,#0x10]
        0x00005896:    f7fff8af    ....    BL       __aeabi_dadd ; 0x49f8
        0x0000589a:    462a        *F      MOV      r2,r5
        0x0000589c:    4633        3F      MOV      r3,r6
        0x0000589e:    f7fff95d    ..].    BL       __aeabi_dmul ; 0x4b5c
        0x000058a2:    68e3        .h      LDR      r3,[r4,#0xc]
        0x000058a4:    68a2        .h      LDR      r2,[r4,#8]
        0x000058a6:    f7fff8a7    ....    BL       __aeabi_dadd ; 0x49f8
        0x000058aa:    462a        *F      MOV      r2,r5
        0x000058ac:    4633        3F      MOV      r3,r6
        0x000058ae:    f7fff955    ..U.    BL       __aeabi_dmul ; 0x4b5c
        0x000058b2:    6863        ch      LDR      r3,[r4,#4]
        0x000058b4:    6822        "h      LDR      r2,[r4,#0]
        0x000058b6:    f7fff89f    ....    BL       __aeabi_dadd ; 0x49f8
        0x000058ba:    bdf8        ..      POP      {r3-r7,pc}
    i.__kernel_sin
    __kernel_sin
        0x000058bc:    b5f0        ..      PUSH     {r4-r7,lr}
        0x000058be:    b41f        ..      PUSH     {r0-r4}
        0x000058c0:    4605        .F      MOV      r5,r0
        0x000058c2:    0048        H.      LSLS     r0,r1,#1
        0x000058c4:    460c        .F      MOV      r4,r1
        0x000058c6:    21f9        .!      MOVS     r1,#0xf9
        0x000058c8:    0840        @.      LSRS     r0,r0,#1
        0x000058ca:    0589        ..      LSLS     r1,r1,#22
        0x000058cc:    b086        ..      SUB      sp,sp,#0x18
        0x000058ce:    4288        .B      CMP      r0,r1
        0x000058d0:    da0b        ..      BGE      0x58ea ; __kernel_sin + 46
        0x000058d2:    4628        (F      MOV      r0,r5
        0x000058d4:    4621        !F      MOV      r1,r4
        0x000058d6:    f7fffd25    ..%.    BL       __ARM_fpclassify ; 0x5324
        0x000058da:    2804        .(      CMP      r0,#4
        0x000058dc:    d101        ..      BNE      0x58e2 ; __kernel_sin + 38
        0x000058de:    f000f871    ..q.    BL       __mathlib_dbl_underflow ; 0x59c4
        0x000058e2:    4628        (F      MOV      r0,r5
        0x000058e4:    4621        !F      MOV      r1,r4
        0x000058e6:    b00b        ..      ADD      sp,sp,#0x2c
        0x000058e8:    bdf0        ..      POP      {r4-r7,pc}
        0x000058ea:    462a        *F      MOV      r2,r5
        0x000058ec:    4623        #F      MOV      r3,r4
        0x000058ee:    4610        .F      MOV      r0,r2
        0x000058f0:    4619        .F      MOV      r1,r3
        0x000058f2:    f7fff933    ..3.    BL       __aeabi_dmul ; 0x4b5c
        0x000058f6:    4606        .F      MOV      r6,r0
        0x000058f8:    460f        .F      MOV      r7,r1
        0x000058fa:    462a        *F      MOV      r2,r5
        0x000058fc:    4623        #F      MOV      r3,r4
        0x000058fe:    f7fff92d    ..-.    BL       __aeabi_dmul ; 0x4b5c
        0x00005902:    9000        ..      STR      r0,[sp,#0]
        0x00005904:    4825        %H      LDR      r0,[pc,#148] ; [0x599c] = 0x13e6
        0x00005906:    9101        ..      STR      r1,[sp,#4]
        0x00005908:    4632        2F      MOV      r2,r6
        0x0000590a:    463b        ;F      MOV      r3,r7
        0x0000590c:    2105        .!      MOVS     r1,#5
        0x0000590e:    4478        xD      ADD      r0,r0,pc
        0x00005910:    f7ffff7e    ..~.    BL       __kernel_poly ; 0x5810
        0x00005914:    9002        ..      STR      r0,[sp,#8]
        0x00005916:    9810        ..      LDR      r0,[sp,#0x40]
        0x00005918:    9103        ..      STR      r1,[sp,#0xc]
        0x0000591a:    2800        .(      CMP      r0,#0
        0x0000591c:    d029        ).      BEQ      0x5972 ; __kernel_sin + 182
        0x0000591e:    4a20         J      LDR      r2,[pc,#128] ; [0x59a0] = 0x55555549
        0x00005920:    4b20         K      LDR      r3,[pc,#128] ; [0x59a4] = 0xbfc55555
        0x00005922:    9901        ..      LDR      r1,[sp,#4]
        0x00005924:    9800        ..      LDR      r0,[sp,#0]
        0x00005926:    f7fff919    ....    BL       __aeabi_dmul ; 0x4b5c
        0x0000592a:    9004        ..      STR      r0,[sp,#0x10]
        0x0000592c:    9105        ..      STR      r1,[sp,#0x14]
        0x0000592e:    4668        hF      MOV      r0,sp
        0x00005930:    c80f        ..      LDM      r0,{r0-r3}
        0x00005932:    f7fff913    ....    BL       __aeabi_dmul ; 0x4b5c
        0x00005936:    2200        ."      MOVS     r2,#0
        0x00005938:    9101        ..      STR      r1,[sp,#4]
        0x0000593a:    9000        ..      STR      r0,[sp,#0]
        0x0000593c:    43d2        .C      MVNS     r2,r2
        0x0000593e:    9909        ..      LDR      r1,[sp,#0x24]
        0x00005940:    9808        ..      LDR      r0,[sp,#0x20]
        0x00005942:    f7fffc34    ..4.    BL       __ARM_scalbn ; 0x51ae
        0x00005946:    9b01        ..      LDR      r3,[sp,#4]
        0x00005948:    9a00        ..      LDR      r2,[sp,#0]
        0x0000594a:    f7fff8f9    ....    BL       __aeabi_dsub ; 0x4b40
        0x0000594e:    4632        2F      MOV      r2,r6
        0x00005950:    463b        ;F      MOV      r3,r7
        0x00005952:    f7fff903    ....    BL       __aeabi_dmul ; 0x4b5c
        0x00005956:    9b09        ..      LDR      r3,[sp,#0x24]
        0x00005958:    9a08        ..      LDR      r2,[sp,#0x20]
        0x0000595a:    f7fff8f1    ....    BL       __aeabi_dsub ; 0x4b40
        0x0000595e:    9b05        ..      LDR      r3,[sp,#0x14]
        0x00005960:    9a04        ..      LDR      r2,[sp,#0x10]
        0x00005962:    f7fff8ed    ....    BL       __aeabi_dsub ; 0x4b40
        0x00005966:    462a        *F      MOV      r2,r5
        0x00005968:    4623        #F      MOV      r3,r4
        0x0000596a:    f7fff8ef    ....    BL       __aeabi_drsub ; 0x4b4c
        0x0000596e:    b00b        ..      ADD      sp,sp,#0x2c
        0x00005970:    bdf0        ..      POP      {r4-r7,pc}
        0x00005972:    460b        .F      MOV      r3,r1
        0x00005974:    4630        0F      MOV      r0,r6
        0x00005976:    4639        9F      MOV      r1,r7
        0x00005978:    9a02        ..      LDR      r2,[sp,#8]
        0x0000597a:    f7fff8ef    ....    BL       __aeabi_dmul ; 0x4b5c
        0x0000597e:    4a08        .J      LDR      r2,[pc,#32] ; [0x59a0] = 0x55555549
        0x00005980:    4b08        .K      LDR      r3,[pc,#32] ; [0x59a4] = 0xbfc55555
        0x00005982:    f7fff839    ..9.    BL       __aeabi_dadd ; 0x49f8
        0x00005986:    9b01        ..      LDR      r3,[sp,#4]
        0x00005988:    9a00        ..      LDR      r2,[sp,#0]
        0x0000598a:    f7fff8e7    ....    BL       __aeabi_dmul ; 0x4b5c
        0x0000598e:    462a        *F      MOV      r2,r5
        0x00005990:    4623        #F      MOV      r3,r4
        0x00005992:    f7fff831    ..1.    BL       __aeabi_dadd ; 0x49f8
        0x00005996:    b00b        ..      ADD      sp,sp,#0x2c
        0x00005998:    bdf0        ..      POP      {r4-r7,pc}
    $d
        0x0000599a:    0000        ..      DCW    0
        0x0000599c:    000013e6    ....    DCD    5094
        0x000059a0:    55555549    IUUU    DCD    1431655753
        0x000059a4:    bfc55555    UU..    DCD    3217380693
    $t
    i.__mathlib_dbl_infnan
    __mathlib_dbl_infnan
        0x000059a8:    b510        ..      PUSH     {r4,lr}
        0x000059aa:    2201        ."      MOVS     r2,#1
        0x000059ac:    f7fffbff    ....    BL       __ARM_scalbn ; 0x51ae
        0x000059b0:    bd10        ..      POP      {r4,pc}
    i.__mathlib_dbl_invalid
    __mathlib_dbl_invalid
        0x000059b2:    2200        ."      MOVS     r2,#0
        0x000059b4:    b510        ..      PUSH     {r4,lr}
        0x000059b6:    4613        .F      MOV      r3,r2
        0x000059b8:    4610        .F      MOV      r0,r2
        0x000059ba:    4611        .F      MOV      r1,r2
        0x000059bc:    f7fff936    ..6.    BL       __aeabi_ddiv ; 0x4c2c
        0x000059c0:    bd10        ..      POP      {r4,pc}
        0x000059c2:    0000        ..      MOVS     r0,r0
    i.__mathlib_dbl_underflow
    __mathlib_dbl_underflow
        0x000059c4:    4a03        .J      LDR      r2,[pc,#12] ; [0x59d4] = 0xfffffd01
        0x000059c6:    b510        ..      PUSH     {r4,lr}
        0x000059c8:    2000        .       MOVS     r0,#0
        0x000059ca:    0711        ..      LSLS     r1,r2,#28
        0x000059cc:    f7fffbef    ....    BL       __ARM_scalbn ; 0x51ae
        0x000059d0:    bd10        ..      POP      {r4,pc}
    $d
        0x000059d2:    0000        ..      DCW    0
        0x000059d4:    fffffd01    ....    DCD    4294966529
    $t
    i.__mathlib_flt_infnan
    __mathlib_flt_infnan
        0x000059d8:    b510        ..      PUSH     {r4,lr}
        0x000059da:    2101        .!      MOVS     r1,#1
        0x000059dc:    f7fff800    ....    BL       __ARM_scalbnf ; 0x49e0
        0x000059e0:    bd10        ..      POP      {r4,pc}
    i.__mathlib_flt_infnan2
    __mathlib_flt_infnan2
        0x000059e2:    b510        ..      PUSH     {r4,lr}
        0x000059e4:    f7feff28    ..(.    BL       __aeabi_fadd ; 0x4838
        0x000059e8:    bd10        ..      POP      {r4,pc}
    i.__mathlib_flt_invalid
    __mathlib_flt_invalid
        0x000059ea:    b510        ..      PUSH     {r4,lr}
        0x000059ec:    2100        .!      MOVS     r1,#0
        0x000059ee:    4608        .F      MOV      r0,r1
        0x000059f0:    f7feffb8    ....    BL       __aeabi_fdiv ; 0x4964
        0x000059f4:    bd10        ..      POP      {r4,pc}
    i.__mathlib_flt_underflow
    __mathlib_flt_underflow
        0x000059f6:    215e        ^!      MOVS     r1,#0x5e
        0x000059f8:    b510        ..      PUSH     {r4,lr}
        0x000059fa:    43c9        .C      MVNS     r1,r1
        0x000059fc:    0708        ..      LSLS     r0,r1,#28
        0x000059fe:    f7feffef    ....    BL       __ARM_scalbnf ; 0x49e0
        0x00005a02:    bd10        ..      POP      {r4,pc}
    i.__mathlib_rredf2
    __mathlib_rredf2
        0x00005a04:    b5f0        ..      PUSH     {r4-r7,lr}
        0x00005a06:    460e        .F      MOV      r6,r1
        0x00005a08:    4614        .F      MOV      r4,r2
        0x00005a0a:    0051        Q.      LSLS     r1,r2,#1
        0x00005a0c:    22ff        ."      MOVS     r2,#0xff
        0x00005a0e:    0612        ..      LSLS     r2,r2,#24
        0x00005a10:    b087        ..      SUB      sp,sp,#0x1c
        0x00005a12:    4291        .B      CMP      r1,r2
        0x00005a14:    d303        ..      BCC      0x5a1e ; __mathlib_rredf2 + 26
        0x00005a16:    1611        ..      ASRS     r1,r2,#24
        0x00005a18:    6031        1`      STR      r1,[r6,#0]
        0x00005a1a:    b007        ..      ADD      sp,sp,#0x1c
        0x00005a1c:    bdf0        ..      POP      {r4-r7,pc}
        0x00005a1e:    2001        .       MOVS     r0,#1
        0x00005a20:    0225        %.      LSLS     r5,r4,#8
        0x00005a22:    07c0        ..      LSLS     r0,r0,#31
        0x00005a24:    4305        .C      ORRS     r5,r5,r0
        0x00005a26:    0de0        ..      LSRS     r0,r4,#23
        0x00005a28:    3878        x8      SUBS     r0,r0,#0x78
        0x00005a2a:    06c2        ..      LSLS     r2,r0,#27
        0x00005a2c:    0ed2        ..      LSRS     r2,r2,#27
        0x00005a2e:    2020                MOVS     r0,#0x20
        0x00005a30:    1a87        ..      SUBS     r7,r0,r2
        0x00005a32:    0060        `.      LSLS     r0,r4,#1
        0x00005a34:    0e00        ..      LSRS     r0,r0,#24
        0x00005a36:    3878        x8      SUBS     r0,r0,#0x78
        0x00005a38:    1140        @.      ASRS     r0,r0,#5
        0x00005a3a:    0081        ..      LSLS     r1,r0,#2
        0x00005a3c:    484d        MH      LDR      r0,[pc,#308] ; [0x5b74] = 0x1296
        0x00005a3e:    4478        xD      ADD      r0,r0,pc
        0x00005a40:    180b        ..      ADDS     r3,r1,r0
        0x00005a42:    469c        .F      MOV      r12,r3
        0x00005a44:    5843        CX      LDR      r3,[r0,r1]
        0x00005a46:    2a00        .*      CMP      r2,#0
        0x00005a48:    d014        ..      BEQ      0x5a74 ; __mathlib_rredf2 + 112
        0x00005a4a:    4660        `F      MOV      r0,r12
        0x00005a4c:    6840        @h      LDR      r0,[r0,#4]
        0x00005a4e:    4093        .@      LSLS     r3,r3,r2
        0x00005a50:    4601        .F      MOV      r1,r0
        0x00005a52:    40f8        .@      LSRS     r0,r0,r7
        0x00005a54:    4303        .C      ORRS     r3,r3,r0
        0x00005a56:    4660        `F      MOV      r0,r12
        0x00005a58:    6880        .h      LDR      r0,[r0,#8]
        0x00005a5a:    4091        .@      LSLS     r1,r1,r2
        0x00005a5c:    4686        .F      MOV      lr,r0
        0x00005a5e:    40f8        .@      LSRS     r0,r0,r7
        0x00005a60:    4301        .C      ORRS     r1,r1,r0
        0x00005a62:    9103        ..      STR      r1,[sp,#0xc]
        0x00005a64:    4660        `F      MOV      r0,r12
        0x00005a66:    4671        qF      MOV      r1,lr
        0x00005a68:    68c0        .h      LDR      r0,[r0,#0xc]
        0x00005a6a:    4091        .@      LSLS     r1,r1,r2
        0x00005a6c:    40f8        .@      LSRS     r0,r0,r7
        0x00005a6e:    4301        .C      ORRS     r1,r1,r0
        0x00005a70:    460f        .F      MOV      r7,r1
        0x00005a72:    e003        ..      B        0x5a7c ; __mathlib_rredf2 + 120
        0x00005a74:    4660        `F      MOV      r0,r12
        0x00005a76:    6841        Ah      LDR      r1,[r0,#4]
        0x00005a78:    9103        ..      STR      r1,[sp,#0xc]
        0x00005a7a:    6887        .h      LDR      r7,[r0,#8]
        0x00005a7c:    4618        .F      MOV      r0,r3
        0x00005a7e:    4629        )F      MOV      r1,r5
        0x00005a80:    f7fffc29    ..).    BL       __ARM_common_ll_muluu ; 0x52d6
        0x00005a84:    9102        ..      STR      r1,[sp,#8]
        0x00005a86:    9004        ..      STR      r0,[sp,#0x10]
        0x00005a88:    4629        )F      MOV      r1,r5
        0x00005a8a:    9803        ..      LDR      r0,[sp,#0xc]
        0x00005a8c:    f7fffc23    ..#.    BL       __ARM_common_ll_muluu ; 0x52d6
        0x00005a90:    9103        ..      STR      r1,[sp,#0xc]
        0x00005a92:    9006        ..      STR      r0,[sp,#0x18]
        0x00005a94:    4638        8F      MOV      r0,r7
        0x00005a96:    4629        )F      MOV      r1,r5
        0x00005a98:    f7fffc1d    ....    BL       __ARM_common_ll_muluu ; 0x52d6
        0x00005a9c:    460f        .F      MOV      r7,r1
        0x00005a9e:    9806        ..      LDR      r0,[sp,#0x18]
        0x00005aa0:    9b02        ..      LDR      r3,[sp,#8]
        0x00005aa2:    183d        =.      ADDS     r5,r7,r0
        0x00005aa4:    9a04        ..      LDR      r2,[sp,#0x10]
        0x00005aa6:    9903        ..      LDR      r1,[sp,#0xc]
        0x00005aa8:    42bd        .B      CMP      r5,r7
        0x00005aaa:    d201        ..      BCS      0x5ab0 ; __mathlib_rredf2 + 172
        0x00005aac:    2701        .'      MOVS     r7,#1
        0x00005aae:    e000        ..      B        0x5ab2 ; __mathlib_rredf2 + 174
        0x00005ab0:    2700        .'      MOVS     r7,#0
        0x00005ab2:    1888        ..      ADDS     r0,r1,r2
        0x00005ab4:    19c0        ..      ADDS     r0,r0,r7
        0x00005ab6:    2f00        ./      CMP      r7,#0
        0x00005ab8:    d002        ..      BEQ      0x5ac0 ; __mathlib_rredf2 + 188
        0x00005aba:    4288        .B      CMP      r0,r1
        0x00005abc:    d902        ..      BLS      0x5ac4 ; __mathlib_rredf2 + 192
        0x00005abe:    e003        ..      B        0x5ac8 ; __mathlib_rredf2 + 196
        0x00005ac0:    4288        .B      CMP      r0,r1
        0x00005ac2:    d201        ..      BCS      0x5ac8 ; __mathlib_rredf2 + 196
        0x00005ac4:    2101        .!      MOVS     r1,#1
        0x00005ac6:    e000        ..      B        0x5aca ; __mathlib_rredf2 + 198
        0x00005ac8:    2100        .!      MOVS     r1,#0
        0x00005aca:    1859        Y.      ADDS     r1,r3,r1
        0x00005acc:    460a        .F      MOV      r2,r1
        0x00005ace:    3220         2      ADDS     r2,r2,#0x20
        0x00005ad0:    0997        ..      LSRS     r7,r2,#6
        0x00005ad2:    0cc2        ..      LSRS     r2,r0,#19
        0x00005ad4:    0689        ..      LSLS     r1,r1,#26
        0x00005ad6:    0352        R.      LSLS     r2,r2,#13
        0x00005ad8:    0340        @.      LSLS     r0,r0,#13
        0x00005ada:    6037        7`      STR      r7,[r6,#0]
        0x00005adc:    4311        .C      ORRS     r1,r1,r2
        0x00005ade:    9001        ..      STR      r0,[sp,#4]
        0x00005ae0:    4608        .F      MOV      r0,r1
        0x00005ae2:    f7fff91b    ....    BL       __aeabi_i2f ; 0x4d1c
        0x00005ae6:    9002        ..      STR      r0,[sp,#8]
        0x00005ae8:    9801        ..      LDR      r0,[sp,#4]
        0x00005aea:    f7fff922    ..".    BL       __aeabi_ui2f ; 0x4d32
        0x00005aee:    2112        .!      MOVS     r1,#0x12
        0x00005af0:    43c9        .C      MVNS     r1,r1
        0x00005af2:    f7feff75    ..u.    BL       __ARM_scalbnf ; 0x49e0
        0x00005af6:    9001        ..      STR      r0,[sp,#4]
        0x00005af8:    4628        (F      MOV      r0,r5
        0x00005afa:    f7fff91a    ....    BL       __aeabi_ui2f ; 0x4d32
        0x00005afe:    2125        %!      MOVS     r1,#0x25
        0x00005b00:    43c9        .C      MVNS     r1,r1
        0x00005b02:    f7feff6d    ..m.    BL       __ARM_scalbnf ; 0x49e0
        0x00005b06:    9000        ..      STR      r0,[sp,#0]
        0x00005b08:    9901        ..      LDR      r1,[sp,#4]
        0x00005b0a:    9802        ..      LDR      r0,[sp,#8]
        0x00005b0c:    f7fefe94    ....    BL       __aeabi_fadd ; 0x4838
        0x00005b10:    9900        ..      LDR      r1,[sp,#0]
        0x00005b12:    f7fefe91    ....    BL       __aeabi_fadd ; 0x4838
        0x00005b16:    2101        .!      MOVS     r1,#1
        0x00005b18:    02c9        ..      LSLS     r1,r1,#11
        0x00005b1a:    1840        @.      ADDS     r0,r0,r1
        0x00005b1c:    0b05        ..      LSRS     r5,r0,#12
        0x00005b1e:    032d        -.      LSLS     r5,r5,#12
        0x00005b20:    4628        (F      MOV      r0,r5
        0x00005b22:    9902        ..      LDR      r1,[sp,#8]
        0x00005b24:    f7fefed9    ....    BL       __aeabi_fsub ; 0x48da
        0x00005b28:    9901        ..      LDR      r1,[sp,#4]
        0x00005b2a:    f7fefed6    ....    BL       __aeabi_fsub ; 0x48da
        0x00005b2e:    9900        ..      LDR      r1,[sp,#0]
        0x00005b30:    f7fefed7    ....    BL       __aeabi_frsub ; 0x48e2
        0x00005b34:    4910        .I      LDR      r1,[pc,#64] ; [0x5b78] = 0x2fc90fdb
        0x00005b36:    f7fefed8    ....    BL       __aeabi_fmul ; 0x48ea
        0x00005b3a:    9000        ..      STR      r0,[sp,#0]
        0x00005b3c:    490f        .I      LDR      r1,[pc,#60] ; [0x5b7c] = 0x29fdaa22
        0x00005b3e:    4628        (F      MOV      r0,r5
        0x00005b40:    f7fefed3    ....    BL       __aeabi_fmul ; 0x48ea
        0x00005b44:    9900        ..      LDR      r1,[sp,#0]
        0x00005b46:    f7fefe77    ..w.    BL       __aeabi_fadd ; 0x4838
        0x00005b4a:    9000        ..      STR      r0,[sp,#0]
        0x00005b4c:    490c        .I      LDR      r1,[pc,#48] ; [0x5b80] = 0x2fc90000
        0x00005b4e:    4628        (F      MOV      r0,r5
        0x00005b50:    f7fefecb    ....    BL       __aeabi_fmul ; 0x48ea
        0x00005b54:    9900        ..      LDR      r1,[sp,#0]
        0x00005b56:    f7fefe6f    ..o.    BL       __aeabi_fadd ; 0x4838
        0x00005b5a:    2c00        .,      CMP      r4,#0
        0x00005b5c:    db00        ..      BLT      0x5b60 ; __mathlib_rredf2 + 348
        0x00005b5e:    e75c        \.      B        0x5a1a ; __mathlib_rredf2 + 22
        0x00005b60:    2101        .!      MOVS     r1,#1
        0x00005b62:    0709        ..      LSLS     r1,r1,#28
        0x00005b64:    1bc9        ..      SUBS     r1,r1,r7
        0x00005b66:    6031        1`      STR      r1,[r6,#0]
        0x00005b68:    2101        .!      MOVS     r1,#1
        0x00005b6a:    07c9        ..      LSLS     r1,r1,#31
        0x00005b6c:    4048        H@      EORS     r0,r0,r1
        0x00005b6e:    b007        ..      ADD      sp,sp,#0x1c
        0x00005b70:    bdf0        ..      POP      {r4-r7,pc}
    $d
        0x00005b72:    0000        ..      DCW    0
        0x00005b74:    00001296    ....    DCD    4758
        0x00005b78:    2fc90fdb    .../    DCD    801705947
        0x00005b7c:    29fdaa22    "..)    DCD    704490018
        0x00005b80:    2fc90000    .../    DCD    801701888
    $t
    i.__scatterload_copy
    __scatterload_copy
        0x00005b84:    e002        ..      B        0x5b8c ; __scatterload_copy + 8
        0x00005b86:    c808        ..      LDM      r0!,{r3}
        0x00005b88:    1f12        ..      SUBS     r2,r2,#4
        0x00005b8a:    c108        ..      STM      r1!,{r3}
        0x00005b8c:    2a00        .*      CMP      r2,#0
        0x00005b8e:    d1fa        ..      BNE      0x5b86 ; __scatterload_copy + 2
        0x00005b90:    4770        pG      BX       lr
    i.__scatterload_null
    __scatterload_null
        0x00005b92:    4770        pG      BX       lr
    i.__scatterload_zeroinit
    __scatterload_zeroinit
        0x00005b94:    2000        .       MOVS     r0,#0
        0x00005b96:    e001        ..      B        0x5b9c ; __scatterload_zeroinit + 8
        0x00005b98:    c101        ..      STM      r1!,{r0}
        0x00005b9a:    1f12        ..      SUBS     r2,r2,#4
        0x00005b9c:    2a00        .*      CMP      r2,#0
        0x00005b9e:    d1fb        ..      BNE      0x5b98 ; __scatterload_zeroinit + 4
        0x00005ba0:    4770        pG      BX       lr
        0x00005ba2:    0000        ..      MOVS     r0,r0
    i.__set_errno
    __set_errno
        0x00005ba4:    4901        .I      LDR      r1,[pc,#4] ; [0x5bac] = 0x200000d4
        0x00005ba6:    6008        .`      STR      r0,[r1,#0]
        0x00005ba8:    4770        pG      BX       lr
    $d
        0x00005baa:    0000        ..      DCW    0
        0x00005bac:    200000d4    ...     DCD    536871124
    $t
    i._fp_digits
    _fp_digits
        0x00005bb0:    b5f0        ..      PUSH     {r4-r7,lr}
        0x00005bb2:    b41f        ..      PUSH     {r0-r4}
        0x00005bb4:    b084        ..      SUB      sp,sp,#0x10
        0x00005bb6:    9807        ..      LDR      r0,[sp,#0x1c]
        0x00005bb8:    9906        ..      LDR      r1,[sp,#0x18]
        0x00005bba:    0d02        ..      LSRS     r2,r0,#20
        0x00005bbc:    4301        .C      ORRS     r1,r1,r0
        0x00005bbe:    d014        ..      BEQ      0x5bea ; _fp_digits + 58
        0x00005bc0:    484a        JH      LDR      r0,[pc,#296] ; [0x5cec] = 0xfffffc01
        0x00005bc2:    494b        KI      LDR      r1,[pc,#300] ; [0x5cf0] = 0x4d10
        0x00005bc4:    1810        ..      ADDS     r0,r2,r0
        0x00005bc6:    4348        HC      MULS     r0,r1,r0
        0x00005bc8:    1405        ..      ASRS     r5,r0,#16
        0x00005bca:    980f        ..      LDR      r0,[sp,#0x3c]
        0x00005bcc:    2801        .(      CMP      r0,#1
        0x00005bce:    980e        ..      LDR      r0,[sp,#0x38]
        0x00005bd0:    d01c        ..      BEQ      0x5c0c ; _fp_digits + 92
        0x00005bd2:    1a28        (.      SUBS     r0,r5,r0
        0x00005bd4:    1c40        @.      ADDS     r0,r0,#1
        0x00005bd6:    2400        .$      MOVS     r4,#0
        0x00005bd8:    4e46        FN      LDR      r6,[pc,#280] ; [0x5cf4] = 0x40240000
        0x00005bda:    4947        GI      LDR      r1,[pc,#284] ; [0x5cf8] = 0x3ff00000
        0x00005bdc:    9400        ..      STR      r4,[sp,#0]
        0x00005bde:    9101        ..      STR      r1,[sp,#4]
        0x00005be0:    9002        ..      STR      r0,[sp,#8]
        0x00005be2:    2800        .(      CMP      r0,#0
        0x00005be4:    da14        ..      BGE      0x5c10 ; _fp_digits + 96
        0x00005be6:    4247        GB      RSBS     r7,r0,#0
        0x00005be8:    e027        '.      B        0x5c3a ; _fp_digits + 138
        0x00005bea:    980f        ..      LDR      r0,[sp,#0x3c]
        0x00005bec:    2401        .$      MOVS     r4,#1
        0x00005bee:    a343        C.      ADR      r3,{pc}+0x10e ; 0x5cfc
        0x00005bf0:    2801        .(      CMP      r0,#1
        0x00005bf2:    d008        ..      BEQ      0x5c06 ; _fp_digits + 86
        0x00005bf4:    2100        .!      MOVS     r1,#0
        0x00005bf6:    9804        ..      LDR      r0,[sp,#0x10]
        0x00005bf8:    9a0f        ..      LDR      r2,[sp,#0x3c]
        0x00005bfa:    6084        .`      STR      r4,[r0,#8]
        0x00005bfc:    6003        .`      STR      r3,[r0,#0]
        0x00005bfe:    60c2        .`      STR      r2,[r0,#0xc]
        0x00005c00:    6041        A`      STR      r1,[r0,#4]
        0x00005c02:    b009        ..      ADD      sp,sp,#0x24
        0x00005c04:    bdf0        ..      POP      {r4-r7,pc}
        0x00005c06:    980e        ..      LDR      r0,[sp,#0x38]
        0x00005c08:    43c1        .C      MVNS     r1,r0
        0x00005c0a:    e7f4        ..      B        0x5bf6 ; _fp_digits + 70
        0x00005c0c:    4240        @B      RSBS     r0,r0,#0
        0x00005c0e:    e7e2        ..      B        0x5bd6 ; _fp_digits + 38
        0x00005c10:    4607        .F      MOV      r7,r0
        0x00005c12:    e012        ..      B        0x5c3a ; _fp_digits + 138
        0x00005c14:    07f8        ..      LSLS     r0,r7,#31
        0x00005c16:    d007        ..      BEQ      0x5c28 ; _fp_digits + 120
        0x00005c18:    4622        "F      MOV      r2,r4
        0x00005c1a:    4633        3F      MOV      r3,r6
        0x00005c1c:    9901        ..      LDR      r1,[sp,#4]
        0x00005c1e:    9800        ..      LDR      r0,[sp,#0]
        0x00005c20:    f7feff9c    ....    BL       __aeabi_dmul ; 0x4b5c
        0x00005c24:    9101        ..      STR      r1,[sp,#4]
        0x00005c26:    9000        ..      STR      r0,[sp,#0]
        0x00005c28:    4622        "F      MOV      r2,r4
        0x00005c2a:    4633        3F      MOV      r3,r6
        0x00005c2c:    4610        .F      MOV      r0,r2
        0x00005c2e:    4619        .F      MOV      r1,r3
        0x00005c30:    f7feff94    ....    BL       __aeabi_dmul ; 0x4b5c
        0x00005c34:    4604        .F      MOV      r4,r0
        0x00005c36:    460e        .F      MOV      r6,r1
        0x00005c38:    107f        ..      ASRS     r7,r7,#1
        0x00005c3a:    2f00        ./      CMP      r7,#0
        0x00005c3c:    d1ea        ..      BNE      0x5c14 ; _fp_digits + 100
        0x00005c3e:    9802        ..      LDR      r0,[sp,#8]
        0x00005c40:    9b01        ..      LDR      r3,[sp,#4]
        0x00005c42:    2800        .(      CMP      r0,#0
        0x00005c44:    9a00        ..      LDR      r2,[sp,#0]
        0x00005c46:    9907        ..      LDR      r1,[sp,#0x1c]
        0x00005c48:    9806        ..      LDR      r0,[sp,#0x18]
        0x00005c4a:    da02        ..      BGE      0x5c52 ; _fp_digits + 162
        0x00005c4c:    f7feff86    ....    BL       __aeabi_dmul ; 0x4b5c
        0x00005c50:    e001        ..      B        0x5c56 ; _fp_digits + 166
        0x00005c52:    f7feffeb    ....    BL       __aeabi_ddiv ; 0x4c2c
        0x00005c56:    4604        .F      MOV      r4,r0
        0x00005c58:    460e        .F      MOV      r6,r1
        0x00005c5a:    2200        ."      MOVS     r2,#0
        0x00005c5c:    4b28        (K      LDR      r3,[pc,#160] ; [0x5d00] = 0x43f00000
        0x00005c5e:    f7fff8b1    ....    BL       __aeabi_cdrcmple ; 0x4dc4
        0x00005c62:    d803        ..      BHI      0x5c6c ; _fp_digits + 188
        0x00005c64:    2000        .       MOVS     r0,#0
        0x00005c66:    43c0        .C      MVNS     r0,r0
        0x00005c68:    4601        .F      MOV      r1,r0
        0x00005c6a:    e007        ..      B        0x5c7c ; _fp_digits + 204
        0x00005c6c:    2200        ."      MOVS     r2,#0
        0x00005c6e:    4b25        %K      LDR      r3,[pc,#148] ; [0x5d04] = 0x3fe00000
        0x00005c70:    4620         F      MOV      r0,r4
        0x00005c72:    4631        1F      MOV      r1,r6
        0x00005c74:    f7fefec0    ....    BL       __aeabi_dadd ; 0x49f8
        0x00005c78:    f7fffa26    ..&.    BL       __aeabi_d2ulz ; 0x50c8
        0x00005c7c:    2410        .$      MOVS     r4,#0x10
        0x00005c7e:    e009        ..      B        0x5c94 ; _fp_digits + 228
        0x00005c80:    2c00        .,      CMP      r4,#0
        0x00005c82:    db0a        ..      BLT      0x5c9a ; _fp_digits + 234
        0x00005c84:    220a        ."      MOVS     r2,#0xa
        0x00005c86:    2300        .#      MOVS     r3,#0
        0x00005c88:    f7fff8e0    ....    BL       __aeabi_uldivmod ; 0x4e4c
        0x00005c8c:    9b05        ..      LDR      r3,[sp,#0x14]
        0x00005c8e:    3230        02      ADDS     r2,r2,#0x30
        0x00005c90:    551a        .U      STRB     r2,[r3,r4]
        0x00005c92:    1e64        d.      SUBS     r4,r4,#1
        0x00005c94:    4602        .F      MOV      r2,r0
        0x00005c96:    430a        .C      ORRS     r2,r2,r1
        0x00005c98:    d1f2        ..      BNE      0x5c80 ; _fp_digits + 208
        0x00005c9a:    2211        ."      MOVS     r2,#0x11
        0x00005c9c:    1c64        d.      ADDS     r4,r4,#1
        0x00005c9e:    9b05        ..      LDR      r3,[sp,#0x14]
        0x00005ca0:    1b12        ..      SUBS     r2,r2,r4
        0x00005ca2:    191c        ..      ADDS     r4,r3,r4
        0x00005ca4:    9b0f        ..      LDR      r3,[sp,#0x3c]
        0x00005ca6:    2b01        .+      CMP      r3,#1
        0x00005ca8:    d003        ..      BEQ      0x5cb2 ; _fp_digits + 258
        0x00005caa:    2301        .#      MOVS     r3,#1
        0x00005cac:    4308        .C      ORRS     r0,r0,r1
        0x00005cae:    d10e        ..      BNE      0x5cce ; _fp_digits + 286
        0x00005cb0:    e00a        ..      B        0x5cc8 ; _fp_digits + 280
        0x00005cb2:    4308        .C      ORRS     r0,r0,r1
        0x00005cb4:    d004        ..      BEQ      0x5cc0 ; _fp_digits + 272
        0x00005cb6:    2011        .       MOVS     r0,#0x11
        0x00005cb8:    900e        ..      STR      r0,[sp,#0x38]
        0x00005cba:    2000        .       MOVS     r0,#0
        0x00005cbc:    900f        ..      STR      r0,[sp,#0x3c]
        0x00005cbe:    e784        ..      B        0x5bca ; _fp_digits + 26
        0x00005cc0:    980e        ..      LDR      r0,[sp,#0x38]
        0x00005cc2:    1a15        ..      SUBS     r5,r2,r0
        0x00005cc4:    1e6d        m.      SUBS     r5,r5,#1
        0x00005cc6:    e00b        ..      B        0x5ce0 ; _fp_digits + 304
        0x00005cc8:    980e        ..      LDR      r0,[sp,#0x38]
        0x00005cca:    4282        .B      CMP      r2,r0
        0x00005ccc:    dd02        ..      BLE      0x5cd4 ; _fp_digits + 292
        0x00005cce:    2300        .#      MOVS     r3,#0
        0x00005cd0:    1c6d        m.      ADDS     r5,r5,#1
        0x00005cd2:    e003        ..      B        0x5cdc ; _fp_digits + 300
        0x00005cd4:    4282        .B      CMP      r2,r0
        0x00005cd6:    da01        ..      BGE      0x5cdc ; _fp_digits + 300
        0x00005cd8:    2300        .#      MOVS     r3,#0
        0x00005cda:    1e6d        m.      SUBS     r5,r5,#1
        0x00005cdc:    2b00        .+      CMP      r3,#0
        0x00005cde:    d0ee        ..      BEQ      0x5cbe ; _fp_digits + 270
        0x00005ce0:    9804        ..      LDR      r0,[sp,#0x10]
        0x00005ce2:    990f        ..      LDR      r1,[sp,#0x3c]
        0x00005ce4:    6082        .`      STR      r2,[r0,#8]
        0x00005ce6:    60c1        .`      STR      r1,[r0,#0xc]
        0x00005ce8:    c030        0.      STM      r0!,{r4,r5}
        0x00005cea:    e78a        ..      B        0x5c02 ; _fp_digits + 82
    $d
        0x00005cec:    fffffc01    ....    DCD    4294966273
        0x00005cf0:    00004d10    .M..    DCD    19728
        0x00005cf4:    40240000    ..$@    DCD    1076101120
        0x00005cf8:    3ff00000    ...?    DCD    1072693248
        0x00005cfc:    00000030    0...    DCD    48
        0x00005d00:    43f00000    ...C    DCD    1139802112
        0x00005d04:    3fe00000    ...?    DCD    1071644672
    $t
    i._printf_core
    _printf_core
        0x00005d08:    b5ff        ..      PUSH     {r0-r7,lr}
        0x00005d0a:    b097        ..      SUB      sp,sp,#0x5c
        0x00005d0c:    4606        .F      MOV      r6,r0
        0x00005d0e:    2500        .%      MOVS     r5,#0
        0x00005d10:    e218        ..      B        0x6144 ; _printf_core + 1084
        0x00005d12:    2825        %(      CMP      r0,#0x25
        0x00005d14:    d177        w.      BNE      0x5e06 ; _printf_core + 254
        0x00005d16:    2400        .$      MOVS     r4,#0
        0x00005d18:    4627        'F      MOV      r7,r4
        0x00005d1a:    49fd        .I      LDR      r1,[pc,#1012] ; [0x6110] = 0x12809
        0x00005d1c:    9404        ..      STR      r4,[sp,#0x10]
        0x00005d1e:    e000        ..      B        0x5d22 ; _printf_core + 26
        0x00005d20:    4304        .C      ORRS     r4,r4,r0
        0x00005d22:    1c76        v.      ADDS     r6,r6,#1
        0x00005d24:    7832        2x      LDRB     r2,[r6,#0]
        0x00005d26:    2001        .       MOVS     r0,#1
        0x00005d28:    3a20         :      SUBS     r2,r2,#0x20
        0x00005d2a:    4090        .@      LSLS     r0,r0,r2
        0x00005d2c:    4208        .B      TST      r0,r1
        0x00005d2e:    d1f7        ..      BNE      0x5d20 ; _printf_core + 24
        0x00005d30:    7830        0x      LDRB     r0,[r6,#0]
        0x00005d32:    282a        *(      CMP      r0,#0x2a
        0x00005d34:    d00e        ..      BEQ      0x5d54 ; _printf_core + 76
        0x00005d36:    2202        ."      MOVS     r2,#2
        0x00005d38:    7830        0x      LDRB     r0,[r6,#0]
        0x00005d3a:    4601        .F      MOV      r1,r0
        0x00005d3c:    3930        09      SUBS     r1,r1,#0x30
        0x00005d3e:    2909        .)      CMP      r1,#9
        0x00005d40:    d816        ..      BHI      0x5d70 ; _printf_core + 104
        0x00005d42:    9904        ..      LDR      r1,[sp,#0x10]
        0x00005d44:    230a        .#      MOVS     r3,#0xa
        0x00005d46:    4359        YC      MULS     r1,r3,r1
        0x00005d48:    3930        09      SUBS     r1,r1,#0x30
        0x00005d4a:    1840        @.      ADDS     r0,r0,r1
        0x00005d4c:    4314        .C      ORRS     r4,r4,r2
        0x00005d4e:    1c76        v.      ADDS     r6,r6,#1
        0x00005d50:    9004        ..      STR      r0,[sp,#0x10]
        0x00005d52:    e7f1        ..      B        0x5d38 ; _printf_core + 48
        0x00005d54:    9818        ..      LDR      r0,[sp,#0x60]
        0x00005d56:    c802        ..      LDM      r0!,{r1}
        0x00005d58:    9104        ..      STR      r1,[sp,#0x10]
        0x00005d5a:    9018        ..      STR      r0,[sp,#0x60]
        0x00005d5c:    2900        .)      CMP      r1,#0
        0x00005d5e:    da04        ..      BGE      0x5d6a ; _printf_core + 98
        0x00005d60:    2001        .       MOVS     r0,#1
        0x00005d62:    0340        @.      LSLS     r0,r0,#13
        0x00005d64:    4304        .C      ORRS     r4,r4,r0
        0x00005d66:    4248        HB      RSBS     r0,r1,#0
        0x00005d68:    9004        ..      STR      r0,[sp,#0x10]
        0x00005d6a:    2002        .       MOVS     r0,#2
        0x00005d6c:    4304        .C      ORRS     r4,r4,r0
        0x00005d6e:    1c76        v.      ADDS     r6,r6,#1
        0x00005d70:    7830        0x      LDRB     r0,[r6,#0]
        0x00005d72:    282e        .(      CMP      r0,#0x2e
        0x00005d74:    d114        ..      BNE      0x5da0 ; _printf_core + 152
        0x00005d76:    2004        .       MOVS     r0,#4
        0x00005d78:    4304        .C      ORRS     r4,r4,r0
        0x00005d7a:    7870        px      LDRB     r0,[r6,#1]
        0x00005d7c:    1c76        v.      ADDS     r6,r6,#1
        0x00005d7e:    282a        *(      CMP      r0,#0x2a
        0x00005d80:    d109        ..      BNE      0x5d96 ; _printf_core + 142
        0x00005d82:    9818        ..      LDR      r0,[sp,#0x60]
        0x00005d84:    1c76        v.      ADDS     r6,r6,#1
        0x00005d86:    c880        ..      LDM      r0!,{r7}
        0x00005d88:    9018        ..      STR      r0,[sp,#0x60]
        0x00005d8a:    e009        ..      B        0x5da0 ; _printf_core + 152
        0x00005d8c:    210a        .!      MOVS     r1,#0xa
        0x00005d8e:    434f        OC      MULS     r7,r1,r7
        0x00005d90:    3f30        0?      SUBS     r7,r7,#0x30
        0x00005d92:    19c7        ..      ADDS     r7,r0,r7
        0x00005d94:    1c76        v.      ADDS     r6,r6,#1
        0x00005d96:    7830        0x      LDRB     r0,[r6,#0]
        0x00005d98:    4601        .F      MOV      r1,r0
        0x00005d9a:    3930        09      SUBS     r1,r1,#0x30
        0x00005d9c:    2909        .)      CMP      r1,#9
        0x00005d9e:    d9f5        ..      BLS      0x5d8c ; _printf_core + 132
        0x00005da0:    7830        0x      LDRB     r0,[r6,#0]
        0x00005da2:    286c        l(      CMP      r0,#0x6c
        0x00005da4:    d010        ..      BEQ      0x5dc8 ; _printf_core + 192
        0x00005da6:    dc06        ..      BGT      0x5db6 ; _printf_core + 174
        0x00005da8:    284c        L(      CMP      r0,#0x4c
        0x00005daa:    d01a        ..      BEQ      0x5de2 ; _printf_core + 218
        0x00005dac:    2868        h(      CMP      r0,#0x68
        0x00005dae:    d00e        ..      BEQ      0x5dce ; _printf_core + 198
        0x00005db0:    286a        j(      CMP      r0,#0x6a
        0x00005db2:    d117        ..      BNE      0x5de4 ; _printf_core + 220
        0x00005db4:    e004        ..      B        0x5dc0 ; _printf_core + 184
        0x00005db6:    2874        t(      CMP      r0,#0x74
        0x00005db8:    d013        ..      BEQ      0x5de2 ; _printf_core + 218
        0x00005dba:    287a        z(      CMP      r0,#0x7a
        0x00005dbc:    d112        ..      BNE      0x5de4 ; _printf_core + 220
        0x00005dbe:    e010        ..      B        0x5de2 ; _printf_core + 218
        0x00005dc0:    2001        .       MOVS     r0,#1
        0x00005dc2:    0540        @.      LSLS     r0,r0,#21
        0x00005dc4:    4304        .C      ORRS     r4,r4,r0
        0x00005dc6:    e00c        ..      B        0x5de2 ; _printf_core + 218
        0x00005dc8:    2101        .!      MOVS     r1,#1
        0x00005dca:    0509        ..      LSLS     r1,r1,#20
        0x00005dcc:    e001        ..      B        0x5dd2 ; _printf_core + 202
        0x00005dce:    2103        .!      MOVS     r1,#3
        0x00005dd0:    0509        ..      LSLS     r1,r1,#20
        0x00005dd2:    430c        .C      ORRS     r4,r4,r1
        0x00005dd4:    7871        qx      LDRB     r1,[r6,#1]
        0x00005dd6:    4281        .B      CMP      r1,r0
        0x00005dd8:    d103        ..      BNE      0x5de2 ; _printf_core + 218
        0x00005dda:    2001        .       MOVS     r0,#1
        0x00005ddc:    0500        ..      LSLS     r0,r0,#20
        0x00005dde:    1824        $.      ADDS     r4,r4,r0
        0x00005de0:    1c76        v.      ADDS     r6,r6,#1
        0x00005de2:    1c76        v.      ADDS     r6,r6,#1
        0x00005de4:    7830        0x      LDRB     r0,[r6,#0]
        0x00005de6:    9011        ..      STR      r0,[sp,#0x44]
        0x00005de8:    2866        f(      CMP      r0,#0x66
        0x00005dea:    d00b        ..      BEQ      0x5e04 ; _printf_core + 252
        0x00005dec:    dc13        ..      BGT      0x5e16 ; _printf_core + 270
        0x00005dee:    2858        X(      CMP      r0,#0x58
        0x00005df0:    d07d        }.      BEQ      0x5eee ; _printf_core + 486
        0x00005df2:    dc09        ..      BGT      0x5e08 ; _printf_core + 256
        0x00005df4:    2800        .(      CMP      r0,#0
        0x00005df6:    d07b        {.      BEQ      0x5ef0 ; _printf_core + 488
        0x00005df8:    2845        E(      CMP      r0,#0x45
        0x00005dfa:    d0f6        ..      BEQ      0x5dea ; _printf_core + 226
        0x00005dfc:    2846        F(      CMP      r0,#0x46
        0x00005dfe:    d0f4        ..      BEQ      0x5dea ; _printf_core + 226
        0x00005e00:    2847        G(      CMP      r0,#0x47
        0x00005e02:    d11a        ..      BNE      0x5e3a ; _printf_core + 306
        0x00005e04:    e1a5        ..      B        0x6152 ; _printf_core + 1098
        0x00005e06:    e018        ..      B        0x5e3a ; _printf_core + 306
        0x00005e08:    2863        c(      CMP      r0,#0x63
        0x00005e0a:    d035        5.      BEQ      0x5e78 ; _printf_core + 368
        0x00005e0c:    2864        d(      CMP      r0,#0x64
        0x00005e0e:    d070        p.      BEQ      0x5ef2 ; _printf_core + 490
        0x00005e10:    2865        e(      CMP      r0,#0x65
        0x00005e12:    d112        ..      BNE      0x5e3a ; _printf_core + 306
        0x00005e14:    e19d        ..      B        0x6152 ; _printf_core + 1098
        0x00005e16:    2870        p(      CMP      r0,#0x70
        0x00005e18:    d06c        l.      BEQ      0x5ef4 ; _printf_core + 492
        0x00005e1a:    dc08        ..      BGT      0x5e2e ; _printf_core + 294
        0x00005e1c:    2867        g(      CMP      r0,#0x67
        0x00005e1e:    d0f1        ..      BEQ      0x5e04 ; _printf_core + 252
        0x00005e20:    2869        i(      CMP      r0,#0x69
        0x00005e22:    d07b        {.      BEQ      0x5f1c ; _printf_core + 532
        0x00005e24:    286e        n(      CMP      r0,#0x6e
        0x00005e26:    d00d        ..      BEQ      0x5e44 ; _printf_core + 316
        0x00005e28:    286f        o(      CMP      r0,#0x6f
        0x00005e2a:    d106        ..      BNE      0x5e3a ; _printf_core + 306
        0x00005e2c:    e0ba        ..      B        0x5fa4 ; _printf_core + 668
        0x00005e2e:    2873        s(      CMP      r0,#0x73
        0x00005e30:    d02e        ..      BEQ      0x5e90 ; _printf_core + 392
        0x00005e32:    2875        u(      CMP      r0,#0x75
        0x00005e34:    d071        q.      BEQ      0x5f1a ; _printf_core + 530
        0x00005e36:    2878        x(      CMP      r0,#0x78
        0x00005e38:    d059        Y.      BEQ      0x5eee ; _printf_core + 486
        0x00005e3a:    9a1a        ..      LDR      r2,[sp,#0x68]
        0x00005e3c:    9919        ..      LDR      r1,[sp,#0x64]
        0x00005e3e:    4790        .G      BLX      r2
        0x00005e40:    1c6d        m.      ADDS     r5,r5,#1
        0x00005e42:    e17e        ~.      B        0x6142 ; _printf_core + 1082
        0x00005e44:    0260        `.      LSLS     r0,r4,#9
        0x00005e46:    0f40        @.      LSRS     r0,r0,#29
        0x00005e48:    2802        .(      CMP      r0,#2
        0x00005e4a:    d009        ..      BEQ      0x5e60 ; _printf_core + 344
        0x00005e4c:    2803        .(      CMP      r0,#3
        0x00005e4e:    d00d        ..      BEQ      0x5e6c ; _printf_core + 356
        0x00005e50:    2804        .(      CMP      r0,#4
        0x00005e52:    9818        ..      LDR      r0,[sp,#0x60]
        0x00005e54:    6801        .h      LDR      r1,[r0,#0]
        0x00005e56:    d00d        ..      BEQ      0x5e74 ; _printf_core + 364
        0x00005e58:    600d        .`      STR      r5,[r1,#0]
        0x00005e5a:    1d00        ..      ADDS     r0,r0,#4
        0x00005e5c:    9018        ..      STR      r0,[sp,#0x60]
        0x00005e5e:    e170        p.      B        0x6142 ; _printf_core + 1082
        0x00005e60:    9818        ..      LDR      r0,[sp,#0x60]
        0x00005e62:    17ea        ..      ASRS     r2,r5,#31
        0x00005e64:    6801        .h      LDR      r1,[r0,#0]
        0x00005e66:    600d        .`      STR      r5,[r1,#0]
        0x00005e68:    604a        J`      STR      r2,[r1,#4]
        0x00005e6a:    e7f6        ..      B        0x5e5a ; _printf_core + 338
        0x00005e6c:    9818        ..      LDR      r0,[sp,#0x60]
        0x00005e6e:    6801        .h      LDR      r1,[r0,#0]
        0x00005e70:    800d        ..      STRH     r5,[r1,#0]
        0x00005e72:    e7f2        ..      B        0x5e5a ; _printf_core + 338
        0x00005e74:    700d        .p      STRB     r5,[r1,#0]
        0x00005e76:    e7f0        ..      B        0x5e5a ; _printf_core + 338
        0x00005e78:    9818        ..      LDR      r0,[sp,#0x60]
        0x00005e7a:    466a        jF      MOV      r2,sp
        0x00005e7c:    7801        .x      LDRB     r1,[r0,#0]
        0x00005e7e:    7211        .r      STRB     r1,[r2,#8]
        0x00005e80:    1d00        ..      ADDS     r0,r0,#4
        0x00005e82:    9018        ..      STR      r0,[sp,#0x60]
        0x00005e84:    2000        .       MOVS     r0,#0
        0x00005e86:    7250        Pr      STRB     r0,[r2,#9]
        0x00005e88:    a802        ..      ADD      r0,sp,#8
        0x00005e8a:    9000        ..      STR      r0,[sp,#0]
        0x00005e8c:    2001        .       MOVS     r0,#1
        0x00005e8e:    e005        ..      B        0x5e9c ; _printf_core + 404
        0x00005e90:    9818        ..      LDR      r0,[sp,#0x60]
        0x00005e92:    c802        ..      LDM      r0!,{r1}
        0x00005e94:    9018        ..      STR      r0,[sp,#0x60]
        0x00005e96:    2000        .       MOVS     r0,#0
        0x00005e98:    9100        ..      STR      r1,[sp,#0]
        0x00005e9a:    43c0        .C      MVNS     r0,r0
        0x00005e9c:    0761        a.      LSLS     r1,r4,#29
        0x00005e9e:    d50d        ..      BPL      0x5ebc ; _printf_core + 436
        0x00005ea0:    2100        .!      MOVS     r1,#0
        0x00005ea2:    e001        ..      B        0x5ea8 ; _printf_core + 416
        0x00005ea4:    9901        ..      LDR      r1,[sp,#4]
        0x00005ea6:    1c49        I.      ADDS     r1,r1,#1
        0x00005ea8:    9101        ..      STR      r1,[sp,#4]
        0x00005eaa:    42b9        .B      CMP      r1,r7
        0x00005eac:    da12        ..      BGE      0x5ed4 ; _printf_core + 460
        0x00005eae:    4281        .B      CMP      r1,r0
        0x00005eb0:    dbf8        ..      BLT      0x5ea4 ; _printf_core + 412
        0x00005eb2:    9a00        ..      LDR      r2,[sp,#0]
        0x00005eb4:    5c51        Q\      LDRB     r1,[r2,r1]
        0x00005eb6:    2900        .)      CMP      r1,#0
        0x00005eb8:    d1f4        ..      BNE      0x5ea4 ; _printf_core + 412
        0x00005eba:    e00b        ..      B        0x5ed4 ; _printf_core + 460
        0x00005ebc:    2100        .!      MOVS     r1,#0
        0x00005ebe:    e001        ..      B        0x5ec4 ; _printf_core + 444
        0x00005ec0:    9901        ..      LDR      r1,[sp,#4]
        0x00005ec2:    1c49        I.      ADDS     r1,r1,#1
        0x00005ec4:    9101        ..      STR      r1,[sp,#4]
        0x00005ec6:    4281        .B      CMP      r1,r0
        0x00005ec8:    dbfa        ..      BLT      0x5ec0 ; _printf_core + 440
        0x00005eca:    9a01        ..      LDR      r2,[sp,#4]
        0x00005ecc:    9900        ..      LDR      r1,[sp,#0]
        0x00005ece:    5c89        .\      LDRB     r1,[r1,r2]
        0x00005ed0:    2900        .)      CMP      r1,#0
        0x00005ed2:    d1f5        ..      BNE      0x5ec0 ; _printf_core + 440
        0x00005ed4:    9901        ..      LDR      r1,[sp,#4]
        0x00005ed6:    9804        ..      LDR      r0,[sp,#0x10]
        0x00005ed8:    9b1a        ..      LDR      r3,[sp,#0x68]
        0x00005eda:    1a47        G.      SUBS     r7,r0,r1
        0x00005edc:    4621        !F      MOV      r1,r4
        0x00005ede:    4638        8F      MOV      r0,r7
        0x00005ee0:    9a19        ..      LDR      r2,[sp,#0x64]
        0x00005ee2:    f000fa97    ....    BL       _printf_pre_padding ; 0x6414
        0x00005ee6:    9901        ..      LDR      r1,[sp,#4]
        0x00005ee8:    1940        @.      ADDS     r0,r0,r5
        0x00005eea:    1845        E.      ADDS     r5,r0,r1
        0x00005eec:    e00b        ..      B        0x5f06 ; _printf_core + 510
        0x00005eee:    e04f        O.      B        0x5f90 ; _printf_core + 648
        0x00005ef0:    e12c        ,.      B        0x614c ; _printf_core + 1092
        0x00005ef2:    e013        ..      B        0x5f1c ; _printf_core + 532
        0x00005ef4:    e04e        N.      B        0x5f94 ; _printf_core + 652
        0x00005ef6:    9800        ..      LDR      r0,[sp,#0]
        0x00005ef8:    9900        ..      LDR      r1,[sp,#0]
        0x00005efa:    7800        .x      LDRB     r0,[r0,#0]
        0x00005efc:    1c49        I.      ADDS     r1,r1,#1
        0x00005efe:    9100        ..      STR      r1,[sp,#0]
        0x00005f00:    9a1a        ..      LDR      r2,[sp,#0x68]
        0x00005f02:    9919        ..      LDR      r1,[sp,#0x64]
        0x00005f04:    4790        .G      BLX      r2
        0x00005f06:    9801        ..      LDR      r0,[sp,#4]
        0x00005f08:    1e40        @.      SUBS     r0,r0,#1
        0x00005f0a:    9001        ..      STR      r0,[sp,#4]
        0x00005f0c:    1c40        @.      ADDS     r0,r0,#1
        0x00005f0e:    d1f2        ..      BNE      0x5ef6 ; _printf_core + 494
        0x00005f10:    4621        !F      MOV      r1,r4
        0x00005f12:    4638        8F      MOV      r0,r7
        0x00005f14:    9b1a        ..      LDR      r3,[sp,#0x68]
        0x00005f16:    9a19        ..      LDR      r2,[sp,#0x64]
        0x00005f18:    e110        ..      B        0x613c ; _printf_core + 1076
        0x00005f1a:    e037        7.      B        0x5f8c ; _printf_core + 644
        0x00005f1c:    200a        .       MOVS     r0,#0xa
        0x00005f1e:    2100        .!      MOVS     r1,#0
        0x00005f20:    9000        ..      STR      r0,[sp,#0]
        0x00005f22:    9101        ..      STR      r1,[sp,#4]
        0x00005f24:    0260        `.      LSLS     r0,r4,#9
        0x00005f26:    0f41        A.      LSRS     r1,r0,#29
        0x00005f28:    2902        .)      CMP      r1,#2
        0x00005f2a:    d007        ..      BEQ      0x5f3c ; _printf_core + 564
        0x00005f2c:    9a18        ..      LDR      r2,[sp,#0x60]
        0x00005f2e:    ca01        ..      LDM      r2!,{r0}
        0x00005f30:    9218        ..      STR      r2,[sp,#0x60]
        0x00005f32:    17c2        ..      ASRS     r2,r0,#31
        0x00005f34:    4694        .F      MOV      r12,r2
        0x00005f36:    2903        .)      CMP      r1,#3
        0x00005f38:    d008        ..      BEQ      0x5f4c ; _printf_core + 580
        0x00005f3a:    e00a        ..      B        0x5f52 ; _printf_core + 586
        0x00005f3c:    9818        ..      LDR      r0,[sp,#0x60]
        0x00005f3e:    1dc0        ..      ADDS     r0,r0,#7
        0x00005f40:    08c1        ..      LSRS     r1,r0,#3
        0x00005f42:    00c9        ..      LSLS     r1,r1,#3
        0x00005f44:    c905        ..      LDM      r1!,{r0,r2}
        0x00005f46:    9118        ..      STR      r1,[sp,#0x60]
        0x00005f48:    4694        .F      MOV      r12,r2
        0x00005f4a:    e007        ..      B        0x5f5c ; _printf_core + 596
        0x00005f4c:    b200        ..      SXTH     r0,r0
        0x00005f4e:    17c2        ..      ASRS     r2,r0,#31
        0x00005f50:    4694        .F      MOV      r12,r2
        0x00005f52:    2904        .)      CMP      r1,#4
        0x00005f54:    d102        ..      BNE      0x5f5c ; _printf_core + 596
        0x00005f56:    b240        @.      SXTB     r0,r0
        0x00005f58:    17c1        ..      ASRS     r1,r0,#31
        0x00005f5a:    468c        .F      MOV      r12,r1
        0x00005f5c:    2200        ."      MOVS     r2,#0
        0x00005f5e:    4661        aF      MOV      r1,r12
        0x00005f60:    4594        .E      CMP      r12,r2
        0x00005f62:    da06        ..      BGE      0x5f72 ; _printf_core + 618
        0x00005f64:    460a        .F      MOV      r2,r1
        0x00005f66:    2100        .!      MOVS     r1,#0
        0x00005f68:    4240        @B      RSBS     r0,r0,#0
        0x00005f6a:    4191        .A      SBCS     r1,r1,r2
        0x00005f6c:    468c        .F      MOV      r12,r1
        0x00005f6e:    212d        -!      MOVS     r1,#0x2d
        0x00005f70:    e002        ..      B        0x5f78 ; _printf_core + 624
        0x00005f72:    0521        !.      LSLS     r1,r4,#20
        0x00005f74:    d504        ..      BPL      0x5f80 ; _printf_core + 632
        0x00005f76:    212b        +!      MOVS     r1,#0x2b
        0x00005f78:    466a        jF      MOV      r2,sp
        0x00005f7a:    7311        .s      STRB     r1,[r2,#0xc]
        0x00005f7c:    2101        .!      MOVS     r1,#1
        0x00005f7e:    e003        ..      B        0x5f88 ; _printf_core + 640
        0x00005f80:    07e1        ..      LSLS     r1,r4,#31
        0x00005f82:    d001        ..      BEQ      0x5f88 ; _printf_core + 640
        0x00005f84:    2120         !      MOVS     r1,#0x20
        0x00005f86:    e7f7        ..      B        0x5f78 ; _printf_core + 624
        0x00005f88:    9102        ..      STR      r1,[sp,#8]
        0x00005f8a:    e055        U.      B        0x6038 ; _printf_core + 816
        0x00005f8c:    200a        .       MOVS     r0,#0xa
        0x00005f8e:    e00a        ..      B        0x5fa6 ; _printf_core + 670
        0x00005f90:    2010        .       MOVS     r0,#0x10
        0x00005f92:    e008        ..      B        0x5fa6 ; _printf_core + 670
        0x00005f94:    2010        .       MOVS     r0,#0x10
        0x00005f96:    9000        ..      STR      r0,[sp,#0]
        0x00005f98:    2100        .!      MOVS     r1,#0
        0x00005f9a:    2004        .       MOVS     r0,#4
        0x00005f9c:    4304        .C      ORRS     r4,r4,r0
        0x00005f9e:    9101        ..      STR      r1,[sp,#4]
        0x00005fa0:    2708        .'      MOVS     r7,#8
        0x00005fa2:    e003        ..      B        0x5fac ; _printf_core + 676
        0x00005fa4:    2008        .       MOVS     r0,#8
        0x00005fa6:    2100        .!      MOVS     r1,#0
        0x00005fa8:    9101        ..      STR      r1,[sp,#4]
        0x00005faa:    9000        ..      STR      r0,[sp,#0]
        0x00005fac:    0260        `.      LSLS     r0,r4,#9
        0x00005fae:    0f41        A.      LSRS     r1,r0,#29
        0x00005fb0:    2902        .)      CMP      r1,#2
        0x00005fb2:    d007        ..      BEQ      0x5fc4 ; _printf_core + 700
        0x00005fb4:    9a18        ..      LDR      r2,[sp,#0x60]
        0x00005fb6:    ca01        ..      LDM      r2!,{r0}
        0x00005fb8:    9218        ..      STR      r2,[sp,#0x60]
        0x00005fba:    2200        ."      MOVS     r2,#0
        0x00005fbc:    4694        .F      MOV      r12,r2
        0x00005fbe:    2903        .)      CMP      r1,#3
        0x00005fc0:    d008        ..      BEQ      0x5fd4 ; _printf_core + 716
        0x00005fc2:    e008        ..      B        0x5fd6 ; _printf_core + 718
        0x00005fc4:    9818        ..      LDR      r0,[sp,#0x60]
        0x00005fc6:    1dc0        ..      ADDS     r0,r0,#7
        0x00005fc8:    08c1        ..      LSRS     r1,r0,#3
        0x00005fca:    00c9        ..      LSLS     r1,r1,#3
        0x00005fcc:    c905        ..      LDM      r1!,{r0,r2}
        0x00005fce:    9118        ..      STR      r1,[sp,#0x60]
        0x00005fd0:    4694        .F      MOV      r12,r2
        0x00005fd2:    e003        ..      B        0x5fdc ; _printf_core + 724
        0x00005fd4:    b280        ..      UXTH     r0,r0
        0x00005fd6:    2904        .)      CMP      r1,#4
        0x00005fd8:    d100        ..      BNE      0x5fdc ; _printf_core + 724
        0x00005fda:    b2c0        ..      UXTB     r0,r0
        0x00005fdc:    2100        .!      MOVS     r1,#0
        0x00005fde:    9102        ..      STR      r1,[sp,#8]
        0x00005fe0:    0721        !.      LSLS     r1,r4,#28
        0x00005fe2:    d529        ).      BPL      0x6038 ; _printf_core + 816
        0x00005fe4:    9911        ..      LDR      r1,[sp,#0x44]
        0x00005fe6:    2970        p)      CMP      r1,#0x70
        0x00005fe8:    d006        ..      BEQ      0x5ff8 ; _printf_core + 752
        0x00005fea:    9a00        ..      LDR      r2,[sp,#0]
        0x00005fec:    2110        .!      MOVS     r1,#0x10
        0x00005fee:    9b01        ..      LDR      r3,[sp,#4]
        0x00005ff0:    404a        J@      EORS     r2,r2,r1
        0x00005ff2:    431a        .C      ORRS     r2,r2,r3
        0x00005ff4:    d005        ..      BEQ      0x6002 ; _printf_core + 762
        0x00005ff6:    e00e        ..      B        0x6016 ; _printf_core + 782
        0x00005ff8:    2140        @!      MOVS     r1,#0x40
        0x00005ffa:    466a        jF      MOV      r2,sp
        0x00005ffc:    7311        .s      STRB     r1,[r2,#0xc]
        0x00005ffe:    2101        .!      MOVS     r1,#1
        0x00006000:    e008        ..      B        0x6014 ; _printf_core + 780
        0x00006002:    4661        aF      MOV      r1,r12
        0x00006004:    4301        .C      ORRS     r1,r1,r0
        0x00006006:    d006        ..      BEQ      0x6016 ; _printf_core + 782
        0x00006008:    2130        0!      MOVS     r1,#0x30
        0x0000600a:    466a        jF      MOV      r2,sp
        0x0000600c:    7311        .s      STRB     r1,[r2,#0xc]
        0x0000600e:    9911        ..      LDR      r1,[sp,#0x44]
        0x00006010:    7351        Qs      STRB     r1,[r2,#0xd]
        0x00006012:    2102        .!      MOVS     r1,#2
        0x00006014:    9102        ..      STR      r1,[sp,#8]
        0x00006016:    9a00        ..      LDR      r2,[sp,#0]
        0x00006018:    2108        .!      MOVS     r1,#8
        0x0000601a:    9b01        ..      LDR      r3,[sp,#4]
        0x0000601c:    404a        J@      EORS     r2,r2,r1
        0x0000601e:    431a        .C      ORRS     r2,r2,r3
        0x00006020:    d10a        ..      BNE      0x6038 ; _printf_core + 816
        0x00006022:    4661        aF      MOV      r1,r12
        0x00006024:    4301        .C      ORRS     r1,r1,r0
        0x00006026:    d101        ..      BNE      0x602c ; _printf_core + 804
        0x00006028:    0761        a.      LSLS     r1,r4,#29
        0x0000602a:    d505        ..      BPL      0x6038 ; _printf_core + 816
        0x0000602c:    2130        0!      MOVS     r1,#0x30
        0x0000602e:    466a        jF      MOV      r2,sp
        0x00006030:    7311        .s      STRB     r1,[r2,#0xc]
        0x00006032:    2101        .!      MOVS     r1,#1
        0x00006034:    1e7f        ..      SUBS     r7,r7,#1
        0x00006036:    9102        ..      STR      r1,[sp,#8]
        0x00006038:    9911        ..      LDR      r1,[sp,#0x44]
        0x0000603a:    2958        X)      CMP      r1,#0x58
        0x0000603c:    d004        ..      BEQ      0x6048 ; _printf_core + 832
        0x0000603e:    a135        5.      ADR      r1,{pc}+0xd6 ; 0x6114
        0x00006040:    910e        ..      STR      r1,[sp,#0x38]
        0x00006042:    a90d        ..      ADD      r1,sp,#0x34
        0x00006044:    910d        ..      STR      r1,[sp,#0x34]
        0x00006046:    e00d        ..      B        0x6064 ; _printf_core + 860
        0x00006048:    a137        7.      ADR      r1,{pc}+0xe0 ; 0x6128
        0x0000604a:    e7f9        ..      B        0x6040 ; _printf_core + 824
        0x0000604c:    4661        aF      MOV      r1,r12
        0x0000604e:    9b01        ..      LDR      r3,[sp,#4]
        0x00006050:    9a00        ..      LDR      r2,[sp,#0]
        0x00006052:    f7fefefb    ....    BL       __aeabi_uldivmod ; 0x4e4c
        0x00006056:    9b0e        ..      LDR      r3,[sp,#0x38]
        0x00006058:    468c        .F      MOV      r12,r1
        0x0000605a:    5c9b        .\      LDRB     r3,[r3,r2]
        0x0000605c:    9a0d        ..      LDR      r2,[sp,#0x34]
        0x0000605e:    1e52        R.      SUBS     r2,r2,#1
        0x00006060:    920d        ..      STR      r2,[sp,#0x34]
        0x00006062:    7013        .p      STRB     r3,[r2,#0]
        0x00006064:    4661        aF      MOV      r1,r12
        0x00006066:    4301        .C      ORRS     r1,r1,r0
        0x00006068:    d1f0        ..      BNE      0x604c ; _printf_core + 836
        0x0000606a:    980d        ..      LDR      r0,[sp,#0x34]
        0x0000606c:    a905        ..      ADD      r1,sp,#0x14
        0x0000606e:    1a08        ..      SUBS     r0,r1,r0
        0x00006070:    3020         0      ADDS     r0,r0,#0x20
        0x00006072:    9001        ..      STR      r0,[sp,#4]
        0x00006074:    0760        `.      LSLS     r0,r4,#29
        0x00006076:    d503        ..      BPL      0x6080 ; _printf_core + 888
        0x00006078:    2001        .       MOVS     r0,#1
        0x0000607a:    0400        ..      LSLS     r0,r0,#16
        0x0000607c:    4384        .C      BICS     r4,r4,r0
        0x0000607e:    e000        ..      B        0x6082 ; _printf_core + 890
        0x00006080:    2701        .'      MOVS     r7,#1
        0x00006082:    9801        ..      LDR      r0,[sp,#4]
        0x00006084:    4287        .B      CMP      r7,r0
        0x00006086:    dd01        ..      BLE      0x608c ; _printf_core + 900
        0x00006088:    1a38        8.      SUBS     r0,r7,r0
        0x0000608a:    e000        ..      B        0x608e ; _printf_core + 902
        0x0000608c:    2000        .       MOVS     r0,#0
        0x0000608e:    9901        ..      LDR      r1,[sp,#4]
        0x00006090:    9000        ..      STR      r0,[sp,#0]
        0x00006092:    1841        A.      ADDS     r1,r0,r1
        0x00006094:    9802        ..      LDR      r0,[sp,#8]
        0x00006096:    1809        ..      ADDS     r1,r1,r0
        0x00006098:    9804        ..      LDR      r0,[sp,#0x10]
        0x0000609a:    1a40        @.      SUBS     r0,r0,r1
        0x0000609c:    9004        ..      STR      r0,[sp,#0x10]
        0x0000609e:    03e0        ..      LSLS     r0,r4,#15
        0x000060a0:    d406        ..      BMI      0x60b0 ; _printf_core + 936
        0x000060a2:    4621        !F      MOV      r1,r4
        0x000060a4:    9b1a        ..      LDR      r3,[sp,#0x68]
        0x000060a6:    9a19        ..      LDR      r2,[sp,#0x64]
        0x000060a8:    9804        ..      LDR      r0,[sp,#0x10]
        0x000060aa:    f000f9b3    ....    BL       _printf_pre_padding ; 0x6414
        0x000060ae:    1945        E.      ADDS     r5,r0,r5
        0x000060b0:    2700        .'      MOVS     r7,#0
        0x000060b2:    e006        ..      B        0x60c2 ; _printf_core + 954
        0x000060b4:    a803        ..      ADD      r0,sp,#0xc
        0x000060b6:    9a1a        ..      LDR      r2,[sp,#0x68]
        0x000060b8:    5dc0        .]      LDRB     r0,[r0,r7]
        0x000060ba:    9919        ..      LDR      r1,[sp,#0x64]
        0x000060bc:    4790        .G      BLX      r2
        0x000060be:    1c6d        m.      ADDS     r5,r5,#1
        0x000060c0:    1c7f        ..      ADDS     r7,r7,#1
        0x000060c2:    9802        ..      LDR      r0,[sp,#8]
        0x000060c4:    4287        .B      CMP      r7,r0
        0x000060c6:    dbf5        ..      BLT      0x60b4 ; _printf_core + 940
        0x000060c8:    03e0        ..      LSLS     r0,r4,#15
        0x000060ca:    d50c        ..      BPL      0x60e6 ; _printf_core + 990
        0x000060cc:    4621        !F      MOV      r1,r4
        0x000060ce:    9b1a        ..      LDR      r3,[sp,#0x68]
        0x000060d0:    9a19        ..      LDR      r2,[sp,#0x64]
        0x000060d2:    9804        ..      LDR      r0,[sp,#0x10]
        0x000060d4:    f000f99e    ....    BL       _printf_pre_padding ; 0x6414
        0x000060d8:    1945        E.      ADDS     r5,r0,r5
        0x000060da:    e004        ..      B        0x60e6 ; _printf_core + 990
        0x000060dc:    9a1a        ..      LDR      r2,[sp,#0x68]
        0x000060de:    2030        0       MOVS     r0,#0x30
        0x000060e0:    9919        ..      LDR      r1,[sp,#0x64]
        0x000060e2:    4790        .G      BLX      r2
        0x000060e4:    1c6d        m.      ADDS     r5,r5,#1
        0x000060e6:    9900        ..      LDR      r1,[sp,#0]
        0x000060e8:    1e48        H.      SUBS     r0,r1,#1
        0x000060ea:    9000        ..      STR      r0,[sp,#0]
        0x000060ec:    2900        .)      CMP      r1,#0
        0x000060ee:    dcf5        ..      BGT      0x60dc ; _printf_core + 980
        0x000060f0:    e008        ..      B        0x6104 ; _printf_core + 1020
        0x000060f2:    980d        ..      LDR      r0,[sp,#0x34]
        0x000060f4:    990d        ..      LDR      r1,[sp,#0x34]
        0x000060f6:    7800        .x      LDRB     r0,[r0,#0]
        0x000060f8:    1c49        I.      ADDS     r1,r1,#1
        0x000060fa:    910d        ..      STR      r1,[sp,#0x34]
        0x000060fc:    9a1a        ..      LDR      r2,[sp,#0x68]
        0x000060fe:    9919        ..      LDR      r1,[sp,#0x64]
        0x00006100:    4790        .G      BLX      r2
        0x00006102:    1c6d        m.      ADDS     r5,r5,#1
        0x00006104:    9901        ..      LDR      r1,[sp,#4]
        0x00006106:    1e48        H.      SUBS     r0,r1,#1
        0x00006108:    9001        ..      STR      r0,[sp,#4]
        0x0000610a:    2900        .)      CMP      r1,#0
        0x0000610c:    dcf1        ..      BGT      0x60f2 ; _printf_core + 1002
        0x0000610e:    e163        c.      B        0x63d8 ; _printf_core + 1744
    $d
        0x00006110:    00012809    .(..    DCD    75785
        0x00006114:    33323130    0123    DCD    858927408
        0x00006118:    37363534    4567    DCD    926299444
        0x0000611c:    62613938    89ab    DCD    1650538808
        0x00006120:    66656463    cdef    DCD    1717920867
        0x00006124:    00000000    ....    DCD    0
        0x00006128:    33323130    0123    DCD    858927408
        0x0000612c:    37363534    4567    DCD    926299444
        0x00006130:    42413938    89AB    DCD    1111570744
        0x00006134:    46454443    CDEF    DCD    1178944579
        0x00006138:    00000000    ....    DCD    0
    $t
        0x0000613c:    f000f95a    ..Z.    BL       _printf_post_padding ; 0x63f4
        0x00006140:    1945        E.      ADDS     r5,r0,r5
        0x00006142:    1c76        v.      ADDS     r6,r6,#1
        0x00006144:    7830        0x      LDRB     r0,[r6,#0]
        0x00006146:    2800        .(      CMP      r0,#0
        0x00006148:    d000        ..      BEQ      0x614c ; _printf_core + 1092
        0x0000614a:    e5e2        ..      B        0x5d12 ; _printf_core + 10
        0x0000614c:    4628        (F      MOV      r0,r5
        0x0000614e:    b01b        ..      ADD      sp,sp,#0x6c
        0x00006150:    bdf0        ..      POP      {r4-r7,pc}
        0x00006152:    0760        `.      LSLS     r0,r4,#29
        0x00006154:    d400        ..      BMI      0x6158 ; _printf_core + 1104
        0x00006156:    2706        .'      MOVS     r7,#6
        0x00006158:    9818        ..      LDR      r0,[sp,#0x60]
        0x0000615a:    1dc0        ..      ADDS     r0,r0,#7
        0x0000615c:    08c1        ..      LSRS     r1,r0,#3
        0x0000615e:    00c9        ..      LSLS     r1,r1,#3
        0x00006160:    6848        Hh      LDR      r0,[r1,#4]
        0x00006162:    680a        .h      LDR      r2,[r1,#0]
        0x00006164:    3108        .1      ADDS     r1,r1,#8
        0x00006166:    0fc3        ..      LSRS     r3,r0,#31
        0x00006168:    07db        ..      LSLS     r3,r3,#31
        0x0000616a:    9118        ..      STR      r1,[sp,#0x60]
        0x0000616c:    0019        ..      MOVS     r1,r3
        0x0000616e:    d001        ..      BEQ      0x6174 ; _printf_core + 1132
        0x00006170:    a19c        ..      ADR      r1,{pc}+0x274 ; 0x63e4
        0x00006172:    e008        ..      B        0x6186 ; _printf_core + 1150
        0x00006174:    0521        !.      LSLS     r1,r4,#20
        0x00006176:    d501        ..      BPL      0x617c ; _printf_core + 1140
        0x00006178:    a19b        ..      ADR      r1,{pc}+0x270 ; 0x63e8
        0x0000617a:    e004        ..      B        0x6186 ; _printf_core + 1150
        0x0000617c:    07e1        ..      LSLS     r1,r4,#31
        0x0000617e:    d001        ..      BEQ      0x6184 ; _printf_core + 1148
        0x00006180:    a19a        ..      ADR      r1,{pc}+0x26c ; 0x63ec
        0x00006182:    e000        ..      B        0x6186 ; _printf_core + 1150
        0x00006184:    a19a        ..      ADR      r1,{pc}+0x26c ; 0x63f0
        0x00006186:    0043        C.      LSLS     r3,r0,#1
        0x00006188:    9811        ..      LDR      r0,[sp,#0x44]
        0x0000618a:    085b        [.      LSRS     r3,r3,#1
        0x0000618c:    9110        ..      STR      r1,[sp,#0x40]
        0x0000618e:    2865        e(      CMP      r0,#0x65
        0x00006190:    d00c        ..      BEQ      0x61ac ; _printf_core + 1188
        0x00006192:    dc06        ..      BGT      0x61a2 ; _printf_core + 1178
        0x00006194:    2845        E(      CMP      r0,#0x45
        0x00006196:    d009        ..      BEQ      0x61ac ; _printf_core + 1188
        0x00006198:    2846        F(      CMP      r0,#0x46
        0x0000619a:    d01d        ..      BEQ      0x61d8 ; _printf_core + 1232
        0x0000619c:    2847        G(      CMP      r0,#0x47
        0x0000619e:    d141        A.      BNE      0x6224 ; _printf_core + 1308
        0x000061a0:    e041        A.      B        0x6226 ; _printf_core + 1310
        0x000061a2:    2866        f(      CMP      r0,#0x66
        0x000061a4:    d018        ..      BEQ      0x61d8 ; _printf_core + 1232
        0x000061a6:    2867        g(      CMP      r0,#0x67
        0x000061a8:    d13c        <.      BNE      0x6224 ; _printf_core + 1308
        0x000061aa:    e03c        <.      B        0x6226 ; _printf_core + 1310
        0x000061ac:    2100        .!      MOVS     r1,#0
        0x000061ae:    2f11        ./      CMP      r7,#0x11
        0x000061b0:    db01        ..      BLT      0x61b6 ; _printf_core + 1198
        0x000061b2:    2011        .       MOVS     r0,#0x11
        0x000061b4:    e000        ..      B        0x61b8 ; _printf_core + 1200
        0x000061b6:    1c78        x.      ADDS     r0,r7,#1
        0x000061b8:    9101        ..      STR      r1,[sp,#4]
        0x000061ba:    9000        ..      STR      r0,[sp,#0]
        0x000061bc:    a908        ..      ADD      r1,sp,#0x20
        0x000061be:    a811        ..      ADD      r0,sp,#0x44
        0x000061c0:    f7fffcf6    ....    BL       _fp_digits ; 0x5bb0
        0x000061c4:    9913        ..      LDR      r1,[sp,#0x4c]
        0x000061c6:    9105        ..      STR      r1,[sp,#0x14]
        0x000061c8:    2100        .!      MOVS     r1,#0
        0x000061ca:    9a11        ..      LDR      r2,[sp,#0x44]
        0x000061cc:    9215        ..      STR      r2,[sp,#0x54]
        0x000061ce:    1c7f        ..      ADDS     r7,r7,#1
        0x000061d0:    9812        ..      LDR      r0,[sp,#0x48]
        0x000061d2:    9701        ..      STR      r7,[sp,#4]
        0x000061d4:    9100        ..      STR      r1,[sp,#0]
        0x000061d6:    e050        P.      B        0x627a ; _printf_core + 1394
        0x000061d8:    2001        .       MOVS     r0,#1
        0x000061da:    07c0        ..      LSLS     r0,r0,#31
        0x000061dc:    9003        ..      STR      r0,[sp,#0xc]
        0x000061de:    2001        .       MOVS     r0,#1
        0x000061e0:    9001        ..      STR      r0,[sp,#4]
        0x000061e2:    a908        ..      ADD      r1,sp,#0x20
        0x000061e4:    9700        ..      STR      r7,[sp,#0]
        0x000061e6:    a811        ..      ADD      r0,sp,#0x44
        0x000061e8:    f7fffce2    ....    BL       _fp_digits ; 0x5bb0
        0x000061ec:    9a13        ..      LDR      r2,[sp,#0x4c]
        0x000061ee:    9914        ..      LDR      r1,[sp,#0x50]
        0x000061f0:    9205        ..      STR      r2,[sp,#0x14]
        0x000061f2:    2200        ."      MOVS     r2,#0
        0x000061f4:    9b11        ..      LDR      r3,[sp,#0x44]
        0x000061f6:    9200        ..      STR      r2,[sp,#0]
        0x000061f8:    9812        ..      LDR      r0,[sp,#0x48]
        0x000061fa:    9315        ..      STR      r3,[sp,#0x54]
        0x000061fc:    9a05        ..      LDR      r2,[sp,#0x14]
        0x000061fe:    9201        ..      STR      r2,[sp,#4]
        0x00006200:    2900        .)      CMP      r1,#0
        0x00006202:    d001        ..      BEQ      0x6208 ; _printf_core + 1280
        0x00006204:    4610        .F      MOV      r0,r2
        0x00006206:    e002        ..      B        0x620e ; _printf_core + 1286
        0x00006208:    1c79        y.      ADDS     r1,r7,#1
        0x0000620a:    1840        @.      ADDS     r0,r0,r1
        0x0000620c:    9001        ..      STR      r0,[sp,#4]
        0x0000620e:    1a38        8.      SUBS     r0,r7,r0
        0x00006210:    d501        ..      BPL      0x6216 ; _printf_core + 1294
        0x00006212:    9801        ..      LDR      r0,[sp,#4]
        0x00006214:    e004        ..      B        0x6220 ; _printf_core + 1304
        0x00006216:    4240        @B      RSBS     r0,r0,#0
        0x00006218:    1e40        @.      SUBS     r0,r0,#1
        0x0000621a:    9000        ..      STR      r0,[sp,#0]
        0x0000621c:    1c78        x.      ADDS     r0,r7,#1
        0x0000621e:    9001        ..      STR      r0,[sp,#4]
        0x00006220:    1bc0        ..      SUBS     r0,r0,r7
        0x00006222:    9002        ..      STR      r0,[sp,#8]
        0x00006224:    e043        C.      B        0x62ae ; _printf_core + 1446
        0x00006226:    2f01        ./      CMP      r7,#1
        0x00006228:    da00        ..      BGE      0x622c ; _printf_core + 1316
        0x0000622a:    2701        .'      MOVS     r7,#1
        0x0000622c:    2100        .!      MOVS     r1,#0
        0x0000622e:    2f11        ./      CMP      r7,#0x11
        0x00006230:    dd01        ..      BLE      0x6236 ; _printf_core + 1326
        0x00006232:    2011        .       MOVS     r0,#0x11
        0x00006234:    e000        ..      B        0x6238 ; _printf_core + 1328
        0x00006236:    4638        8F      MOV      r0,r7
        0x00006238:    9101        ..      STR      r1,[sp,#4]
        0x0000623a:    9000        ..      STR      r0,[sp,#0]
        0x0000623c:    a908        ..      ADD      r1,sp,#0x20
        0x0000623e:    a811        ..      ADD      r0,sp,#0x44
        0x00006240:    f7fffcb6    ....    BL       _fp_digits ; 0x5bb0
        0x00006244:    9913        ..      LDR      r1,[sp,#0x4c]
        0x00006246:    9105        ..      STR      r1,[sp,#0x14]
        0x00006248:    9a11        ..      LDR      r2,[sp,#0x44]
        0x0000624a:    2100        .!      MOVS     r1,#0
        0x0000624c:    9812        ..      LDR      r0,[sp,#0x48]
        0x0000624e:    9215        ..      STR      r2,[sp,#0x54]
        0x00006250:    9100        ..      STR      r1,[sp,#0]
        0x00006252:    9701        ..      STR      r7,[sp,#4]
        0x00006254:    0721        !.      LSLS     r1,r4,#28
        0x00006256:    d40c        ..      BMI      0x6272 ; _printf_core + 1386
        0x00006258:    9905        ..      LDR      r1,[sp,#0x14]
        0x0000625a:    42b9        .B      CMP      r1,r7
        0x0000625c:    db01        ..      BLT      0x6262 ; _printf_core + 1370
        0x0000625e:    9901        ..      LDR      r1,[sp,#4]
        0x00006260:    e000        ..      B        0x6264 ; _printf_core + 1372
        0x00006262:    9101        ..      STR      r1,[sp,#4]
        0x00006264:    2901        .)      CMP      r1,#1
        0x00006266:    dd04        ..      BLE      0x6272 ; _printf_core + 1386
        0x00006268:    9a15        ..      LDR      r2,[sp,#0x54]
        0x0000626a:    1e49        I.      SUBS     r1,r1,#1
        0x0000626c:    5c51        Q\      LDRB     r1,[r2,r1]
        0x0000626e:    2930        0)      CMP      r1,#0x30
        0x00006270:    d006        ..      BEQ      0x6280 ; _printf_core + 1400
        0x00006272:    42b8        .B      CMP      r0,r7
        0x00006274:    da01        ..      BGE      0x627a ; _printf_core + 1394
        0x00006276:    1d01        ..      ADDS     r1,r0,#4
        0x00006278:    da05        ..      BGE      0x6286 ; _printf_core + 1406
        0x0000627a:    2101        .!      MOVS     r1,#1
        0x0000627c:    9102        ..      STR      r1,[sp,#8]
        0x0000627e:    e015        ..      B        0x62ac ; _printf_core + 1444
        0x00006280:    9901        ..      LDR      r1,[sp,#4]
        0x00006282:    1e49        I.      SUBS     r1,r1,#1
        0x00006284:    e7ed        ..      B        0x6262 ; _printf_core + 1370
        0x00006286:    2800        .(      CMP      r0,#0
        0x00006288:    dc05        ..      BGT      0x6296 ; _printf_core + 1422
        0x0000628a:    9900        ..      LDR      r1,[sp,#0]
        0x0000628c:    1841        A.      ADDS     r1,r0,r1
        0x0000628e:    9100        ..      STR      r1,[sp,#0]
        0x00006290:    9901        ..      LDR      r1,[sp,#4]
        0x00006292:    1a09        ..      SUBS     r1,r1,r0
        0x00006294:    e003        ..      B        0x629e ; _printf_core + 1430
        0x00006296:    9a01        ..      LDR      r2,[sp,#4]
        0x00006298:    1c41        A.      ADDS     r1,r0,#1
        0x0000629a:    4291        .B      CMP      r1,r2
        0x0000629c:    dd00        ..      BLE      0x62a0 ; _printf_core + 1432
        0x0000629e:    9101        ..      STR      r1,[sp,#4]
        0x000062a0:    9900        ..      LDR      r1,[sp,#0]
        0x000062a2:    1a40        @.      SUBS     r0,r0,r1
        0x000062a4:    1c40        @.      ADDS     r0,r0,#1
        0x000062a6:    9002        ..      STR      r0,[sp,#8]
        0x000062a8:    2001        .       MOVS     r0,#1
        0x000062aa:    07c0        ..      LSLS     r0,r0,#31
        0x000062ac:    9003        ..      STR      r0,[sp,#0xc]
        0x000062ae:    0720         .      LSLS     r0,r4,#28
        0x000062b0:    d406        ..      BMI      0x62c0 ; _printf_core + 1464
        0x000062b2:    9902        ..      LDR      r1,[sp,#8]
        0x000062b4:    9801        ..      LDR      r0,[sp,#4]
        0x000062b6:    4281        .B      CMP      r1,r0
        0x000062b8:    db02        ..      BLT      0x62c0 ; _printf_core + 1464
        0x000062ba:    2000        .       MOVS     r0,#0
        0x000062bc:    43c0        .C      MVNS     r0,r0
        0x000062be:    9002        ..      STR      r0,[sp,#8]
        0x000062c0:    2000        .       MOVS     r0,#0
        0x000062c2:    4669        iF      MOV      r1,sp
        0x000062c4:    77c8        .w      STRB     r0,[r1,#0x1f]
        0x000062c6:    af07        ..      ADD      r7,sp,#0x1c
        0x000062c8:    2101        .!      MOVS     r1,#1
        0x000062ca:    9803        ..      LDR      r0,[sp,#0xc]
        0x000062cc:    3703        .7      ADDS     r7,#3
        0x000062ce:    07c9        ..      LSLS     r1,r1,#31
        0x000062d0:    4288        .B      CMP      r0,r1
        0x000062d2:    d024        $.      BEQ      0x631e ; _printf_core + 1558
        0x000062d4:    2002        .       MOVS     r0,#2
        0x000062d6:    9011        ..      STR      r0,[sp,#0x44]
        0x000062d8:    202b        +       MOVS     r0,#0x2b
        0x000062da:    9012        ..      STR      r0,[sp,#0x48]
        0x000062dc:    9803        ..      LDR      r0,[sp,#0xc]
        0x000062de:    2800        .(      CMP      r0,#0
        0x000062e0:    da0c        ..      BGE      0x62fc ; _printf_core + 1524
        0x000062e2:    4240        @B      RSBS     r0,r0,#0
        0x000062e4:    9003        ..      STR      r0,[sp,#0xc]
        0x000062e6:    202d        -       MOVS     r0,#0x2d
        0x000062e8:    9012        ..      STR      r0,[sp,#0x48]
        0x000062ea:    e007        ..      B        0x62fc ; _printf_core + 1524
        0x000062ec:    210a        .!      MOVS     r1,#0xa
        0x000062ee:    9803        ..      LDR      r0,[sp,#0xc]
        0x000062f0:    f7fefa5c    ..\.    BL       __aeabi_uidiv ; 0x47ac
        0x000062f4:    3130        01      ADDS     r1,r1,#0x30
        0x000062f6:    1e7f        ..      SUBS     r7,r7,#1
        0x000062f8:    9003        ..      STR      r0,[sp,#0xc]
        0x000062fa:    7039        9p      STRB     r1,[r7,#0]
        0x000062fc:    9911        ..      LDR      r1,[sp,#0x44]
        0x000062fe:    1e48        H.      SUBS     r0,r1,#1
        0x00006300:    9011        ..      STR      r0,[sp,#0x44]
        0x00006302:    2900        .)      CMP      r1,#0
        0x00006304:    dcf2        ..      BGT      0x62ec ; _printf_core + 1508
        0x00006306:    9803        ..      LDR      r0,[sp,#0xc]
        0x00006308:    2800        .(      CMP      r0,#0
        0x0000630a:    d1ef        ..      BNE      0x62ec ; _printf_core + 1508
        0x0000630c:    1e79        y.      SUBS     r1,r7,#1
        0x0000630e:    9812        ..      LDR      r0,[sp,#0x48]
        0x00006310:    7008        .p      STRB     r0,[r1,#0]
        0x00006312:    7830        0x      LDRB     r0,[r6,#0]
        0x00006314:    2120         !      MOVS     r1,#0x20
        0x00006316:    4008        .@      ANDS     r0,r0,r1
        0x00006318:    3045        E0      ADDS     r0,r0,#0x45
        0x0000631a:    1ebf        ..      SUBS     r7,r7,#2
        0x0000631c:    7038        8p      STRB     r0,[r7,#0]
        0x0000631e:    a806        ..      ADD      r0,sp,#0x18
        0x00006320:    1bc0        ..      SUBS     r0,r0,r7
        0x00006322:    1dc0        ..      ADDS     r0,r0,#7
        0x00006324:    9003        ..      STR      r0,[sp,#0xc]
        0x00006326:    9810        ..      LDR      r0,[sp,#0x40]
        0x00006328:    7800        .x      LDRB     r0,[r0,#0]
        0x0000632a:    2800        .(      CMP      r0,#0
        0x0000632c:    d000        ..      BEQ      0x6330 ; _printf_core + 1576
        0x0000632e:    2001        .       MOVS     r0,#1
        0x00006330:    9901        ..      LDR      r1,[sp,#4]
        0x00006332:    1841        A.      ADDS     r1,r0,r1
        0x00006334:    9802        ..      LDR      r0,[sp,#8]
        0x00006336:    17c0        ..      ASRS     r0,r0,#31
        0x00006338:    1809        ..      ADDS     r1,r1,r0
        0x0000633a:    9803        ..      LDR      r0,[sp,#0xc]
        0x0000633c:    1809        ..      ADDS     r1,r1,r0
        0x0000633e:    9804        ..      LDR      r0,[sp,#0x10]
        0x00006340:    1a40        @.      SUBS     r0,r0,r1
        0x00006342:    1e40        @.      SUBS     r0,r0,#1
        0x00006344:    9004        ..      STR      r0,[sp,#0x10]
        0x00006346:    03e0        ..      LSLS     r0,r4,#15
        0x00006348:    d406        ..      BMI      0x6358 ; _printf_core + 1616
        0x0000634a:    4621        !F      MOV      r1,r4
        0x0000634c:    9b1a        ..      LDR      r3,[sp,#0x68]
        0x0000634e:    9a19        ..      LDR      r2,[sp,#0x64]
        0x00006350:    9804        ..      LDR      r0,[sp,#0x10]
        0x00006352:    f000f85f    .._.    BL       _printf_pre_padding ; 0x6414
        0x00006356:    1945        E.      ADDS     r5,r0,r5
        0x00006358:    9810        ..      LDR      r0,[sp,#0x40]
        0x0000635a:    7800        .x      LDRB     r0,[r0,#0]
        0x0000635c:    2800        .(      CMP      r0,#0
        0x0000635e:    d003        ..      BEQ      0x6368 ; _printf_core + 1632
        0x00006360:    9a1a        ..      LDR      r2,[sp,#0x68]
        0x00006362:    9919        ..      LDR      r1,[sp,#0x64]
        0x00006364:    4790        .G      BLX      r2
        0x00006366:    1c6d        m.      ADDS     r5,r5,#1
        0x00006368:    03e0        ..      LSLS     r0,r4,#15
        0x0000636a:    d524        $.      BPL      0x63b6 ; _printf_core + 1710
        0x0000636c:    4621        !F      MOV      r1,r4
        0x0000636e:    9b1a        ..      LDR      r3,[sp,#0x68]
        0x00006370:    9a19        ..      LDR      r2,[sp,#0x64]
        0x00006372:    9804        ..      LDR      r0,[sp,#0x10]
        0x00006374:    f000f84e    ..N.    BL       _printf_pre_padding ; 0x6414
        0x00006378:    1945        E.      ADDS     r5,r0,r5
        0x0000637a:    e01c        ..      B        0x63b6 ; _printf_core + 1710
        0x0000637c:    9800        ..      LDR      r0,[sp,#0]
        0x0000637e:    2800        .(      CMP      r0,#0
        0x00006380:    db07        ..      BLT      0x6392 ; _printf_core + 1674
        0x00006382:    9900        ..      LDR      r1,[sp,#0]
        0x00006384:    9805        ..      LDR      r0,[sp,#0x14]
        0x00006386:    4288        .B      CMP      r0,r1
        0x00006388:    dd03        ..      BLE      0x6392 ; _printf_core + 1674
        0x0000638a:    9815        ..      LDR      r0,[sp,#0x54]
        0x0000638c:    5c40        @\      LDRB     r0,[r0,r1]
        0x0000638e:    9919        ..      LDR      r1,[sp,#0x64]
        0x00006390:    e001        ..      B        0x6396 ; _printf_core + 1678
        0x00006392:    9919        ..      LDR      r1,[sp,#0x64]
        0x00006394:    2030        0       MOVS     r0,#0x30
        0x00006396:    9a1a        ..      LDR      r2,[sp,#0x68]
        0x00006398:    4790        .G      BLX      r2
        0x0000639a:    9800        ..      LDR      r0,[sp,#0]
        0x0000639c:    1c6d        m.      ADDS     r5,r5,#1
        0x0000639e:    1c40        @.      ADDS     r0,r0,#1
        0x000063a0:    9000        ..      STR      r0,[sp,#0]
        0x000063a2:    9802        ..      LDR      r0,[sp,#8]
        0x000063a4:    1e40        @.      SUBS     r0,r0,#1
        0x000063a6:    9002        ..      STR      r0,[sp,#8]
        0x000063a8:    2800        .(      CMP      r0,#0
        0x000063aa:    d104        ..      BNE      0x63b6 ; _printf_core + 1710
        0x000063ac:    9a1a        ..      LDR      r2,[sp,#0x68]
        0x000063ae:    202e        .       MOVS     r0,#0x2e
        0x000063b0:    9919        ..      LDR      r1,[sp,#0x64]
        0x000063b2:    4790        .G      BLX      r2
        0x000063b4:    1c6d        m.      ADDS     r5,r5,#1
        0x000063b6:    9901        ..      LDR      r1,[sp,#4]
        0x000063b8:    1e48        H.      SUBS     r0,r1,#1
        0x000063ba:    9001        ..      STR      r0,[sp,#4]
        0x000063bc:    2900        .)      CMP      r1,#0
        0x000063be:    dcdd        ..      BGT      0x637c ; _printf_core + 1652
        0x000063c0:    e005        ..      B        0x63ce ; _printf_core + 1734
        0x000063c2:    7838        8x      LDRB     r0,[r7,#0]
        0x000063c4:    9a1a        ..      LDR      r2,[sp,#0x68]
        0x000063c6:    1c7f        ..      ADDS     r7,r7,#1
        0x000063c8:    9919        ..      LDR      r1,[sp,#0x64]
        0x000063ca:    4790        .G      BLX      r2
        0x000063cc:    1c6d        m.      ADDS     r5,r5,#1
        0x000063ce:    9903        ..      LDR      r1,[sp,#0xc]
        0x000063d0:    1e48        H.      SUBS     r0,r1,#1
        0x000063d2:    9003        ..      STR      r0,[sp,#0xc]
        0x000063d4:    2900        .)      CMP      r1,#0
        0x000063d6:    dcf4        ..      BGT      0x63c2 ; _printf_core + 1722
        0x000063d8:    4621        !F      MOV      r1,r4
        0x000063da:    9b1a        ..      LDR      r3,[sp,#0x68]
        0x000063dc:    9a19        ..      LDR      r2,[sp,#0x64]
        0x000063de:    9804        ..      LDR      r0,[sp,#0x10]
        0x000063e0:    e6ac        ..      B        0x613c ; _printf_core + 1076
    $d
        0x000063e2:    0000        ..      DCW    0
        0x000063e4:    0000002d    -...    DCD    45
        0x000063e8:    0000002b    +...    DCD    43
        0x000063ec:    00000020     ...    DCD    32
        0x000063f0:    00000000    ....    DCD    0
    $t
    i._printf_post_padding
    _printf_post_padding
        0x000063f4:    b5f8        ..      PUSH     {r3-r7,lr}
        0x000063f6:    4604        .F      MOV      r4,r0
        0x000063f8:    2500        .%      MOVS     r5,#0
        0x000063fa:    461e        .F      MOV      r6,r3
        0x000063fc:    4617        .F      MOV      r7,r2
        0x000063fe:    0488        ..      LSLS     r0,r1,#18
        0x00006400:    d404        ..      BMI      0x640c ; _printf_post_padding + 24
        0x00006402:    e005        ..      B        0x6410 ; _printf_post_padding + 28
        0x00006404:    4639        9F      MOV      r1,r7
        0x00006406:    2020                MOVS     r0,#0x20
        0x00006408:    47b0        .G      BLX      r6
        0x0000640a:    1c6d        m.      ADDS     r5,r5,#1
        0x0000640c:    1e64        d.      SUBS     r4,r4,#1
        0x0000640e:    d5f9        ..      BPL      0x6404 ; _printf_post_padding + 16
        0x00006410:    4628        (F      MOV      r0,r5
        0x00006412:    bdf8        ..      POP      {r3-r7,pc}
    i._printf_pre_padding
    _printf_pre_padding
        0x00006414:    b5ff        ..      PUSH     {r0-r7,lr}
        0x00006416:    4604        .F      MOV      r4,r0
        0x00006418:    2500        .%      MOVS     r5,#0
        0x0000641a:    b081        ..      SUB      sp,sp,#4
        0x0000641c:    461e        .F      MOV      r6,r3
        0x0000641e:    03c8        ..      LSLS     r0,r1,#15
        0x00006420:    d501        ..      BPL      0x6426 ; _printf_pre_padding + 18
        0x00006422:    2730        0'      MOVS     r7,#0x30
        0x00006424:    e000        ..      B        0x6428 ; _printf_pre_padding + 20
        0x00006426:    2720         '      MOVS     r7,#0x20
        0x00006428:    0488        ..      LSLS     r0,r1,#18
        0x0000642a:    d504        ..      BPL      0x6436 ; _printf_pre_padding + 34
        0x0000642c:    e005        ..      B        0x643a ; _printf_pre_padding + 38
        0x0000642e:    4638        8F      MOV      r0,r7
        0x00006430:    9903        ..      LDR      r1,[sp,#0xc]
        0x00006432:    47b0        .G      BLX      r6
        0x00006434:    1c6d        m.      ADDS     r5,r5,#1
        0x00006436:    1e64        d.      SUBS     r4,r4,#1
        0x00006438:    d5f9        ..      BPL      0x642e ; _printf_pre_padding + 26
        0x0000643a:    4628        (F      MOV      r0,r5
        0x0000643c:    b005        ..      ADD      sp,sp,#0x14
        0x0000643e:    bdf0        ..      POP      {r4-r7,pc}
    i.asinf
    asinf
        0x00006440:    b5f8        ..      PUSH     {r3-r7,lr}
        0x00006442:    4604        .F      MOV      r4,r0
        0x00006444:    2147        G!      MOVS     r1,#0x47
        0x00006446:    0040        @.      LSLS     r0,r0,#1
        0x00006448:    0649        I.      LSLS     r1,r1,#25
        0x0000644a:    220d        ."      MOVS     r2,#0xd
        0x0000644c:    1841        A.      ADDS     r1,r0,r1
        0x0000644e:    0612        ..      LSLS     r2,r2,#24
        0x00006450:    4291        .B      CMP      r1,r2
        0x00006452:    d853        S.      BHI      0x64fc ; asinf + 188
        0x00006454:    213f        ?!      MOVS     r1,#0x3f
        0x00006456:    0649        I.      LSLS     r1,r1,#25
        0x00006458:    4288        .B      CMP      r0,r1
        0x0000645a:    d91b        ..      BLS      0x6494 ; asinf + 84
        0x0000645c:    0060        `.      LSLS     r0,r4,#1
        0x0000645e:    217f        .!      MOVS     r1,#0x7f
        0x00006460:    0840        @.      LSRS     r0,r0,#1
        0x00006462:    05c9        ..      LSLS     r1,r1,#23
        0x00006464:    f7fefa3d    ..=.    BL       __aeabi_frsub ; 0x48e2
        0x00006468:    2100        .!      MOVS     r1,#0
        0x0000646a:    43c9        .C      MVNS     r1,r1
        0x0000646c:    f7fefab8    ....    BL       __ARM_scalbnf ; 0x49e0
        0x00006470:    4607        .F      MOV      r7,r0
        0x00006472:    f000fac5    ....    BL       sqrtf ; 0x6a00
        0x00006476:    2c00        .,      CMP      r4,#0
        0x00006478:    da04        ..      BGE      0x6484 ; asinf + 68
        0x0000647a:    4d2f        /M      LDR      r5,[pc,#188] ; [0x6538] = 0xb9fdaa22
        0x0000647c:    4e2d        -N      LDR      r6,[pc,#180] ; [0x6534] = 0xbfc90000
        0x0000647e:    07a9        ..      LSLS     r1,r5,#30
        0x00006480:    4048        H@      EORS     r0,r0,r1
        0x00006482:    e001        ..      B        0x6488 ; asinf + 72
        0x00006484:    4e2d        -N      LDR      r6,[pc,#180] ; [0x653c] = 0x3fc90000
        0x00006486:    4d2e        .M      LDR      r5,[pc,#184] ; [0x6540] = 0x39fdaa22
        0x00006488:    2103        .!      MOVS     r1,#3
        0x0000648a:    0789        ..      LSLS     r1,r1,#30
        0x0000648c:    f7fefa2d    ..-.    BL       __aeabi_fmul ; 0x48ea
        0x00006490:    4604        .F      MOV      r4,r0
        0x00006492:    e006        ..      B        0x64a2 ; asinf + 98
        0x00006494:    2600        .&      MOVS     r6,#0
        0x00006496:    4621        !F      MOV      r1,r4
        0x00006498:    4635        5F      MOV      r5,r6
        0x0000649a:    4608        .F      MOV      r0,r1
        0x0000649c:    f7fefa25    ..%.    BL       __aeabi_fmul ; 0x48ea
        0x000064a0:    4607        .F      MOV      r7,r0
        0x000064a2:    4928        (I      LDR      r1,[pc,#160] ; [0x6544] = 0x3d1cfe24
        0x000064a4:    4638        8F      MOV      r0,r7
        0x000064a6:    f7fefa20    .. .    BL       __aeabi_fmul ; 0x48ea
        0x000064aa:    4927        'I      LDR      r1,[pc,#156] ; [0x6548] = 0x3cd88ac7
        0x000064ac:    f7fef9c4    ....    BL       __aeabi_fadd ; 0x4838
        0x000064b0:    4639        9F      MOV      r1,r7
        0x000064b2:    f7fefa1a    ....    BL       __aeabi_fmul ; 0x48ea
        0x000064b6:    4925        %I      LDR      r1,[pc,#148] ; [0x654c] = 0x3d38671e
        0x000064b8:    f7fef9be    ....    BL       __aeabi_fadd ; 0x4838
        0x000064bc:    4639        9F      MOV      r1,r7
        0x000064be:    f7fefa14    ....    BL       __aeabi_fmul ; 0x48ea
        0x000064c2:    4923        #I      LDR      r1,[pc,#140] ; [0x6550] = 0x3d99931b
        0x000064c4:    f7fef9b8    ....    BL       __aeabi_fadd ; 0x4838
        0x000064c8:    4639        9F      MOV      r1,r7
        0x000064ca:    f7fefa0e    ....    BL       __aeabi_fmul ; 0x48ea
        0x000064ce:    4921        !I      LDR      r1,[pc,#132] ; [0x6554] = 0x3e2aaaaf
        0x000064d0:    f7fef9b2    ....    BL       __aeabi_fadd ; 0x4838
        0x000064d4:    9000        ..      STR      r0,[sp,#0]
        0x000064d6:    4639        9F      MOV      r1,r7
        0x000064d8:    4620         F      MOV      r0,r4
        0x000064da:    f7fefa06    ....    BL       __aeabi_fmul ; 0x48ea
        0x000064de:    9900        ..      LDR      r1,[sp,#0]
        0x000064e0:    f7fefa03    ....    BL       __aeabi_fmul ; 0x48ea
        0x000064e4:    4607        .F      MOV      r7,r0
        0x000064e6:    4629        )F      MOV      r1,r5
        0x000064e8:    4620         F      MOV      r0,r4
        0x000064ea:    f7fef9a5    ....    BL       __aeabi_fadd ; 0x4838
        0x000064ee:    4639        9F      MOV      r1,r7
        0x000064f0:    f7fef9a2    ....    BL       __aeabi_fadd ; 0x4838
        0x000064f4:    4631        1F      MOV      r1,r6
        0x000064f6:    f7fef99f    ....    BL       __aeabi_fadd ; 0x4838
        0x000064fa:    bdf8        ..      POP      {r3-r7,pc}
        0x000064fc:    2139        9!      MOVS     r1,#0x39
        0x000064fe:    0649        I.      LSLS     r1,r1,#25
        0x00006500:    4288        .B      CMP      r0,r1
        0x00006502:    d208        ..      BCS      0x6516 ; asinf + 214
        0x00006504:    4620         F      MOV      r0,r4
        0x00006506:    f7feff23    ..#.    BL       __ARM_fpclassifyf ; 0x5350
        0x0000650a:    2804        .(      CMP      r0,#4
        0x0000650c:    d101        ..      BNE      0x6512 ; asinf + 210
        0x0000650e:    f7fffa72    ..r.    BL       __mathlib_flt_underflow ; 0x59f6
        0x00006512:    4620         F      MOV      r0,r4
        0x00006514:    bdf8        ..      POP      {r3-r7,pc}
        0x00006516:    21ff        .!      MOVS     r1,#0xff
        0x00006518:    0609        ..      LSLS     r1,r1,#24
        0x0000651a:    4288        .B      CMP      r0,r1
        0x0000651c:    d903        ..      BLS      0x6526 ; asinf + 230
        0x0000651e:    4620         F      MOV      r0,r4
        0x00006520:    f7fffa5a    ..Z.    BL       __mathlib_flt_infnan ; 0x59d8
        0x00006524:    bdf8        ..      POP      {r3-r7,pc}
        0x00006526:    2001        .       MOVS     r0,#1
        0x00006528:    f7fffb3c    ..<.    BL       __set_errno ; 0x5ba4
        0x0000652c:    f7fffa5d    ..].    BL       __mathlib_flt_invalid ; 0x59ea
        0x00006530:    bdf8        ..      POP      {r3-r7,pc}
    $d
        0x00006532:    0000        ..      DCW    0
        0x00006534:    bfc90000    ....    DCD    3217620992
        0x00006538:    b9fdaa22    "...    DCD    3120409122
        0x0000653c:    3fc90000    ...?    DCD    1070137344
        0x00006540:    39fdaa22    "..9    DCD    972925474
        0x00006544:    3d1cfe24    $..=    DCD    1025310244
        0x00006548:    3cd88ac7    ...<    DCD    1020824263
        0x0000654c:    3d38671e    .g8=    DCD    1027106590
        0x00006550:    3d99931b    ...=    DCD    1033474843
        0x00006554:    3e2aaaaf    ..*>    DCD    1042983599
    $t
    i.atan2f
    atan2f
        0x00006558:    b5f0        ..      PUSH     {r4-r7,lr}
        0x0000655a:    460c        .F      MOV      r4,r1
        0x0000655c:    4601        .F      MOV      r1,r0
        0x0000655e:    221d        ."      MOVS     r2,#0x1d
        0x00006560:    004b        K.      LSLS     r3,r1,#1
        0x00006562:    06d2        ..      LSLS     r2,r2,#27
        0x00006564:    189f        ..      ADDS     r7,r3,r2
        0x00006566:    26e5        .&      MOVS     r6,#0xe5
        0x00006568:    4605        .F      MOV      r5,r0
        0x0000656a:    0636        6.      LSLS     r6,r6,#24
        0x0000656c:    0062        b.      LSLS     r2,r4,#1
        0x0000656e:    b087        ..      SUB      sp,sp,#0x1c
        0x00006570:    4620         F      MOV      r0,r4
        0x00006572:    42b7        .B      CMP      r7,r6
        0x00006574:    d27d        }.      BCS      0x6672 ; atan2f + 282
        0x00006576:    271d        .'      MOVS     r7,#0x1d
        0x00006578:    06ff        ..      LSLS     r7,r7,#27
        0x0000657a:    19d7        ..      ADDS     r7,r2,r7
        0x0000657c:    42b7        .B      CMP      r7,r6
        0x0000657e:    d278        x.      BCS      0x6672 ; atan2f + 282
        0x00006580:    004f        O.      LSLS     r7,r1,#1
        0x00006582:    0043        C.      LSLS     r3,r0,#1
        0x00006584:    0e3e        >.      LSRS     r6,r7,#24
        0x00006586:    0e1a        ..      LSRS     r2,r3,#24
        0x00006588:    1ab2        ..      SUBS     r2,r6,r2
        0x0000658a:    2a1b        .*      CMP      r2,#0x1b
        0x0000658c:    dd07        ..      BLE      0x659e ; atan2f + 70
        0x0000658e:    2900        .)      CMP      r1,#0
        0x00006590:    da02        ..      BGE      0x6598 ; atan2f + 64
        0x00006592:    4875        uH      LDR      r0,[pc,#468] ; [0x6768] = 0xbfc90fdb
        0x00006594:    b007        ..      ADD      sp,sp,#0x1c
        0x00006596:    bdf0        ..      POP      {r4-r7,pc}
        0x00006598:    4874        tH      LDR      r0,[pc,#464] ; [0x676c] = 0x3fc90fdb
        0x0000659a:    b007        ..      ADD      sp,sp,#0x1c
        0x0000659c:    bdf0        ..      POP      {r4-r7,pc}
        0x0000659e:    261a        .&      MOVS     r6,#0x1a
        0x000065a0:    42f2        .B      CMN      r2,r6
        0x000065a2:    da17        ..      BGE      0x65d4 ; atan2f + 124
        0x000065a4:    2800        .(      CMP      r0,#0
        0x000065a6:    da07        ..      BGE      0x65b8 ; atan2f + 96
        0x000065a8:    2900        .)      CMP      r1,#0
        0x000065aa:    da02        ..      BGE      0x65b2 ; atan2f + 90
        0x000065ac:    4870        pH      LDR      r0,[pc,#448] ; [0x6770] = 0xc0490fdb
        0x000065ae:    b007        ..      ADD      sp,sp,#0x1c
        0x000065b0:    bdf0        ..      POP      {r4-r7,pc}
        0x000065b2:    4870        pH      LDR      r0,[pc,#448] ; [0x6774] = 0x40490fdb
        0x000065b4:    b007        ..      ADD      sp,sp,#0x1c
        0x000065b6:    bdf0        ..      POP      {r4-r7,pc}
        0x000065b8:    4621        !F      MOV      r1,r4
        0x000065ba:    4628        (F      MOV      r0,r5
        0x000065bc:    f7fef9d2    ....    BL       __aeabi_fdiv ; 0x4964
        0x000065c0:    4604        .F      MOV      r4,r0
        0x000065c2:    f7fefec5    ....    BL       __ARM_fpclassifyf ; 0x5350
        0x000065c6:    2804        .(      CMP      r0,#4
        0x000065c8:    d101        ..      BNE      0x65ce ; atan2f + 118
        0x000065ca:    f7fffa14    ....    BL       __mathlib_flt_underflow ; 0x59f6
        0x000065ce:    4620         F      MOV      r0,r4
        0x000065d0:    b007        ..      ADD      sp,sp,#0x1c
        0x000065d2:    bdf0        ..      POP      {r4-r7,pc}
        0x000065d4:    429f        .B      CMP      r7,r3
        0x000065d6:    d911        ..      BLS      0x65fc ; atan2f + 164
        0x000065d8:    2900        .)      CMP      r1,#0
        0x000065da:    da02        ..      BGE      0x65e2 ; atan2f + 138
        0x000065dc:    4f66        fO      LDR      r7,[pc,#408] ; [0x6778] = 0xbfc90000
        0x000065de:    4e67        gN      LDR      r6,[pc,#412] ; [0x677c] = 0xb9fdaa22
        0x000065e0:    e001        ..      B        0x65e6 ; atan2f + 142
        0x000065e2:    4f67        gO      LDR      r7,[pc,#412] ; [0x6780] = 0x3fc90000
        0x000065e4:    4e67        gN      LDR      r6,[pc,#412] ; [0x6784] = 0x39fdaa22
        0x000065e6:    4623        #F      MOV      r3,r4
        0x000065e8:    462c        ,F      MOV      r4,r5
        0x000065ea:    461d        .F      MOV      r5,r3
        0x000065ec:    2201        ."      MOVS     r2,#1
        0x000065ee:    4603        .F      MOV      r3,r0
        0x000065f0:    07d2        ..      LSLS     r2,r2,#31
        0x000065f2:    4608        .F      MOV      r0,r1
        0x000065f4:    4054        T@      EORS     r4,r4,r2
        0x000065f6:    4050        P@      EORS     r0,r0,r2
        0x000065f8:    4619        .F      MOV      r1,r3
        0x000065fa:    e00b        ..      B        0x6614 ; atan2f + 188
        0x000065fc:    2800        .(      CMP      r0,#0
        0x000065fe:    da07        ..      BGE      0x6610 ; atan2f + 184
        0x00006600:    2900        .)      CMP      r1,#0
        0x00006602:    da02        ..      BGE      0x660a ; atan2f + 178
        0x00006604:    4f60        `O      LDR      r7,[pc,#384] ; [0x6788] = 0xc0490000
        0x00006606:    4e61        aN      LDR      r6,[pc,#388] ; [0x678c] = 0xba7daa22
        0x00006608:    e004        ..      B        0x6614 ; atan2f + 188
        0x0000660a:    4f61        aO      LDR      r7,[pc,#388] ; [0x6790] = 0x40490000
        0x0000660c:    4e61        aN      LDR      r6,[pc,#388] ; [0x6794] = 0x3a7daa22
        0x0000660e:    e001        ..      B        0x6614 ; atan2f + 188
        0x00006610:    2600        .&      MOVS     r6,#0
        0x00006612:    4637        7F      MOV      r7,r6
        0x00006614:    1a42        B.      SUBS     r2,r0,r1
        0x00006616:    2301        .#      MOVS     r3,#1
        0x00006618:    0052        R.      LSLS     r2,r2,#1
        0x0000661a:    061b        ..      LSLS     r3,r3,#24
        0x0000661c:    429a        .B      CMP      r2,r3
        0x0000661e:    d230        0.      BCS      0x6682 ; atan2f + 298
        0x00006620:    4048        H@      EORS     r0,r0,r1
        0x00006622:    495d        ]I      LDR      r1,[pc,#372] ; [0x6798] = 0x3eed6000
        0x00006624:    d50b        ..      BPL      0x663e ; atan2f + 230
        0x00006626:    20bf        .       MOVS     r0,#0xbf
        0x00006628:    0600        ..      LSLS     r0,r0,#24
        0x0000662a:    9003        ..      STR      r0,[sp,#0xc]
        0x0000662c:    4638        8F      MOV      r0,r7
        0x0000662e:    f7fef954    ..T.    BL       __aeabi_fsub ; 0x48da
        0x00006632:    4607        .F      MOV      r7,r0
        0x00006634:    4959        YI      LDR      r1,[pc,#356] ; [0x679c] = 0x37ce0ac3
        0x00006636:    4630        0F      MOV      r0,r6
        0x00006638:    f7fef94f    ..O.    BL       __aeabi_fsub ; 0x48da
        0x0000663c:    e00a        ..      B        0x6654 ; atan2f + 252
        0x0000663e:    203f        ?       MOVS     r0,#0x3f
        0x00006640:    0600        ..      LSLS     r0,r0,#24
        0x00006642:    9003        ..      STR      r0,[sp,#0xc]
        0x00006644:    4638        8F      MOV      r0,r7
        0x00006646:    f7fef8f7    ....    BL       __aeabi_fadd ; 0x4838
        0x0000664a:    4607        .F      MOV      r7,r0
        0x0000664c:    4953        SI      LDR      r1,[pc,#332] ; [0x679c] = 0x37ce0ac3
        0x0000664e:    4630        0F      MOV      r0,r6
        0x00006650:    f7fef8f2    ....    BL       __aeabi_fadd ; 0x4838
        0x00006654:    4606        .F      MOV      r6,r0
        0x00006656:    4628        (F      MOV      r0,r5
        0x00006658:    9903        ..      LDR      r1,[sp,#0xc]
        0x0000665a:    f7fef946    ..F.    BL       __aeabi_fmul ; 0x48ea
        0x0000665e:    4621        !F      MOV      r1,r4
        0x00006660:    f7fef8ea    ....    BL       __aeabi_fadd ; 0x4838
        0x00006664:    9000        ..      STR      r0,[sp,#0]
        0x00006666:    4621        !F      MOV      r1,r4
        0x00006668:    9803        ..      LDR      r0,[sp,#0xc]
        0x0000666a:    f7fef93e    ..>.    BL       __aeabi_fmul ; 0x48ea
        0x0000666e:    4629        )F      MOV      r1,r5
        0x00006670:    e000        ..      B        0x6674 ; atan2f + 284
        0x00006672:    e03a        :.      B        0x66ea ; atan2f + 402
        0x00006674:    f7fef935    ..5.    BL       __aeabi_frsub ; 0x48e2
        0x00006678:    9900        ..      LDR      r1,[sp,#0]
        0x0000667a:    f7fef973    ..s.    BL       __aeabi_fdiv ; 0x4964
        0x0000667e:    4604        .F      MOV      r4,r0
        0x00006680:    e004        ..      B        0x668c ; atan2f + 308
        0x00006682:    4621        !F      MOV      r1,r4
        0x00006684:    4628        (F      MOV      r0,r5
        0x00006686:    f7fef96d    ..m.    BL       __aeabi_fdiv ; 0x4964
        0x0000668a:    4604        .F      MOV      r4,r0
        0x0000668c:    4601        .F      MOV      r1,r0
        0x0000668e:    f7fef92c    ..,.    BL       __aeabi_fmul ; 0x48ea
        0x00006692:    4943        CI      LDR      r1,[pc,#268] ; [0x67a0] = 0xbd65ad2d
        0x00006694:    9000        ..      STR      r0,[sp,#0]
        0x00006696:    f7fef928    ..(.    BL       __aeabi_fmul ; 0x48ea
        0x0000669a:    4942        BI      LDR      r1,[pc,#264] ; [0x67a4] = 0x3dd5b88f
        0x0000669c:    f7fef8cc    ....    BL       __aeabi_fadd ; 0x4838
        0x000066a0:    9900        ..      LDR      r1,[sp,#0]
        0x000066a2:    f7fef922    ..".    BL       __aeabi_fmul ; 0x48ea
        0x000066a6:    4940        @I      LDR      r1,[pc,#256] ; [0x67a8] = 0xbe11b50f
        0x000066a8:    f7fef8c6    ....    BL       __aeabi_fadd ; 0x4838
        0x000066ac:    9900        ..      LDR      r1,[sp,#0]
        0x000066ae:    f7fef91c    ....    BL       __aeabi_fmul ; 0x48ea
        0x000066b2:    493e        >I      LDR      r1,[pc,#248] ; [0x67ac] = 0x3e4cc861
        0x000066b4:    f7fef8c0    ....    BL       __aeabi_fadd ; 0x4838
        0x000066b8:    9900        ..      LDR      r1,[sp,#0]
        0x000066ba:    f7fef916    ....    BL       __aeabi_fmul ; 0x48ea
        0x000066be:    493c        <I      LDR      r1,[pc,#240] ; [0x67b0] = 0xbeaaaaa8
        0x000066c0:    f7fef8ba    ....    BL       __aeabi_fadd ; 0x4838
        0x000066c4:    4605        .F      MOV      r5,r0
        0x000066c6:    4620         F      MOV      r0,r4
        0x000066c8:    9900        ..      LDR      r1,[sp,#0]
        0x000066ca:    f7fef90e    ....    BL       __aeabi_fmul ; 0x48ea
        0x000066ce:    4629        )F      MOV      r1,r5
        0x000066d0:    f7fef90b    ....    BL       __aeabi_fmul ; 0x48ea
        0x000066d4:    4631        1F      MOV      r1,r6
        0x000066d6:    f7fef8af    ....    BL       __aeabi_fadd ; 0x4838
        0x000066da:    4621        !F      MOV      r1,r4
        0x000066dc:    f7fef8ac    ....    BL       __aeabi_fadd ; 0x4838
        0x000066e0:    4639        9F      MOV      r1,r7
        0x000066e2:    f7fef8a9    ....    BL       __aeabi_fadd ; 0x4838
        0x000066e6:    b007        ..      ADD      sp,sp,#0x1c
        0x000066e8:    bdf0        ..      POP      {r4-r7,pc}
        0x000066ea:    26ff        .&      MOVS     r6,#0xff
        0x000066ec:    0636        6.      LSLS     r6,r6,#24
        0x000066ee:    42b3        .B      CMP      r3,r6
        0x000066f0:    d801        ..      BHI      0x66f6 ; atan2f + 414
        0x000066f2:    42b2        .B      CMP      r2,r6
        0x000066f4:    d905        ..      BLS      0x6702 ; atan2f + 426
        0x000066f6:    4601        .F      MOV      r1,r0
        0x000066f8:    4628        (F      MOV      r0,r5
        0x000066fa:    f7fff972    ..r.    BL       __mathlib_flt_infnan2 ; 0x59e2
        0x000066fe:    b007        ..      ADD      sp,sp,#0x1c
        0x00006700:    bdf0        ..      POP      {r4-r7,pc}
        0x00006702:    462f        /F      MOV      r7,r5
        0x00006704:    4307        .C      ORRS     r7,r7,r0
        0x00006706:    007f        ..      LSLS     r7,r7,#1
        0x00006708:    d00a        ..      BEQ      0x6720 ; atan2f + 456
        0x0000670a:    42b3        .B      CMP      r3,r6
        0x0000670c:    d10c        ..      BNE      0x6728 ; atan2f + 464
        0x0000670e:    42b2        .B      CMP      r2,r6
        0x00006710:    d10a        ..      BNE      0x6728 ; atan2f + 464
        0x00006712:    2201        ."      MOVS     r2,#1
        0x00006714:    0792        ..      LSLS     r2,r2,#30
        0x00006716:    4390        .C      BICS     r0,r0,r2
        0x00006718:    4391        .C      BICS     r1,r1,r2
        0x0000671a:    460d        .F      MOV      r5,r1
        0x0000671c:    4604        .F      MOV      r4,r0
        0x0000671e:    e72f        /.      B        0x6580 ; atan2f + 40
        0x00006720:    22ff        ."      MOVS     r2,#0xff
        0x00006722:    05d2        ..      LSLS     r2,r2,#23
        0x00006724:    4310        .C      ORRS     r0,r0,r2
        0x00006726:    e7f9        ..      B        0x671c ; atan2f + 452
        0x00006728:    42b3        .B      CMP      r3,r6
        0x0000672a:    d008        ..      BEQ      0x673e ; atan2f + 486
        0x0000672c:    0046        F.      LSLS     r6,r0,#1
        0x0000672e:    d006        ..      BEQ      0x673e ; atan2f + 486
        0x00006730:    4053        S@      EORS     r3,r3,r2
        0x00006732:    d4f4        ..      BMI      0x671e ; atan2f + 454
        0x00006734:    2a00        .*      CMP      r2,#0
        0x00006736:    db08        ..      BLT      0x674a ; atan2f + 498
        0x00006738:    269f        .&      MOVS     r6,#0x9f
        0x0000673a:    05f6        ..      LSLS     r6,r6,#23
        0x0000673c:    e007        ..      B        0x674e ; atan2f + 502
        0x0000673e:    22ff        ."      MOVS     r2,#0xff
        0x00006740:    05d2        ..      LSLS     r2,r2,#23
        0x00006742:    4311        .C      ORRS     r1,r1,r2
        0x00006744:    0fe0        ..      LSRS     r0,r4,#31
        0x00006746:    07c0        ..      LSLS     r0,r0,#31
        0x00006748:    e71a        ..      B        0x6580 ; atan2f + 40
        0x0000674a:    265f        _&      MOVS     r6,#0x5f
        0x0000674c:    05f6        ..      LSLS     r6,r6,#23
        0x0000674e:    4631        1F      MOV      r1,r6
        0x00006750:    4628        (F      MOV      r0,r5
        0x00006752:    f7fef8ca    ....    BL       __aeabi_fmul ; 0x48ea
        0x00006756:    4605        .F      MOV      r5,r0
        0x00006758:    4631        1F      MOV      r1,r6
        0x0000675a:    4620         F      MOV      r0,r4
        0x0000675c:    f7fef8c5    ....    BL       __aeabi_fmul ; 0x48ea
        0x00006760:    4604        .F      MOV      r4,r0
        0x00006762:    4629        )F      MOV      r1,r5
        0x00006764:    e70c        ..      B        0x6580 ; atan2f + 40
    $d
        0x00006766:    0000        ..      DCW    0
        0x00006768:    bfc90fdb    ....    DCD    3217625051
        0x0000676c:    3fc90fdb    ...?    DCD    1070141403
        0x00006770:    c0490fdb    ..I.    DCD    3226013659
        0x00006774:    40490fdb    ..I@    DCD    1078530011
        0x00006778:    bfc90000    ....    DCD    3217620992
        0x0000677c:    b9fdaa22    "...    DCD    3120409122
        0x00006780:    3fc90000    ...?    DCD    1070137344
        0x00006784:    39fdaa22    "..9    DCD    972925474
        0x00006788:    c0490000    ..I.    DCD    3226009600
        0x0000678c:    ba7daa22    ".}.    DCD    3128797730
        0x00006790:    40490000    ..I@    DCD    1078525952
        0x00006794:    3a7daa22    ".}:    DCD    981314082
        0x00006798:    3eed6000    .`.>    DCD    1055744000
        0x0000679c:    37ce0ac3    ...7    DCD    936250051
        0x000067a0:    bd65ad2d    -.e.    DCD    3177557293
        0x000067a4:    3dd5b88f    ...=    DCD    1037416591
        0x000067a8:    be11b50f    ....    DCD    3188831503
        0x000067ac:    3e4cc861    a.L>    DCD    1045219425
        0x000067b0:    beaaaaa8    ....    DCD    3198855848
    $t
    i.cos
    cos
        0x000067b4:    b500        ..      PUSH     {lr}
        0x000067b6:    004a        J.      LSLS     r2,r1,#1
        0x000067b8:    4b22        "K      LDR      r3,[pc,#136] ; [0x6844] = 0x3fe921fb
        0x000067ba:    0852        R.      LSRS     r2,r2,#1
        0x000067bc:    b087        ..      SUB      sp,sp,#0x1c
        0x000067be:    429a        .B      CMP      r2,r3
        0x000067c0:    dc02        ..      BGT      0x67c8 ; cos + 20
        0x000067c2:    2200        ."      MOVS     r2,#0
        0x000067c4:    4613        .F      MOV      r3,r2
        0x000067c6:    e025        %.      B        0x6814 ; cos + 96
        0x000067c8:    4b1f        .K      LDR      r3,[pc,#124] ; [0x6848] = 0x7ff00000
        0x000067ca:    429a        .B      CMP      r2,r3
        0x000067cc:    d108        ..      BNE      0x67e0 ; cos + 44
        0x000067ce:    2800        .(      CMP      r0,#0
        0x000067d0:    d108        ..      BNE      0x67e4 ; cos + 48
        0x000067d2:    2001        .       MOVS     r0,#1
        0x000067d4:    f7fff9e6    ....    BL       __set_errno ; 0x5ba4
        0x000067d8:    f7fff8eb    ....    BL       __mathlib_dbl_invalid ; 0x59b2
        0x000067dc:    b007        ..      ADD      sp,sp,#0x1c
        0x000067de:    bd00        ..      POP      {pc}
        0x000067e0:    429a        .B      CMP      r2,r3
        0x000067e2:    db03        ..      BLT      0x67ec ; cos + 56
        0x000067e4:    f7fff8e0    ....    BL       __mathlib_dbl_infnan ; 0x59a8
        0x000067e8:    b007        ..      ADD      sp,sp,#0x1c
        0x000067ea:    bd00        ..      POP      {pc}
        0x000067ec:    aa02        ..      ADD      r2,sp,#8
        0x000067ee:    f7fefdc7    ....    BL       __ieee754_rem_pio2 ; 0x5380
        0x000067f2:    0781        ..      LSLS     r1,r0,#30
        0x000067f4:    0f89        ..      LSRS     r1,r1,#30
        0x000067f6:    d00b        ..      BEQ      0x6810 ; cos + 92
        0x000067f8:    2001        .       MOVS     r0,#1
        0x000067fa:    2901        .)      CMP      r1,#1
        0x000067fc:    d00e        ..      BEQ      0x681c ; cos + 104
        0x000067fe:    2902        .)      CMP      r1,#2
        0x00006800:    d016        ..      BEQ      0x6830 ; cos + 124
        0x00006802:    9000        ..      STR      r0,[sp,#0]
        0x00006804:    a802        ..      ADD      r0,sp,#8
        0x00006806:    c80f        ..      LDM      r0,{r0-r3}
        0x00006808:    f7fff858    ..X.    BL       __kernel_sin ; 0x58bc
        0x0000680c:    b007        ..      ADD      sp,sp,#0x1c
        0x0000680e:    bd00        ..      POP      {pc}
        0x00006810:    a802        ..      ADD      r0,sp,#8
        0x00006812:    c80f        ..      LDM      r0,{r0-r3}
        0x00006814:    f7feff82    ....    BL       __kernel_cos ; 0x571c
        0x00006818:    b007        ..      ADD      sp,sp,#0x1c
        0x0000681a:    bd00        ..      POP      {pc}
        0x0000681c:    9000        ..      STR      r0,[sp,#0]
        0x0000681e:    a802        ..      ADD      r0,sp,#8
        0x00006820:    c80f        ..      LDM      r0,{r0-r3}
        0x00006822:    f7fff84b    ..K.    BL       __kernel_sin ; 0x58bc
        0x00006826:    2201        ."      MOVS     r2,#1
        0x00006828:    07d2        ..      LSLS     r2,r2,#31
        0x0000682a:    4051        Q@      EORS     r1,r1,r2
        0x0000682c:    b007        ..      ADD      sp,sp,#0x1c
        0x0000682e:    bd00        ..      POP      {pc}
        0x00006830:    a802        ..      ADD      r0,sp,#8
        0x00006832:    c80f        ..      LDM      r0,{r0-r3}
        0x00006834:    f7feff72    ..r.    BL       __kernel_cos ; 0x571c
        0x00006838:    2201        ."      MOVS     r2,#1
        0x0000683a:    07d2        ..      LSLS     r2,r2,#31
        0x0000683c:    4051        Q@      EORS     r1,r1,r2
        0x0000683e:    b007        ..      ADD      sp,sp,#0x1c
        0x00006840:    bd00        ..      POP      {pc}
    $d
        0x00006842:    0000        ..      DCW    0
        0x00006844:    3fe921fb    .!.?    DCD    1072243195
        0x00006848:    7ff00000    ....    DCD    2146435072
    $t
    i.cosf
    cosf
        0x0000684c:    b5f0        ..      PUSH     {r4-r7,lr}
        0x0000684e:    4602        .F      MOV      r2,r0
        0x00006850:    4604        .F      MOV      r4,r0
        0x00006852:    4b4e        NK      LDR      r3,[pc,#312] ; [0x698c] = 0x7e921fb6
        0x00006854:    b083        ..      SUB      sp,sp,#0xc
        0x00006856:    0040        @.      LSLS     r0,r0,#1
        0x00006858:    4669        iF      MOV      r1,sp
        0x0000685a:    4298        .B      CMP      r0,r3
        0x0000685c:    d209        ..      BCS      0x6872 ; cosf + 38
        0x0000685e:    2173        s!      MOVS     r1,#0x73
        0x00006860:    0609        ..      LSLS     r1,r1,#24
        0x00006862:    4288        .B      CMP      r0,r1
        0x00006864:    d202        ..      BCS      0x686c ; cosf + 32
        0x00006866:    2000        .       MOVS     r0,#0
        0x00006868:    43c0        .C      MVNS     r0,r0
        0x0000686a:    e000        ..      B        0x686e ; cosf + 34
        0x0000686c:    2000        .       MOVS     r0,#0
        0x0000686e:    9000        ..      STR      r0,[sp,#0]
        0x00006870:    e030        0.      B        0x68d4 ; cosf + 136
        0x00006872:    0050        P.      LSLS     r0,r2,#1
        0x00006874:    4b46        FK      LDR      r3,[pc,#280] ; [0x6990] = 0x46490e49
        0x00006876:    0840        @.      LSRS     r0,r0,#1
        0x00006878:    4298        .B      CMP      r0,r3
        0x0000687a:    d26c        l.      BCS      0x6956 ; cosf + 266
        0x0000687c:    4945        EI      LDR      r1,[pc,#276] ; [0x6994] = 0x3f22f983
        0x0000687e:    4610        .F      MOV      r0,r2
        0x00006880:    f7fef833    ..3.    BL       __aeabi_fmul ; 0x48ea
        0x00006884:    f7fefba2    ....    BL       _frnd ; 0x4fcc
        0x00006888:    4607        .F      MOV      r7,r0
        0x0000688a:    f7fefa59    ..Y.    BL       __aeabi_f2iz ; 0x4d40
        0x0000688e:    0780        ..      LSLS     r0,r0,#30
        0x00006890:    0f80        ..      LSRS     r0,r0,#30
        0x00006892:    9000        ..      STR      r0,[sp,#0]
        0x00006894:    4940        @I      LDR      r1,[pc,#256] ; [0x6998] = 0x2c34611a
        0x00006896:    4638        8F      MOV      r0,r7
        0x00006898:    f7fef827    ..'.    BL       __aeabi_fmul ; 0x48ea
        0x0000689c:    9001        ..      STR      r0,[sp,#4]
        0x0000689e:    493f        ?I      LDR      r1,[pc,#252] ; [0x699c] = 0x33a22000
        0x000068a0:    4638        8F      MOV      r0,r7
        0x000068a2:    f7fef822    ..".    BL       __aeabi_fmul ; 0x48ea
        0x000068a6:    4606        .F      MOV      r6,r0
        0x000068a8:    493d        =I      LDR      r1,[pc,#244] ; [0x69a0] = 0x39fda000
        0x000068aa:    4638        8F      MOV      r0,r7
        0x000068ac:    f7fef81d    ....    BL       __aeabi_fmul ; 0x48ea
        0x000068b0:    4605        .F      MOV      r5,r0
        0x000068b2:    493c        <I      LDR      r1,[pc,#240] ; [0x69a4] = 0x3fc90000
        0x000068b4:    4638        8F      MOV      r0,r7
        0x000068b6:    f7fef818    ....    BL       __aeabi_fmul ; 0x48ea
        0x000068ba:    4621        !F      MOV      r1,r4
        0x000068bc:    f7fef811    ....    BL       __aeabi_frsub ; 0x48e2
        0x000068c0:    4629        )F      MOV      r1,r5
        0x000068c2:    f7fef80a    ....    BL       __aeabi_fsub ; 0x48da
        0x000068c6:    4631        1F      MOV      r1,r6
        0x000068c8:    f7fef807    ....    BL       __aeabi_fsub ; 0x48da
        0x000068cc:    9901        ..      LDR      r1,[sp,#4]
        0x000068ce:    f7fef804    ....    BL       __aeabi_fsub ; 0x48da
        0x000068d2:    4604        .F      MOV      r4,r0
        0x000068d4:    4625        %F      MOV      r5,r4
        0x000068d6:    277f        .'      MOVS     r7,#0x7f
        0x000068d8:    9c00        ..      LDR      r4,[sp,#0]
        0x000068da:    05ff        ..      LSLS     r7,r7,#23
        0x000068dc:    2c00        .,      CMP      r4,#0
        0x000068de:    db3e        >.      BLT      0x695e ; cosf + 274
        0x000068e0:    07e0        ..      LSLS     r0,r4,#31
        0x000068e2:    4e31        1N      LDR      r6,[pc,#196] ; [0x69a8] = 0x80000000
        0x000068e4:    4629        )F      MOV      r1,r5
        0x000068e6:    4608        .F      MOV      r0,r1
        0x000068e8:    d01b        ..      BEQ      0x6922 ; cosf + 214
        0x000068ea:    f7fdfffe    ....    BL       __aeabi_fmul ; 0x48ea
        0x000068ee:    4607        .F      MOV      r7,r0
        0x000068f0:    492e        .I      LDR      r1,[pc,#184] ; [0x69ac] = 0x394c6d33
        0x000068f2:    f7fdfffa    ....    BL       __aeabi_fmul ; 0x48ea
        0x000068f6:    492e        .I      LDR      r1,[pc,#184] ; [0x69b0] = 0x3c0882da
        0x000068f8:    f7fdfff3    ....    BL       __aeabi_frsub ; 0x48e2
        0x000068fc:    4639        9F      MOV      r1,r7
        0x000068fe:    f7fdfff4    ....    BL       __aeabi_fmul ; 0x48ea
        0x00006902:    492c        ,I      LDR      r1,[pc,#176] ; [0x69b4] = 0xbe2aaaa0
        0x00006904:    f7fdff98    ....    BL       __aeabi_fadd ; 0x4838
        0x00006908:    4639        9F      MOV      r1,r7
        0x0000690a:    f7fdffee    ....    BL       __aeabi_fmul ; 0x48ea
        0x0000690e:    4629        )F      MOV      r1,r5
        0x00006910:    f7fdffeb    ....    BL       __aeabi_fmul ; 0x48ea
        0x00006914:    4629        )F      MOV      r1,r5
        0x00006916:    f7fdff8f    ....    BL       __aeabi_fadd ; 0x4838
        0x0000691a:    07a1        ..      LSLS     r1,r4,#30
        0x0000691c:    d518        ..      BPL      0x6950 ; cosf + 260
        0x0000691e:    b003        ..      ADD      sp,sp,#0xc
        0x00006920:    bdf0        ..      POP      {r4-r7,pc}
        0x00006922:    f7fdffe2    ....    BL       __aeabi_fmul ; 0x48ea
        0x00006926:    4605        .F      MOV      r5,r0
        0x00006928:    4923        #I      LDR      r1,[pc,#140] ; [0x69b8] = 0xbab23ab9
        0x0000692a:    f7fdffde    ....    BL       __aeabi_fmul ; 0x48ea
        0x0000692e:    4923        #I      LDR      r1,[pc,#140] ; [0x69bc] = 0x3d2a9fca
        0x00006930:    f7fdff82    ....    BL       __aeabi_fadd ; 0x4838
        0x00006934:    4629        )F      MOV      r1,r5
        0x00006936:    f7fdffd8    ....    BL       __aeabi_fmul ; 0x48ea
        0x0000693a:    4921        !I      LDR      r1,[pc,#132] ; [0x69c0] = 0xbeffffdd
        0x0000693c:    f7fdff7c    ..|.    BL       __aeabi_fadd ; 0x4838
        0x00006940:    4629        )F      MOV      r1,r5
        0x00006942:    f7fdffd2    ....    BL       __aeabi_fmul ; 0x48ea
        0x00006946:    4639        9F      MOV      r1,r7
        0x00006948:    f7fdff76    ..v.    BL       __aeabi_fadd ; 0x4838
        0x0000694c:    07a1        ..      LSLS     r1,r4,#30
        0x0000694e:    d5e6        ..      BPL      0x691e ; cosf + 210
        0x00006950:    4070        p@      EORS     r0,r0,r6
        0x00006952:    b003        ..      ADD      sp,sp,#0xc
        0x00006954:    bdf0        ..      POP      {r4-r7,pc}
        0x00006956:    4610        .F      MOV      r0,r2
        0x00006958:    f7fff854    ..T.    BL       __mathlib_rredf2 ; 0x5a04
        0x0000695c:    e7b9        ..      B        0x68d2 ; cosf + 134
        0x0000695e:    21ff        .!      MOVS     r1,#0xff
        0x00006960:    0068        h.      LSLS     r0,r5,#1
        0x00006962:    0609        ..      LSLS     r1,r1,#24
        0x00006964:    4288        .B      CMP      r0,r1
        0x00006966:    d202        ..      BCS      0x696e ; cosf + 290
        0x00006968:    4638        8F      MOV      r0,r7
        0x0000696a:    b003        ..      ADD      sp,sp,#0xc
        0x0000696c:    bdf0        ..      POP      {r4-r7,pc}
        0x0000696e:    4288        .B      CMP      r0,r1
        0x00006970:    d106        ..      BNE      0x6980 ; cosf + 308
        0x00006972:    2001        .       MOVS     r0,#1
        0x00006974:    f7fff916    ....    BL       __set_errno ; 0x5ba4
        0x00006978:    f7fff837    ..7.    BL       __mathlib_flt_invalid ; 0x59ea
        0x0000697c:    b003        ..      ADD      sp,sp,#0xc
        0x0000697e:    bdf0        ..      POP      {r4-r7,pc}
        0x00006980:    4628        (F      MOV      r0,r5
        0x00006982:    f7fff829    ..).    BL       __mathlib_flt_infnan ; 0x59d8
        0x00006986:    b003        ..      ADD      sp,sp,#0xc
        0x00006988:    bdf0        ..      POP      {r4-r7,pc}
    $d
        0x0000698a:    0000        ..      DCW    0
        0x0000698c:    7e921fb6    ...~    DCD    2123505590
        0x00006990:    46490e49    I.IF    DCD    1179192905
        0x00006994:    3f22f983    .."?    DCD    1059256707
        0x00006998:    2c34611a    .a4,    DCD    741630234
        0x0000699c:    33a22000    . .3    DCD    866263040
        0x000069a0:    39fda000    ...9    DCD    972922880
        0x000069a4:    3fc90000    ...?    DCD    1070137344
        0x000069a8:    80000000    ....    DCD    2147483648
        0x000069ac:    394c6d33    3mL9    DCD    961310003
        0x000069b0:    3c0882da    ...<    DCD    1007190746
        0x000069b4:    be2aaaa0    ..*.    DCD    3190467232
        0x000069b8:    bab23ab9    .:..    DCD    3132242617
        0x000069bc:    3d2a9fca    ..*=    DCD    1026203594
        0x000069c0:    beffffdd    ....    DCD    3204448221
    $t
    i.fmax
    fmax
        0x000069c4:    b5f8        ..      PUSH     {r3-r7,lr}
        0x000069c6:    4615        .F      MOV      r5,r2
        0x000069c8:    461c        .F      MOV      r4,r3
        0x000069ca:    4606        .F      MOV      r6,r0
        0x000069cc:    460f        .F      MOV      r7,r1
        0x000069ce:    f7fefb9b    ....    BL       __ARM_dcmp4 ; 0x5108
        0x000069d2:    0f00        ..      LSRS     r0,r0,#28
        0x000069d4:    2802        .(      CMP      r0,#2
        0x000069d6:    d00b        ..      BEQ      0x69f0 ; fmax + 44
        0x000069d8:    2d00        .-      CMP      r5,#0
        0x000069da:    d001        ..      BEQ      0x69e0 ; fmax + 28
        0x000069dc:    2001        .       MOVS     r0,#1
        0x000069de:    e000        ..      B        0x69e2 ; fmax + 30
        0x000069e0:    2000        .       MOVS     r0,#0
        0x000069e2:    4320         C      ORRS     r0,r0,r4
        0x000069e4:    0040        @.      LSLS     r0,r0,#1
        0x000069e6:    4905        .I      LDR      r1,[pc,#20] ; [0x69fc] = 0x7ff00000
        0x000069e8:    0840        @.      LSRS     r0,r0,#1
        0x000069ea:    1a08        ..      SUBS     r0,r1,r0
        0x000069ec:    0fc0        ..      LSRS     r0,r0,#31
        0x000069ee:    d002        ..      BEQ      0x69f6 ; fmax + 50
        0x000069f0:    4630        0F      MOV      r0,r6
        0x000069f2:    4639        9F      MOV      r1,r7
        0x000069f4:    bdf8        ..      POP      {r3-r7,pc}
        0x000069f6:    4628        (F      MOV      r0,r5
        0x000069f8:    4621        !F      MOV      r1,r4
        0x000069fa:    bdf8        ..      POP      {r3-r7,pc}
    $d
        0x000069fc:    7ff00000    ....    DCD    2146435072
    $t
    i.sqrtf
    sqrtf
        0x00006a00:    b570        p.      PUSH     {r4-r6,lr}
        0x00006a02:    4605        .F      MOV      r5,r0
        0x00006a04:    f7fefab6    ....    BL       _fsqrt ; 0x4f74
        0x00006a08:    0041        A.      LSLS     r1,r0,#1
        0x00006a0a:    4604        .F      MOV      r4,r0
        0x00006a0c:    20ff        .       MOVS     r0,#0xff
        0x00006a0e:    0849        I.      LSRS     r1,r1,#1
        0x00006a10:    05c0        ..      LSLS     r0,r0,#23
        0x00006a12:    1a41        A.      SUBS     r1,r0,r1
        0x00006a14:    0fc9        ..      LSRS     r1,r1,#31
        0x00006a16:    d007        ..      BEQ      0x6a28 ; sqrtf + 40
        0x00006a18:    0069        i.      LSLS     r1,r5,#1
        0x00006a1a:    0849        I.      LSRS     r1,r1,#1
        0x00006a1c:    1a40        @.      SUBS     r0,r0,r1
        0x00006a1e:    0fc0        ..      LSRS     r0,r0,#31
        0x00006a20:    d102        ..      BNE      0x6a28 ; sqrtf + 40
        0x00006a22:    2001        .       MOVS     r0,#1
        0x00006a24:    f7fff8be    ....    BL       __set_errno ; 0x5ba4
        0x00006a28:    4620         F      MOV      r0,r4
        0x00006a2a:    bd70        p.      POP      {r4-r6,pc}
    i.tanf
    tanf
        0x00006a2c:    b5f0        ..      PUSH     {r4-r7,lr}
        0x00006a2e:    4602        .F      MOV      r2,r0
        0x00006a30:    4604        .F      MOV      r4,r0
        0x00006a32:    4b4c        LK      LDR      r3,[pc,#304] ; [0x6b64] = 0x7e921fb6
        0x00006a34:    b083        ..      SUB      sp,sp,#0xc
        0x00006a36:    0040        @.      LSLS     r0,r0,#1
        0x00006a38:    4669        iF      MOV      r1,sp
        0x00006a3a:    4298        .B      CMP      r0,r3
        0x00006a3c:    d209        ..      BCS      0x6a52 ; tanf + 38
        0x00006a3e:    2173        s!      MOVS     r1,#0x73
        0x00006a40:    0609        ..      LSLS     r1,r1,#24
        0x00006a42:    4288        .B      CMP      r0,r1
        0x00006a44:    d202        ..      BCS      0x6a4c ; tanf + 32
        0x00006a46:    2000        .       MOVS     r0,#0
        0x00006a48:    43c0        .C      MVNS     r0,r0
        0x00006a4a:    e000        ..      B        0x6a4e ; tanf + 34
        0x00006a4c:    2000        .       MOVS     r0,#0
        0x00006a4e:    9000        ..      STR      r0,[sp,#0]
        0x00006a50:    e030        0.      B        0x6ab4 ; tanf + 136
        0x00006a52:    0050        P.      LSLS     r0,r2,#1
        0x00006a54:    4b44        DK      LDR      r3,[pc,#272] ; [0x6b68] = 0x46490e49
        0x00006a56:    0840        @.      LSRS     r0,r0,#1
        0x00006a58:    4298        .B      CMP      r0,r3
        0x00006a5a:    d262        b.      BCS      0x6b22 ; tanf + 246
        0x00006a5c:    4943        CI      LDR      r1,[pc,#268] ; [0x6b6c] = 0x3f22f983
        0x00006a5e:    4610        .F      MOV      r0,r2
        0x00006a60:    f7fdff43    ..C.    BL       __aeabi_fmul ; 0x48ea
        0x00006a64:    f7fefab2    ....    BL       _frnd ; 0x4fcc
        0x00006a68:    4607        .F      MOV      r7,r0
        0x00006a6a:    f7fef969    ..i.    BL       __aeabi_f2iz ; 0x4d40
        0x00006a6e:    0780        ..      LSLS     r0,r0,#30
        0x00006a70:    0f80        ..      LSRS     r0,r0,#30
        0x00006a72:    9000        ..      STR      r0,[sp,#0]
        0x00006a74:    493e        >I      LDR      r1,[pc,#248] ; [0x6b70] = 0x2c34611a
        0x00006a76:    4638        8F      MOV      r0,r7
        0x00006a78:    f7fdff37    ..7.    BL       __aeabi_fmul ; 0x48ea
        0x00006a7c:    9001        ..      STR      r0,[sp,#4]
        0x00006a7e:    493d        =I      LDR      r1,[pc,#244] ; [0x6b74] = 0x33a22000
        0x00006a80:    4638        8F      MOV      r0,r7
        0x00006a82:    f7fdff32    ..2.    BL       __aeabi_fmul ; 0x48ea
        0x00006a86:    4606        .F      MOV      r6,r0
        0x00006a88:    493b        ;I      LDR      r1,[pc,#236] ; [0x6b78] = 0x39fda000
        0x00006a8a:    4638        8F      MOV      r0,r7
        0x00006a8c:    f7fdff2d    ..-.    BL       __aeabi_fmul ; 0x48ea
        0x00006a90:    4605        .F      MOV      r5,r0
        0x00006a92:    493a        :I      LDR      r1,[pc,#232] ; [0x6b7c] = 0x3fc90000
        0x00006a94:    4638        8F      MOV      r0,r7
        0x00006a96:    f7fdff28    ..(.    BL       __aeabi_fmul ; 0x48ea
        0x00006a9a:    4621        !F      MOV      r1,r4
        0x00006a9c:    f7fdff21    ..!.    BL       __aeabi_frsub ; 0x48e2
        0x00006aa0:    4629        )F      MOV      r1,r5
        0x00006aa2:    f7fdff1a    ....    BL       __aeabi_fsub ; 0x48da
        0x00006aa6:    4631        1F      MOV      r1,r6
        0x00006aa8:    f7fdff17    ....    BL       __aeabi_fsub ; 0x48da
        0x00006aac:    9901        ..      LDR      r1,[sp,#4]
        0x00006aae:    f7fdff14    ....    BL       __aeabi_fsub ; 0x48da
        0x00006ab2:    4604        .F      MOV      r4,r0
        0x00006ab4:    9d00        ..      LDR      r5,[sp,#0]
        0x00006ab6:    2d00        .-      CMP      r5,#0
        0x00006ab8:    db37        7.      BLT      0x6b2a ; tanf + 254
        0x00006aba:    4621        !F      MOV      r1,r4
        0x00006abc:    4608        .F      MOV      r0,r1
        0x00006abe:    f7fdff14    ....    BL       __aeabi_fmul ; 0x48ea
        0x00006ac2:    4606        .F      MOV      r6,r0
        0x00006ac4:    492e        .I      LDR      r1,[pc,#184] ; [0x6b80] = 0x3c22e9bb
        0x00006ac6:    f7fdff10    ....    BL       __aeabi_fmul ; 0x48ea
        0x00006aca:    492e        .I      LDR      r1,[pc,#184] ; [0x6b84] = 0x3b066d0c
        0x00006acc:    f7fdfeb4    ....    BL       __aeabi_fadd ; 0x4838
        0x00006ad0:    4631        1F      MOV      r1,r6
        0x00006ad2:    f7fdff0a    ....    BL       __aeabi_fmul ; 0x48ea
        0x00006ad6:    492c        ,I      LDR      r1,[pc,#176] ; [0x6b88] = 0x3cce768a
        0x00006ad8:    f7fdfeae    ....    BL       __aeabi_fadd ; 0x4838
        0x00006adc:    4631        1F      MOV      r1,r6
        0x00006ade:    f7fdff04    ....    BL       __aeabi_fmul ; 0x48ea
        0x00006ae2:    492a        *I      LDR      r1,[pc,#168] ; [0x6b8c] = 0x3d59b5ac
        0x00006ae4:    f7fdfea8    ....    BL       __aeabi_fadd ; 0x4838
        0x00006ae8:    4631        1F      MOV      r1,r6
        0x00006aea:    f7fdfefe    ....    BL       __aeabi_fmul ; 0x48ea
        0x00006aee:    4928        (I      LDR      r1,[pc,#160] ; [0x6b90] = 0x3e08a135
        0x00006af0:    f7fdfea2    ....    BL       __aeabi_fadd ; 0x4838
        0x00006af4:    4631        1F      MOV      r1,r6
        0x00006af6:    f7fdfef8    ....    BL       __aeabi_fmul ; 0x48ea
        0x00006afa:    4926        &I      LDR      r1,[pc,#152] ; [0x6b94] = 0x3eaaaa29
        0x00006afc:    f7fdfe9c    ....    BL       __aeabi_fadd ; 0x4838
        0x00006b00:    4631        1F      MOV      r1,r6
        0x00006b02:    f7fdfef2    ....    BL       __aeabi_fmul ; 0x48ea
        0x00006b06:    4621        !F      MOV      r1,r4
        0x00006b08:    f7fdfeef    ....    BL       __aeabi_fmul ; 0x48ea
        0x00006b0c:    4621        !F      MOV      r1,r4
        0x00006b0e:    f7fdfe93    ....    BL       __aeabi_fadd ; 0x4838
        0x00006b12:    07e9        ..      LSLS     r1,r5,#31
        0x00006b14:    d003        ..      BEQ      0x6b1e ; tanf + 242
        0x00006b16:    4601        .F      MOV      r1,r0
        0x00006b18:    481f        .H      LDR      r0,[pc,#124] ; [0x6b98] = 0xbf800000
        0x00006b1a:    f7fdff23    ..#.    BL       __aeabi_fdiv ; 0x4964
        0x00006b1e:    b003        ..      ADD      sp,sp,#0xc
        0x00006b20:    bdf0        ..      POP      {r4-r7,pc}
        0x00006b22:    4610        .F      MOV      r0,r2
        0x00006b24:    f7feff6e    ..n.    BL       __mathlib_rredf2 ; 0x5a04
        0x00006b28:    e7c3        ..      B        0x6ab2 ; tanf + 134
        0x00006b2a:    21ff        .!      MOVS     r1,#0xff
        0x00006b2c:    0060        `.      LSLS     r0,r4,#1
        0x00006b2e:    0609        ..      LSLS     r1,r1,#24
        0x00006b30:    4288        .B      CMP      r0,r1
        0x00006b32:    d209        ..      BCS      0x6b48 ; tanf + 284
        0x00006b34:    4620         F      MOV      r0,r4
        0x00006b36:    f7fefc0b    ....    BL       __ARM_fpclassifyf ; 0x5350
        0x00006b3a:    2804        .(      CMP      r0,#4
        0x00006b3c:    d101        ..      BNE      0x6b42 ; tanf + 278
        0x00006b3e:    f7feff5a    ..Z.    BL       __mathlib_flt_underflow ; 0x59f6
        0x00006b42:    4620         F      MOV      r0,r4
        0x00006b44:    b003        ..      ADD      sp,sp,#0xc
        0x00006b46:    bdf0        ..      POP      {r4-r7,pc}
        0x00006b48:    4288        .B      CMP      r0,r1
        0x00006b4a:    d106        ..      BNE      0x6b5a ; tanf + 302
        0x00006b4c:    2001        .       MOVS     r0,#1
        0x00006b4e:    f7fff829    ..).    BL       __set_errno ; 0x5ba4
        0x00006b52:    f7feff4a    ..J.    BL       __mathlib_flt_invalid ; 0x59ea
        0x00006b56:    b003        ..      ADD      sp,sp,#0xc
        0x00006b58:    bdf0        ..      POP      {r4-r7,pc}
        0x00006b5a:    4620         F      MOV      r0,r4
        0x00006b5c:    f7feff3c    ..<.    BL       __mathlib_flt_infnan ; 0x59d8
        0x00006b60:    b003        ..      ADD      sp,sp,#0xc
        0x00006b62:    bdf0        ..      POP      {r4-r7,pc}
    $d
        0x00006b64:    7e921fb6    ...~    DCD    2123505590
        0x00006b68:    46490e49    I.IF    DCD    1179192905
        0x00006b6c:    3f22f983    .."?    DCD    1059256707
        0x00006b70:    2c34611a    .a4,    DCD    741630234
        0x00006b74:    33a22000    . .3    DCD    866263040
        0x00006b78:    39fda000    ...9    DCD    972922880
        0x00006b7c:    3fc90000    ...?    DCD    1070137344
        0x00006b80:    3c22e9bb    .."<    DCD    1008921019
        0x00006b84:    3b066d0c    .m.;    DCD    990276876
        0x00006b88:    3cce768a    .v.<    DCD    1020163722
        0x00006b8c:    3d59b5ac    ..Y=    DCD    1029289388
        0x00006b90:    3e08a135    5..>    DCD    1040752949
        0x00006b94:    3eaaaa29    )..>    DCD    1051372073
        0x00006b98:    bf800000    ....    DCD    3212836864
    $d.realdata
    .constdata
        0x00006b9c:    80018001    ....    DCD    2147581953
        0x00006ba0:    00008001    ....    DCD    32769
        0x00006ba4:    80018001    ....    DCD    2147581953
        0x00006ba8:    00008001    ....    DCD    32769
        0x00006bac:    80018001    ....    DCD    2147581953
        0x00006bb0:    00008001    ....    DCD    32769
        0x00006bb4:    80018001    ....    DCD    2147581953
        0x00006bb8:    00008001    ....    DCD    32769
        0x00006bbc:    7fff7fff    ....    DCD    2147450879
        0x00006bc0:    00007fff    ....    DCD    32767
        0x00006bc4:    7fff7fff    ....    DCD    2147450879
        0x00006bc8:    00007fff    ....    DCD    32767
        0x00006bcc:    7fff7fff    ....    DCD    2147450879
        0x00006bd0:    00007fff    ....    DCD    32767
        0x00006bd4:    7fff7fff    ....    DCD    2147450879
        0x00006bd8:    7fff        ..      DCW    32767
    .constdata
    TX_ADDRESS_DEF
        0x00006bda:    cccc        ..      DCW    52428
        0x00006bdc:    00cccccc    ....    DCD    13421772
    .constdata
    C
        0x00006be0:    5555554c    LUUU    DCD    1431655756
        0x00006be4:    3fa55555    UU.?    DCD    1067799893
        0x00006be8:    16c15177    wQ..    DCD    381768055
        0x00006bec:    bf56c16c    l.V.    DCD    3210133868
        0x00006bf0:    19cb1590    ....    DCD    432739728
        0x00006bf4:    3efa01a0    ...>    DCD    1056571808
        0x00006bf8:    809c52ad    .R..    DCD    2157728429
        0x00006bfc:    be927e4f    O~..    DCD    3197271631
        0x00006c00:    bdb4b1c4    ....    DCD    3182735812
        0x00006c04:    3e21ee9e    ..!>    DCD    1042411166
        0x00006c08:    be8838d4    .8..    DCD    3196598484
        0x00006c0c:    bda8fae9    ....    DCD    3181968105
    .constdata
    pio2s
        0x00006c10:    54400000    ..@T    DCD    1413480448
        0x00006c14:    3ff921fb    .!.?    DCD    1073291771
        0x00006c18:    1a626331    1cb.    DCD    442655537
        0x00006c1c:    3dd0b461    a..=    DCD    1037087841
        0x00006c20:    1a600000    ..`.    DCD    442499072
        0x00006c24:    3dd0b461    a..=    DCD    1037087841
        0x00006c28:    2e037073    sp..    DCD    771977331
        0x00006c2c:    3ba3198a    ...;    DCD    1000544650
        0x00006c30:    2e000000    ....    DCD    771751936
        0x00006c34:    3ba3198a    ...;    DCD    1000544650
        0x00006c38:    252049c1    .I %    DCD    622873025
        0x00006c3c:    397b839a    ..{9    DCD    964395930
    twooverpi
        0x00006c40:    00000000    ....    DCD    0
        0x00006c44:    00000000    ....    DCD    0
        0x00006c48:    a2f9836e    n...    DCD    2734261102
        0x00006c4c:    4e441529    ).DN    DCD    1313084713
        0x00006c50:    fc2757d1    .W'.    DCD    4230436817
        0x00006c54:    f534ddc0    ..4.    DCD    4113882560
        0x00006c58:    db629599    ..b.    DCD    3680671129
        0x00006c5c:    3c439041    A.C<    DCD    1011060801
        0x00006c60:    fe5163ab    .cQ.    DCD    4266746795
        0x00006c64:    debbc561    a...    DCD    3736847713
        0x00006c68:    b7246e3a    :n$.    DCD    3072618042
        0x00006c6c:    424dd2e0    ..MB    DCD    1112396512
        0x00006c70:    06492eea    ..I.    DCD    105459434
        0x00006c74:    09d1921c    ....    DCD    164729372
        0x00006c78:    fe1deb1c    ....    DCD    4263373596
        0x00006c7c:    b129a73e    >.).    DCD    2972297022
        0x00006c80:    e88235f5    .5..    DCD    3900847605
        0x00006c84:    2ebb4484    .D..    DCD    784024708
        0x00006c88:    e99c7026    &p..    DCD    3919343654
        0x00006c8c:    b45f7e41    A~_.    DCD    3026157121
        0x00006c90:    3991d639    9..9    DCD    965858873
        0x00006c94:    835339f4    .9S.    DCD    2203269620
        0x00006c98:    9c845f8b    ._..    DCD    2625920907
        0x00006c9c:    bdf9283b    ;(..    DCD    3187222587
        0x00006ca0:    1ff897ff    ....    DCD    536385535
        0x00006ca4:    de05980f    ....    DCD    3724908559
        0x00006ca8:    ef2f118b    ../.    DCD    4012839307
        0x00006cac:    5a0a6d1f    .m.Z    DCD    1510632735
        0x00006cb0:    6d367ecf    .~6m    DCD    1832287951
        0x00006cb4:    27cb09b7    ...'    DCD    667617719
        0x00006cb8:    4f463f66    f?FO    DCD    1330003814
        0x00006cbc:    9e5fea2d    -._.    DCD    2657085997
        0x00006cc0:    7527bac7    ..'u    DCD    1965537991
        0x00006cc4:    ebe5f17b    {...    DCD    3957715323
        0x00006cc8:    3d0739f7    .9.=    DCD    1023883767
        0x00006ccc:    8a5292ea    ..R.    DCD    2320667370
        0x00006cd0:    6bfb5fb1    ._.k    DCD    1811636145
        0x00006cd4:    1f8d5d08    .]..    DCD    529358088
    .constdata
    twooverpi
        0x00006cd8:    00000000    ....    DCD    0
        0x00006cdc:    a2f9836e    n...    DCD    2734261102
        0x00006ce0:    4e441529    ).DN    DCD    1313084713
        0x00006ce4:    fc2757d1    .W'.    DCD    4230436817
        0x00006ce8:    f534ddc0    ..4.    DCD    4113882560
        0x00006cec:    db629599    ..b.    DCD    3680671129
        0x00006cf0:    3c439041    A.C<    DCD    1011060801
        0x00006cf4:    fe5163ab    .cQ.    DCD    4266746795
    .constdata
    S
        0x00006cf8:    1110f8a6    ....    DCD    286324902
        0x00006cfc:    3f811111    ...?    DCD    1065423121
        0x00006d00:    19c161d5    .a..    DCD    432103893
        0x00006d04:    bf2a01a0    ..*.    DCD    3207201184
        0x00006d08:    57b1fe7d    }..W    DCD    1471282813
        0x00006d0c:    3ec71de3    ...>    DCD    1053236707
        0x00006d10:    8a2b9ceb    ..+.    DCD    2318114027
        0x00006d14:    be5ae5e6    ..Z.    DCD    3193628134
        0x00006d18:    5acfd57c    |..Z    DCD    1523570044
        0x00006d1c:    3de5d93a    :..=    DCD    1038473530
    .conststring
        0x00006d20:    69726570    peri    DCD    1769104752
        0x00006d24:    3a30646f    od0:    DCD    976249967
        0x00006d28:    202c6425    %d,     DCD    539780133
        0x00006d2c:    69726570    peri    DCD    1769104752
        0x00006d30:    3a31646f    od1:    DCD    976315503
        0x00006d34:    202c6425    %d,     DCD    539780133
        0x00006d38:    69726570    peri    DCD    1769104752
        0x00006d3c:    3a32646f    od2:    DCD    976381039
        0x00006d40:    202c6425    %d,     DCD    539780133
        0x00006d44:    69726570    peri    DCD    1769104752
        0x00006d48:    3a33646f    od3:    DCD    976446575
        0x00006d4c:    202c6425    %d,     DCD    539780133
        0x00006d50:    6f746f6d    moto    DCD    1869901677
        0x00006d54:    75645f72    r_du    DCD    1969512306
        0x00006d58:    725f7974    ty_r    DCD    1918859636
        0x00006d5c:    65676e61    ange    DCD    1701277281
        0x00006d60:    0a64253a    :%d.    DCD    174335290
        0x00006d64:    00000000    ....    DCD    0
    Region$$Table$$Base
        0x00006d68:    00006d88    .m..    DCD    28040
        0x00006d6c:    20000000    ...     DCD    536870912
        0x00006d70:    000000d8    ....    DCD    216
        0x00006d74:    00005b84    .[..    DCD    23428
        0x00006d78:    00006e60    `n..    DCD    28256
        0x00006d7c:    200000d8    ...     DCD    536871128
        0x00006d80:    00000674    t...    DCD    1652
        0x00006d84:    00005b94    .[..    DCD    23444
    Region$$Table$$Limit

** Section #2 'ER_RW' (SHT_PROGBITS) [SHF_ALLOC + SHF_WRITE]
    Size   : 216 bytes (alignment 4)
    Address: 0x20000000


** Section #3 'ER_ZI' (SHT_NOBITS) [SHF_ALLOC + SHF_WRITE]
    Size   : 1652 bytes (alignment 4)
    Address: 0x200000d8


** Section #4 '.debug_abbrev' (SHT_PROGBITS)
    Size   : 1476 bytes


** Section #5 '.debug_frame' (SHT_PROGBITS)
    Size   : 6644 bytes


** Section #6 '.debug_info' (SHT_PROGBITS)
    Size   : 58532 bytes


** Section #7 '.debug_line' (SHT_PROGBITS)
    Size   : 24164 bytes


** Section #8 '.debug_loc' (SHT_PROGBITS)
    Size   : 13292 bytes


** Section #9 '.debug_macinfo' (SHT_PROGBITS)
    Size   : 159432 bytes


** Section #10 '.debug_pubnames' (SHT_PROGBITS)
    Size   : 5191 bytes


** Section #11 '.symtab' (SHT_SYMTAB)
    Size   : 13696 bytes (alignment 4)
    String table #12 '.strtab'
    Last local symbol no. 497


** Section #12 '.strtab' (SHT_STRTAB)
    Size   : 10168 bytes


** Section #13 '.note' (SHT_NOTE)
    Size   : 28 bytes (alignment 4)


** Section #14 '.comment' (SHT_PROGBITS)
    Size   : 55484 bytes


** Section #15 '.shstrtab' (SHT_STRTAB)
    Size   : 156 bytes


